
_build/nrf52810_xxaa.out:     file format elf32-littlearm


Disassembly of section .text:

00019000 <__isr_vector>:
   19000:	20006000 	.word	0x20006000
   19004:	000192bd 	.word	0x000192bd
   19008:	00019311 	.word	0x00019311
   1900c:	00019313 	.word	0x00019313
   19010:	00019315 	.word	0x00019315
   19014:	00019317 	.word	0x00019317
   19018:	00019319 	.word	0x00019319
	...
   1902c:	0001931b 	.word	0x0001931b
   19030:	0001931d 	.word	0x0001931d
   19034:	00000000 	.word	0x00000000
   19038:	0001931f 	.word	0x0001931f
   1903c:	00019321 	.word	0x00019321
   19040:	00019fc9 	.word	0x00019fc9
   19044:	00019323 	.word	0x00019323
   19048:	00019323 	.word	0x00019323
   1904c:	00019323 	.word	0x00019323
   19050:	00019323 	.word	0x00019323
   19054:	00000000 	.word	0x00000000
   19058:	0001a035 	.word	0x0001a035
   1905c:	00019323 	.word	0x00019323
   19060:	00019323 	.word	0x00019323
   19064:	00019323 	.word	0x00019323
   19068:	00019323 	.word	0x00019323
   1906c:	00019323 	.word	0x00019323
   19070:	00019323 	.word	0x00019323
   19074:	00019323 	.word	0x00019323
   19078:	00019323 	.word	0x00019323
   1907c:	00019323 	.word	0x00019323
   19080:	00019323 	.word	0x00019323
   19084:	00019aa9 	.word	0x00019aa9
   19088:	00019323 	.word	0x00019323
   1908c:	00019323 	.word	0x00019323
   19090:	00019323 	.word	0x00019323
   19094:	00019323 	.word	0x00019323
   19098:	0001bb15 	.word	0x0001bb15
   1909c:	00019323 	.word	0x00019323
   190a0:	00019323 	.word	0x00019323
   190a4:	00019323 	.word	0x00019323
	...
   190b0:	00019323 	.word	0x00019323
   190b4:	00019323 	.word	0x00019323
	...

00019200 <__do_global_dtors_aux>:
   19200:	b510      	push	{r4, lr}
   19202:	4c05      	ldr	r4, [pc, #20]	; (19218 <__do_global_dtors_aux+0x18>)
   19204:	7823      	ldrb	r3, [r4, #0]
   19206:	b933      	cbnz	r3, 19216 <__do_global_dtors_aux+0x16>
   19208:	4b04      	ldr	r3, [pc, #16]	; (1921c <__do_global_dtors_aux+0x1c>)
   1920a:	b113      	cbz	r3, 19212 <__do_global_dtors_aux+0x12>
   1920c:	4804      	ldr	r0, [pc, #16]	; (19220 <__do_global_dtors_aux+0x20>)
   1920e:	f3af 8000 	nop.w
   19212:	2301      	movs	r3, #1
   19214:	7023      	strb	r3, [r4, #0]
   19216:	bd10      	pop	{r4, pc}
   19218:	200011b8 	.word	0x200011b8
   1921c:	00000000 	.word	0x00000000
   19220:	0001daac 	.word	0x0001daac

00019224 <frame_dummy>:
   19224:	b508      	push	{r3, lr}
   19226:	4b03      	ldr	r3, [pc, #12]	; (19234 <frame_dummy+0x10>)
   19228:	b11b      	cbz	r3, 19232 <frame_dummy+0xe>
   1922a:	4903      	ldr	r1, [pc, #12]	; (19238 <frame_dummy+0x14>)
   1922c:	4803      	ldr	r0, [pc, #12]	; (1923c <frame_dummy+0x18>)
   1922e:	f3af 8000 	nop.w
   19232:	bd08      	pop	{r3, pc}
   19234:	00000000 	.word	0x00000000
   19238:	200011bc 	.word	0x200011bc
   1923c:	0001daac 	.word	0x0001daac

00019240 <_stack_init>:
   19240:	f5a3 3a80 	sub.w	sl, r3, #65536	; 0x10000
   19244:	4770      	bx	lr
   19246:	bf00      	nop

00019248 <_mainCRTStartup>:
   19248:	4b17      	ldr	r3, [pc, #92]	; (192a8 <_mainCRTStartup+0x60>)
   1924a:	2b00      	cmp	r3, #0
   1924c:	bf08      	it	eq
   1924e:	4b13      	ldreq	r3, [pc, #76]	; (1929c <_mainCRTStartup+0x54>)
   19250:	469d      	mov	sp, r3
   19252:	f7ff fff5 	bl	19240 <_stack_init>
   19256:	2100      	movs	r1, #0
   19258:	468b      	mov	fp, r1
   1925a:	460f      	mov	r7, r1
   1925c:	4813      	ldr	r0, [pc, #76]	; (192ac <_mainCRTStartup+0x64>)
   1925e:	4a14      	ldr	r2, [pc, #80]	; (192b0 <_mainCRTStartup+0x68>)
   19260:	1a12      	subs	r2, r2, r0
   19262:	f002 fd6f 	bl	1bd44 <memset>
   19266:	4b0e      	ldr	r3, [pc, #56]	; (192a0 <_mainCRTStartup+0x58>)
   19268:	2b00      	cmp	r3, #0
   1926a:	d000      	beq.n	1926e <_mainCRTStartup+0x26>
   1926c:	4798      	blx	r3
   1926e:	4b0d      	ldr	r3, [pc, #52]	; (192a4 <_mainCRTStartup+0x5c>)
   19270:	2b00      	cmp	r3, #0
   19272:	d000      	beq.n	19276 <_mainCRTStartup+0x2e>
   19274:	4798      	blx	r3
   19276:	2000      	movs	r0, #0
   19278:	2100      	movs	r1, #0
   1927a:	0004      	movs	r4, r0
   1927c:	000d      	movs	r5, r1
   1927e:	480d      	ldr	r0, [pc, #52]	; (192b4 <_mainCRTStartup+0x6c>)
   19280:	2800      	cmp	r0, #0
   19282:	d002      	beq.n	1928a <_mainCRTStartup+0x42>
   19284:	480c      	ldr	r0, [pc, #48]	; (192b8 <_mainCRTStartup+0x70>)
   19286:	f3af 8000 	nop.w
   1928a:	f002 fd29 	bl	1bce0 <__libc_init_array>
   1928e:	0020      	movs	r0, r4
   19290:	0029      	movs	r1, r5
   19292:	f002 f9f1 	bl	1b678 <main>
   19296:	f002 fd0f 	bl	1bcb8 <exit>
   1929a:	bf00      	nop
   1929c:	00080000 	.word	0x00080000
	...
   192a8:	20006000 	.word	0x20006000
   192ac:	200011b8 	.word	0x200011b8
   192b0:	20001664 	.word	0x20001664
	...

000192bc <Reset_Handler>:
   192bc:	480e      	ldr	r0, [pc, #56]	; (192f8 <skip+0x1a>)
   192be:	6800      	ldr	r0, [r0, #0]
   192c0:	490e      	ldr	r1, [pc, #56]	; (192fc <skip+0x1e>)
   192c2:	6809      	ldr	r1, [r1, #0]
   192c4:	280a      	cmp	r0, #10
   192c6:	d10a      	bne.n	192de <skip>
   192c8:	2900      	cmp	r1, #0
   192ca:	d108      	bne.n	192de <skip>
   192cc:	480c      	ldr	r0, [pc, #48]	; (19300 <skip+0x22>)
   192ce:	6802      	ldr	r2, [r0, #0]
   192d0:	f06f 0370 	mvn.w	r3, #112	; 0x70
   192d4:	401a      	ands	r2, r3
   192d6:	f04f 0340 	mov.w	r3, #64	; 0x40
   192da:	431a      	orrs	r2, r3
   192dc:	6002      	str	r2, [r0, #0]

000192de <skip>:
   192de:	4909      	ldr	r1, [pc, #36]	; (19304 <skip+0x26>)
   192e0:	4a09      	ldr	r2, [pc, #36]	; (19308 <skip+0x2a>)
   192e2:	4b0a      	ldr	r3, [pc, #40]	; (1930c <skip+0x2e>)
   192e4:	1a9b      	subs	r3, r3, r2
   192e6:	dd03      	ble.n	192f0 <skip+0x12>
   192e8:	3b04      	subs	r3, #4
   192ea:	58c8      	ldr	r0, [r1, r3]
   192ec:	50d0      	str	r0, [r2, r3]
   192ee:	dcfb      	bgt.n	192e8 <skip+0xa>
   192f0:	f000 fcde 	bl	19cb0 <SystemInit>
   192f4:	f7ff ffa8 	bl	19248 <_mainCRTStartup>
   192f8:	10000130 	.word	0x10000130
   192fc:	10000134 	.word	0x10000134
   19300:	40000ee4 	.word	0x40000ee4
   19304:	0001dc70 	.word	0x0001dc70
   19308:	20001118 	.word	0x20001118
   1930c:	200011b8 	.word	0x200011b8

00019310 <NMI_Handler>:
   19310:	e7fe      	b.n	19310 <NMI_Handler>

00019312 <HardFault_Handler>:
   19312:	e7fe      	b.n	19312 <HardFault_Handler>

00019314 <MemoryManagement_Handler>:
   19314:	e7fe      	b.n	19314 <MemoryManagement_Handler>

00019316 <BusFault_Handler>:
   19316:	e7fe      	b.n	19316 <BusFault_Handler>

00019318 <UsageFault_Handler>:
   19318:	e7fe      	b.n	19318 <UsageFault_Handler>

0001931a <SVC_Handler>:
   1931a:	e7fe      	b.n	1931a <SVC_Handler>

0001931c <DebugMon_Handler>:
   1931c:	e7fe      	b.n	1931c <DebugMon_Handler>

0001931e <PendSV_Handler>:
   1931e:	e7fe      	b.n	1931e <PendSV_Handler>

00019320 <SysTick_Handler>:
   19320:	e7fe      	b.n	19320 <SysTick_Handler>

00019322 <Default_Handler>:
   19322:	e7fe      	b.n	19322 <Default_Handler>

00019324 <app_error_handler_bare>:
   19324:	b500      	push	{lr}
   19326:	b085      	sub	sp, #20
   19328:	4603      	mov	r3, r0
   1932a:	2100      	movs	r1, #0
   1932c:	aa01      	add	r2, sp, #4
   1932e:	f244 0001 	movw	r0, #16385	; 0x4001
   19332:	e9cd 1101 	strd	r1, r1, [sp, #4]
   19336:	9303      	str	r3, [sp, #12]
   19338:	f000 f804 	bl	19344 <app_error_fault_handler>
   1933c:	b005      	add	sp, #20
   1933e:	f85d fb04 	ldr.w	pc, [sp], #4
   19342:	bf00      	nop

00019344 <app_error_fault_handler>:
   19344:	b672      	cpsid	i
   19346:	4b09      	ldr	r3, [pc, #36]	; (1936c <app_error_fault_handler+0x28>)
   19348:	681b      	ldr	r3, [r3, #0]
   1934a:	07db      	lsls	r3, r3, #31
   1934c:	d500      	bpl.n	19350 <app_error_fault_handler+0xc>
   1934e:	be00      	bkpt	0x0000
   19350:	f3bf 8f4f 	dsb	sy
   19354:	4906      	ldr	r1, [pc, #24]	; (19370 <app_error_fault_handler+0x2c>)
   19356:	4b07      	ldr	r3, [pc, #28]	; (19374 <app_error_fault_handler+0x30>)
   19358:	68ca      	ldr	r2, [r1, #12]
   1935a:	f402 62e0 	and.w	r2, r2, #1792	; 0x700
   1935e:	4313      	orrs	r3, r2
   19360:	60cb      	str	r3, [r1, #12]
   19362:	f3bf 8f4f 	dsb	sy
   19366:	bf00      	nop
   19368:	e7fd      	b.n	19366 <app_error_fault_handler+0x22>
   1936a:	bf00      	nop
   1936c:	e000edf0 	.word	0xe000edf0
   19370:	e000ed00 	.word	0xe000ed00
   19374:	05fa0004 	.word	0x05fa0004

00019378 <compare_func>:
   19378:	e9d0 2302 	ldrd	r2, r3, [r0, #8]
   1937c:	e9d1 0102 	ldrd	r0, r1, [r1, #8]
   19380:	4299      	cmp	r1, r3
   19382:	bf08      	it	eq
   19384:	4290      	cmpeq	r0, r2
   19386:	bf2c      	ite	cs
   19388:	2001      	movcs	r0, #1
   1938a:	2000      	movcc	r0, #0
   1938c:	4770      	bx	lr
   1938e:	bf00      	nop

00019390 <rtc_irq>:
   19390:	e92d 4ff0 	stmdb	sp!, {r4, r5, r6, r7, r8, r9, sl, fp, lr}
   19394:	b087      	sub	sp, #28
   19396:	4606      	mov	r6, r0
   19398:	f000 fb46 	bl	19a28 <drv_rtc_overflow_pending>
   1939c:	b140      	cbz	r0, 193b0 <rtc_irq+0x20>
   1939e:	4a97      	ldr	r2, [pc, #604]	; (195fc <rtc_irq+0x26c>)
   193a0:	e9d2 3100 	ldrd	r3, r1, [r2]
   193a4:	f113 7380 	adds.w	r3, r3, #16777216	; 0x1000000
   193a8:	f141 0100 	adc.w	r1, r1, #0
   193ac:	e9c2 3100 	strd	r3, r1, [r2]
   193b0:	2100      	movs	r1, #0
   193b2:	4630      	mov	r0, r6
   193b4:	f000 fb54 	bl	19a60 <drv_rtc_compare_pending>
   193b8:	4c91      	ldr	r4, [pc, #580]	; (19600 <rtc_irq+0x270>)
   193ba:	b160      	cbz	r0, 193d6 <rtc_irq+0x46>
   193bc:	6823      	ldr	r3, [r4, #0]
   193be:	b153      	cbz	r3, 193d6 <rtc_irq+0x46>
   193c0:	4b90      	ldr	r3, [pc, #576]	; (19604 <rtc_irq+0x274>)
   193c2:	6825      	ldr	r5, [r4, #0]
   193c4:	781b      	ldrb	r3, [r3, #0]
   193c6:	b123      	cbz	r3, 193d2 <rtc_irq+0x42>
   193c8:	b11d      	cbz	r5, 193d2 <rtc_irq+0x42>
   193ca:	7f2b      	ldrb	r3, [r5, #28]
   193cc:	2b00      	cmp	r3, #0
   193ce:	f040 8125 	bne.w	1961c <rtc_irq+0x28c>
   193d2:	2300      	movs	r3, #0
   193d4:	6023      	str	r3, [r4, #0]
   193d6:	2101      	movs	r1, #1
   193d8:	4630      	mov	r0, r6
   193da:	f000 fb41 	bl	19a60 <drv_rtc_compare_pending>
   193de:	2800      	cmp	r0, #0
   193e0:	f040 80ef 	bne.w	195c2 <rtc_irq+0x232>
   193e4:	4888      	ldr	r0, [pc, #544]	; (19608 <rtc_irq+0x278>)
   193e6:	a905      	add	r1, sp, #20
   193e8:	f000 fbbc 	bl	19b64 <nrf_atfifo_item_get>
   193ec:	b378      	cbz	r0, 1944e <rtc_irq+0xbe>
   193ee:	4d87      	ldr	r5, [pc, #540]	; (1960c <rtc_irq+0x27c>)
   193f0:	f8df 8210 	ldr.w	r8, [pc, #528]	; 19604 <rtc_irq+0x274>
   193f4:	4f84      	ldr	r7, [pc, #528]	; (19608 <rtc_irq+0x278>)
   193f6:	e00b      	b.n	19410 <rtc_irq+0x80>
   193f8:	2b00      	cmp	r3, #0
   193fa:	f000 80c9 	beq.w	19590 <rtc_irq+0x200>
   193fe:	a905      	add	r1, sp, #20
   19400:	4638      	mov	r0, r7
   19402:	f000 fbdf 	bl	19bc4 <nrf_atfifo_item_free>
   19406:	a905      	add	r1, sp, #20
   19408:	4638      	mov	r0, r7
   1940a:	f000 fbab 	bl	19b64 <nrf_atfifo_item_get>
   1940e:	b1f0      	cbz	r0, 1944e <rtc_irq+0xbe>
   19410:	7803      	ldrb	r3, [r0, #0]
   19412:	2b01      	cmp	r3, #1
   19414:	d012      	beq.n	1943c <rtc_irq+0xac>
   19416:	2b02      	cmp	r3, #2
   19418:	d1ee      	bne.n	193f8 <rtc_irq+0x68>
   1941a:	4628      	mov	r0, r5
   1941c:	f04f 0900 	mov.w	r9, #0
   19420:	f000 fc2e 	bl	19c80 <nrf_sortlist_pop>
   19424:	b130      	cbz	r0, 19434 <rtc_irq+0xa4>
   19426:	f880 901c 	strb.w	r9, [r0, #28]
   1942a:	4628      	mov	r0, r5
   1942c:	f000 fc28 	bl	19c80 <nrf_sortlist_pop>
   19430:	2800      	cmp	r0, #0
   19432:	d1f8      	bne.n	19426 <rtc_irq+0x96>
   19434:	2301      	movs	r3, #1
   19436:	f888 3000 	strb.w	r3, [r8]
   1943a:	e7e0      	b.n	193fe <rtc_irq+0x6e>
   1943c:	6841      	ldr	r1, [r0, #4]
   1943e:	6823      	ldr	r3, [r4, #0]
   19440:	4299      	cmp	r1, r3
   19442:	f000 80b5 	beq.w	195b0 <rtc_irq+0x220>
   19446:	4628      	mov	r0, r5
   19448:	f000 fc24 	bl	19c94 <nrf_sortlist_remove>
   1944c:	e7d7      	b.n	193fe <rtc_irq+0x6e>
   1944e:	f8df 81bc 	ldr.w	r8, [pc, #444]	; 1960c <rtc_irq+0x27c>
   19452:	4f6f      	ldr	r7, [pc, #444]	; (19610 <rtc_irq+0x280>)
   19454:	f8df 91a4 	ldr.w	r9, [pc, #420]	; 195fc <rtc_irq+0x26c>
   19458:	e038      	b.n	194cc <rtc_irq+0x13c>
   1945a:	4640      	mov	r0, r8
   1945c:	f000 fc10 	bl	19c80 <nrf_sortlist_pop>
   19460:	4605      	mov	r5, r0
   19462:	e9d5 b302 	ldrd	fp, r3, [r5, #8]
   19466:	4638      	mov	r0, r7
   19468:	9303      	str	r3, [sp, #12]
   1946a:	f000 fb09 	bl	19a80 <drv_rtc_counter_get>
   1946e:	4602      	mov	r2, r0
   19470:	e9d9 0100 	ldrd	r0, r1, [r9]
   19474:	f8df a1a0 	ldr.w	sl, [pc, #416]	; 19618 <rtc_irq+0x288>
   19478:	1880      	adds	r0, r0, r2
   1947a:	e9da 2300 	ldrd	r2, r3, [sl]
   1947e:	f141 0100 	adc.w	r1, r1, #0
   19482:	4299      	cmp	r1, r3
   19484:	bf08      	it	eq
   19486:	4290      	cmpeq	r0, r2
   19488:	9b03      	ldr	r3, [sp, #12]
   1948a:	d203      	bcs.n	19494 <rtc_irq+0x104>
   1948c:	f110 7080 	adds.w	r0, r0, #16777216	; 0x1000000
   19490:	f141 0100 	adc.w	r1, r1, #0
   19494:	ebbb 0200 	subs.w	r2, fp, r0
   19498:	eb63 0301 	sbc.w	r3, r3, r1
   1949c:	9200      	str	r2, [sp, #0]
   1949e:	9301      	str	r3, [sp, #4]
   194a0:	e9dd 2300 	ldrd	r2, r3, [sp]
   194a4:	2a01      	cmp	r2, #1
   194a6:	f173 0100 	sbcs.w	r1, r3, #0
   194aa:	db29      	blt.n	19500 <rtc_irq+0x170>
   194ac:	f5b2 0f35 	cmp.w	r2, #11862016	; 0xb50000
   194b0:	d268      	bcs.n	19584 <rtc_irq+0x1f4>
   194b2:	68aa      	ldr	r2, [r5, #8]
   194b4:	f44f 0396 	mov.w	r3, #4915200	; 0x4b0000
   194b8:	2100      	movs	r1, #0
   194ba:	4638      	mov	r0, r7
   194bc:	f000 fa28 	bl	19910 <drv_rtc_windowed_compare_set>
   194c0:	2800      	cmp	r0, #0
   194c2:	d059      	beq.n	19578 <rtc_irq+0x1e8>
   194c4:	280d      	cmp	r0, #13
   194c6:	d01f      	beq.n	19508 <rtc_irq+0x178>
   194c8:	2300      	movs	r3, #0
   194ca:	6023      	str	r3, [r4, #0]
   194cc:	4640      	mov	r0, r8
   194ce:	f000 fbdd 	bl	19c8c <nrf_sortlist_peek>
   194d2:	6823      	ldr	r3, [r4, #0]
   194d4:	2800      	cmp	r0, #0
   194d6:	d06e      	beq.n	195b6 <rtc_irq+0x226>
   194d8:	2b00      	cmp	r3, #0
   194da:	d0be      	beq.n	1945a <rtc_irq+0xca>
   194dc:	6823      	ldr	r3, [r4, #0]
   194de:	e9d0 0102 	ldrd	r0, r1, [r0, #8]
   194e2:	e9d3 2302 	ldrd	r2, r3, [r3, #8]
   194e6:	4299      	cmp	r1, r3
   194e8:	bf08      	it	eq
   194ea:	4290      	cmpeq	r0, r2
   194ec:	d247      	bcs.n	1957e <rtc_irq+0x1ee>
   194ee:	6823      	ldr	r3, [r4, #0]
   194f0:	7f1b      	ldrb	r3, [r3, #28]
   194f2:	2b00      	cmp	r3, #0
   194f4:	d0b1      	beq.n	1945a <rtc_irq+0xca>
   194f6:	6821      	ldr	r1, [r4, #0]
   194f8:	4640      	mov	r0, r8
   194fa:	f000 fbad 	bl	19c58 <nrf_sortlist_add>
   194fe:	e7ac      	b.n	1945a <rtc_irq+0xca>
   19500:	2100      	movs	r1, #0
   19502:	4638      	mov	r0, r7
   19504:	f000 faa0 	bl	19a48 <drv_rtc_compare_disable>
   19508:	4b3e      	ldr	r3, [pc, #248]	; (19604 <rtc_irq+0x274>)
   1950a:	781b      	ldrb	r3, [r3, #0]
   1950c:	2b00      	cmp	r3, #0
   1950e:	d0db      	beq.n	194c8 <rtc_irq+0x138>
   19510:	7f2b      	ldrb	r3, [r5, #28]
   19512:	2b00      	cmp	r3, #0
   19514:	d0d8      	beq.n	194c8 <rtc_irq+0x138>
   19516:	4638      	mov	r0, r7
   19518:	f000 fab2 	bl	19a80 <drv_rtc_counter_get>
   1951c:	e9da 2300 	ldrd	r2, r3, [sl]
   19520:	e9d9 ab00 	ldrd	sl, fp, [r9]
   19524:	eb1a 0a00 	adds.w	sl, sl, r0
   19528:	f14b 0b00 	adc.w	fp, fp, #0
   1952c:	459b      	cmp	fp, r3
   1952e:	bf08      	it	eq
   19530:	4592      	cmpeq	sl, r2
   19532:	d203      	bcs.n	1953c <rtc_irq+0x1ac>
   19534:	f11a 7a80 	adds.w	sl, sl, #16777216	; 0x1000000
   19538:	f14b 0b00 	adc.w	fp, fp, #0
   1953c:	e9d5 2302 	ldrd	r2, r3, [r5, #8]
   19540:	459b      	cmp	fp, r3
   19542:	bf08      	it	eq
   19544:	4592      	cmpeq	sl, r2
   19546:	d354      	bcc.n	195f2 <rtc_irq+0x262>
   19548:	692b      	ldr	r3, [r5, #16]
   1954a:	b903      	cbnz	r3, 1954e <rtc_irq+0x1be>
   1954c:	772b      	strb	r3, [r5, #28]
   1954e:	e9d5 3005 	ldrd	r3, r0, [r5, #20]
   19552:	4798      	blx	r3
   19554:	6929      	ldr	r1, [r5, #16]
   19556:	2900      	cmp	r1, #0
   19558:	d0b6      	beq.n	194c8 <rtc_irq+0x138>
   1955a:	7f2b      	ldrb	r3, [r5, #28]
   1955c:	2b00      	cmp	r3, #0
   1955e:	d0b3      	beq.n	194c8 <rtc_irq+0x138>
   19560:	e9d5 2302 	ldrd	r2, r3, [r5, #8]
   19564:	1852      	adds	r2, r2, r1
   19566:	f143 0300 	adc.w	r3, r3, #0
   1956a:	e9c5 2302 	strd	r2, r3, [r5, #8]
   1956e:	4629      	mov	r1, r5
   19570:	4640      	mov	r0, r8
   19572:	f000 fb71 	bl	19c58 <nrf_sortlist_add>
   19576:	e7a7      	b.n	194c8 <rtc_irq+0x138>
   19578:	6823      	ldr	r3, [r4, #0]
   1957a:	b1ab      	cbz	r3, 195a8 <rtc_irq+0x218>
   1957c:	6025      	str	r5, [r4, #0]
   1957e:	b007      	add	sp, #28
   19580:	e8bd 8ff0 	ldmia.w	sp!, {r4, r5, r6, r7, r8, r9, sl, fp, pc}
   19584:	4638      	mov	r0, r7
   19586:	f000 fa7b 	bl	19a80 <drv_rtc_counter_get>
   1958a:	4a22      	ldr	r2, [pc, #136]	; (19614 <rtc_irq+0x284>)
   1958c:	4402      	add	r2, r0
   1958e:	e791      	b.n	194b4 <rtc_irq+0x124>
   19590:	6843      	ldr	r3, [r0, #4]
   19592:	7f1a      	ldrb	r2, [r3, #28]
   19594:	2a00      	cmp	r2, #0
   19596:	f47f af32 	bne.w	193fe <rtc_irq+0x6e>
   1959a:	2201      	movs	r2, #1
   1959c:	771a      	strb	r2, [r3, #28]
   1959e:	6841      	ldr	r1, [r0, #4]
   195a0:	4628      	mov	r0, r5
   195a2:	f000 fb59 	bl	19c58 <nrf_sortlist_add>
   195a6:	e72a      	b.n	193fe <rtc_irq+0x6e>
   195a8:	4630      	mov	r0, r6
   195aa:	f000 f983 	bl	198b4 <drv_rtc_start>
   195ae:	e7e5      	b.n	1957c <rtc_irq+0x1ec>
   195b0:	2300      	movs	r3, #0
   195b2:	6023      	str	r3, [r4, #0]
   195b4:	e723      	b.n	193fe <rtc_irq+0x6e>
   195b6:	2b00      	cmp	r3, #0
   195b8:	d1e1      	bne.n	1957e <rtc_irq+0x1ee>
   195ba:	4630      	mov	r0, r6
   195bc:	f000 f97e 	bl	198bc <drv_rtc_stop>
   195c0:	e7dd      	b.n	1957e <rtc_irq+0x1ee>
   195c2:	4813      	ldr	r0, [pc, #76]	; (19610 <rtc_irq+0x280>)
   195c4:	4d14      	ldr	r5, [pc, #80]	; (19618 <rtc_irq+0x288>)
   195c6:	f000 fa5b 	bl	19a80 <drv_rtc_counter_get>
   195ca:	4b0c      	ldr	r3, [pc, #48]	; (195fc <rtc_irq+0x26c>)
   195cc:	e9d3 8900 	ldrd	r8, r9, [r3]
   195d0:	e9d5 2300 	ldrd	r2, r3, [r5]
   195d4:	eb18 0800 	adds.w	r8, r8, r0
   195d8:	f149 0900 	adc.w	r9, r9, #0
   195dc:	4599      	cmp	r9, r3
   195de:	bf08      	it	eq
   195e0:	4590      	cmpeq	r8, r2
   195e2:	d203      	bcs.n	195ec <rtc_irq+0x25c>
   195e4:	f118 7880 	adds.w	r8, r8, #16777216	; 0x1000000
   195e8:	f149 0900 	adc.w	r9, r9, #0
   195ec:	e9c5 8900 	strd	r8, r9, [r5]
   195f0:	e6f8      	b.n	193e4 <rtc_irq+0x54>
   195f2:	4629      	mov	r1, r5
   195f4:	4640      	mov	r0, r8
   195f6:	f000 fb2f 	bl	19c58 <nrf_sortlist_add>
   195fa:	e765      	b.n	194c8 <rtc_irq+0x138>
   195fc:	200011d8 	.word	0x200011d8
   19600:	20001258 	.word	0x20001258
   19604:	200011e0 	.word	0x200011e0
   19608:	2000123c 	.word	0x2000123c
   1960c:	0001d654 	.word	0x0001d654
   19610:	20001118 	.word	0x20001118
   19614:	00b4ffff 	.word	0x00b4ffff
   19618:	20001250 	.word	0x20001250
   1961c:	481c      	ldr	r0, [pc, #112]	; (19690 <rtc_irq+0x300>)
   1961e:	f000 fa2f 	bl	19a80 <drv_rtc_counter_get>
   19622:	4a1c      	ldr	r2, [pc, #112]	; (19694 <rtc_irq+0x304>)
   19624:	4b1c      	ldr	r3, [pc, #112]	; (19698 <rtc_irq+0x308>)
   19626:	e9d2 8900 	ldrd	r8, r9, [r2]
   1962a:	e9d3 2300 	ldrd	r2, r3, [r3]
   1962e:	eb18 0800 	adds.w	r8, r8, r0
   19632:	f149 0900 	adc.w	r9, r9, #0
   19636:	4599      	cmp	r9, r3
   19638:	bf08      	it	eq
   1963a:	4590      	cmpeq	r8, r2
   1963c:	d203      	bcs.n	19646 <rtc_irq+0x2b6>
   1963e:	f118 7880 	adds.w	r8, r8, #16777216	; 0x1000000
   19642:	f149 0900 	adc.w	r9, r9, #0
   19646:	e9d5 2302 	ldrd	r2, r3, [r5, #8]
   1964a:	4599      	cmp	r9, r3
   1964c:	bf08      	it	eq
   1964e:	4590      	cmpeq	r8, r2
   19650:	d319      	bcc.n	19686 <rtc_irq+0x2f6>
   19652:	692b      	ldr	r3, [r5, #16]
   19654:	b903      	cbnz	r3, 19658 <rtc_irq+0x2c8>
   19656:	772b      	strb	r3, [r5, #28]
   19658:	e9d5 3005 	ldrd	r3, r0, [r5, #20]
   1965c:	4798      	blx	r3
   1965e:	6929      	ldr	r1, [r5, #16]
   19660:	2900      	cmp	r1, #0
   19662:	f43f aeb6 	beq.w	193d2 <rtc_irq+0x42>
   19666:	7f2b      	ldrb	r3, [r5, #28]
   19668:	2b00      	cmp	r3, #0
   1966a:	f43f aeb2 	beq.w	193d2 <rtc_irq+0x42>
   1966e:	e9d5 2302 	ldrd	r2, r3, [r5, #8]
   19672:	1852      	adds	r2, r2, r1
   19674:	f143 0300 	adc.w	r3, r3, #0
   19678:	e9c5 2302 	strd	r2, r3, [r5, #8]
   1967c:	4807      	ldr	r0, [pc, #28]	; (1969c <rtc_irq+0x30c>)
   1967e:	4629      	mov	r1, r5
   19680:	f000 faea 	bl	19c58 <nrf_sortlist_add>
   19684:	e6a5      	b.n	193d2 <rtc_irq+0x42>
   19686:	4805      	ldr	r0, [pc, #20]	; (1969c <rtc_irq+0x30c>)
   19688:	4629      	mov	r1, r5
   1968a:	f000 fae5 	bl	19c58 <nrf_sortlist_add>
   1968e:	e6a0      	b.n	193d2 <rtc_irq+0x42>
   19690:	20001118 	.word	0x20001118
   19694:	200011d8 	.word	0x200011d8
   19698:	20001250 	.word	0x20001250
   1969c:	0001d654 	.word	0x0001d654

000196a0 <app_timer_init>:
   196a0:	b510      	push	{r4, lr}
   196a2:	4b13      	ldr	r3, [pc, #76]	; (196f0 <app_timer_init+0x50>)
   196a4:	4913      	ldr	r1, [pc, #76]	; (196f4 <app_timer_init+0x54>)
   196a6:	681b      	ldr	r3, [r3, #0]
   196a8:	4813      	ldr	r0, [pc, #76]	; (196f8 <app_timer_init+0x58>)
   196aa:	b082      	sub	sp, #8
   196ac:	2258      	movs	r2, #88	; 0x58
   196ae:	9301      	str	r3, [sp, #4]
   196b0:	2308      	movs	r3, #8
   196b2:	f000 fa03 	bl	19abc <nrf_atfifo_init>
   196b6:	4604      	mov	r4, r0
   196b8:	b110      	cbz	r0, 196c0 <app_timer_init+0x20>
   196ba:	4620      	mov	r0, r4
   196bc:	b002      	add	sp, #8
   196be:	bd10      	pop	{r4, pc}
   196c0:	4a0e      	ldr	r2, [pc, #56]	; (196fc <app_timer_init+0x5c>)
   196c2:	480f      	ldr	r0, [pc, #60]	; (19700 <app_timer_init+0x60>)
   196c4:	a901      	add	r1, sp, #4
   196c6:	f000 f8b3 	bl	19830 <drv_rtc_init>
   196ca:	4604      	mov	r4, r0
   196cc:	2800      	cmp	r0, #0
   196ce:	d1f4      	bne.n	196ba <app_timer_init+0x1a>
   196d0:	480b      	ldr	r0, [pc, #44]	; (19700 <app_timer_init+0x60>)
   196d2:	2101      	movs	r1, #1
   196d4:	f000 f99e 	bl	19a14 <drv_rtc_overflow_enable>
   196d8:	2301      	movs	r3, #1
   196da:	4619      	mov	r1, r3
   196dc:	4a09      	ldr	r2, [pc, #36]	; (19704 <app_timer_init+0x64>)
   196de:	4808      	ldr	r0, [pc, #32]	; (19700 <app_timer_init+0x60>)
   196e0:	f000 f8f0 	bl	198c4 <drv_rtc_compare_set>
   196e4:	4b08      	ldr	r3, [pc, #32]	; (19708 <app_timer_init+0x68>)
   196e6:	2201      	movs	r2, #1
   196e8:	4620      	mov	r0, r4
   196ea:	701a      	strb	r2, [r3, #0]
   196ec:	b002      	add	sp, #8
   196ee:	bd10      	pop	{r4, pc}
   196f0:	0001d650 	.word	0x0001d650
   196f4:	200011e4 	.word	0x200011e4
   196f8:	2000123c 	.word	0x2000123c
   196fc:	00019391 	.word	0x00019391
   19700:	20001118 	.word	0x20001118
   19704:	007fffff 	.word	0x007fffff
   19708:	200011e0 	.word	0x200011e0

0001970c <app_timer_create>:
   1970c:	b14a      	cbz	r2, 19722 <app_timer_create+0x16>
   1970e:	f1a1 0101 	sub.w	r1, r1, #1
   19712:	6803      	ldr	r3, [r0, #0]
   19714:	fab1 f181 	clz	r1, r1
   19718:	0949      	lsrs	r1, r1, #5
   1971a:	e9c3 1204 	strd	r1, r2, [r3, #16]
   1971e:	2000      	movs	r0, #0
   19720:	4770      	bx	lr
   19722:	2007      	movs	r0, #7
   19724:	4770      	bx	lr
   19726:	bf00      	nop

00019728 <app_timer_start>:
   19728:	7f03      	ldrb	r3, [r0, #28]
   1972a:	b10b      	cbz	r3, 19730 <app_timer_start+0x8>
   1972c:	2000      	movs	r0, #0
   1972e:	4770      	bx	lr
   19730:	b5f0      	push	{r4, r5, r6, r7, lr}
   19732:	6182      	str	r2, [r0, #24]
   19734:	b083      	sub	sp, #12
   19736:	4604      	mov	r4, r0
   19738:	481a      	ldr	r0, [pc, #104]	; (197a4 <app_timer_start+0x7c>)
   1973a:	460d      	mov	r5, r1
   1973c:	f000 f9a0 	bl	19a80 <drv_rtc_counter_get>
   19740:	4b19      	ldr	r3, [pc, #100]	; (197a8 <app_timer_start+0x80>)
   19742:	491a      	ldr	r1, [pc, #104]	; (197ac <app_timer_start+0x84>)
   19744:	e9d3 2300 	ldrd	r2, r3, [r3]
   19748:	e9d1 6700 	ldrd	r6, r7, [r1]
   1974c:	1812      	adds	r2, r2, r0
   1974e:	f143 0300 	adc.w	r3, r3, #0
   19752:	42bb      	cmp	r3, r7
   19754:	bf08      	it	eq
   19756:	42b2      	cmpeq	r2, r6
   19758:	d203      	bcs.n	19762 <app_timer_start+0x3a>
   1975a:	f112 7280 	adds.w	r2, r2, #16777216	; 0x1000000
   1975e:	f143 0300 	adc.w	r3, r3, #0
   19762:	1952      	adds	r2, r2, r5
   19764:	6921      	ldr	r1, [r4, #16]
   19766:	f143 0300 	adc.w	r3, r3, #0
   1976a:	e9c4 2302 	strd	r2, r3, [r4, #8]
   1976e:	b101      	cbz	r1, 19772 <app_timer_start+0x4a>
   19770:	6125      	str	r5, [r4, #16]
   19772:	480f      	ldr	r0, [pc, #60]	; (197b0 <app_timer_start+0x88>)
   19774:	a901      	add	r1, sp, #4
   19776:	f000 f9b7 	bl	19ae8 <nrf_atfifo_item_alloc>
   1977a:	b148      	cbz	r0, 19790 <app_timer_start+0x68>
   1977c:	2500      	movs	r5, #0
   1977e:	6044      	str	r4, [r0, #4]
   19780:	7005      	strb	r5, [r0, #0]
   19782:	a901      	add	r1, sp, #4
   19784:	480a      	ldr	r0, [pc, #40]	; (197b0 <app_timer_start+0x88>)
   19786:	f000 f9dd 	bl	19b44 <nrf_atfifo_item_put>
   1978a:	b920      	cbnz	r0, 19796 <app_timer_start+0x6e>
   1978c:	b003      	add	sp, #12
   1978e:	bdf0      	pop	{r4, r5, r6, r7, pc}
   19790:	2004      	movs	r0, #4
   19792:	b003      	add	sp, #12
   19794:	bdf0      	pop	{r4, r5, r6, r7, pc}
   19796:	4803      	ldr	r0, [pc, #12]	; (197a4 <app_timer_start+0x7c>)
   19798:	f000 f976 	bl	19a88 <drv_rtc_irq_trigger>
   1979c:	4628      	mov	r0, r5
   1979e:	b003      	add	sp, #12
   197a0:	bdf0      	pop	{r4, r5, r6, r7, pc}
   197a2:	bf00      	nop
   197a4:	20001118 	.word	0x20001118
   197a8:	200011d8 	.word	0x200011d8
   197ac:	20001250 	.word	0x20001250
   197b0:	2000123c 	.word	0x2000123c

000197b4 <app_util_critical_region_enter>:
   197b4:	b470      	push	{r4, r5, r6}
   197b6:	f3ef 8410 	mrs	r4, PRIMASK
   197ba:	b672      	cpsid	i
   197bc:	4b0d      	ldr	r3, [pc, #52]	; (197f4 <app_util_critical_region_enter+0x40>)
   197be:	689a      	ldr	r2, [r3, #8]
   197c0:	b9aa      	cbnz	r2, 197ee <app_util_critical_region_enter+0x3a>
   197c2:	490d      	ldr	r1, [pc, #52]	; (197f8 <app_util_critical_region_enter+0x44>)
   197c4:	4e0d      	ldr	r6, [pc, #52]	; (197fc <app_util_critical_region_enter+0x48>)
   197c6:	2501      	movs	r5, #1
   197c8:	609d      	str	r5, [r3, #8]
   197ca:	f8d1 5080 	ldr.w	r5, [r1, #128]	; 0x80
   197ce:	4035      	ands	r5, r6
   197d0:	601d      	str	r5, [r3, #0]
   197d2:	f8c1 6080 	str.w	r6, [r1, #128]	; 0x80
   197d6:	f8d1 5084 	ldr.w	r5, [r1, #132]	; 0x84
   197da:	605d      	str	r5, [r3, #4]
   197dc:	f04f 33ff 	mov.w	r3, #4294967295	; 0xffffffff
   197e0:	f8c1 3084 	str.w	r3, [r1, #132]	; 0x84
   197e4:	7002      	strb	r2, [r0, #0]
   197e6:	b904      	cbnz	r4, 197ea <app_util_critical_region_enter+0x36>
   197e8:	b662      	cpsie	i
   197ea:	bc70      	pop	{r4, r5, r6}
   197ec:	4770      	bx	lr
   197ee:	2301      	movs	r3, #1
   197f0:	7003      	strb	r3, [r0, #0]
   197f2:	e7f8      	b.n	197e6 <app_util_critical_region_enter+0x32>
   197f4:	200015d0 	.word	0x200015d0
   197f8:	e000e100 	.word	0xe000e100
   197fc:	bdff06fc 	.word	0xbdff06fc

00019800 <app_util_critical_region_exit>:
   19800:	4b09      	ldr	r3, [pc, #36]	; (19828 <app_util_critical_region_exit+0x28>)
   19802:	689a      	ldr	r2, [r3, #8]
   19804:	b172      	cbz	r2, 19824 <app_util_critical_region_exit+0x24>
   19806:	b968      	cbnz	r0, 19824 <app_util_critical_region_exit+0x24>
   19808:	b410      	push	{r4}
   1980a:	f3ef 8110 	mrs	r1, PRIMASK
   1980e:	b672      	cpsid	i
   19810:	4a06      	ldr	r2, [pc, #24]	; (1982c <app_util_critical_region_exit+0x2c>)
   19812:	681c      	ldr	r4, [r3, #0]
   19814:	6014      	str	r4, [r2, #0]
   19816:	685c      	ldr	r4, [r3, #4]
   19818:	6054      	str	r4, [r2, #4]
   1981a:	6098      	str	r0, [r3, #8]
   1981c:	b901      	cbnz	r1, 19820 <app_util_critical_region_exit+0x20>
   1981e:	b662      	cpsie	i
   19820:	bc10      	pop	{r4}
   19822:	4770      	bx	lr
   19824:	4770      	bx	lr
   19826:	bf00      	nop
   19828:	200015d0 	.word	0x200015d0
   1982c:	e000e100 	.word	0xe000e100

00019830 <drv_rtc_init>:
   19830:	b470      	push	{r4, r5, r6}
   19832:	4c1c      	ldr	r4, [pc, #112]	; (198a4 <drv_rtc_init+0x74>)
   19834:	7943      	ldrb	r3, [r0, #5]
   19836:	4e1c      	ldr	r6, [pc, #112]	; (198a8 <drv_rtc_init+0x78>)
   19838:	eb04 05c3 	add.w	r5, r4, r3, lsl #3
   1983c:	f846 2023 	str.w	r2, [r6, r3, lsl #2]
   19840:	792d      	ldrb	r5, [r5, #4]
   19842:	bb65      	cbnz	r5, 1989e <drv_rtc_init+0x6e>
   19844:	6803      	ldr	r3, [r0, #0]
   19846:	880a      	ldrh	r2, [r1, #0]
   19848:	f8c3 2508 	str.w	r2, [r3, #1288]	; 0x508
   1984c:	f990 3004 	ldrsb.w	r3, [r0, #4]
   19850:	788a      	ldrb	r2, [r1, #2]
   19852:	2b00      	cmp	r3, #0
   19854:	db1b      	blt.n	1988e <drv_rtc_init+0x5e>
   19856:	f103 4360 	add.w	r3, r3, #3758096384	; 0xe0000000
   1985a:	f503 4361 	add.w	r3, r3, #57600	; 0xe100
   1985e:	0152      	lsls	r2, r2, #5
   19860:	b2d2      	uxtb	r2, r2
   19862:	f883 2300 	strb.w	r2, [r3, #768]	; 0x300
   19866:	f990 3004 	ldrsb.w	r3, [r0, #4]
   1986a:	4d10      	ldr	r5, [pc, #64]	; (198ac <drv_rtc_init+0x7c>)
   1986c:	f003 021f 	and.w	r2, r3, #31
   19870:	2101      	movs	r1, #1
   19872:	095b      	lsrs	r3, r3, #5
   19874:	fa01 f202 	lsl.w	r2, r1, r2
   19878:	f845 2023 	str.w	r2, [r5, r3, lsl #2]
   1987c:	7943      	ldrb	r3, [r0, #5]
   1987e:	eb04 02c3 	add.w	r2, r4, r3, lsl #3
   19882:	f844 0033 	str.w	r0, [r4, r3, lsl #3]
   19886:	7111      	strb	r1, [r2, #4]
   19888:	2000      	movs	r0, #0
   1988a:	bc70      	pop	{r4, r5, r6}
   1988c:	4770      	bx	lr
   1988e:	4908      	ldr	r1, [pc, #32]	; (198b0 <drv_rtc_init+0x80>)
   19890:	f003 030f 	and.w	r3, r3, #15
   19894:	0152      	lsls	r2, r2, #5
   19896:	4419      	add	r1, r3
   19898:	b2d2      	uxtb	r2, r2
   1989a:	760a      	strb	r2, [r1, #24]
   1989c:	e7e3      	b.n	19866 <drv_rtc_init+0x36>
   1989e:	2008      	movs	r0, #8
   198a0:	bc70      	pop	{r4, r5, r6}
   198a2:	4770      	bx	lr
   198a4:	2000125c 	.word	0x2000125c
   198a8:	20001264 	.word	0x20001264
   198ac:	e000e100 	.word	0xe000e100
   198b0:	e000ecfc 	.word	0xe000ecfc

000198b4 <drv_rtc_start>:
   198b4:	6803      	ldr	r3, [r0, #0]
   198b6:	2201      	movs	r2, #1
   198b8:	601a      	str	r2, [r3, #0]
   198ba:	4770      	bx	lr

000198bc <drv_rtc_stop>:
   198bc:	6803      	ldr	r3, [r0, #0]
   198be:	2201      	movs	r2, #1
   198c0:	605a      	str	r2, [r3, #4]
   198c2:	4770      	bx	lr

000198c4 <drv_rtc_compare_set>:
   198c4:	b4f0      	push	{r4, r5, r6, r7}
   198c6:	6804      	ldr	r4, [r0, #0]
   198c8:	f44f 3580 	mov.w	r5, #65536	; 0x10000
   198cc:	408d      	lsls	r5, r1
   198ce:	f8c4 5308 	str.w	r5, [r4, #776]	; 0x308
   198d2:	6806      	ldr	r6, [r0, #0]
   198d4:	f101 0450 	add.w	r4, r1, #80	; 0x50
   198d8:	f8c6 5348 	str.w	r5, [r6, #840]	; 0x348
   198dc:	00a4      	lsls	r4, r4, #2
   198de:	6806      	ldr	r6, [r0, #0]
   198e0:	b2a4      	uxth	r4, r4
   198e2:	2700      	movs	r7, #0
   198e4:	5137      	str	r7, [r6, r4]
   198e6:	b082      	sub	sp, #8
   198e8:	5936      	ldr	r6, [r6, r4]
   198ea:	6804      	ldr	r4, [r0, #0]
   198ec:	9601      	str	r6, [sp, #4]
   198ee:	f501 71a8 	add.w	r1, r1, #336	; 0x150
   198f2:	f022 427f 	bic.w	r2, r2, #4278190080	; 0xff000000
   198f6:	9e01      	ldr	r6, [sp, #4]
   198f8:	f844 2021 	str.w	r2, [r4, r1, lsl #2]
   198fc:	6802      	ldr	r2, [r0, #0]
   198fe:	f8c2 5344 	str.w	r5, [r2, #836]	; 0x344
   19902:	b113      	cbz	r3, 1990a <drv_rtc_compare_set+0x46>
   19904:	6803      	ldr	r3, [r0, #0]
   19906:	f8c3 5304 	str.w	r5, [r3, #772]	; 0x304
   1990a:	b002      	add	sp, #8
   1990c:	bcf0      	pop	{r4, r5, r6, r7}
   1990e:	4770      	bx	lr

00019910 <drv_rtc_windowed_compare_set>:
   19910:	e92d 47f0 	stmdb	sp!, {r4, r5, r6, r7, r8, r9, sl, lr}
   19914:	460d      	mov	r5, r1
   19916:	f44f 3780 	mov.w	r7, #65536	; 0x10000
   1991a:	6801      	ldr	r1, [r0, #0]
   1991c:	40af      	lsls	r7, r5
   1991e:	f8c1 7348 	str.w	r7, [r1, #840]	; 0x348
   19922:	6801      	ldr	r1, [r0, #0]
   19924:	f8c1 7308 	str.w	r7, [r1, #776]	; 0x308
   19928:	6801      	ldr	r1, [r0, #0]
   1992a:	4604      	mov	r4, r0
   1992c:	eb01 0085 	add.w	r0, r1, r5, lsl #2
   19930:	f8d1 c504 	ldr.w	ip, [r1, #1284]	; 0x504
   19934:	f8d0 1540 	ldr.w	r1, [r0, #1344]	; 0x540
   19938:	f8c0 c540 	str.w	ip, [r0, #1344]	; 0x540
   1993c:	f105 0650 	add.w	r6, r5, #80	; 0x50
   19940:	00b6      	lsls	r6, r6, #2
   19942:	6820      	ldr	r0, [r4, #0]
   19944:	b2b6      	uxth	r6, r6
   19946:	f04f 0900 	mov.w	r9, #0
   1994a:	f840 9006 	str.w	r9, [r0, r6]
   1994e:	b082      	sub	sp, #8
   19950:	eba1 010c 	sub.w	r1, r1, ip
   19954:	5980      	ldr	r0, [r0, r6]
   19956:	9000      	str	r0, [sp, #0]
   19958:	f021 417f 	bic.w	r1, r1, #4278190080	; 0xff000000
   1995c:	2901      	cmp	r1, #1
   1995e:	469a      	mov	sl, r3
   19960:	f022 487f 	bic.w	r8, r2, #4278190080	; 0xff000000
   19964:	9b00      	ldr	r3, [sp, #0]
   19966:	d045      	beq.n	199f4 <drv_rtc_windowed_compare_set+0xe4>
   19968:	6823      	ldr	r3, [r4, #0]
   1996a:	f8d3 6504 	ldr.w	r6, [r3, #1284]	; 0x504
   1996e:	f8c3 7344 	str.w	r7, [r3, #836]	; 0x344
   19972:	eba8 0306 	sub.w	r3, r8, r6
   19976:	f023 437f 	bic.w	r3, r3, #4278190080	; 0xff000000
   1997a:	2b01      	cmp	r3, #1
   1997c:	f505 75a8 	add.w	r5, r5, #336	; 0x150
   19980:	d027      	beq.n	199d2 <drv_rtc_windowed_compare_set+0xc2>
   19982:	6823      	ldr	r3, [r4, #0]
   19984:	f843 8025 	str.w	r8, [r3, r5, lsl #2]
   19988:	6821      	ldr	r1, [r4, #0]
   1998a:	f8d1 0504 	ldr.w	r0, [r1, #1284]	; 0x504
   1998e:	eba8 0200 	sub.w	r2, r8, r0
   19992:	f1ca 13ff 	rsb	r3, sl, #16711935	; 0xff00ff
   19996:	3a01      	subs	r2, #1
   19998:	f503 437f 	add.w	r3, r3, #65280	; 0xff00
   1999c:	f022 427f 	bic.w	r2, r2, #4278190080	; 0xff000000
   199a0:	4293      	cmp	r3, r2
   199a2:	d312      	bcc.n	199ca <drv_rtc_windowed_compare_set+0xba>
   199a4:	b142      	cbz	r2, 199b8 <drv_rtc_windowed_compare_set+0xa8>
   199a6:	f8c1 7344 	str.w	r7, [r1, #836]	; 0x344
   199aa:	6823      	ldr	r3, [r4, #0]
   199ac:	2000      	movs	r0, #0
   199ae:	f8c3 7304 	str.w	r7, [r3, #772]	; 0x304
   199b2:	b002      	add	sp, #8
   199b4:	e8bd 87f0 	ldmia.w	sp!, {r4, r5, r6, r7, r8, r9, sl, pc}
   199b8:	f108 0201 	add.w	r2, r8, #1
   199bc:	f841 2025 	str.w	r2, [r1, r5, lsl #2]
   199c0:	6821      	ldr	r1, [r4, #0]
   199c2:	f8d1 3504 	ldr.w	r3, [r1, #1284]	; 0x504
   199c6:	4298      	cmp	r0, r3
   199c8:	d0ed      	beq.n	199a6 <drv_rtc_windowed_compare_set+0x96>
   199ca:	200d      	movs	r0, #13
   199cc:	b002      	add	sp, #8
   199ce:	e8bd 87f0 	ldmia.w	sp!, {r4, r5, r6, r7, r8, r9, sl, pc}
   199d2:	6820      	ldr	r0, [r4, #0]
   199d4:	4b0e      	ldr	r3, [pc, #56]	; (19a10 <drv_rtc_windowed_compare_set+0x100>)
   199d6:	f108 0201 	add.w	r2, r8, #1
   199da:	f840 2025 	str.w	r2, [r0, r5, lsl #2]
   199de:	f043 0301 	orr.w	r3, r3, #1
   199e2:	f44f 6080 	mov.w	r0, #1024	; 0x400
   199e6:	4798      	blx	r3
   199e8:	6821      	ldr	r1, [r4, #0]
   199ea:	f8d1 3504 	ldr.w	r3, [r1, #1284]	; 0x504
   199ee:	429e      	cmp	r6, r3
   199f0:	d0d9      	beq.n	199a6 <drv_rtc_windowed_compare_set+0x96>
   199f2:	e7ea      	b.n	199ca <drv_rtc_windowed_compare_set+0xba>
   199f4:	4b06      	ldr	r3, [pc, #24]	; (19a10 <drv_rtc_windowed_compare_set+0x100>)
   199f6:	f44f 6080 	mov.w	r0, #1024	; 0x400
   199fa:	f043 0301 	orr.w	r3, r3, #1
   199fe:	4798      	blx	r3
   19a00:	6823      	ldr	r3, [r4, #0]
   19a02:	f843 9006 	str.w	r9, [r3, r6]
   19a06:	599b      	ldr	r3, [r3, r6]
   19a08:	9301      	str	r3, [sp, #4]
   19a0a:	9b01      	ldr	r3, [sp, #4]
   19a0c:	e7ac      	b.n	19968 <drv_rtc_windowed_compare_set+0x58>
   19a0e:	bf00      	nop
   19a10:	0001d660 	.word	0x0001d660

00019a14 <drv_rtc_overflow_enable>:
   19a14:	6802      	ldr	r2, [r0, #0]
   19a16:	2302      	movs	r3, #2
   19a18:	f8c2 3344 	str.w	r3, [r2, #836]	; 0x344
   19a1c:	b111      	cbz	r1, 19a24 <drv_rtc_overflow_enable+0x10>
   19a1e:	6802      	ldr	r2, [r0, #0]
   19a20:	f8c2 3304 	str.w	r3, [r2, #772]	; 0x304
   19a24:	4770      	bx	lr
   19a26:	bf00      	nop

00019a28 <drv_rtc_overflow_pending>:
   19a28:	6803      	ldr	r3, [r0, #0]
   19a2a:	f8d3 0104 	ldr.w	r0, [r3, #260]	; 0x104
   19a2e:	b900      	cbnz	r0, 19a32 <drv_rtc_overflow_pending+0xa>
   19a30:	4770      	bx	lr
   19a32:	2200      	movs	r2, #0
   19a34:	b082      	sub	sp, #8
   19a36:	f8c3 2104 	str.w	r2, [r3, #260]	; 0x104
   19a3a:	f8d3 3104 	ldr.w	r3, [r3, #260]	; 0x104
   19a3e:	9301      	str	r3, [sp, #4]
   19a40:	9b01      	ldr	r3, [sp, #4]
   19a42:	2001      	movs	r0, #1
   19a44:	b002      	add	sp, #8
   19a46:	4770      	bx	lr

00019a48 <drv_rtc_compare_disable>:
   19a48:	6802      	ldr	r2, [r0, #0]
   19a4a:	f44f 3380 	mov.w	r3, #65536	; 0x10000
   19a4e:	fa03 f101 	lsl.w	r1, r3, r1
   19a52:	f8c2 1348 	str.w	r1, [r2, #840]	; 0x348
   19a56:	6803      	ldr	r3, [r0, #0]
   19a58:	f8c3 1308 	str.w	r1, [r3, #776]	; 0x308
   19a5c:	4770      	bx	lr
   19a5e:	bf00      	nop

00019a60 <drv_rtc_compare_pending>:
   19a60:	3150      	adds	r1, #80	; 0x50
   19a62:	0089      	lsls	r1, r1, #2
   19a64:	6803      	ldr	r3, [r0, #0]
   19a66:	b289      	uxth	r1, r1
   19a68:	5858      	ldr	r0, [r3, r1]
   19a6a:	b900      	cbnz	r0, 19a6e <drv_rtc_compare_pending+0xe>
   19a6c:	4770      	bx	lr
   19a6e:	2200      	movs	r2, #0
   19a70:	505a      	str	r2, [r3, r1]
   19a72:	b082      	sub	sp, #8
   19a74:	585b      	ldr	r3, [r3, r1]
   19a76:	9301      	str	r3, [sp, #4]
   19a78:	9b01      	ldr	r3, [sp, #4]
   19a7a:	2001      	movs	r0, #1
   19a7c:	b002      	add	sp, #8
   19a7e:	4770      	bx	lr

00019a80 <drv_rtc_counter_get>:
   19a80:	6803      	ldr	r3, [r0, #0]
   19a82:	f8d3 0504 	ldr.w	r0, [r3, #1284]	; 0x504
   19a86:	4770      	bx	lr

00019a88 <drv_rtc_irq_trigger>:
   19a88:	f990 3004 	ldrsb.w	r3, [r0, #4]
   19a8c:	4805      	ldr	r0, [pc, #20]	; (19aa4 <drv_rtc_irq_trigger+0x1c>)
   19a8e:	095a      	lsrs	r2, r3, #5
   19a90:	2101      	movs	r1, #1
   19a92:	3240      	adds	r2, #64	; 0x40
   19a94:	f003 031f 	and.w	r3, r3, #31
   19a98:	fa01 f303 	lsl.w	r3, r1, r3
   19a9c:	f840 3022 	str.w	r3, [r0, r2, lsl #2]
   19aa0:	4770      	bx	lr
   19aa2:	bf00      	nop
   19aa4:	e000e100 	.word	0xe000e100

00019aa8 <RTC1_IRQHandler>:
   19aa8:	4a02      	ldr	r2, [pc, #8]	; (19ab4 <RTC1_IRQHandler+0xc>)
   19aaa:	4b03      	ldr	r3, [pc, #12]	; (19ab8 <RTC1_IRQHandler+0x10>)
   19aac:	6810      	ldr	r0, [r2, #0]
   19aae:	681b      	ldr	r3, [r3, #0]
   19ab0:	4718      	bx	r3
   19ab2:	bf00      	nop
   19ab4:	2000125c 	.word	0x2000125c
   19ab8:	20001264 	.word	0x20001264

00019abc <nrf_atfifo_init>:
   19abc:	b189      	cbz	r1, 19ae2 <nrf_atfifo_init+0x26>
   19abe:	b430      	push	{r4, r5}
   19ac0:	fbb2 f4f3 	udiv	r4, r2, r3
   19ac4:	fb03 2414 	mls	r4, r3, r4, r2
   19ac8:	4605      	mov	r5, r0
   19aca:	b2a0      	uxth	r0, r4
   19acc:	b930      	cbnz	r0, 19adc <nrf_atfifo_init+0x20>
   19ace:	e9c5 1000 	strd	r1, r0, [r5]
   19ad2:	60a8      	str	r0, [r5, #8]
   19ad4:	81aa      	strh	r2, [r5, #12]
   19ad6:	81eb      	strh	r3, [r5, #14]
   19ad8:	bc30      	pop	{r4, r5}
   19ada:	4770      	bx	lr
   19adc:	2009      	movs	r0, #9
   19ade:	bc30      	pop	{r4, r5}
   19ae0:	4770      	bx	lr
   19ae2:	200e      	movs	r0, #14
   19ae4:	4770      	bx	lr
   19ae6:	bf00      	nop

00019ae8 <nrf_atfifo_item_alloc>:
   19ae8:	b430      	push	{r4, r5}
   19aea:	b082      	sub	sp, #8
   19aec:	e850 3f01 	ldrex	r3, [r0, #4]
   19af0:	b29d      	uxth	r5, r3
   19af2:	89c4      	ldrh	r4, [r0, #14]
   19af4:	4425      	add	r5, r4
   19af6:	8984      	ldrh	r4, [r0, #12]
   19af8:	42a5      	cmp	r5, r4
   19afa:	bf28      	it	cs
   19afc:	1b2d      	subcs	r5, r5, r4
   19afe:	8904      	ldrh	r4, [r0, #8]
   19b00:	42a5      	cmp	r5, r4
   19b02:	bf02      	ittt	eq
   19b04:	f3bf 8f2f 	clrexeq
   19b08:	2200      	moveq	r2, #0
   19b0a:	e007      	beq.n	19b1c <nrf_atfifo_item_alloc+0x34>
   19b0c:	eac5 0503 	pkhbt	r5, r5, r3
   19b10:	e840 5401 	strex	r4, r5, [r0, #4]
   19b14:	2c00      	cmp	r4, #0
   19b16:	d1e9      	bne.n	19aec <nrf_atfifo_item_alloc+0x4>
   19b18:	f04f 0201 	mov.w	r2, #1
   19b1c:	f88d 2003 	strb.w	r2, [sp, #3]
   19b20:	9301      	str	r3, [sp, #4]
   19b22:	9b01      	ldr	r3, [sp, #4]
   19b24:	f89d 2003 	ldrb.w	r2, [sp, #3]
   19b28:	600b      	str	r3, [r1, #0]
   19b2a:	b12a      	cbz	r2, 19b38 <nrf_atfifo_item_alloc+0x50>
   19b2c:	880b      	ldrh	r3, [r1, #0]
   19b2e:	6800      	ldr	r0, [r0, #0]
   19b30:	4418      	add	r0, r3
   19b32:	b002      	add	sp, #8
   19b34:	bc30      	pop	{r4, r5}
   19b36:	4770      	bx	lr
   19b38:	f002 03ff 	and.w	r3, r2, #255	; 0xff
   19b3c:	4618      	mov	r0, r3
   19b3e:	b002      	add	sp, #8
   19b40:	bc30      	pop	{r4, r5}
   19b42:	4770      	bx	lr

00019b44 <nrf_atfifo_item_put>:
   19b44:	880a      	ldrh	r2, [r1, #0]
   19b46:	884b      	ldrh	r3, [r1, #2]
   19b48:	429a      	cmp	r2, r3
   19b4a:	d001      	beq.n	19b50 <nrf_atfifo_item_put+0xc>
   19b4c:	2000      	movs	r0, #0
   19b4e:	4770      	bx	lr
   19b50:	e850 2f01 	ldrex	r2, [r0, #4]
   19b54:	eac2 4202 	pkhbt	r2, r2, r2, lsl #16
   19b58:	e840 2301 	strex	r3, r2, [r0, #4]
   19b5c:	2b00      	cmp	r3, #0
   19b5e:	d1f7      	bne.n	19b50 <nrf_atfifo_item_put+0xc>
   19b60:	2001      	movs	r0, #1
   19b62:	4770      	bx	lr

00019b64 <nrf_atfifo_item_get>:
   19b64:	b430      	push	{r4, r5}
   19b66:	b082      	sub	sp, #8
   19b68:	e850 3f02 	ldrex	r3, [r0, #8]
   19b6c:	fa1f f5a3 	uxth.w	r5, r3, ror #16
   19b70:	88c4      	ldrh	r4, [r0, #6]
   19b72:	42a5      	cmp	r5, r4
   19b74:	bf02      	ittt	eq
   19b76:	f3bf 8f2f 	clrexeq
   19b7a:	2200      	moveq	r2, #0
   19b7c:	e00d      	beq.n	19b9a <nrf_atfifo_item_get+0x36>
   19b7e:	89c4      	ldrh	r4, [r0, #14]
   19b80:	4425      	add	r5, r4
   19b82:	8984      	ldrh	r4, [r0, #12]
   19b84:	42a5      	cmp	r5, r4
   19b86:	bf28      	it	cs
   19b88:	1b2d      	subcs	r5, r5, r4
   19b8a:	eac3 4505 	pkhbt	r5, r3, r5, lsl #16
   19b8e:	e840 5402 	strex	r4, r5, [r0, #8]
   19b92:	2c00      	cmp	r4, #0
   19b94:	d1e8      	bne.n	19b68 <nrf_atfifo_item_get+0x4>
   19b96:	f04f 0201 	mov.w	r2, #1
   19b9a:	f88d 2003 	strb.w	r2, [sp, #3]
   19b9e:	9301      	str	r3, [sp, #4]
   19ba0:	9b01      	ldr	r3, [sp, #4]
   19ba2:	f89d 2003 	ldrb.w	r2, [sp, #3]
   19ba6:	600b      	str	r3, [r1, #0]
   19ba8:	b12a      	cbz	r2, 19bb6 <nrf_atfifo_item_get+0x52>
   19baa:	884b      	ldrh	r3, [r1, #2]
   19bac:	6800      	ldr	r0, [r0, #0]
   19bae:	4418      	add	r0, r3
   19bb0:	b002      	add	sp, #8
   19bb2:	bc30      	pop	{r4, r5}
   19bb4:	4770      	bx	lr
   19bb6:	f002 03ff 	and.w	r3, r2, #255	; 0xff
   19bba:	4618      	mov	r0, r3
   19bbc:	b002      	add	sp, #8
   19bbe:	bc30      	pop	{r4, r5}
   19bc0:	4770      	bx	lr
   19bc2:	bf00      	nop

00019bc4 <nrf_atfifo_item_free>:
   19bc4:	880a      	ldrh	r2, [r1, #0]
   19bc6:	884b      	ldrh	r3, [r1, #2]
   19bc8:	429a      	cmp	r2, r3
   19bca:	d001      	beq.n	19bd0 <nrf_atfifo_item_free+0xc>
   19bcc:	2000      	movs	r0, #0
   19bce:	4770      	bx	lr
   19bd0:	e850 2f02 	ldrex	r2, [r0, #8]
   19bd4:	eac2 4222 	pkhtb	r2, r2, r2, asr #16
   19bd8:	e840 2302 	strex	r3, r2, [r0, #8]
   19bdc:	2b00      	cmp	r3, #0
   19bde:	d1f7      	bne.n	19bd0 <nrf_atfifo_item_free+0xc>
   19be0:	2001      	movs	r0, #1
   19be2:	4770      	bx	lr

00019be4 <sd_app_evt_wait>:
   19be4:	df41      	svc	65	; 0x41
   19be6:	4770      	bx	lr

00019be8 <nrf_pwr_mgmt_init>:
   19be8:	4a06      	ldr	r2, [pc, #24]	; (19c04 <nrf_pwr_mgmt_init+0x1c>)
   19bea:	4b07      	ldr	r3, [pc, #28]	; (19c08 <nrf_pwr_mgmt_init+0x20>)
   19bec:	b510      	push	{r4, lr}
   19bee:	2400      	movs	r4, #0
   19bf0:	7014      	strb	r4, [r2, #0]
   19bf2:	601c      	str	r4, [r3, #0]
   19bf4:	f3bf 8f5f 	dmb	sy
   19bf8:	4904      	ldr	r1, [pc, #16]	; (19c0c <nrf_pwr_mgmt_init+0x24>)
   19bfa:	4805      	ldr	r0, [pc, #20]	; (19c10 <nrf_pwr_mgmt_init+0x28>)
   19bfc:	f000 f816 	bl	19c2c <nrf_section_iter_init>
   19c00:	4620      	mov	r0, r4
   19c02:	bd10      	pop	{r4, pc}
   19c04:	20001270 	.word	0x20001270
   19c08:	20001274 	.word	0x20001274
   19c0c:	0001d668 	.word	0x0001d668
   19c10:	20001268 	.word	0x20001268

00019c14 <nrf_pwr_mgmt_run>:
   19c14:	b508      	push	{r3, lr}
   19c16:	f001 ff77 	bl	1bb08 <nrf_sdh_is_enabled>
   19c1a:	b918      	cbnz	r0, 19c24 <nrf_pwr_mgmt_run+0x10>
   19c1c:	bf20      	wfe
   19c1e:	bf40      	sev
   19c20:	bf20      	wfe
   19c22:	bd08      	pop	{r3, pc}
   19c24:	e8bd 4008 	ldmia.w	sp!, {r3, lr}
   19c28:	f7ff bfdc 	b.w	19be4 <sd_app_evt_wait>

00019c2c <nrf_section_iter_init>:
   19c2c:	6001      	str	r1, [r0, #0]
   19c2e:	680b      	ldr	r3, [r1, #0]
   19c30:	6043      	str	r3, [r0, #4]
   19c32:	684a      	ldr	r2, [r1, #4]
   19c34:	4293      	cmp	r3, r2
   19c36:	bf04      	itt	eq
   19c38:	2300      	moveq	r3, #0
   19c3a:	6043      	streq	r3, [r0, #4]
   19c3c:	4770      	bx	lr
   19c3e:	bf00      	nop

00019c40 <nrf_section_iter_next>:
   19c40:	6843      	ldr	r3, [r0, #4]
   19c42:	b143      	cbz	r3, 19c56 <nrf_section_iter_next+0x16>
   19c44:	6802      	ldr	r2, [r0, #0]
   19c46:	6891      	ldr	r1, [r2, #8]
   19c48:	440b      	add	r3, r1
   19c4a:	6043      	str	r3, [r0, #4]
   19c4c:	6852      	ldr	r2, [r2, #4]
   19c4e:	4293      	cmp	r3, r2
   19c50:	bf04      	itt	eq
   19c52:	2300      	moveq	r3, #0
   19c54:	6043      	streq	r3, [r0, #4]
   19c56:	4770      	bx	lr

00019c58 <nrf_sortlist_add>:
   19c58:	b570      	push	{r4, r5, r6, lr}
   19c5a:	6844      	ldr	r4, [r0, #4]
   19c5c:	4606      	mov	r6, r0
   19c5e:	6820      	ldr	r0, [r4, #0]
   19c60:	460d      	mov	r5, r1
   19c62:	b918      	cbnz	r0, 19c6c <nrf_sortlist_add+0x14>
   19c64:	e008      	b.n	19c78 <nrf_sortlist_add+0x20>
   19c66:	6824      	ldr	r4, [r4, #0]
   19c68:	6820      	ldr	r0, [r4, #0]
   19c6a:	b128      	cbz	r0, 19c78 <nrf_sortlist_add+0x20>
   19c6c:	68b3      	ldr	r3, [r6, #8]
   19c6e:	4629      	mov	r1, r5
   19c70:	4798      	blx	r3
   19c72:	2800      	cmp	r0, #0
   19c74:	d1f7      	bne.n	19c66 <nrf_sortlist_add+0xe>
   19c76:	6820      	ldr	r0, [r4, #0]
   19c78:	6028      	str	r0, [r5, #0]
   19c7a:	6025      	str	r5, [r4, #0]
   19c7c:	bd70      	pop	{r4, r5, r6, pc}
   19c7e:	bf00      	nop

00019c80 <nrf_sortlist_pop>:
   19c80:	6843      	ldr	r3, [r0, #4]
   19c82:	6818      	ldr	r0, [r3, #0]
   19c84:	b108      	cbz	r0, 19c8a <nrf_sortlist_pop+0xa>
   19c86:	6802      	ldr	r2, [r0, #0]
   19c88:	601a      	str	r2, [r3, #0]
   19c8a:	4770      	bx	lr

00019c8c <nrf_sortlist_peek>:
   19c8c:	6843      	ldr	r3, [r0, #4]
   19c8e:	6818      	ldr	r0, [r3, #0]
   19c90:	4770      	bx	lr
   19c92:	bf00      	nop

00019c94 <nrf_sortlist_remove>:
   19c94:	6843      	ldr	r3, [r0, #4]
   19c96:	6818      	ldr	r0, [r3, #0]
   19c98:	b918      	cbnz	r0, 19ca2 <nrf_sortlist_remove+0xe>
   19c9a:	e008      	b.n	19cae <nrf_sortlist_remove+0x1a>
   19c9c:	4603      	mov	r3, r0
   19c9e:	6800      	ldr	r0, [r0, #0]
   19ca0:	b128      	cbz	r0, 19cae <nrf_sortlist_remove+0x1a>
   19ca2:	4281      	cmp	r1, r0
   19ca4:	d1fa      	bne.n	19c9c <nrf_sortlist_remove+0x8>
   19ca6:	680a      	ldr	r2, [r1, #0]
   19ca8:	601a      	str	r2, [r3, #0]
   19caa:	2001      	movs	r0, #1
   19cac:	4770      	bx	lr
   19cae:	4770      	bx	lr

00019cb0 <SystemInit>:
   19cb0:	b430      	push	{r4, r5}
   19cb2:	4b5f      	ldr	r3, [pc, #380]	; (19e30 <SystemInit+0x180>)
   19cb4:	4d5f      	ldr	r5, [pc, #380]	; (19e34 <SystemInit+0x184>)
   19cb6:	681a      	ldr	r2, [r3, #0]
   19cb8:	4b5f      	ldr	r3, [pc, #380]	; (19e38 <SystemInit+0x188>)
   19cba:	4c60      	ldr	r4, [pc, #384]	; (19e3c <SystemInit+0x18c>)
   19cbc:	f04f 4180 	mov.w	r1, #1073741824	; 0x40000000
   19cc0:	f3c2 3242 	ubfx	r2, r2, #13, #3
   19cc4:	602a      	str	r2, [r5, #0]
   19cc6:	2000      	movs	r0, #0
   19cc8:	f04f 5280 	mov.w	r2, #268435456	; 0x10000000
   19ccc:	f8c1 010c 	str.w	r0, [r1, #268]	; 0x10c
   19cd0:	f8c1 0110 	str.w	r0, [r1, #272]	; 0x110
   19cd4:	f8c1 0538 	str.w	r0, [r1, #1336]	; 0x538
   19cd8:	f8d2 0404 	ldr.w	r0, [r2, #1028]	; 0x404
   19cdc:	f8c3 0520 	str.w	r0, [r3, #1312]	; 0x520
   19ce0:	f8d2 0408 	ldr.w	r0, [r2, #1032]	; 0x408
   19ce4:	f8c3 0524 	str.w	r0, [r3, #1316]	; 0x524
   19ce8:	f8d2 040c 	ldr.w	r0, [r2, #1036]	; 0x40c
   19cec:	f8c3 0528 	str.w	r0, [r3, #1320]	; 0x528
   19cf0:	f8d2 0410 	ldr.w	r0, [r2, #1040]	; 0x410
   19cf4:	f8c3 052c 	str.w	r0, [r3, #1324]	; 0x52c
   19cf8:	f8d2 0414 	ldr.w	r0, [r2, #1044]	; 0x414
   19cfc:	f8c3 0530 	str.w	r0, [r3, #1328]	; 0x530
   19d00:	f8d2 0418 	ldr.w	r0, [r2, #1048]	; 0x418
   19d04:	f8c3 0534 	str.w	r0, [r3, #1332]	; 0x534
   19d08:	f8d2 041c 	ldr.w	r0, [r2, #1052]	; 0x41c
   19d0c:	f8c3 0540 	str.w	r0, [r3, #1344]	; 0x540
   19d10:	f8d2 0420 	ldr.w	r0, [r2, #1056]	; 0x420
   19d14:	f8c3 0544 	str.w	r0, [r3, #1348]	; 0x544
   19d18:	f8d2 0424 	ldr.w	r0, [r2, #1060]	; 0x424
   19d1c:	f8c3 0548 	str.w	r0, [r3, #1352]	; 0x548
   19d20:	f8d2 0428 	ldr.w	r0, [r2, #1064]	; 0x428
   19d24:	f8c3 054c 	str.w	r0, [r3, #1356]	; 0x54c
   19d28:	f8d2 042c 	ldr.w	r0, [r2, #1068]	; 0x42c
   19d2c:	f8c3 0550 	str.w	r0, [r3, #1360]	; 0x550
   19d30:	f8d2 0430 	ldr.w	r0, [r2, #1072]	; 0x430
   19d34:	f8c3 0554 	str.w	r0, [r3, #1364]	; 0x554
   19d38:	f8d2 0434 	ldr.w	r0, [r2, #1076]	; 0x434
   19d3c:	f8c3 0560 	str.w	r0, [r3, #1376]	; 0x560
   19d40:	f8d2 0438 	ldr.w	r0, [r2, #1080]	; 0x438
   19d44:	f8c3 0564 	str.w	r0, [r3, #1380]	; 0x564
   19d48:	f8d2 043c 	ldr.w	r0, [r2, #1084]	; 0x43c
   19d4c:	f8c3 0568 	str.w	r0, [r3, #1384]	; 0x568
   19d50:	f8d2 0440 	ldr.w	r0, [r2, #1088]	; 0x440
   19d54:	f8c3 056c 	str.w	r0, [r3, #1388]	; 0x56c
   19d58:	6820      	ldr	r0, [r4, #0]
   19d5a:	f8d2 2444 	ldr.w	r2, [r2, #1092]	; 0x444
   19d5e:	f8c3 2570 	str.w	r2, [r3, #1392]	; 0x570
   19d62:	280a      	cmp	r0, #10
   19d64:	d017      	beq.n	19d96 <SystemInit+0xe6>
   19d66:	f8d1 3400 	ldr.w	r3, [r1, #1024]	; 0x400
   19d6a:	07db      	lsls	r3, r3, #31
   19d6c:	d41f      	bmi.n	19dae <SystemInit+0xfe>
   19d6e:	4a34      	ldr	r2, [pc, #208]	; (19e40 <SystemInit+0x190>)
   19d70:	6813      	ldr	r3, [r2, #0]
   19d72:	f043 030f 	orr.w	r3, r3, #15
   19d76:	6013      	str	r3, [r2, #0]
   19d78:	f04f 2310 	mov.w	r3, #268439552	; 0x10001000
   19d7c:	f8d3 2200 	ldr.w	r2, [r3, #512]	; 0x200
   19d80:	2a00      	cmp	r2, #0
   19d82:	db23      	blt.n	19dcc <SystemInit+0x11c>
   19d84:	f8d3 3204 	ldr.w	r3, [r3, #516]	; 0x204
   19d88:	2b00      	cmp	r3, #0
   19d8a:	db1f      	blt.n	19dcc <SystemInit+0x11c>
   19d8c:	4b2d      	ldr	r3, [pc, #180]	; (19e44 <SystemInit+0x194>)
   19d8e:	4a2e      	ldr	r2, [pc, #184]	; (19e48 <SystemInit+0x198>)
   19d90:	601a      	str	r2, [r3, #0]
   19d92:	bc30      	pop	{r4, r5}
   19d94:	4770      	bx	lr
   19d96:	4b2d      	ldr	r3, [pc, #180]	; (19e4c <SystemInit+0x19c>)
   19d98:	681b      	ldr	r3, [r3, #0]
   19d9a:	2b00      	cmp	r3, #0
   19d9c:	d1e3      	bne.n	19d66 <SystemInit+0xb6>
   19d9e:	4b2c      	ldr	r3, [pc, #176]	; (19e50 <SystemInit+0x1a0>)
   19da0:	22fb      	movs	r2, #251	; 0xfb
   19da2:	f8c3 2518 	str.w	r2, [r3, #1304]	; 0x518
   19da6:	f8d1 3400 	ldr.w	r3, [r1, #1024]	; 0x400
   19daa:	07da      	lsls	r2, r3, #31
   19dac:	d505      	bpl.n	19dba <SystemInit+0x10a>
   19dae:	f04f 4380 	mov.w	r3, #1073741824	; 0x40000000
   19db2:	f06f 0201 	mvn.w	r2, #1
   19db6:	f8c3 2400 	str.w	r2, [r3, #1024]	; 0x400
   19dba:	4b20      	ldr	r3, [pc, #128]	; (19e3c <SystemInit+0x18c>)
   19dbc:	681b      	ldr	r3, [r3, #0]
   19dbe:	2b0a      	cmp	r3, #10
   19dc0:	d1d5      	bne.n	19d6e <SystemInit+0xbe>
   19dc2:	4b22      	ldr	r3, [pc, #136]	; (19e4c <SystemInit+0x19c>)
   19dc4:	681b      	ldr	r3, [r3, #0]
   19dc6:	2b00      	cmp	r3, #0
   19dc8:	d0d6      	beq.n	19d78 <SystemInit+0xc8>
   19dca:	e7d0      	b.n	19d6e <SystemInit+0xbe>
   19dcc:	4a21      	ldr	r2, [pc, #132]	; (19e54 <SystemInit+0x1a4>)
   19dce:	2301      	movs	r3, #1
   19dd0:	f8c2 3504 	str.w	r3, [r2, #1284]	; 0x504
   19dd4:	f8d2 3400 	ldr.w	r3, [r2, #1024]	; 0x400
   19dd8:	2b00      	cmp	r3, #0
   19dda:	d0fb      	beq.n	19dd4 <SystemInit+0x124>
   19ddc:	f04f 2310 	mov.w	r3, #268439552	; 0x10001000
   19de0:	2115      	movs	r1, #21
   19de2:	4a1c      	ldr	r2, [pc, #112]	; (19e54 <SystemInit+0x1a4>)
   19de4:	f8c3 1200 	str.w	r1, [r3, #512]	; 0x200
   19de8:	f8d2 3400 	ldr.w	r3, [r2, #1024]	; 0x400
   19dec:	2b00      	cmp	r3, #0
   19dee:	d0fb      	beq.n	19de8 <SystemInit+0x138>
   19df0:	f04f 2310 	mov.w	r3, #268439552	; 0x10001000
   19df4:	2115      	movs	r1, #21
   19df6:	4a17      	ldr	r2, [pc, #92]	; (19e54 <SystemInit+0x1a4>)
   19df8:	f8c3 1204 	str.w	r1, [r3, #516]	; 0x204
   19dfc:	f8d2 3400 	ldr.w	r3, [r2, #1024]	; 0x400
   19e00:	2b00      	cmp	r3, #0
   19e02:	d0fb      	beq.n	19dfc <SystemInit+0x14c>
   19e04:	2300      	movs	r3, #0
   19e06:	4913      	ldr	r1, [pc, #76]	; (19e54 <SystemInit+0x1a4>)
   19e08:	f8c2 3504 	str.w	r3, [r2, #1284]	; 0x504
   19e0c:	f8d1 3400 	ldr.w	r3, [r1, #1024]	; 0x400
   19e10:	2b00      	cmp	r3, #0
   19e12:	d0fb      	beq.n	19e0c <SystemInit+0x15c>
   19e14:	f3bf 8f4f 	dsb	sy
   19e18:	490f      	ldr	r1, [pc, #60]	; (19e58 <SystemInit+0x1a8>)
   19e1a:	4b10      	ldr	r3, [pc, #64]	; (19e5c <SystemInit+0x1ac>)
   19e1c:	68ca      	ldr	r2, [r1, #12]
   19e1e:	f402 62e0 	and.w	r2, r2, #1792	; 0x700
   19e22:	4313      	orrs	r3, r2
   19e24:	60cb      	str	r3, [r1, #12]
   19e26:	f3bf 8f4f 	dsb	sy
   19e2a:	bf00      	nop
   19e2c:	e7fd      	b.n	19e2a <SystemInit+0x17a>
   19e2e:	bf00      	nop
   19e30:	10000244 	.word	0x10000244
   19e34:	4000053c 	.word	0x4000053c
   19e38:	4000c000 	.word	0x4000c000
   19e3c:	10000130 	.word	0x10000130
   19e40:	40000ee4 	.word	0x40000ee4
   19e44:	20001120 	.word	0x20001120
   19e48:	03d09000 	.word	0x03d09000
   19e4c:	10000134 	.word	0x10000134
   19e50:	4000f000 	.word	0x4000f000
   19e54:	4001e000 	.word	0x4001e000
   19e58:	e000ed00 	.word	0xe000ed00
   19e5c:	05fa0004 	.word	0x05fa0004

00019e60 <clock_irq_handler>:
   19e60:	b510      	push	{r4, lr}
   19e62:	b968      	cbnz	r0, 19e80 <clock_irq_handler+0x20>
   19e64:	4c0e      	ldr	r4, [pc, #56]	; (19ea0 <clock_irq_handler+0x40>)
   19e66:	68a3      	ldr	r3, [r4, #8]
   19e68:	2201      	movs	r2, #1
   19e6a:	7062      	strb	r2, [r4, #1]
   19e6c:	b13b      	cbz	r3, 19e7e <clock_irq_handler+0x1e>
   19e6e:	e9d3 2300 	ldrd	r2, r3, [r3]
   19e72:	2000      	movs	r0, #0
   19e74:	60a2      	str	r2, [r4, #8]
   19e76:	4798      	blx	r3
   19e78:	68a3      	ldr	r3, [r4, #8]
   19e7a:	2b00      	cmp	r3, #0
   19e7c:	d1f7      	bne.n	19e6e <clock_irq_handler+0xe>
   19e7e:	bd10      	pop	{r4, pc}
   19e80:	2801      	cmp	r0, #1
   19e82:	d1fc      	bne.n	19e7e <clock_irq_handler+0x1e>
   19e84:	4c06      	ldr	r4, [pc, #24]	; (19ea0 <clock_irq_handler+0x40>)
   19e86:	6923      	ldr	r3, [r4, #16]
   19e88:	70a0      	strb	r0, [r4, #2]
   19e8a:	2b00      	cmp	r3, #0
   19e8c:	d0f7      	beq.n	19e7e <clock_irq_handler+0x1e>
   19e8e:	e9d3 2300 	ldrd	r2, r3, [r3]
   19e92:	2001      	movs	r0, #1
   19e94:	6122      	str	r2, [r4, #16]
   19e96:	4798      	blx	r3
   19e98:	6923      	ldr	r3, [r4, #16]
   19e9a:	2b00      	cmp	r3, #0
   19e9c:	d1f7      	bne.n	19e8e <clock_irq_handler+0x2e>
   19e9e:	bd10      	pop	{r4, pc}
   19ea0:	20001278 	.word	0x20001278

00019ea4 <soc_evt_handler>:
   19ea4:	b970      	cbnz	r0, 19ec4 <soc_evt_handler+0x20>
   19ea6:	b510      	push	{r4, lr}
   19ea8:	4c07      	ldr	r4, [pc, #28]	; (19ec8 <soc_evt_handler+0x24>)
   19eaa:	68a3      	ldr	r3, [r4, #8]
   19eac:	2201      	movs	r2, #1
   19eae:	7062      	strb	r2, [r4, #1]
   19eb0:	b13b      	cbz	r3, 19ec2 <soc_evt_handler+0x1e>
   19eb2:	e9d3 2300 	ldrd	r2, r3, [r3]
   19eb6:	2000      	movs	r0, #0
   19eb8:	60a2      	str	r2, [r4, #8]
   19eba:	4798      	blx	r3
   19ebc:	68a3      	ldr	r3, [r4, #8]
   19ebe:	2b00      	cmp	r3, #0
   19ec0:	d1f7      	bne.n	19eb2 <soc_evt_handler+0xe>
   19ec2:	bd10      	pop	{r4, pc}
   19ec4:	4770      	bx	lr
   19ec6:	bf00      	nop
   19ec8:	20001278 	.word	0x20001278

00019ecc <sd_state_evt_handler>:
   19ecc:	b530      	push	{r4, r5, lr}
   19ece:	2801      	cmp	r0, #1
   19ed0:	b083      	sub	sp, #12
   19ed2:	d004      	beq.n	19ede <sd_state_evt_handler+0x12>
   19ed4:	2803      	cmp	r0, #3
   19ed6:	d01d      	beq.n	19f14 <sd_state_evt_handler+0x48>
   19ed8:	b1b0      	cbz	r0, 19f08 <sd_state_evt_handler+0x3c>
   19eda:	b003      	add	sp, #12
   19edc:	bd30      	pop	{r4, r5, pc}
   19ede:	4c22      	ldr	r4, [pc, #136]	; (19f68 <sd_state_evt_handler+0x9c>)
   19ee0:	2300      	movs	r3, #0
   19ee2:	f10d 0007 	add.w	r0, sp, #7
   19ee6:	f88d 3007 	strb.w	r3, [sp, #7]
   19eea:	f7ff fc63 	bl	197b4 <app_util_critical_region_enter>
   19eee:	7823      	ldrb	r3, [r4, #0]
   19ef0:	b34b      	cbz	r3, 19f46 <sd_state_evt_handler+0x7a>
   19ef2:	68e3      	ldr	r3, [r4, #12]
   19ef4:	f89d 0007 	ldrb.w	r0, [sp, #7]
   19ef8:	3301      	adds	r3, #1
   19efa:	2201      	movs	r2, #1
   19efc:	60e3      	str	r3, [r4, #12]
   19efe:	70a2      	strb	r2, [r4, #2]
   19f00:	f7ff fc7e 	bl	19800 <app_util_critical_region_exit>
   19f04:	b003      	add	sp, #12
   19f06:	bd30      	pop	{r4, r5, pc}
   19f08:	4b18      	ldr	r3, [pc, #96]	; (19f6c <sd_state_evt_handler+0xa0>)
   19f0a:	2201      	movs	r2, #1
   19f0c:	f8c3 2080 	str.w	r2, [r3, #128]	; 0x80
   19f10:	b003      	add	sp, #12
   19f12:	bd30      	pop	{r4, r5, pc}
   19f14:	4c14      	ldr	r4, [pc, #80]	; (19f68 <sd_state_evt_handler+0x9c>)
   19f16:	f000 f839 	bl	19f8c <nrfx_clock_enable>
   19f1a:	2300      	movs	r3, #0
   19f1c:	f10d 0007 	add.w	r0, sp, #7
   19f20:	f88d 3007 	strb.w	r3, [sp, #7]
   19f24:	f7ff fc46 	bl	197b4 <app_util_critical_region_enter>
   19f28:	68e3      	ldr	r3, [r4, #12]
   19f2a:	3b01      	subs	r3, #1
   19f2c:	60e3      	str	r3, [r4, #12]
   19f2e:	68e5      	ldr	r5, [r4, #12]
   19f30:	b12d      	cbz	r5, 19f3e <sd_state_evt_handler+0x72>
   19f32:	f89d 0007 	ldrb.w	r0, [sp, #7]
   19f36:	f7ff fc63 	bl	19800 <app_util_critical_region_exit>
   19f3a:	b003      	add	sp, #12
   19f3c:	bd30      	pop	{r4, r5, pc}
   19f3e:	f000 f837 	bl	19fb0 <nrfx_clock_lfclk_stop>
   19f42:	70a5      	strb	r5, [r4, #2]
   19f44:	e7f5      	b.n	19f32 <sd_state_evt_handler+0x66>
   19f46:	480a      	ldr	r0, [pc, #40]	; (19f70 <sd_state_evt_handler+0xa4>)
   19f48:	6063      	str	r3, [r4, #4]
   19f4a:	60a3      	str	r3, [r4, #8]
   19f4c:	6123      	str	r3, [r4, #16]
   19f4e:	60e3      	str	r3, [r4, #12]
   19f50:	f000 f810 	bl	19f74 <nrfx_clock_init>
   19f54:	f001 fdd8 	bl	1bb08 <nrf_sdh_is_enabled>
   19f58:	b110      	cbz	r0, 19f60 <sd_state_evt_handler+0x94>
   19f5a:	2301      	movs	r3, #1
   19f5c:	7023      	strb	r3, [r4, #0]
   19f5e:	e7c8      	b.n	19ef2 <sd_state_evt_handler+0x26>
   19f60:	f000 f814 	bl	19f8c <nrfx_clock_enable>
   19f64:	e7f9      	b.n	19f5a <sd_state_evt_handler+0x8e>
   19f66:	bf00      	nop
   19f68:	20001278 	.word	0x20001278
   19f6c:	e000e100 	.word	0xe000e100
   19f70:	00019e61 	.word	0x00019e61

00019f74 <nrfx_clock_init>:
   19f74:	4a04      	ldr	r2, [pc, #16]	; (19f88 <nrfx_clock_init+0x14>)
   19f76:	7913      	ldrb	r3, [r2, #4]
   19f78:	b923      	cbnz	r3, 19f84 <nrfx_clock_init+0x10>
   19f7a:	2101      	movs	r1, #1
   19f7c:	6010      	str	r0, [r2, #0]
   19f7e:	8091      	strh	r1, [r2, #4]
   19f80:	4618      	mov	r0, r3
   19f82:	4770      	bx	lr
   19f84:	2085      	movs	r0, #133	; 0x85
   19f86:	4770      	bx	lr
   19f88:	2000128c 	.word	0x2000128c

00019f8c <nrfx_clock_enable>:
   19f8c:	4b07      	ldr	r3, [pc, #28]	; (19fac <nrfx_clock_enable+0x20>)
   19f8e:	681a      	ldr	r2, [r3, #0]
   19f90:	07d2      	lsls	r2, r2, #31
   19f92:	d404      	bmi.n	19f9e <nrfx_clock_enable+0x12>
   19f94:	21c0      	movs	r1, #192	; 0xc0
   19f96:	2201      	movs	r2, #1
   19f98:	f883 1300 	strb.w	r1, [r3, #768]	; 0x300
   19f9c:	601a      	str	r2, [r3, #0]
   19f9e:	f04f 4380 	mov.w	r3, #1073741824	; 0x40000000
   19fa2:	2201      	movs	r2, #1
   19fa4:	f8c3 2518 	str.w	r2, [r3, #1304]	; 0x518
   19fa8:	4770      	bx	lr
   19faa:	bf00      	nop
   19fac:	e000e100 	.word	0xe000e100

00019fb0 <nrfx_clock_lfclk_stop>:
   19fb0:	4b04      	ldr	r3, [pc, #16]	; (19fc4 <nrfx_clock_lfclk_stop+0x14>)
   19fb2:	2201      	movs	r2, #1
   19fb4:	601a      	str	r2, [r3, #0]
   19fb6:	f04f 4280 	mov.w	r2, #1073741824	; 0x40000000
   19fba:	f8d2 3418 	ldr.w	r3, [r2, #1048]	; 0x418
   19fbe:	03db      	lsls	r3, r3, #15
   19fc0:	d4fb      	bmi.n	19fba <nrfx_clock_lfclk_stop+0xa>
   19fc2:	4770      	bx	lr
   19fc4:	4000000c 	.word	0x4000000c

00019fc8 <POWER_CLOCK_IRQHandler>:
   19fc8:	b510      	push	{r4, lr}
   19fca:	4b17      	ldr	r3, [pc, #92]	; (1a028 <POWER_CLOCK_IRQHandler+0x60>)
   19fcc:	681a      	ldr	r2, [r3, #0]
   19fce:	b082      	sub	sp, #8
   19fd0:	b162      	cbz	r2, 19fec <POWER_CLOCK_IRQHandler+0x24>
   19fd2:	2100      	movs	r1, #0
   19fd4:	4a15      	ldr	r2, [pc, #84]	; (1a02c <POWER_CLOCK_IRQHandler+0x64>)
   19fd6:	6019      	str	r1, [r3, #0]
   19fd8:	681b      	ldr	r3, [r3, #0]
   19fda:	7950      	ldrb	r0, [r2, #5]
   19fdc:	9300      	str	r3, [sp, #0]
   19fde:	f04f 4180 	mov.w	r1, #1073741824	; 0x40000000
   19fe2:	2301      	movs	r3, #1
   19fe4:	9c00      	ldr	r4, [sp, #0]
   19fe6:	f8c1 3308 	str.w	r3, [r1, #776]	; 0x308
   19fea:	b198      	cbz	r0, 1a014 <POWER_CLOCK_IRQHandler+0x4c>
   19fec:	4b10      	ldr	r3, [pc, #64]	; (1a030 <POWER_CLOCK_IRQHandler+0x68>)
   19fee:	681a      	ldr	r2, [r3, #0]
   19ff0:	b1ba      	cbz	r2, 1a022 <POWER_CLOCK_IRQHandler+0x5a>
   19ff2:	2200      	movs	r2, #0
   19ff4:	601a      	str	r2, [r3, #0]
   19ff6:	681b      	ldr	r3, [r3, #0]
   19ff8:	9301      	str	r3, [sp, #4]
   19ffa:	f04f 4280 	mov.w	r2, #1073741824	; 0x40000000
   19ffe:	2102      	movs	r1, #2
   1a000:	4b0a      	ldr	r3, [pc, #40]	; (1a02c <POWER_CLOCK_IRQHandler+0x64>)
   1a002:	9801      	ldr	r0, [sp, #4]
   1a004:	f8c2 1308 	str.w	r1, [r2, #776]	; 0x308
   1a008:	681b      	ldr	r3, [r3, #0]
   1a00a:	2001      	movs	r0, #1
   1a00c:	b002      	add	sp, #8
   1a00e:	e8bd 4010 	ldmia.w	sp!, {r4, lr}
   1a012:	4718      	bx	r3
   1a014:	6811      	ldr	r1, [r2, #0]
   1a016:	7153      	strb	r3, [r2, #5]
   1a018:	4788      	blx	r1
   1a01a:	4b05      	ldr	r3, [pc, #20]	; (1a030 <POWER_CLOCK_IRQHandler+0x68>)
   1a01c:	681a      	ldr	r2, [r3, #0]
   1a01e:	2a00      	cmp	r2, #0
   1a020:	d1e7      	bne.n	19ff2 <POWER_CLOCK_IRQHandler+0x2a>
   1a022:	b002      	add	sp, #8
   1a024:	bd10      	pop	{r4, pc}
   1a026:	bf00      	nop
   1a028:	40000100 	.word	0x40000100
   1a02c:	2000128c 	.word	0x2000128c
   1a030:	40000104 	.word	0x40000104

0001a034 <GPIOTE_IRQHandler>:
   1a034:	e92d 41f0 	stmdb	sp!, {r4, r5, r6, r7, r8, lr}
   1a038:	b086      	sub	sp, #24
   1a03a:	4ac0      	ldr	r2, [pc, #768]	; (1a33c <GPIOTE_IRQHandler+0x308>)
   1a03c:	2300      	movs	r3, #0
   1a03e:	9301      	str	r3, [sp, #4]
   1a040:	6811      	ldr	r1, [r2, #0]
   1a042:	2901      	cmp	r1, #1
   1a044:	f000 81c8 	beq.w	1a3d8 <GPIOTE_IRQHandler+0x3a4>
   1a048:	461e      	mov	r6, r3
   1a04a:	4bbd      	ldr	r3, [pc, #756]	; (1a340 <GPIOTE_IRQHandler+0x30c>)
   1a04c:	681a      	ldr	r2, [r3, #0]
   1a04e:	2a01      	cmp	r2, #1
   1a050:	f000 81b4 	beq.w	1a3bc <GPIOTE_IRQHandler+0x388>
   1a054:	4bbb      	ldr	r3, [pc, #748]	; (1a344 <GPIOTE_IRQHandler+0x310>)
   1a056:	681a      	ldr	r2, [r3, #0]
   1a058:	2a01      	cmp	r2, #1
   1a05a:	f000 81a1 	beq.w	1a3a0 <GPIOTE_IRQHandler+0x36c>
   1a05e:	4bba      	ldr	r3, [pc, #744]	; (1a348 <GPIOTE_IRQHandler+0x314>)
   1a060:	681a      	ldr	r2, [r3, #0]
   1a062:	2a01      	cmp	r2, #1
   1a064:	f000 818e 	beq.w	1a384 <GPIOTE_IRQHandler+0x350>
   1a068:	4bb8      	ldr	r3, [pc, #736]	; (1a34c <GPIOTE_IRQHandler+0x318>)
   1a06a:	681a      	ldr	r2, [r3, #0]
   1a06c:	2a01      	cmp	r2, #1
   1a06e:	f000 817b 	beq.w	1a368 <GPIOTE_IRQHandler+0x334>
   1a072:	4bb7      	ldr	r3, [pc, #732]	; (1a350 <GPIOTE_IRQHandler+0x31c>)
   1a074:	681a      	ldr	r2, [r3, #0]
   1a076:	2a01      	cmp	r2, #1
   1a078:	f000 8152 	beq.w	1a320 <GPIOTE_IRQHandler+0x2ec>
   1a07c:	4bb5      	ldr	r3, [pc, #724]	; (1a354 <GPIOTE_IRQHandler+0x320>)
   1a07e:	681a      	ldr	r2, [r3, #0]
   1a080:	2a01      	cmp	r2, #1
   1a082:	f000 813f 	beq.w	1a304 <GPIOTE_IRQHandler+0x2d0>
   1a086:	4bb4      	ldr	r3, [pc, #720]	; (1a358 <GPIOTE_IRQHandler+0x324>)
   1a088:	681a      	ldr	r2, [r3, #0]
   1a08a:	2a01      	cmp	r2, #1
   1a08c:	d008      	beq.n	1a0a0 <GPIOTE_IRQHandler+0x6c>
   1a08e:	4bb3      	ldr	r3, [pc, #716]	; (1a35c <GPIOTE_IRQHandler+0x328>)
   1a090:	681a      	ldr	r2, [r3, #0]
   1a092:	2a01      	cmp	r2, #1
   1a094:	f000 81ac 	beq.w	1a3f0 <GPIOTE_IRQHandler+0x3bc>
   1a098:	b9f6      	cbnz	r6, 1a0d8 <GPIOTE_IRQHandler+0xa4>
   1a09a:	b006      	add	sp, #24
   1a09c:	e8bd 81f0 	ldmia.w	sp!, {r4, r5, r6, r7, r8, pc}
   1a0a0:	4aaf      	ldr	r2, [pc, #700]	; (1a360 <GPIOTE_IRQHandler+0x32c>)
   1a0a2:	f8d2 2304 	ldr.w	r2, [r2, #772]	; 0x304
   1a0a6:	0612      	lsls	r2, r2, #24
   1a0a8:	d5f1      	bpl.n	1a08e <GPIOTE_IRQHandler+0x5a>
   1a0aa:	2200      	movs	r2, #0
   1a0ac:	601a      	str	r2, [r3, #0]
   1a0ae:	6819      	ldr	r1, [r3, #0]
   1a0b0:	9104      	str	r1, [sp, #16]
   1a0b2:	6e19      	ldr	r1, [r3, #96]	; 0x60
   1a0b4:	9804      	ldr	r0, [sp, #16]
   1a0b6:	2901      	cmp	r1, #1
   1a0b8:	f103 0360 	add.w	r3, r3, #96	; 0x60
   1a0bc:	f046 0680 	orr.w	r6, r6, #128	; 0x80
   1a0c0:	d10a      	bne.n	1a0d8 <GPIOTE_IRQHandler+0xa4>
   1a0c2:	601a      	str	r2, [r3, #0]
   1a0c4:	681b      	ldr	r3, [r3, #0]
   1a0c6:	9305      	str	r3, [sp, #20]
   1a0c8:	f04f 43a0 	mov.w	r3, #1342177280	; 0x50000000
   1a0cc:	9a05      	ldr	r2, [sp, #20]
   1a0ce:	f8d3 3510 	ldr.w	r3, [r3, #1296]	; 0x510
   1a0d2:	9301      	str	r3, [sp, #4]
   1a0d4:	f046 4600 	orr.w	r6, r6, #2147483648	; 0x80000000
   1a0d8:	4fa2      	ldr	r7, [pc, #648]	; (1a364 <GPIOTE_IRQHandler+0x330>)
   1a0da:	2501      	movs	r5, #1
   1a0dc:	2400      	movs	r4, #0
   1a0de:	00a3      	lsls	r3, r4, #2
   1a0e0:	f103 4380 	add.w	r3, r3, #1073741824	; 0x40000000
   1a0e4:	422e      	tst	r6, r5
   1a0e6:	f503 43c0 	add.w	r3, r3, #24576	; 0x6000
   1a0ea:	ea4f 0545 	mov.w	r5, r5, lsl #1
   1a0ee:	d00b      	beq.n	1a108 <GPIOTE_IRQHandler+0xd4>
   1a0f0:	f8d3 0510 	ldr.w	r0, [r3, #1296]	; 0x510
   1a0f4:	f857 2024 	ldr.w	r2, [r7, r4, lsl #2]
   1a0f8:	f8d3 1510 	ldr.w	r1, [r3, #1296]	; 0x510
   1a0fc:	f3c0 2004 	ubfx	r0, r0, #8, #5
   1a100:	f3c1 4101 	ubfx	r1, r1, #16, #2
   1a104:	b102      	cbz	r2, 1a108 <GPIOTE_IRQHandler+0xd4>
   1a106:	4790      	blx	r2
   1a108:	3401      	adds	r4, #1
   1a10a:	2c08      	cmp	r4, #8
   1a10c:	d1e7      	bne.n	1a0de <GPIOTE_IRQHandler+0xaa>
   1a10e:	2e00      	cmp	r6, #0
   1a110:	dac3      	bge.n	1a09a <GPIOTE_IRQHandler+0x66>
   1a112:	2200      	movs	r2, #0
   1a114:	f04f 33ff 	mov.w	r3, #4294967295	; 0xffffffff
   1a118:	e9cd 2302 	strd	r2, r3, [sp, #8]
   1a11c:	4c91      	ldr	r4, [pc, #580]	; (1a364 <GPIOTE_IRQHandler+0x330>)
   1a11e:	2501      	movs	r5, #1
   1a120:	ae02      	add	r6, sp, #8
   1a122:	f994 0050 	ldrsb.w	r0, [r4, #80]	; 0x50
   1a126:	1c47      	adds	r7, r0, #1
   1a128:	d037      	beq.n	1a19a <GPIOTE_IRQHandler+0x166>
   1a12a:	f3c0 0cc2 	ubfx	ip, r0, #3, #3
   1a12e:	ab06      	add	r3, sp, #24
   1a130:	eb03 070c 	add.w	r7, r3, ip
   1a134:	f000 0307 	and.w	r3, r0, #7
   1a138:	f817 2c0c 	ldrb.w	r2, [r7, #-12]
   1a13c:	fa05 f303 	lsl.w	r3, r5, r3
   1a140:	421a      	tst	r2, r3
   1a142:	b2c1      	uxtb	r1, r0
   1a144:	f000 003f 	and.w	r0, r0, #63	; 0x3f
   1a148:	d027      	beq.n	1a19a <GPIOTE_IRQHandler+0x166>
   1a14a:	1822      	adds	r2, r4, r0
   1a14c:	0989      	lsrs	r1, r1, #6
   1a14e:	f992 2030 	ldrsb.w	r2, [r2, #48]	; 0x30
   1a152:	f854 8022 	ldr.w	r8, [r4, r2, lsl #2]
   1a156:	f1b8 0f00 	cmp.w	r8, #0
   1a15a:	f000 819d 	beq.w	1a498 <GPIOTE_IRQHandler+0x464>
   1a15e:	2903      	cmp	r1, #3
   1a160:	f000 819d 	beq.w	1a49e <GPIOTE_IRQHandler+0x46a>
   1a164:	0082      	lsls	r2, r0, #2
   1a166:	f102 42a0 	add.w	r2, r2, #1342177280	; 0x50000000
   1a16a:	f817 7c14 	ldrb.w	r7, [r7, #-20]
   1a16e:	f8d2 c700 	ldr.w	ip, [r2, #1792]	; 0x700
   1a172:	401f      	ands	r7, r3
   1a174:	f3cc 4c01 	ubfx	ip, ip, #16, #2
   1a178:	d00b      	beq.n	1a192 <GPIOTE_IRQHandler+0x15e>
   1a17a:	f1bc 0f02 	cmp.w	ip, #2
   1a17e:	d10c      	bne.n	1a19a <GPIOTE_IRQHandler+0x166>
   1a180:	2903      	cmp	r1, #3
   1a182:	f000 81bf 	beq.w	1a504 <GPIOTE_IRQHandler+0x4d0>
   1a186:	2700      	movs	r7, #0
   1a188:	f1b8 0f00 	cmp.w	r8, #0
   1a18c:	d006      	beq.n	1a19c <GPIOTE_IRQHandler+0x168>
   1a18e:	47c0      	blx	r8
   1a190:	e004      	b.n	1a19c <GPIOTE_IRQHandler+0x168>
   1a192:	f1bc 0f03 	cmp.w	ip, #3
   1a196:	f000 81a3 	beq.w	1a4e0 <GPIOTE_IRQHandler+0x4ac>
   1a19a:	2700      	movs	r7, #0
   1a19c:	f994 0051 	ldrsb.w	r0, [r4, #81]	; 0x51
   1a1a0:	1c41      	adds	r1, r0, #1
   1a1a2:	d032      	beq.n	1a20a <GPIOTE_IRQHandler+0x1d6>
   1a1a4:	f3c0 0ec2 	ubfx	lr, r0, #3, #3
   1a1a8:	ab06      	add	r3, sp, #24
   1a1aa:	eb03 0c0e 	add.w	ip, r3, lr
   1a1ae:	f000 0307 	and.w	r3, r0, #7
   1a1b2:	f81c 2c0c 	ldrb.w	r2, [ip, #-12]
   1a1b6:	fa05 f303 	lsl.w	r3, r5, r3
   1a1ba:	421a      	tst	r2, r3
   1a1bc:	b2c1      	uxtb	r1, r0
   1a1be:	f000 003f 	and.w	r0, r0, #63	; 0x3f
   1a1c2:	d022      	beq.n	1a20a <GPIOTE_IRQHandler+0x1d6>
   1a1c4:	1822      	adds	r2, r4, r0
   1a1c6:	0989      	lsrs	r1, r1, #6
   1a1c8:	f992 2030 	ldrsb.w	r2, [r2, #48]	; 0x30
   1a1cc:	f854 8022 	ldr.w	r8, [r4, r2, lsl #2]
   1a1d0:	f1b8 0f00 	cmp.w	r8, #0
   1a1d4:	f000 817b 	beq.w	1a4ce <GPIOTE_IRQHandler+0x49a>
   1a1d8:	2903      	cmp	r1, #3
   1a1da:	f000 817b 	beq.w	1a4d4 <GPIOTE_IRQHandler+0x4a0>
   1a1de:	0082      	lsls	r2, r0, #2
   1a1e0:	f102 4ea0 	add.w	lr, r2, #1342177280	; 0x50000000
   1a1e4:	f81c cc14 	ldrb.w	ip, [ip, #-20]
   1a1e8:	f8de 2700 	ldr.w	r2, [lr, #1792]	; 0x700
   1a1ec:	ea1c 0f03 	tst.w	ip, r3
   1a1f0:	f3c2 4201 	ubfx	r2, r2, #16, #2
   1a1f4:	f000 813a 	beq.w	1a46c <GPIOTE_IRQHandler+0x438>
   1a1f8:	2a02      	cmp	r2, #2
   1a1fa:	d106      	bne.n	1a20a <GPIOTE_IRQHandler+0x1d6>
   1a1fc:	2903      	cmp	r1, #3
   1a1fe:	f000 8184 	beq.w	1a50a <GPIOTE_IRQHandler+0x4d6>
   1a202:	f1b8 0f00 	cmp.w	r8, #0
   1a206:	d000      	beq.n	1a20a <GPIOTE_IRQHandler+0x1d6>
   1a208:	47c0      	blx	r8
   1a20a:	f994 0052 	ldrsb.w	r0, [r4, #82]	; 0x52
   1a20e:	1c42      	adds	r2, r0, #1
   1a210:	d032      	beq.n	1a278 <GPIOTE_IRQHandler+0x244>
   1a212:	f3c0 0ec2 	ubfx	lr, r0, #3, #3
   1a216:	ab06      	add	r3, sp, #24
   1a218:	eb03 0c0e 	add.w	ip, r3, lr
   1a21c:	f000 0307 	and.w	r3, r0, #7
   1a220:	f81c 2c0c 	ldrb.w	r2, [ip, #-12]
   1a224:	fa05 f303 	lsl.w	r3, r5, r3
   1a228:	421a      	tst	r2, r3
   1a22a:	b2c1      	uxtb	r1, r0
   1a22c:	f000 003f 	and.w	r0, r0, #63	; 0x3f
   1a230:	d022      	beq.n	1a278 <GPIOTE_IRQHandler+0x244>
   1a232:	1822      	adds	r2, r4, r0
   1a234:	0989      	lsrs	r1, r1, #6
   1a236:	f992 2030 	ldrsb.w	r2, [r2, #48]	; 0x30
   1a23a:	f854 8022 	ldr.w	r8, [r4, r2, lsl #2]
   1a23e:	f1b8 0f00 	cmp.w	r8, #0
   1a242:	f000 813b 	beq.w	1a4bc <GPIOTE_IRQHandler+0x488>
   1a246:	2903      	cmp	r1, #3
   1a248:	f000 813b 	beq.w	1a4c2 <GPIOTE_IRQHandler+0x48e>
   1a24c:	0082      	lsls	r2, r0, #2
   1a24e:	f102 4ea0 	add.w	lr, r2, #1342177280	; 0x50000000
   1a252:	f81c cc14 	ldrb.w	ip, [ip, #-20]
   1a256:	f8de 2700 	ldr.w	r2, [lr, #1792]	; 0x700
   1a25a:	ea1c 0f03 	tst.w	ip, r3
   1a25e:	f3c2 4201 	ubfx	r2, r2, #16, #2
   1a262:	f000 80ed 	beq.w	1a440 <GPIOTE_IRQHandler+0x40c>
   1a266:	2a02      	cmp	r2, #2
   1a268:	d106      	bne.n	1a278 <GPIOTE_IRQHandler+0x244>
   1a26a:	2903      	cmp	r1, #3
   1a26c:	f000 8150 	beq.w	1a510 <GPIOTE_IRQHandler+0x4dc>
   1a270:	f1b8 0f00 	cmp.w	r8, #0
   1a274:	d000      	beq.n	1a278 <GPIOTE_IRQHandler+0x244>
   1a276:	47c0      	blx	r8
   1a278:	f994 0053 	ldrsb.w	r0, [r4, #83]	; 0x53
   1a27c:	1c43      	adds	r3, r0, #1
   1a27e:	d032      	beq.n	1a2e6 <GPIOTE_IRQHandler+0x2b2>
   1a280:	f3c0 0ec2 	ubfx	lr, r0, #3, #3
   1a284:	ab06      	add	r3, sp, #24
   1a286:	eb03 0c0e 	add.w	ip, r3, lr
   1a28a:	f000 0207 	and.w	r2, r0, #7
   1a28e:	f81c 3c0c 	ldrb.w	r3, [ip, #-12]
   1a292:	fa05 f202 	lsl.w	r2, r5, r2
   1a296:	4213      	tst	r3, r2
   1a298:	b2c1      	uxtb	r1, r0
   1a29a:	f000 003f 	and.w	r0, r0, #63	; 0x3f
   1a29e:	d022      	beq.n	1a2e6 <GPIOTE_IRQHandler+0x2b2>
   1a2a0:	1823      	adds	r3, r4, r0
   1a2a2:	0989      	lsrs	r1, r1, #6
   1a2a4:	f993 3030 	ldrsb.w	r3, [r3, #48]	; 0x30
   1a2a8:	f854 8023 	ldr.w	r8, [r4, r3, lsl #2]
   1a2ac:	f1b8 0f00 	cmp.w	r8, #0
   1a2b0:	f000 80fb 	beq.w	1a4aa <GPIOTE_IRQHandler+0x476>
   1a2b4:	2903      	cmp	r1, #3
   1a2b6:	f000 80fb 	beq.w	1a4b0 <GPIOTE_IRQHandler+0x47c>
   1a2ba:	0083      	lsls	r3, r0, #2
   1a2bc:	f103 4ea0 	add.w	lr, r3, #1342177280	; 0x50000000
   1a2c0:	f81c cc14 	ldrb.w	ip, [ip, #-20]
   1a2c4:	f8de 3700 	ldr.w	r3, [lr, #1792]	; 0x700
   1a2c8:	ea1c 0f02 	tst.w	ip, r2
   1a2cc:	f3c3 4301 	ubfx	r3, r3, #16, #2
   1a2d0:	f000 809c 	beq.w	1a40c <GPIOTE_IRQHandler+0x3d8>
   1a2d4:	2b02      	cmp	r3, #2
   1a2d6:	d106      	bne.n	1a2e6 <GPIOTE_IRQHandler+0x2b2>
   1a2d8:	2903      	cmp	r1, #3
   1a2da:	f000 811c 	beq.w	1a516 <GPIOTE_IRQHandler+0x4e2>
   1a2de:	f1b8 0f00 	cmp.w	r8, #0
   1a2e2:	d000      	beq.n	1a2e6 <GPIOTE_IRQHandler+0x2b2>
   1a2e4:	47c0      	blx	r8
   1a2e6:	2f00      	cmp	r7, #0
   1a2e8:	f43f aed7 	beq.w	1a09a <GPIOTE_IRQHandler+0x66>
   1a2ec:	f04f 43a0 	mov.w	r3, #1342177280	; 0x50000000
   1a2f0:	9a01      	ldr	r2, [sp, #4]
   1a2f2:	f8d3 3510 	ldr.w	r3, [r3, #1296]	; 0x510
   1a2f6:	429a      	cmp	r2, r3
   1a2f8:	f43f aecf 	beq.w	1a09a <GPIOTE_IRQHandler+0x66>
   1a2fc:	9a02      	ldr	r2, [sp, #8]
   1a2fe:	9301      	str	r3, [sp, #4]
   1a300:	9203      	str	r2, [sp, #12]
   1a302:	e70e      	b.n	1a122 <GPIOTE_IRQHandler+0xee>
   1a304:	4a16      	ldr	r2, [pc, #88]	; (1a360 <GPIOTE_IRQHandler+0x32c>)
   1a306:	f8d2 2304 	ldr.w	r2, [r2, #772]	; 0x304
   1a30a:	0651      	lsls	r1, r2, #25
   1a30c:	f57f aebb 	bpl.w	1a086 <GPIOTE_IRQHandler+0x52>
   1a310:	2200      	movs	r2, #0
   1a312:	601a      	str	r2, [r3, #0]
   1a314:	681b      	ldr	r3, [r3, #0]
   1a316:	9304      	str	r3, [sp, #16]
   1a318:	9b04      	ldr	r3, [sp, #16]
   1a31a:	f046 0640 	orr.w	r6, r6, #64	; 0x40
   1a31e:	e6b2      	b.n	1a086 <GPIOTE_IRQHandler+0x52>
   1a320:	4a0f      	ldr	r2, [pc, #60]	; (1a360 <GPIOTE_IRQHandler+0x32c>)
   1a322:	f8d2 2304 	ldr.w	r2, [r2, #772]	; 0x304
   1a326:	0690      	lsls	r0, r2, #26
   1a328:	f57f aea8 	bpl.w	1a07c <GPIOTE_IRQHandler+0x48>
   1a32c:	2200      	movs	r2, #0
   1a32e:	601a      	str	r2, [r3, #0]
   1a330:	681b      	ldr	r3, [r3, #0]
   1a332:	9304      	str	r3, [sp, #16]
   1a334:	9b04      	ldr	r3, [sp, #16]
   1a336:	f046 0620 	orr.w	r6, r6, #32
   1a33a:	e69f      	b.n	1a07c <GPIOTE_IRQHandler+0x48>
   1a33c:	40006100 	.word	0x40006100
   1a340:	40006104 	.word	0x40006104
   1a344:	40006108 	.word	0x40006108
   1a348:	4000610c 	.word	0x4000610c
   1a34c:	40006110 	.word	0x40006110
   1a350:	40006114 	.word	0x40006114
   1a354:	40006118 	.word	0x40006118
   1a358:	4000611c 	.word	0x4000611c
   1a35c:	4000617c 	.word	0x4000617c
   1a360:	40006000 	.word	0x40006000
   1a364:	20001298 	.word	0x20001298
   1a368:	4a6c      	ldr	r2, [pc, #432]	; (1a51c <GPIOTE_IRQHandler+0x4e8>)
   1a36a:	f8d2 2304 	ldr.w	r2, [r2, #772]	; 0x304
   1a36e:	06d4      	lsls	r4, r2, #27
   1a370:	f57f ae7f 	bpl.w	1a072 <GPIOTE_IRQHandler+0x3e>
   1a374:	2200      	movs	r2, #0
   1a376:	601a      	str	r2, [r3, #0]
   1a378:	681b      	ldr	r3, [r3, #0]
   1a37a:	9304      	str	r3, [sp, #16]
   1a37c:	9b04      	ldr	r3, [sp, #16]
   1a37e:	f046 0610 	orr.w	r6, r6, #16
   1a382:	e676      	b.n	1a072 <GPIOTE_IRQHandler+0x3e>
   1a384:	4a65      	ldr	r2, [pc, #404]	; (1a51c <GPIOTE_IRQHandler+0x4e8>)
   1a386:	f8d2 2304 	ldr.w	r2, [r2, #772]	; 0x304
   1a38a:	0715      	lsls	r5, r2, #28
   1a38c:	f57f ae6c 	bpl.w	1a068 <GPIOTE_IRQHandler+0x34>
   1a390:	2200      	movs	r2, #0
   1a392:	601a      	str	r2, [r3, #0]
   1a394:	681b      	ldr	r3, [r3, #0]
   1a396:	9304      	str	r3, [sp, #16]
   1a398:	9b04      	ldr	r3, [sp, #16]
   1a39a:	f046 0608 	orr.w	r6, r6, #8
   1a39e:	e663      	b.n	1a068 <GPIOTE_IRQHandler+0x34>
   1a3a0:	4a5e      	ldr	r2, [pc, #376]	; (1a51c <GPIOTE_IRQHandler+0x4e8>)
   1a3a2:	f8d2 2304 	ldr.w	r2, [r2, #772]	; 0x304
   1a3a6:	0757      	lsls	r7, r2, #29
   1a3a8:	f57f ae59 	bpl.w	1a05e <GPIOTE_IRQHandler+0x2a>
   1a3ac:	2200      	movs	r2, #0
   1a3ae:	601a      	str	r2, [r3, #0]
   1a3b0:	681b      	ldr	r3, [r3, #0]
   1a3b2:	9304      	str	r3, [sp, #16]
   1a3b4:	9b04      	ldr	r3, [sp, #16]
   1a3b6:	f046 0604 	orr.w	r6, r6, #4
   1a3ba:	e650      	b.n	1a05e <GPIOTE_IRQHandler+0x2a>
   1a3bc:	4a57      	ldr	r2, [pc, #348]	; (1a51c <GPIOTE_IRQHandler+0x4e8>)
   1a3be:	f8d2 2304 	ldr.w	r2, [r2, #772]	; 0x304
   1a3c2:	0792      	lsls	r2, r2, #30
   1a3c4:	f57f ae46 	bpl.w	1a054 <GPIOTE_IRQHandler+0x20>
   1a3c8:	2200      	movs	r2, #0
   1a3ca:	601a      	str	r2, [r3, #0]
   1a3cc:	681b      	ldr	r3, [r3, #0]
   1a3ce:	9304      	str	r3, [sp, #16]
   1a3d0:	9b04      	ldr	r3, [sp, #16]
   1a3d2:	f046 0602 	orr.w	r6, r6, #2
   1a3d6:	e63d      	b.n	1a054 <GPIOTE_IRQHandler+0x20>
   1a3d8:	4950      	ldr	r1, [pc, #320]	; (1a51c <GPIOTE_IRQHandler+0x4e8>)
   1a3da:	f8d1 6304 	ldr.w	r6, [r1, #772]	; 0x304
   1a3de:	f016 0601 	ands.w	r6, r6, #1
   1a3e2:	f43f ae32 	beq.w	1a04a <GPIOTE_IRQHandler+0x16>
   1a3e6:	6013      	str	r3, [r2, #0]
   1a3e8:	6813      	ldr	r3, [r2, #0]
   1a3ea:	9304      	str	r3, [sp, #16]
   1a3ec:	9b04      	ldr	r3, [sp, #16]
   1a3ee:	e62c      	b.n	1a04a <GPIOTE_IRQHandler+0x16>
   1a3f0:	2200      	movs	r2, #0
   1a3f2:	601a      	str	r2, [r3, #0]
   1a3f4:	681b      	ldr	r3, [r3, #0]
   1a3f6:	9305      	str	r3, [sp, #20]
   1a3f8:	f04f 43a0 	mov.w	r3, #1342177280	; 0x50000000
   1a3fc:	9a05      	ldr	r2, [sp, #20]
   1a3fe:	f8d3 3510 	ldr.w	r3, [r3, #1296]	; 0x510
   1a402:	9301      	str	r3, [sp, #4]
   1a404:	2e00      	cmp	r6, #0
   1a406:	f43f ae84 	beq.w	1a112 <GPIOTE_IRQHandler+0xde>
   1a40a:	e663      	b.n	1a0d4 <GPIOTE_IRQHandler+0xa0>
   1a40c:	2b03      	cmp	r3, #3
   1a40e:	f47f af6a 	bne.w	1a2e6 <GPIOTE_IRQHandler+0x2b2>
   1a412:	2903      	cmp	r1, #3
   1a414:	f47f af63 	bne.w	1a2de <GPIOTE_IRQHandler+0x2aa>
   1a418:	f44f 3200 	mov.w	r2, #131072	; 0x20000
   1a41c:	f8de 3700 	ldr.w	r3, [lr, #1792]	; 0x700
   1a420:	f423 3340 	bic.w	r3, r3, #196608	; 0x30000
   1a424:	f8ce 3700 	str.w	r3, [lr, #1792]	; 0x700
   1a428:	f8de 3700 	ldr.w	r3, [lr, #1792]	; 0x700
   1a42c:	4313      	orrs	r3, r2
   1a42e:	f8ce 3700 	str.w	r3, [lr, #1792]	; 0x700
   1a432:	f1b8 0f00 	cmp.w	r8, #0
   1a436:	f43f af59 	beq.w	1a2ec <GPIOTE_IRQHandler+0x2b8>
   1a43a:	3701      	adds	r7, #1
   1a43c:	b2ff      	uxtb	r7, r7
   1a43e:	e751      	b.n	1a2e4 <GPIOTE_IRQHandler+0x2b0>
   1a440:	2a03      	cmp	r2, #3
   1a442:	f47f af19 	bne.w	1a278 <GPIOTE_IRQHandler+0x244>
   1a446:	2903      	cmp	r1, #3
   1a448:	f47f af12 	bne.w	1a270 <GPIOTE_IRQHandler+0x23c>
   1a44c:	f44f 3200 	mov.w	r2, #131072	; 0x20000
   1a450:	f8de 3700 	ldr.w	r3, [lr, #1792]	; 0x700
   1a454:	f423 3340 	bic.w	r3, r3, #196608	; 0x30000
   1a458:	f8ce 3700 	str.w	r3, [lr, #1792]	; 0x700
   1a45c:	f8de 3700 	ldr.w	r3, [lr, #1792]	; 0x700
   1a460:	3701      	adds	r7, #1
   1a462:	4313      	orrs	r3, r2
   1a464:	b2ff      	uxtb	r7, r7
   1a466:	f8ce 3700 	str.w	r3, [lr, #1792]	; 0x700
   1a46a:	e701      	b.n	1a270 <GPIOTE_IRQHandler+0x23c>
   1a46c:	2a03      	cmp	r2, #3
   1a46e:	f47f aecc 	bne.w	1a20a <GPIOTE_IRQHandler+0x1d6>
   1a472:	2903      	cmp	r1, #3
   1a474:	f47f aec5 	bne.w	1a202 <GPIOTE_IRQHandler+0x1ce>
   1a478:	f44f 3200 	mov.w	r2, #131072	; 0x20000
   1a47c:	f8de 3700 	ldr.w	r3, [lr, #1792]	; 0x700
   1a480:	f423 3340 	bic.w	r3, r3, #196608	; 0x30000
   1a484:	f8ce 3700 	str.w	r3, [lr, #1792]	; 0x700
   1a488:	f8de 3700 	ldr.w	r3, [lr, #1792]	; 0x700
   1a48c:	3701      	adds	r7, #1
   1a48e:	4313      	orrs	r3, r2
   1a490:	b2ff      	uxtb	r7, r7
   1a492:	f8ce 3700 	str.w	r3, [lr, #1792]	; 0x700
   1a496:	e6b4      	b.n	1a202 <GPIOTE_IRQHandler+0x1ce>
   1a498:	2903      	cmp	r1, #3
   1a49a:	f47f ae7e 	bne.w	1a19a <GPIOTE_IRQHandler+0x166>
   1a49e:	f816 200c 	ldrb.w	r2, [r6, ip]
   1a4a2:	431a      	orrs	r2, r3
   1a4a4:	f806 200c 	strb.w	r2, [r6, ip]
   1a4a8:	e65c      	b.n	1a164 <GPIOTE_IRQHandler+0x130>
   1a4aa:	2903      	cmp	r1, #3
   1a4ac:	f47f af1b 	bne.w	1a2e6 <GPIOTE_IRQHandler+0x2b2>
   1a4b0:	f816 300e 	ldrb.w	r3, [r6, lr]
   1a4b4:	4313      	orrs	r3, r2
   1a4b6:	f806 300e 	strb.w	r3, [r6, lr]
   1a4ba:	e6fe      	b.n	1a2ba <GPIOTE_IRQHandler+0x286>
   1a4bc:	2903      	cmp	r1, #3
   1a4be:	f47f aedb 	bne.w	1a278 <GPIOTE_IRQHandler+0x244>
   1a4c2:	f816 200e 	ldrb.w	r2, [r6, lr]
   1a4c6:	431a      	orrs	r2, r3
   1a4c8:	f806 200e 	strb.w	r2, [r6, lr]
   1a4cc:	e6be      	b.n	1a24c <GPIOTE_IRQHandler+0x218>
   1a4ce:	2903      	cmp	r1, #3
   1a4d0:	f47f ae9b 	bne.w	1a20a <GPIOTE_IRQHandler+0x1d6>
   1a4d4:	f816 200e 	ldrb.w	r2, [r6, lr]
   1a4d8:	431a      	orrs	r2, r3
   1a4da:	f806 200e 	strb.w	r2, [r6, lr]
   1a4de:	e67e      	b.n	1a1de <GPIOTE_IRQHandler+0x1aa>
   1a4e0:	2903      	cmp	r1, #3
   1a4e2:	f47f ae51 	bne.w	1a188 <GPIOTE_IRQHandler+0x154>
   1a4e6:	f44f 3700 	mov.w	r7, #131072	; 0x20000
   1a4ea:	f8d2 3700 	ldr.w	r3, [r2, #1792]	; 0x700
   1a4ee:	f423 3340 	bic.w	r3, r3, #196608	; 0x30000
   1a4f2:	f8c2 3700 	str.w	r3, [r2, #1792]	; 0x700
   1a4f6:	f8d2 3700 	ldr.w	r3, [r2, #1792]	; 0x700
   1a4fa:	433b      	orrs	r3, r7
   1a4fc:	f8c2 3700 	str.w	r3, [r2, #1792]	; 0x700
   1a500:	2701      	movs	r7, #1
   1a502:	e641      	b.n	1a188 <GPIOTE_IRQHandler+0x154>
   1a504:	f44f 3740 	mov.w	r7, #196608	; 0x30000
   1a508:	e7ef      	b.n	1a4ea <GPIOTE_IRQHandler+0x4b6>
   1a50a:	f44f 3240 	mov.w	r2, #196608	; 0x30000
   1a50e:	e7b5      	b.n	1a47c <GPIOTE_IRQHandler+0x448>
   1a510:	f44f 3240 	mov.w	r2, #196608	; 0x30000
   1a514:	e79c      	b.n	1a450 <GPIOTE_IRQHandler+0x41c>
   1a516:	f44f 3240 	mov.w	r2, #196608	; 0x30000
   1a51a:	e77f      	b.n	1a41c <GPIOTE_IRQHandler+0x3e8>
   1a51c:	40006000 	.word	0x40006000

0001a520 <nrf_nvmc_page_erase>:
   1a520:	4a0a      	ldr	r2, [pc, #40]	; (1a54c <nrf_nvmc_page_erase+0x2c>)
   1a522:	2302      	movs	r3, #2
   1a524:	f8c2 3504 	str.w	r3, [r2, #1284]	; 0x504
   1a528:	f3bf 8f6f 	isb	sy
   1a52c:	f3bf 8f4f 	dsb	sy
   1a530:	f8c2 0508 	str.w	r0, [r2, #1288]	; 0x508
   1a534:	f8d2 3400 	ldr.w	r3, [r2, #1024]	; 0x400
   1a538:	2b00      	cmp	r3, #0
   1a53a:	d0fb      	beq.n	1a534 <nrf_nvmc_page_erase+0x14>
   1a53c:	2300      	movs	r3, #0
   1a53e:	f8c2 3504 	str.w	r3, [r2, #1284]	; 0x504
   1a542:	f3bf 8f6f 	isb	sy
   1a546:	f3bf 8f4f 	dsb	sy
   1a54a:	4770      	bx	lr
   1a54c:	4001e000 	.word	0x4001e000

0001a550 <nrf_nvmc_write_byte>:
   1a550:	b470      	push	{r4, r5, r6}
   1a552:	f020 0503 	bic.w	r5, r0, #3
   1a556:	00c0      	lsls	r0, r0, #3
   1a558:	f000 0318 	and.w	r3, r0, #24
   1a55c:	4a0e      	ldr	r2, [pc, #56]	; (1a598 <nrf_nvmc_write_byte+0x48>)
   1a55e:	6828      	ldr	r0, [r5, #0]
   1a560:	24ff      	movs	r4, #255	; 0xff
   1a562:	409c      	lsls	r4, r3
   1a564:	2601      	movs	r6, #1
   1a566:	ea20 0004 	bic.w	r0, r0, r4
   1a56a:	f8c2 6504 	str.w	r6, [r2, #1284]	; 0x504
   1a56e:	f3bf 8f6f 	isb	sy
   1a572:	f3bf 8f4f 	dsb	sy
   1a576:	fa01 f303 	lsl.w	r3, r1, r3
   1a57a:	4403      	add	r3, r0
   1a57c:	602b      	str	r3, [r5, #0]
   1a57e:	f8d2 3400 	ldr.w	r3, [r2, #1024]	; 0x400
   1a582:	2b00      	cmp	r3, #0
   1a584:	d0fb      	beq.n	1a57e <nrf_nvmc_write_byte+0x2e>
   1a586:	2300      	movs	r3, #0
   1a588:	f8c2 3504 	str.w	r3, [r2, #1284]	; 0x504
   1a58c:	f3bf 8f6f 	isb	sy
   1a590:	f3bf 8f4f 	dsb	sy
   1a594:	bc70      	pop	{r4, r5, r6}
   1a596:	4770      	bx	lr
   1a598:	4001e000 	.word	0x4001e000

0001a59c <sd_temp_get>:
   1a59c:	df4c      	svc	76	; 0x4c
   1a59e:	4770      	bx	lr

0001a5a0 <sd_flash_write>:
   1a5a0:	df29      	svc	41	; 0x29
   1a5a2:	4770      	bx	lr

0001a5a4 <sd_flash_page_erase>:
   1a5a4:	df28      	svc	40	; 0x28
   1a5a6:	4770      	bx	lr

0001a5a8 <sd_ble_gap_adv_set_configure>:
   1a5a8:	df72      	svc	114	; 0x72
   1a5aa:	4770      	bx	lr

0001a5ac <sd_ble_gap_adv_start>:
   1a5ac:	df73      	svc	115	; 0x73
   1a5ae:	4770      	bx	lr

0001a5b0 <sd_ble_gap_adv_stop>:
   1a5b0:	df74      	svc	116	; 0x74
   1a5b2:	4770      	bx	lr

0001a5b4 <sd_ble_gap_tx_power_set>:
   1a5b4:	df77      	svc	119	; 0x77
   1a5b6:	4770      	bx	lr

0001a5b8 <Errors::check(unsigned short, bool) [clone .constprop.0]>:
   1a5b8:	2800      	cmp	r0, #0
   1a5ba:	f000 8089 	beq.w	1a6d0 <Errors::check(unsigned short, bool) [clone .constprop.0]+0x118>
   1a5be:	e92d 4ff8 	stmdb	sp!, {r3, r4, r5, r6, r7, r8, r9, sl, fp, lr}
   1a5c2:	4e44      	ldr	r6, [pc, #272]	; (1a6d4 <Errors::check(unsigned short, bool) [clone .constprop.0]+0x11c>)
   1a5c4:	4680      	mov	r8, r0
   1a5c6:	f04f 0903 	mov.w	r9, #3
   1a5ca:	f046 0601 	orr.w	r6, r6, #1
   1a5ce:	f04f 44a0 	mov.w	r4, #1342177280	; 0x50000000
   1a5d2:	2501      	movs	r5, #1
   1a5d4:	270c      	movs	r7, #12
   1a5d6:	fa48 f307 	asr.w	r3, r8, r7
   1a5da:	f013 030f 	ands.w	r3, r3, #15
   1a5de:	d04e      	beq.n	1a67e <Errors::check(unsigned short, bool) [clone .constprop.0]+0xc6>
   1a5e0:	f8d4 271c 	ldr.w	r2, [r4, #1820]	; 0x71c
   1a5e4:	07d5      	lsls	r5, r2, #31
   1a5e6:	d529      	bpl.n	1a63c <Errors::check(unsigned short, bool) [clone .constprop.0]+0x84>
   1a5e8:	3b01      	subs	r3, #1
   1a5ea:	b29d      	uxth	r5, r3
   1a5ec:	f04f 0a80 	mov.w	sl, #128	; 0x80
   1a5f0:	f8d4 3504 	ldr.w	r3, [r4, #1284]	; 0x504
   1a5f4:	0618      	lsls	r0, r3, #24
   1a5f6:	bf4c      	ite	mi
   1a5f8:	f8c4 a50c 	strmi.w	sl, [r4, #1292]	; 0x50c
   1a5fc:	f8c4 a508 	strpl.w	sl, [r4, #1288]	; 0x508
   1a600:	f44f 7bfa 	mov.w	fp, #500	; 0x1f4
   1a604:	f44f 407a 	mov.w	r0, #64000	; 0xfa00
   1a608:	47b0      	blx	r6
   1a60a:	f1bb 0b01 	subs.w	fp, fp, #1
   1a60e:	d1f9      	bne.n	1a604 <Errors::check(unsigned short, bool) [clone .constprop.0]+0x4c>
   1a610:	f8d4 3504 	ldr.w	r3, [r4, #1284]	; 0x504
   1a614:	0619      	lsls	r1, r3, #24
   1a616:	bf4c      	ite	mi
   1a618:	f8c4 a50c 	strmi.w	sl, [r4, #1292]	; 0x50c
   1a61c:	f8c4 a508 	strpl.w	sl, [r4, #1288]	; 0x508
   1a620:	f44f 7bfa 	mov.w	fp, #500	; 0x1f4
   1a624:	f44f 407a 	mov.w	r0, #64000	; 0xfa00
   1a628:	47b0      	blx	r6
   1a62a:	f1bb 0b01 	subs.w	fp, fp, #1
   1a62e:	d1f9      	bne.n	1a624 <Errors::check(unsigned short, bool) [clone .constprop.0]+0x6c>
   1a630:	3d01      	subs	r5, #1
   1a632:	b2ad      	uxth	r5, r5
   1a634:	f64f 73ff 	movw	r3, #65535	; 0xffff
   1a638:	429d      	cmp	r5, r3
   1a63a:	d1d9      	bne.n	1a5f0 <Errors::check(unsigned short, bool) [clone .constprop.0]+0x38>
   1a63c:	f44f 75fa 	mov.w	r5, #500	; 0x1f4
   1a640:	f44f 407a 	mov.w	r0, #64000	; 0xfa00
   1a644:	47b0      	blx	r6
   1a646:	3d01      	subs	r5, #1
   1a648:	d1fa      	bne.n	1a640 <Errors::check(unsigned short, bool) [clone .constprop.0]+0x88>
   1a64a:	3f04      	subs	r7, #4
   1a64c:	1d3b      	adds	r3, r7, #4
   1a64e:	d1c2      	bne.n	1a5d6 <Errors::check(unsigned short, bool) [clone .constprop.0]+0x1e>
   1a650:	f640 35b8 	movw	r5, #3000	; 0xbb8
   1a654:	f44f 407a 	mov.w	r0, #64000	; 0xfa00
   1a658:	47b0      	blx	r6
   1a65a:	3d01      	subs	r5, #1
   1a65c:	d1fa      	bne.n	1a654 <Errors::check(unsigned short, bool) [clone .constprop.0]+0x9c>
   1a65e:	f1b9 0901 	subs.w	r9, r9, #1
   1a662:	d1b6      	bne.n	1a5d2 <Errors::check(unsigned short, bool) [clone .constprop.0]+0x1a>
   1a664:	f3bf 8f4f 	dsb	sy
   1a668:	491b      	ldr	r1, [pc, #108]	; (1a6d8 <Errors::check(unsigned short, bool) [clone .constprop.0]+0x120>)
   1a66a:	4b1c      	ldr	r3, [pc, #112]	; (1a6dc <Errors::check(unsigned short, bool) [clone .constprop.0]+0x124>)
   1a66c:	68ca      	ldr	r2, [r1, #12]
   1a66e:	f402 62e0 	and.w	r2, r2, #1792	; 0x700
   1a672:	4313      	orrs	r3, r2
   1a674:	60cb      	str	r3, [r1, #12]
   1a676:	f3bf 8f4f 	dsb	sy
   1a67a:	bf00      	nop
   1a67c:	e7fd      	b.n	1a67a <Errors::check(unsigned short, bool) [clone .constprop.0]+0xc2>
   1a67e:	2d00      	cmp	r5, #0
   1a680:	d1e3      	bne.n	1a64a <Errors::check(unsigned short, bool) [clone .constprop.0]+0x92>
   1a682:	f8d4 3720 	ldr.w	r3, [r4, #1824]	; 0x720
   1a686:	07da      	lsls	r2, r3, #31
   1a688:	d5d8      	bpl.n	1a63c <Errors::check(unsigned short, bool) [clone .constprop.0]+0x84>
   1a68a:	f8d4 3504 	ldr.w	r3, [r4, #1284]	; 0x504
   1a68e:	f413 7f80 	tst.w	r3, #256	; 0x100
   1a692:	f44f 7380 	mov.w	r3, #256	; 0x100
   1a696:	bf14      	ite	ne
   1a698:	f8c4 350c 	strne.w	r3, [r4, #1292]	; 0x50c
   1a69c:	f8c4 3508 	streq.w	r3, [r4, #1288]	; 0x508
   1a6a0:	2532      	movs	r5, #50	; 0x32
   1a6a2:	f44f 407a 	mov.w	r0, #64000	; 0xfa00
   1a6a6:	47b0      	blx	r6
   1a6a8:	3d01      	subs	r5, #1
   1a6aa:	d1fa      	bne.n	1a6a2 <Errors::check(unsigned short, bool) [clone .constprop.0]+0xea>
   1a6ac:	f8d4 3504 	ldr.w	r3, [r4, #1284]	; 0x504
   1a6b0:	f413 7f80 	tst.w	r3, #256	; 0x100
   1a6b4:	f44f 7380 	mov.w	r3, #256	; 0x100
   1a6b8:	bf14      	ite	ne
   1a6ba:	f8c4 350c 	strne.w	r3, [r4, #1292]	; 0x50c
   1a6be:	f8c4 3508 	streq.w	r3, [r4, #1288]	; 0x508
   1a6c2:	2532      	movs	r5, #50	; 0x32
   1a6c4:	f44f 407a 	mov.w	r0, #64000	; 0xfa00
   1a6c8:	47b0      	blx	r6
   1a6ca:	3d01      	subs	r5, #1
   1a6cc:	d1fa      	bne.n	1a6c4 <Errors::check(unsigned short, bool) [clone .constprop.0]+0x10c>
   1a6ce:	e7b5      	b.n	1a63c <Errors::check(unsigned short, bool) [clone .constprop.0]+0x84>
   1a6d0:	4770      	bx	lr
   1a6d2:	bf00      	nop
   1a6d4:	0001d900 	.word	0x0001d900
   1a6d8:	e000ed00 	.word	0xe000ed00
   1a6dc:	05fa0004 	.word	0x05fa0004

0001a6e0 <Ble::eventHandler(ble_evt_t const*, void*)>:
   1a6e0:	b538      	push	{r3, r4, r5, lr}
   1a6e2:	f04f 43a0 	mov.w	r3, #1342177280	; 0x50000000
   1a6e6:	f8d3 271c 	ldr.w	r2, [r3, #1820]	; 0x71c
   1a6ea:	07d2      	lsls	r2, r2, #31
   1a6ec:	d526      	bpl.n	1a73c <Ble::eventHandler(ble_evt_t const*, void*)+0x5c>
   1a6ee:	f8d3 2504 	ldr.w	r2, [r3, #1284]	; 0x504
   1a6f2:	4c13      	ldr	r4, [pc, #76]	; (1a740 <Ble::eventHandler(ble_evt_t const*, void*)+0x60>)
   1a6f4:	f012 0f80 	tst.w	r2, #128	; 0x80
   1a6f8:	f04f 0280 	mov.w	r2, #128	; 0x80
   1a6fc:	bf14      	ite	ne
   1a6fe:	f8c3 250c 	strne.w	r2, [r3, #1292]	; 0x50c
   1a702:	f8c3 2508 	streq.w	r2, [r3, #1288]	; 0x508
   1a706:	2505      	movs	r5, #5
   1a708:	f044 0401 	orr.w	r4, r4, #1
   1a70c:	f44f 407a 	mov.w	r0, #64000	; 0xfa00
   1a710:	47a0      	blx	r4
   1a712:	3d01      	subs	r5, #1
   1a714:	d1fa      	bne.n	1a70c <Ble::eventHandler(ble_evt_t const*, void*)+0x2c>
   1a716:	f04f 43a0 	mov.w	r3, #1342177280	; 0x50000000
   1a71a:	2505      	movs	r5, #5
   1a71c:	f8d3 2504 	ldr.w	r2, [r3, #1284]	; 0x504
   1a720:	f012 0f80 	tst.w	r2, #128	; 0x80
   1a724:	f04f 0280 	mov.w	r2, #128	; 0x80
   1a728:	bf14      	ite	ne
   1a72a:	f8c3 250c 	strne.w	r2, [r3, #1292]	; 0x50c
   1a72e:	f8c3 2508 	streq.w	r2, [r3, #1288]	; 0x508
   1a732:	f44f 407a 	mov.w	r0, #64000	; 0xfa00
   1a736:	47a0      	blx	r4
   1a738:	3d01      	subs	r5, #1
   1a73a:	d1fa      	bne.n	1a732 <Ble::eventHandler(ble_evt_t const*, void*)+0x52>
   1a73c:	bd38      	pop	{r3, r4, r5, pc}
   1a73e:	bf00      	nop
   1a740:	0001d900 	.word	0x0001d900

0001a744 <BL651tempBoard::init()>:
   1a744:	f04f 43a0 	mov.w	r3, #1342177280	; 0x50000000
   1a748:	b410      	push	{r4}
   1a74a:	2201      	movs	r2, #1
   1a74c:	2480      	movs	r4, #128	; 0x80
   1a74e:	f44f 7080 	mov.w	r0, #256	; 0x100
   1a752:	210c      	movs	r1, #12
   1a754:	f8c3 450c 	str.w	r4, [r3, #1292]	; 0x50c
   1a758:	f8c3 271c 	str.w	r2, [r3, #1820]	; 0x71c
   1a75c:	f8c3 050c 	str.w	r0, [r3, #1292]	; 0x50c
   1a760:	f8c3 2720 	str.w	r2, [r3, #1824]	; 0x720
   1a764:	f8c3 176c 	str.w	r1, [r3, #1900]	; 0x76c
   1a768:	bc10      	pop	{r4}
   1a76a:	4770      	bx	lr

0001a76c <BL651tempBoard::alive()>:
   1a76c:	b538      	push	{r3, r4, r5, lr}
   1a76e:	f04f 43a0 	mov.w	r3, #1342177280	; 0x50000000
   1a772:	f8d3 2720 	ldr.w	r2, [r3, #1824]	; 0x720
   1a776:	07d0      	lsls	r0, r2, #31
   1a778:	d52c      	bpl.n	1a7d4 <BL651tempBoard::alive()+0x68>
   1a77a:	f8d3 2504 	ldr.w	r2, [r3, #1284]	; 0x504
   1a77e:	4c2f      	ldr	r4, [pc, #188]	; (1a83c <BL651tempBoard::alive()+0xd0>)
   1a780:	f412 7f80 	tst.w	r2, #256	; 0x100
   1a784:	f44f 7280 	mov.w	r2, #256	; 0x100
   1a788:	bf14      	ite	ne
   1a78a:	f8c3 250c 	strne.w	r2, [r3, #1292]	; 0x50c
   1a78e:	f8c3 2508 	streq.w	r2, [r3, #1288]	; 0x508
   1a792:	2519      	movs	r5, #25
   1a794:	f044 0401 	orr.w	r4, r4, #1
   1a798:	f44f 407a 	mov.w	r0, #64000	; 0xfa00
   1a79c:	47a0      	blx	r4
   1a79e:	3d01      	subs	r5, #1
   1a7a0:	d1fa      	bne.n	1a798 <BL651tempBoard::alive()+0x2c>
   1a7a2:	f04f 43a0 	mov.w	r3, #1342177280	; 0x50000000
   1a7a6:	2519      	movs	r5, #25
   1a7a8:	f8d3 2504 	ldr.w	r2, [r3, #1284]	; 0x504
   1a7ac:	f412 7f80 	tst.w	r2, #256	; 0x100
   1a7b0:	f44f 7280 	mov.w	r2, #256	; 0x100
   1a7b4:	bf14      	ite	ne
   1a7b6:	f8c3 250c 	strne.w	r2, [r3, #1292]	; 0x50c
   1a7ba:	f8c3 2508 	streq.w	r2, [r3, #1288]	; 0x508
   1a7be:	f44f 407a 	mov.w	r0, #64000	; 0xfa00
   1a7c2:	47a0      	blx	r4
   1a7c4:	3d01      	subs	r5, #1
   1a7c6:	d1fa      	bne.n	1a7be <BL651tempBoard::alive()+0x52>
   1a7c8:	25c8      	movs	r5, #200	; 0xc8
   1a7ca:	f44f 407a 	mov.w	r0, #64000	; 0xfa00
   1a7ce:	47a0      	blx	r4
   1a7d0:	3d01      	subs	r5, #1
   1a7d2:	d1fa      	bne.n	1a7ca <BL651tempBoard::alive()+0x5e>
   1a7d4:	f04f 43a0 	mov.w	r3, #1342177280	; 0x50000000
   1a7d8:	f8d3 271c 	ldr.w	r2, [r3, #1820]	; 0x71c
   1a7dc:	07d2      	lsls	r2, r2, #31
   1a7de:	d528      	bpl.n	1a832 <BL651tempBoard::alive()+0xc6>
   1a7e0:	f8d3 2504 	ldr.w	r2, [r3, #1284]	; 0x504
   1a7e4:	0611      	lsls	r1, r2, #24
   1a7e6:	d525      	bpl.n	1a834 <BL651tempBoard::alive()+0xc8>
   1a7e8:	2280      	movs	r2, #128	; 0x80
   1a7ea:	f8c3 250c 	str.w	r2, [r3, #1292]	; 0x50c
   1a7ee:	4c13      	ldr	r4, [pc, #76]	; (1a83c <BL651tempBoard::alive()+0xd0>)
   1a7f0:	2519      	movs	r5, #25
   1a7f2:	f044 0401 	orr.w	r4, r4, #1
   1a7f6:	f44f 407a 	mov.w	r0, #64000	; 0xfa00
   1a7fa:	47a0      	blx	r4
   1a7fc:	3d01      	subs	r5, #1
   1a7fe:	d1fa      	bne.n	1a7f6 <BL651tempBoard::alive()+0x8a>
   1a800:	f04f 43a0 	mov.w	r3, #1342177280	; 0x50000000
   1a804:	2519      	movs	r5, #25
   1a806:	f8d3 2504 	ldr.w	r2, [r3, #1284]	; 0x504
   1a80a:	f012 0f80 	tst.w	r2, #128	; 0x80
   1a80e:	f04f 0280 	mov.w	r2, #128	; 0x80
   1a812:	bf14      	ite	ne
   1a814:	f8c3 250c 	strne.w	r2, [r3, #1292]	; 0x50c
   1a818:	f8c3 2508 	streq.w	r2, [r3, #1288]	; 0x508
   1a81c:	f44f 407a 	mov.w	r0, #64000	; 0xfa00
   1a820:	47a0      	blx	r4
   1a822:	3d01      	subs	r5, #1
   1a824:	d1fa      	bne.n	1a81c <BL651tempBoard::alive()+0xb0>
   1a826:	25c8      	movs	r5, #200	; 0xc8
   1a828:	f44f 407a 	mov.w	r0, #64000	; 0xfa00
   1a82c:	47a0      	blx	r4
   1a82e:	3d01      	subs	r5, #1
   1a830:	d1fa      	bne.n	1a828 <BL651tempBoard::alive()+0xbc>
   1a832:	bd38      	pop	{r3, r4, r5, pc}
   1a834:	2280      	movs	r2, #128	; 0x80
   1a836:	f8c3 2508 	str.w	r2, [r3, #1288]	; 0x508
   1a83a:	e7d8      	b.n	1a7ee <BL651tempBoard::alive()+0x82>
   1a83c:	0001d900 	.word	0x0001d900

0001a840 <Saadc::isBusy()>:
   1a840:	4b01      	ldr	r3, [pc, #4]	; (1a848 <Saadc::isBusy()+0x8>)
   1a842:	f8d3 0400 	ldr.w	r0, [r3, #1024]	; 0x400
   1a846:	4770      	bx	lr
   1a848:	40007000 	.word	0x40007000

0001a84c <Saadc::enable()>:
   1a84c:	4b02      	ldr	r3, [pc, #8]	; (1a858 <Saadc::enable()+0xc>)
   1a84e:	2201      	movs	r2, #1
   1a850:	f8c3 2500 	str.w	r2, [r3, #1280]	; 0x500
   1a854:	4770      	bx	lr
   1a856:	bf00      	nop
   1a858:	40007000 	.word	0x40007000

0001a85c <Saadc::disable()>:
   1a85c:	4b02      	ldr	r3, [pc, #8]	; (1a868 <Saadc::disable()+0xc>)
   1a85e:	2200      	movs	r2, #0
   1a860:	f8c3 2500 	str.w	r2, [r3, #1280]	; 0x500
   1a864:	4770      	bx	lr
   1a866:	bf00      	nop
   1a868:	40007000 	.word	0x40007000

0001a86c <Saadc::clearStarted()>:
   1a86c:	4b02      	ldr	r3, [pc, #8]	; (1a878 <Saadc::clearStarted()+0xc>)
   1a86e:	2200      	movs	r2, #0
   1a870:	f8c3 2100 	str.w	r2, [r3, #256]	; 0x100
   1a874:	4770      	bx	lr
   1a876:	bf00      	nop
   1a878:	40007000 	.word	0x40007000

0001a87c <Saadc::clearBufferFull()>:
   1a87c:	4b02      	ldr	r3, [pc, #8]	; (1a888 <Saadc::clearBufferFull()+0xc>)
   1a87e:	2200      	movs	r2, #0
   1a880:	f8c3 2104 	str.w	r2, [r3, #260]	; 0x104
   1a884:	4770      	bx	lr
   1a886:	bf00      	nop
   1a888:	40007000 	.word	0x40007000

0001a88c <Saadc::clearConversion()>:
   1a88c:	4b02      	ldr	r3, [pc, #8]	; (1a898 <Saadc::clearConversion()+0xc>)
   1a88e:	2200      	movs	r2, #0
   1a890:	f8c3 2108 	str.w	r2, [r3, #264]	; 0x108
   1a894:	4770      	bx	lr
   1a896:	bf00      	nop
   1a898:	40007000 	.word	0x40007000

0001a89c <Saadc::clearResult()>:
   1a89c:	4b02      	ldr	r3, [pc, #8]	; (1a8a8 <Saadc::clearResult()+0xc>)
   1a89e:	2200      	movs	r2, #0
   1a8a0:	f8c3 210c 	str.w	r2, [r3, #268]	; 0x10c
   1a8a4:	4770      	bx	lr
   1a8a6:	bf00      	nop
   1a8a8:	40007000 	.word	0x40007000

0001a8ac <Saadc::clearCalibrated()>:
   1a8ac:	4b02      	ldr	r3, [pc, #8]	; (1a8b8 <Saadc::clearCalibrated()+0xc>)
   1a8ae:	2200      	movs	r2, #0
   1a8b0:	f8c3 2110 	str.w	r2, [r3, #272]	; 0x110
   1a8b4:	4770      	bx	lr
   1a8b6:	bf00      	nop
   1a8b8:	40007000 	.word	0x40007000

0001a8bc <Saadc::clearStopped()>:
   1a8bc:	4b02      	ldr	r3, [pc, #8]	; (1a8c8 <Saadc::clearStopped()+0xc>)
   1a8be:	2200      	movs	r2, #0
   1a8c0:	f8c3 2114 	str.w	r2, [r3, #276]	; 0x114
   1a8c4:	4770      	bx	lr
   1a8c6:	bf00      	nop
   1a8c8:	40007000 	.word	0x40007000

0001a8cc <Saadc::clearEvents()>:
   1a8cc:	b508      	push	{r3, lr}
   1a8ce:	f7ff ffcd 	bl	1a86c <Saadc::clearStarted()>
   1a8d2:	f7ff ffd3 	bl	1a87c <Saadc::clearBufferFull()>
   1a8d6:	f7ff ffd9 	bl	1a88c <Saadc::clearConversion()>
   1a8da:	f7ff ffdf 	bl	1a89c <Saadc::clearResult()>
   1a8de:	f7ff ffed 	bl	1a8bc <Saadc::clearStopped()>
   1a8e2:	bd08      	pop	{r3, pc}

0001a8e4 <Saadc::isResult()>:
   1a8e4:	4b01      	ldr	r3, [pc, #4]	; (1a8ec <Saadc::isResult()+0x8>)
   1a8e6:	f8d3 010c 	ldr.w	r0, [r3, #268]	; 0x10c
   1a8ea:	4770      	bx	lr
   1a8ec:	40007000 	.word	0x40007000

0001a8f0 <Saadc::isCalibrated()>:
   1a8f0:	4b01      	ldr	r3, [pc, #4]	; (1a8f8 <Saadc::isCalibrated()+0x8>)
   1a8f2:	f8d3 0110 	ldr.w	r0, [r3, #272]	; 0x110
   1a8f6:	4770      	bx	lr
   1a8f8:	40007000 	.word	0x40007000

0001a8fc <Saadc::start()>:
   1a8fc:	b508      	push	{r3, lr}
   1a8fe:	f7ff ffa5 	bl	1a84c <Saadc::enable()>
   1a902:	4b02      	ldr	r3, [pc, #8]	; (1a90c <Saadc::start()+0x10>)
   1a904:	2201      	movs	r2, #1
   1a906:	601a      	str	r2, [r3, #0]
   1a908:	bd08      	pop	{r3, pc}
   1a90a:	bf00      	nop
   1a90c:	40007000 	.word	0x40007000

0001a910 <Saadc::sample()>:
   1a910:	4b01      	ldr	r3, [pc, #4]	; (1a918 <Saadc::sample()+0x8>)
   1a912:	2201      	movs	r2, #1
   1a914:	605a      	str	r2, [r3, #4]
   1a916:	4770      	bx	lr
   1a918:	40007000 	.word	0x40007000

0001a91c <Saadc::calibrate()>:
   1a91c:	b508      	push	{r3, lr}
   1a91e:	f7ff ff95 	bl	1a84c <Saadc::enable()>
   1a922:	4b05      	ldr	r3, [pc, #20]	; (1a938 <Saadc::calibrate()+0x1c>)
   1a924:	2201      	movs	r2, #1
   1a926:	60da      	str	r2, [r3, #12]
   1a928:	f7ff ffe2 	bl	1a8f0 <Saadc::isCalibrated()>
   1a92c:	2800      	cmp	r0, #0
   1a92e:	d0fb      	beq.n	1a928 <Saadc::calibrate()+0xc>
   1a930:	f7ff ffbc 	bl	1a8ac <Saadc::clearCalibrated()>
   1a934:	bd08      	pop	{r3, pc}
   1a936:	bf00      	nop
   1a938:	40007000 	.word	0x40007000

0001a93c <Saadc::channelSetup(Saadc::CH, unsigned long, Saadc::PSEL, Saadc::PSEL)>:
   1a93c:	b470      	push	{r4, r5, r6}
   1a93e:	ea52 0403 	orrs.w	r4, r2, r3
   1a942:	d005      	beq.n	1a950 <Saadc::channelSetup(Saadc::CH, unsigned long, Saadc::PSEL, Saadc::PSEL)+0x14>
   1a944:	4d09      	ldr	r5, [pc, #36]	; (1a96c <Saadc::channelSetup(Saadc::CH, unsigned long, Saadc::PSEL, Saadc::PSEL)+0x30>)
   1a946:	2401      	movs	r4, #1
   1a948:	782e      	ldrb	r6, [r5, #0]
   1a94a:	4084      	lsls	r4, r0
   1a94c:	4334      	orrs	r4, r6
   1a94e:	702c      	strb	r4, [r5, #0]
   1a950:	0100      	lsls	r0, r0, #4
   1a952:	f100 4480 	add.w	r4, r0, #1073741824	; 0x40000000
   1a956:	f504 44e0 	add.w	r4, r4, #28672	; 0x7000
   1a95a:	f8c4 2510 	str.w	r2, [r4, #1296]	; 0x510
   1a95e:	f8c4 3514 	str.w	r3, [r4, #1300]	; 0x514
   1a962:	f8c4 1518 	str.w	r1, [r4, #1304]	; 0x518
   1a966:	bc70      	pop	{r4, r5, r6}
   1a968:	4770      	bx	lr
   1a96a:	bf00      	nop
   1a96c:	200013af 	.word	0x200013af

0001a970 <Saadc::channelRelease(Saadc::CH)>:
   1a970:	b410      	push	{r4}
   1a972:	4c0a      	ldr	r4, [pc, #40]	; (1a99c <Saadc::channelRelease(Saadc::CH)+0x2c>)
   1a974:	0103      	lsls	r3, r0, #4
   1a976:	7822      	ldrb	r2, [r4, #0]
   1a978:	f103 4380 	add.w	r3, r3, #1073741824	; 0x40000000
   1a97c:	2101      	movs	r1, #1
   1a97e:	f503 43e0 	add.w	r3, r3, #28672	; 0x7000
   1a982:	fa01 f000 	lsl.w	r0, r1, r0
   1a986:	ea22 0000 	bic.w	r0, r2, r0
   1a98a:	2200      	movs	r2, #0
   1a98c:	f8c3 2510 	str.w	r2, [r3, #1296]	; 0x510
   1a990:	f8c3 2514 	str.w	r2, [r3, #1300]	; 0x514
   1a994:	7020      	strb	r0, [r4, #0]
   1a996:	bc10      	pop	{r4}
   1a998:	4770      	bx	lr
   1a99a:	bf00      	nop
   1a99c:	200013af 	.word	0x200013af

0001a9a0 <Saadc::channelOnly(Saadc::CH)>:
   1a9a0:	b510      	push	{r4, lr}
   1a9a2:	4604      	mov	r4, r0
   1a9a4:	bb08      	cbnz	r0, 1a9ea <Saadc::channelOnly(Saadc::CH)+0x4a>
   1a9a6:	2001      	movs	r0, #1
   1a9a8:	f7ff ffe2 	bl	1a970 <Saadc::channelRelease(Saadc::CH)>
   1a9ac:	2002      	movs	r0, #2
   1a9ae:	f7ff ffdf 	bl	1a970 <Saadc::channelRelease(Saadc::CH)>
   1a9b2:	2c03      	cmp	r4, #3
   1a9b4:	d10b      	bne.n	1a9ce <Saadc::channelOnly(Saadc::CH)+0x2e>
   1a9b6:	2004      	movs	r0, #4
   1a9b8:	f7ff ffda 	bl	1a970 <Saadc::channelRelease(Saadc::CH)>
   1a9bc:	2005      	movs	r0, #5
   1a9be:	f7ff ffd7 	bl	1a970 <Saadc::channelRelease(Saadc::CH)>
   1a9c2:	2c06      	cmp	r4, #6
   1a9c4:	d10b      	bne.n	1a9de <Saadc::channelOnly(Saadc::CH)+0x3e>
   1a9c6:	2007      	movs	r0, #7
   1a9c8:	f7ff ffd2 	bl	1a970 <Saadc::channelRelease(Saadc::CH)>
   1a9cc:	bd10      	pop	{r4, pc}
   1a9ce:	2003      	movs	r0, #3
   1a9d0:	f7ff ffce 	bl	1a970 <Saadc::channelRelease(Saadc::CH)>
   1a9d4:	2c04      	cmp	r4, #4
   1a9d6:	d115      	bne.n	1aa04 <Saadc::channelOnly(Saadc::CH)+0x64>
   1a9d8:	2005      	movs	r0, #5
   1a9da:	f7ff ffc9 	bl	1a970 <Saadc::channelRelease(Saadc::CH)>
   1a9de:	2006      	movs	r0, #6
   1a9e0:	f7ff ffc6 	bl	1a970 <Saadc::channelRelease(Saadc::CH)>
   1a9e4:	2c07      	cmp	r4, #7
   1a9e6:	d1ee      	bne.n	1a9c6 <Saadc::channelOnly(Saadc::CH)+0x26>
   1a9e8:	bd10      	pop	{r4, pc}
   1a9ea:	2000      	movs	r0, #0
   1a9ec:	f7ff ffc0 	bl	1a970 <Saadc::channelRelease(Saadc::CH)>
   1a9f0:	2c01      	cmp	r4, #1
   1a9f2:	d0db      	beq.n	1a9ac <Saadc::channelOnly(Saadc::CH)+0xc>
   1a9f4:	2001      	movs	r0, #1
   1a9f6:	f7ff ffbb 	bl	1a970 <Saadc::channelRelease(Saadc::CH)>
   1a9fa:	2c02      	cmp	r4, #2
   1a9fc:	d1d6      	bne.n	1a9ac <Saadc::channelOnly(Saadc::CH)+0xc>
   1a9fe:	2003      	movs	r0, #3
   1aa00:	f7ff ffb6 	bl	1a970 <Saadc::channelRelease(Saadc::CH)>
   1aa04:	2004      	movs	r0, #4
   1aa06:	f7ff ffb3 	bl	1a970 <Saadc::channelRelease(Saadc::CH)>
   1aa0a:	2c05      	cmp	r4, #5
   1aa0c:	d1d6      	bne.n	1a9bc <Saadc::channelOnly(Saadc::CH)+0x1c>
   1aa0e:	2006      	movs	r0, #6
   1aa10:	f7ff ffae 	bl	1a970 <Saadc::channelRelease(Saadc::CH)>
   1aa14:	e7d7      	b.n	1a9c6 <Saadc::channelOnly(Saadc::CH)+0x26>
   1aa16:	bf00      	nop

0001aa18 <Saadc::resolution(Saadc::RES)>:
   1aa18:	4b01      	ldr	r3, [pc, #4]	; (1aa20 <Saadc::resolution(Saadc::RES)+0x8>)
   1aa1a:	f8c3 05f0 	str.w	r0, [r3, #1520]	; 0x5f0
   1aa1e:	4770      	bx	lr
   1aa20:	40007000 	.word	0x40007000

0001aa24 <Saadc::resolution()>:
   1aa24:	4b02      	ldr	r3, [pc, #8]	; (1aa30 <Saadc::resolution()+0xc>)
   1aa26:	f8d3 05f0 	ldr.w	r0, [r3, #1520]	; 0x5f0
   1aa2a:	b2c0      	uxtb	r0, r0
   1aa2c:	4770      	bx	lr
   1aa2e:	bf00      	nop
   1aa30:	40007000 	.word	0x40007000

0001aa34 <Saadc::overSample(Saadc::OVERSAMP)>:
   1aa34:	4b01      	ldr	r3, [pc, #4]	; (1aa3c <Saadc::overSample(Saadc::OVERSAMP)+0x8>)
   1aa36:	f8c3 05f4 	str.w	r0, [r3, #1524]	; 0x5f4
   1aa3a:	4770      	bx	lr
   1aa3c:	40007000 	.word	0x40007000

0001aa40 <Saadc::overSample()>:
   1aa40:	4b02      	ldr	r3, [pc, #8]	; (1aa4c <Saadc::overSample()+0xc>)
   1aa42:	f8d3 05f4 	ldr.w	r0, [r3, #1524]	; 0x5f4
   1aa46:	b2c0      	uxtb	r0, r0
   1aa48:	4770      	bx	lr
   1aa4a:	bf00      	nop
   1aa4c:	40007000 	.word	0x40007000

0001aa50 <Saadc::bufferAddr(unsigned long)>:
   1aa50:	4b01      	ldr	r3, [pc, #4]	; (1aa58 <Saadc::bufferAddr(unsigned long)+0x8>)
   1aa52:	f8c3 062c 	str.w	r0, [r3, #1580]	; 0x62c
   1aa56:	4770      	bx	lr
   1aa58:	40007000 	.word	0x40007000

0001aa5c <Saadc::bufferSize(unsigned short)>:
   1aa5c:	4b01      	ldr	r3, [pc, #4]	; (1aa64 <Saadc::bufferSize(unsigned short)+0x8>)
   1aa5e:	f8c3 0630 	str.w	r0, [r3, #1584]	; 0x630
   1aa62:	4770      	bx	lr
   1aa64:	40007000 	.word	0x40007000

0001aa68 <Saadc::bufferSet(unsigned long, unsigned short)>:
   1aa68:	b510      	push	{r4, lr}
   1aa6a:	460c      	mov	r4, r1
   1aa6c:	f7ff fff0 	bl	1aa50 <Saadc::bufferAddr(unsigned long)>
   1aa70:	4620      	mov	r0, r4
   1aa72:	f7ff fff3 	bl	1aa5c <Saadc::bufferSize(unsigned short)>
   1aa76:	bd10      	pop	{r4, pc}

0001aa78 <SaadcChan::setConfig(short&)>:
   1aa78:	b538      	push	{r3, r4, r5, lr}
   1aa7a:	4604      	mov	r4, r0
   1aa7c:	f7ff fee0 	bl	1a840 <Saadc::isBusy()>
   1aa80:	b9a8      	cbnz	r0, 1aaae <SaadcChan::setConfig(short&)+0x36>
   1aa82:	4a0c      	ldr	r2, [pc, #48]	; (1aab4 <SaadcChan::setConfig(short&)+0x3c>)
   1aa84:	4b0c      	ldr	r3, [pc, #48]	; (1aab8 <SaadcChan::setConfig(short&)+0x40>)
   1aa86:	7812      	ldrb	r2, [r2, #0]
   1aa88:	781b      	ldrb	r3, [r3, #0]
   1aa8a:	ea52 0003 	orrs.w	r0, r2, r3
   1aa8e:	d00d      	beq.n	1aaac <SaadcChan::setConfig(short&)+0x34>
   1aa90:	4d0a      	ldr	r5, [pc, #40]	; (1aabc <SaadcChan::setConfig(short&)+0x44>)
   1aa92:	490b      	ldr	r1, [pc, #44]	; (1aac0 <SaadcChan::setConfig(short&)+0x48>)
   1aa94:	7828      	ldrb	r0, [r5, #0]
   1aa96:	6809      	ldr	r1, [r1, #0]
   1aa98:	f7ff ff50 	bl	1a93c <Saadc::channelSetup(Saadc::CH, unsigned long, Saadc::PSEL, Saadc::PSEL)>
   1aa9c:	4620      	mov	r0, r4
   1aa9e:	2101      	movs	r1, #1
   1aaa0:	f7ff ffe2 	bl	1aa68 <Saadc::bufferSet(unsigned long, unsigned short)>
   1aaa4:	7828      	ldrb	r0, [r5, #0]
   1aaa6:	f7ff ff7b 	bl	1a9a0 <Saadc::channelOnly(Saadc::CH)>
   1aaaa:	2001      	movs	r0, #1
   1aaac:	bd38      	pop	{r3, r4, r5, pc}
   1aaae:	2000      	movs	r0, #0
   1aab0:	bd38      	pop	{r3, r4, r5, pc}
   1aab2:	bf00      	nop
   1aab4:	200013ad 	.word	0x200013ad
   1aab8:	200013ac 	.word	0x200013ac
   1aabc:	200013ae 	.word	0x200013ae
   1aac0:	200013a8 	.word	0x200013a8

0001aac4 <SaadcChan::result1()>:
   1aac4:	b508      	push	{r3, lr}
   1aac6:	f7ff fee9 	bl	1a89c <Saadc::clearResult()>
   1aaca:	e001      	b.n	1aad0 <SaadcChan::result1()+0xc>
   1aacc:	f7ff ff20 	bl	1a910 <Saadc::sample()>
   1aad0:	f7ff ff08 	bl	1a8e4 <Saadc::isResult()>
   1aad4:	2800      	cmp	r0, #0
   1aad6:	d0f9      	beq.n	1aacc <SaadcChan::result1()+0x8>
   1aad8:	bd08      	pop	{r3, pc}
   1aada:	bf00      	nop

0001aadc <SaadcChan::read(short&, Saadc::RES, Saadc::OVERSAMP)>:
   1aadc:	b5f8      	push	{r3, r4, r5, r6, r7, lr}
   1aade:	460e      	mov	r6, r1
   1aae0:	4615      	mov	r5, r2
   1aae2:	f7ff ffc9 	bl	1aa78 <SaadcChan::setConfig(short&)>
   1aae6:	4604      	mov	r4, r0
   1aae8:	b1f0      	cbz	r0, 1ab28 <SaadcChan::read(short&, Saadc::RES, Saadc::OVERSAMP)+0x4c>
   1aaea:	f7ff ff9b 	bl	1aa24 <Saadc::resolution()>
   1aaee:	4607      	mov	r7, r0
   1aaf0:	f7ff ffa6 	bl	1aa40 <Saadc::overSample()>
   1aaf4:	4603      	mov	r3, r0
   1aaf6:	4630      	mov	r0, r6
   1aaf8:	461e      	mov	r6, r3
   1aafa:	f7ff ff8d 	bl	1aa18 <Saadc::resolution(Saadc::RES)>
   1aafe:	4628      	mov	r0, r5
   1ab00:	f7ff ff98 	bl	1aa34 <Saadc::overSample(Saadc::OVERSAMP)>
   1ab04:	f7ff fefa 	bl	1a8fc <Saadc::start()>
   1ab08:	f7ff ffdc 	bl	1aac4 <SaadcChan::result1()>
   1ab0c:	4638      	mov	r0, r7
   1ab0e:	f7ff ff83 	bl	1aa18 <Saadc::resolution(Saadc::RES)>
   1ab12:	4630      	mov	r0, r6
   1ab14:	f7ff ff8e 	bl	1aa34 <Saadc::overSample(Saadc::OVERSAMP)>
   1ab18:	f7ff fea0 	bl	1a85c <Saadc::disable()>
   1ab1c:	f7ff fed6 	bl	1a8cc <Saadc::clearEvents()>
   1ab20:	4b02      	ldr	r3, [pc, #8]	; (1ab2c <SaadcChan::read(short&, Saadc::RES, Saadc::OVERSAMP)+0x50>)
   1ab22:	7818      	ldrb	r0, [r3, #0]
   1ab24:	f7ff ff24 	bl	1a970 <Saadc::channelRelease(Saadc::CH)>
   1ab28:	4620      	mov	r0, r4
   1ab2a:	bdf8      	pop	{r3, r4, r5, r6, r7, pc}
   1ab2c:	200013ae 	.word	0x200013ae

0001ab30 <Battery::update()>:
   1ab30:	b530      	push	{r4, r5, lr}
   1ab32:	4d1a      	ldr	r5, [pc, #104]	; (1ab9c <Battery::update()+0x6c>)
   1ab34:	782c      	ldrb	r4, [r5, #0]
   1ab36:	b083      	sub	sp, #12
   1ab38:	b15c      	cbz	r4, 1ab52 <Battery::update()+0x22>
   1ab3a:	4b19      	ldr	r3, [pc, #100]	; (1aba0 <Battery::update()+0x70>)
   1ab3c:	f9b3 0000 	ldrsh.w	r0, [r3]
   1ab40:	3401      	adds	r4, #1
   1ab42:	b2e4      	uxtb	r4, r4
   1ab44:	2c3b      	cmp	r4, #59	; 0x3b
   1ab46:	bf8a      	itet	hi
   1ab48:	2300      	movhi	r3, #0
   1ab4a:	702c      	strbls	r4, [r5, #0]
   1ab4c:	702b      	strbhi	r3, [r5, #0]
   1ab4e:	b003      	add	sp, #12
   1ab50:	bd30      	pop	{r4, r5, pc}
   1ab52:	f7ff fee3 	bl	1a91c <Saadc::calibrate()>
   1ab56:	2203      	movs	r2, #3
   1ab58:	2101      	movs	r1, #1
   1ab5a:	f10d 0006 	add.w	r0, sp, #6
   1ab5e:	f8ad 4006 	strh.w	r4, [sp, #6]
   1ab62:	f7ff ffbb 	bl	1aadc <SaadcChan::read(short&, Saadc::RES, Saadc::OVERSAMP)>
   1ab66:	f9bd 0006 	ldrsh.w	r0, [sp, #6]
   1ab6a:	4b0d      	ldr	r3, [pc, #52]	; (1aba0 <Battery::update()+0x70>)
   1ab6c:	ebc0 1000 	rsb	r0, r0, r0, lsl #4
   1ab70:	ebc0 1000 	rsb	r0, r0, r0, lsl #4
   1ab74:	0100      	lsls	r0, r0, #4
   1ab76:	bf48      	it	mi
   1ab78:	f200 30ff 	addwmi	r0, r0, #1023	; 0x3ff
   1ab7c:	f340 208f 	sbfx	r0, r0, #10, #16
   1ab80:	f5b0 7ffa 	cmp.w	r0, #500	; 0x1f4
   1ab84:	db07      	blt.n	1ab96 <Battery::update()+0x66>
   1ab86:	f5b0 6f61 	cmp.w	r0, #3600	; 0xe10
   1ab8a:	bfc8      	it	gt
   1ab8c:	f242 700f 	movwgt	r0, #9999	; 0x270f
   1ab90:	8018      	strh	r0, [r3, #0]
   1ab92:	782c      	ldrb	r4, [r5, #0]
   1ab94:	e7d4      	b.n	1ab40 <Battery::update()+0x10>
   1ab96:	2000      	movs	r0, #0
   1ab98:	8018      	strh	r0, [r3, #0]
   1ab9a:	e7fa      	b.n	1ab92 <Battery::update()+0x62>
   1ab9c:	200013a2 	.word	0x200013a2
   1aba0:	200013a4 	.word	0x200013a4

0001aba4 <Battery::read()>:
   1aba4:	b508      	push	{r3, lr}
   1aba6:	f7ff ffc3 	bl	1ab30 <Battery::update()>
   1abaa:	bd08      	pop	{r3, pc}

0001abac <Battery::isOk()>:
   1abac:	4b04      	ldr	r3, [pc, #16]	; (1abc0 <Battery::isOk()+0x14>)
   1abae:	f9b3 0000 	ldrsh.w	r0, [r3]
   1abb2:	f640 0334 	movw	r3, #2100	; 0x834
   1abb6:	4298      	cmp	r0, r3
   1abb8:	bfd4      	ite	le
   1abba:	2000      	movle	r0, #0
   1abbc:	2001      	movgt	r0, #1
   1abbe:	4770      	bx	lr
   1abc0:	200013a4 	.word	0x200013a4

0001abc4 <Flags01::make(unsigned char*, unsigned char)>:
   1abc4:	2202      	movs	r2, #2
   1abc6:	2301      	movs	r3, #1
   1abc8:	7081      	strb	r1, [r0, #2]
   1abca:	7002      	strb	r2, [r0, #0]
   1abcc:	7043      	strb	r3, [r0, #1]
   1abce:	2003      	movs	r0, #3
   1abd0:	4770      	bx	lr
   1abd2:	bf00      	nop

0001abd4 <CompleteName09::make(unsigned char*, char const*, unsigned char)>:
   1abd4:	b5f8      	push	{r3, r4, r5, r6, r7, lr}
   1abd6:	4605      	mov	r5, r0
   1abd8:	4608      	mov	r0, r1
   1abda:	4617      	mov	r7, r2
   1abdc:	460e      	mov	r6, r1
   1abde:	f001 f8f5 	bl	1bdcc <strlen>
   1abe2:	b2c4      	uxtb	r4, r0
   1abe4:	42bc      	cmp	r4, r7
   1abe6:	bf28      	it	cs
   1abe8:	463c      	movcs	r4, r7
   1abea:	1c62      	adds	r2, r4, #1
   1abec:	2309      	movs	r3, #9
   1abee:	702a      	strb	r2, [r5, #0]
   1abf0:	4631      	mov	r1, r6
   1abf2:	706b      	strb	r3, [r5, #1]
   1abf4:	1ca8      	adds	r0, r5, #2
   1abf6:	4622      	mov	r2, r4
   1abf8:	f001 f896 	bl	1bd28 <memcpy>
   1abfc:	1ca0      	adds	r0, r4, #2
   1abfe:	bdf8      	pop	{r3, r4, r5, r6, r7, pc}

0001ac00 <UUID07::u16toBcd(unsigned short)>:
   1ac00:	4b19      	ldr	r3, [pc, #100]	; (1ac68 <UUID07::u16toBcd(unsigned short)+0x68>)
   1ac02:	4a1a      	ldr	r2, [pc, #104]	; (1ac6c <UUID07::u16toBcd(unsigned short)+0x6c>)
   1ac04:	491a      	ldr	r1, [pc, #104]	; (1ac70 <UUID07::u16toBcd(unsigned short)+0x70>)
   1ac06:	b430      	push	{r4, r5}
   1ac08:	fba3 4300 	umull	r4, r3, r3, r0
   1ac0c:	095b      	lsrs	r3, r3, #5
   1ac0e:	fba2 4503 	umull	r4, r5, r2, r3
   1ac12:	fba1 4100 	umull	r4, r1, r1, r0
   1ac16:	08ed      	lsrs	r5, r5, #3
   1ac18:	0989      	lsrs	r1, r1, #6
   1ac1a:	eb05 0585 	add.w	r5, r5, r5, lsl #2
   1ac1e:	eba3 0345 	sub.w	r3, r3, r5, lsl #1
   1ac22:	fba2 c501 	umull	ip, r5, r2, r1
   1ac26:	fba2 c400 	umull	ip, r4, r2, r0
   1ac2a:	08ed      	lsrs	r5, r5, #3
   1ac2c:	08e4      	lsrs	r4, r4, #3
   1ac2e:	eb05 0585 	add.w	r5, r5, r5, lsl #2
   1ac32:	eba1 0145 	sub.w	r1, r1, r5, lsl #1
   1ac36:	b2a5      	uxth	r5, r4
   1ac38:	fba2 c205 	umull	ip, r2, r2, r5
   1ac3c:	eb04 0484 	add.w	r4, r4, r4, lsl #2
   1ac40:	b29b      	uxth	r3, r3
   1ac42:	08d2      	lsrs	r2, r2, #3
   1ac44:	eba0 0044 	sub.w	r0, r0, r4, lsl #1
   1ac48:	021b      	lsls	r3, r3, #8
   1ac4a:	b289      	uxth	r1, r1
   1ac4c:	eb02 0282 	add.w	r2, r2, r2, lsl #2
   1ac50:	b280      	uxth	r0, r0
   1ac52:	eba5 0242 	sub.w	r2, r5, r2, lsl #1
   1ac56:	ea43 3301 	orr.w	r3, r3, r1, lsl #12
   1ac5a:	4303      	orrs	r3, r0
   1ac5c:	b290      	uxth	r0, r2
   1ac5e:	ea43 1000 	orr.w	r0, r3, r0, lsl #4
   1ac62:	bc30      	pop	{r4, r5}
   1ac64:	4770      	bx	lr
   1ac66:	bf00      	nop
   1ac68:	51eb851f 	.word	0x51eb851f
   1ac6c:	cccccccd 	.word	0xcccccccd
   1ac70:	10624dd3 	.word	0x10624dd3

0001ac74 <UUID07::makeBCD(unsigned char*, unsigned short const (&) [8])>:
   1ac74:	b538      	push	{r3, r4, r5, lr}
   1ac76:	2211      	movs	r2, #17
   1ac78:	2307      	movs	r3, #7
   1ac7a:	7002      	strb	r2, [r0, #0]
   1ac7c:	7043      	strb	r3, [r0, #1]
   1ac7e:	4604      	mov	r4, r0
   1ac80:	8808      	ldrh	r0, [r1, #0]
   1ac82:	460d      	mov	r5, r1
   1ac84:	f7ff ffbc 	bl	1ac00 <UUID07::u16toBcd(unsigned short)>
   1ac88:	1203      	asrs	r3, r0, #8
   1ac8a:	70e3      	strb	r3, [r4, #3]
   1ac8c:	70a0      	strb	r0, [r4, #2]
   1ac8e:	8868      	ldrh	r0, [r5, #2]
   1ac90:	f7ff ffb6 	bl	1ac00 <UUID07::u16toBcd(unsigned short)>
   1ac94:	1203      	asrs	r3, r0, #8
   1ac96:	7163      	strb	r3, [r4, #5]
   1ac98:	7120      	strb	r0, [r4, #4]
   1ac9a:	88a8      	ldrh	r0, [r5, #4]
   1ac9c:	f7ff ffb0 	bl	1ac00 <UUID07::u16toBcd(unsigned short)>
   1aca0:	1203      	asrs	r3, r0, #8
   1aca2:	71e3      	strb	r3, [r4, #7]
   1aca4:	71a0      	strb	r0, [r4, #6]
   1aca6:	88e8      	ldrh	r0, [r5, #6]
   1aca8:	f7ff ffaa 	bl	1ac00 <UUID07::u16toBcd(unsigned short)>
   1acac:	1203      	asrs	r3, r0, #8
   1acae:	7263      	strb	r3, [r4, #9]
   1acb0:	7220      	strb	r0, [r4, #8]
   1acb2:	8928      	ldrh	r0, [r5, #8]
   1acb4:	f7ff ffa4 	bl	1ac00 <UUID07::u16toBcd(unsigned short)>
   1acb8:	1203      	asrs	r3, r0, #8
   1acba:	72e3      	strb	r3, [r4, #11]
   1acbc:	72a0      	strb	r0, [r4, #10]
   1acbe:	8968      	ldrh	r0, [r5, #10]
   1acc0:	f7ff ff9e 	bl	1ac00 <UUID07::u16toBcd(unsigned short)>
   1acc4:	1203      	asrs	r3, r0, #8
   1acc6:	7363      	strb	r3, [r4, #13]
   1acc8:	7320      	strb	r0, [r4, #12]
   1acca:	89a8      	ldrh	r0, [r5, #12]
   1accc:	f7ff ff98 	bl	1ac00 <UUID07::u16toBcd(unsigned short)>
   1acd0:	1203      	asrs	r3, r0, #8
   1acd2:	73a0      	strb	r0, [r4, #14]
   1acd4:	73e3      	strb	r3, [r4, #15]
   1acd6:	89eb      	ldrh	r3, [r5, #14]
   1acd8:	7423      	strb	r3, [r4, #16]
   1acda:	121b      	asrs	r3, r3, #8
   1acdc:	7463      	strb	r3, [r4, #17]
   1acde:	2012      	movs	r0, #18
   1ace0:	bd38      	pop	{r3, r4, r5, pc}
   1ace2:	bf00      	nop

0001ace4 <MyTemperatureAD<TemperatureInternal<(unsigned char)5> >::makeValidLetter(char)>:
   1ace4:	f1a0 0341 	sub.w	r3, r0, #65	; 0x41
   1ace8:	2b19      	cmp	r3, #25
   1acea:	bf88      	it	hi
   1acec:	2054      	movhi	r0, #84	; 0x54
   1acee:	4770      	bx	lr

0001acf0 <MyTemperatureAD<TemperatureInternal<(unsigned char)5> >::getNameFlash()>:
   1acf0:	f44f 333c 	mov.w	r3, #192512	; 0x2f000
   1acf4:	7818      	ldrb	r0, [r3, #0]
   1acf6:	4770      	bx	lr

0001acf8 <MyTemperatureAD<TemperatureInternal<(unsigned char)5> >::sdFlashWrite(char)>:
   1acf8:	b570      	push	{r4, r5, r6, lr}
   1acfa:	4604      	mov	r4, r0
   1acfc:	b082      	sub	sp, #8
   1acfe:	202f      	movs	r0, #47	; 0x2f
   1ad00:	f7ff fc50 	bl	1a5a4 <sd_flash_page_erase>
   1ad04:	b280      	uxth	r0, r0
   1ad06:	4d17      	ldr	r5, [pc, #92]	; (1ad64 <MyTemperatureAD<TemperatureInternal<(unsigned char)5> >::sdFlashWrite(char)+0x6c>)
   1ad08:	f7ff fc56 	bl	1a5b8 <Errors::check(unsigned short, bool) [clone .constprop.0]>
   1ad0c:	f44f 767a 	mov.w	r6, #1000	; 0x3e8
   1ad10:	f045 0501 	orr.w	r5, r5, #1
   1ad14:	f44f 407a 	mov.w	r0, #64000	; 0xfa00
   1ad18:	47a8      	blx	r5
   1ad1a:	3e01      	subs	r6, #1
   1ad1c:	d1fa      	bne.n	1ad14 <MyTemperatureAD<TemperatureInternal<(unsigned char)5> >::sdFlashWrite(char)+0x1c>
   1ad1e:	f44f 333c 	mov.w	r3, #192512	; 0x2f000
   1ad22:	781b      	ldrb	r3, [r3, #0]
   1ad24:	2bff      	cmp	r3, #255	; 0xff
   1ad26:	d002      	beq.n	1ad2e <MyTemperatureAD<TemperatureInternal<(unsigned char)5> >::sdFlashWrite(char)+0x36>
   1ad28:	2003      	movs	r0, #3
   1ad2a:	f7ff fc45 	bl	1a5b8 <Errors::check(unsigned short, bool) [clone .constprop.0]>
   1ad2e:	2201      	movs	r2, #1
   1ad30:	a901      	add	r1, sp, #4
   1ad32:	f44f 303c 	mov.w	r0, #192512	; 0x2f000
   1ad36:	9401      	str	r4, [sp, #4]
   1ad38:	f7ff fc32 	bl	1a5a0 <sd_flash_write>
   1ad3c:	b280      	uxth	r0, r0
   1ad3e:	f7ff fc3b 	bl	1a5b8 <Errors::check(unsigned short, bool) [clone .constprop.0]>
   1ad42:	f44f 767a 	mov.w	r6, #1000	; 0x3e8
   1ad46:	f44f 407a 	mov.w	r0, #64000	; 0xfa00
   1ad4a:	47a8      	blx	r5
   1ad4c:	3e01      	subs	r6, #1
   1ad4e:	d1fa      	bne.n	1ad46 <MyTemperatureAD<TemperatureInternal<(unsigned char)5> >::sdFlashWrite(char)+0x4e>
   1ad50:	f44f 333c 	mov.w	r3, #192512	; 0x2f000
   1ad54:	781b      	ldrb	r3, [r3, #0]
   1ad56:	42a3      	cmp	r3, r4
   1ad58:	d002      	beq.n	1ad60 <MyTemperatureAD<TemperatureInternal<(unsigned char)5> >::sdFlashWrite(char)+0x68>
   1ad5a:	2003      	movs	r0, #3
   1ad5c:	f7ff fc2c 	bl	1a5b8 <Errors::check(unsigned short, bool) [clone .constprop.0]>
   1ad60:	b002      	add	sp, #8
   1ad62:	bd70      	pop	{r4, r5, r6, pc}
   1ad64:	0001d900 	.word	0x0001d900

0001ad68 <MyTemperatureAD<TemperatureInternal<(unsigned char)5> >::flashWrite(char)>:
   1ad68:	b510      	push	{r4, lr}
   1ad6a:	4604      	mov	r4, r0
   1ad6c:	f000 fecc 	bl	1bb08 <nrf_sdh_is_enabled>
   1ad70:	b950      	cbnz	r0, 1ad88 <MyTemperatureAD<TemperatureInternal<(unsigned char)5> >::flashWrite(char)+0x20>
   1ad72:	f44f 303c 	mov.w	r0, #192512	; 0x2f000
   1ad76:	f7ff fbd3 	bl	1a520 <nrf_nvmc_page_erase>
   1ad7a:	4621      	mov	r1, r4
   1ad7c:	f44f 303c 	mov.w	r0, #192512	; 0x2f000
   1ad80:	e8bd 4010 	ldmia.w	sp!, {r4, lr}
   1ad84:	f7ff bbe4 	b.w	1a550 <nrf_nvmc_write_byte>
   1ad88:	4620      	mov	r0, r4
   1ad8a:	f7ff ffb5 	bl	1acf8 <MyTemperatureAD<TemperatureInternal<(unsigned char)5> >::sdFlashWrite(char)>
   1ad8e:	bd10      	pop	{r4, pc}

0001ad90 <MyTemperatureAD<TemperatureInternal<(unsigned char)5> >::setNameFlash(char)>:
   1ad90:	b538      	push	{r3, r4, r5, lr}
   1ad92:	4605      	mov	r5, r0
   1ad94:	f7ff ffa6 	bl	1ace4 <MyTemperatureAD<TemperatureInternal<(unsigned char)5> >::makeValidLetter(char)>
   1ad98:	42a8      	cmp	r0, r5
   1ad9a:	d000      	beq.n	1ad9e <MyTemperatureAD<TemperatureInternal<(unsigned char)5> >::setNameFlash(char)+0xe>
   1ad9c:	bd38      	pop	{r3, r4, r5, pc}
   1ad9e:	4604      	mov	r4, r0
   1ada0:	f7ff ffa6 	bl	1acf0 <MyTemperatureAD<TemperatureInternal<(unsigned char)5> >::getNameFlash()>
   1ada4:	42a0      	cmp	r0, r4
   1ada6:	d0f9      	beq.n	1ad9c <MyTemperatureAD<TemperatureInternal<(unsigned char)5> >::setNameFlash(char)+0xc>
   1ada8:	4620      	mov	r0, r4
   1adaa:	f7ff ffdd 	bl	1ad68 <MyTemperatureAD<TemperatureInternal<(unsigned char)5> >::flashWrite(char)>
   1adae:	bd38      	pop	{r3, r4, r5, pc}

0001adb0 <MyTemperatureAD<TemperatureInternal<(unsigned char)5> >::setName(char)>:
   1adb0:	b508      	push	{r3, lr}
   1adb2:	f7ff ff97 	bl	1ace4 <MyTemperatureAD<TemperatureInternal<(unsigned char)5> >::makeValidLetter(char)>
   1adb6:	4b01      	ldr	r3, [pc, #4]	; (1adbc <MyTemperatureAD<TemperatureInternal<(unsigned char)5> >::setName(char)+0xc>)
   1adb8:	7018      	strb	r0, [r3, #0]
   1adba:	bd08      	pop	{r3, pc}
   1adbc:	20001385 	.word	0x20001385

0001adc0 <MyTemperatureAD<TemperatureInternal<(unsigned char)5> >::init()>:
   1adc0:	e92d 43f8 	stmdb	sp!, {r3, r4, r5, r6, r7, r8, r9, lr}
   1adc4:	f04f 48a0 	mov.w	r8, #1342177280	; 0x50000000
   1adc8:	f8df 9230 	ldr.w	r9, [pc, #560]	; 1affc <MyTemperatureAD<TemperatureInternal<(unsigned char)5> >::init()+0x23c>
   1adcc:	f8d8 3720 	ldr.w	r3, [r8, #1824]	; 0x720
   1add0:	07d9      	lsls	r1, r3, #31
   1add2:	d524      	bpl.n	1ae1e <MyTemperatureAD<TemperatureInternal<(unsigned char)5> >::init()+0x5e>
   1add4:	f049 0601 	orr.w	r6, r9, #1
   1add8:	2705      	movs	r7, #5
   1adda:	f44f 7480 	mov.w	r4, #256	; 0x100
   1adde:	f8d8 3504 	ldr.w	r3, [r8, #1284]	; 0x504
   1ade2:	05da      	lsls	r2, r3, #23
   1ade4:	bf4c      	ite	mi
   1ade6:	f8c8 450c 	strmi.w	r4, [r8, #1292]	; 0x50c
   1adea:	f8c8 4508 	strpl.w	r4, [r8, #1288]	; 0x508
   1adee:	2532      	movs	r5, #50	; 0x32
   1adf0:	f44f 407a 	mov.w	r0, #64000	; 0xfa00
   1adf4:	47b0      	blx	r6
   1adf6:	3d01      	subs	r5, #1
   1adf8:	d1fa      	bne.n	1adf0 <MyTemperatureAD<TemperatureInternal<(unsigned char)5> >::init()+0x30>
   1adfa:	f8d8 3504 	ldr.w	r3, [r8, #1284]	; 0x504
   1adfe:	05db      	lsls	r3, r3, #23
   1ae00:	bf4c      	ite	mi
   1ae02:	f8c8 450c 	strmi.w	r4, [r8, #1292]	; 0x50c
   1ae06:	f8c8 4508 	strpl.w	r4, [r8, #1288]	; 0x508
   1ae0a:	2532      	movs	r5, #50	; 0x32
   1ae0c:	f44f 407a 	mov.w	r0, #64000	; 0xfa00
   1ae10:	47b0      	blx	r6
   1ae12:	3d01      	subs	r5, #1
   1ae14:	d1fa      	bne.n	1ae0c <MyTemperatureAD<TemperatureInternal<(unsigned char)5> >::init()+0x4c>
   1ae16:	3f01      	subs	r7, #1
   1ae18:	b2bf      	uxth	r7, r7
   1ae1a:	2f00      	cmp	r7, #0
   1ae1c:	d1df      	bne.n	1adde <MyTemperatureAD<TemperatureInternal<(unsigned char)5> >::init()+0x1e>
   1ae1e:	f049 0901 	orr.w	r9, r9, #1
   1ae22:	f04f 0800 	mov.w	r8, #0
   1ae26:	2540      	movs	r5, #64	; 0x40
   1ae28:	f04f 46a0 	mov.w	r6, #1342177280	; 0x50000000
   1ae2c:	f8d6 3510 	ldr.w	r3, [r6, #1296]	; 0x510
   1ae30:	011f      	lsls	r7, r3, #4
   1ae32:	f100 80e0 	bmi.w	1aff6 <MyTemperatureAD<TemperatureInternal<(unsigned char)5> >::init()+0x236>
   1ae36:	f8d6 371c 	ldr.w	r3, [r6, #1820]	; 0x71c
   1ae3a:	07d8      	lsls	r0, r3, #31
   1ae3c:	d521      	bpl.n	1ae82 <MyTemperatureAD<TemperatureInternal<(unsigned char)5> >::init()+0xc2>
   1ae3e:	f8d6 3504 	ldr.w	r3, [r6, #1284]	; 0x504
   1ae42:	f013 0f80 	tst.w	r3, #128	; 0x80
   1ae46:	f04f 0380 	mov.w	r3, #128	; 0x80
   1ae4a:	bf14      	ite	ne
   1ae4c:	f8c6 350c 	strne.w	r3, [r6, #1292]	; 0x50c
   1ae50:	f8c6 3508 	streq.w	r3, [r6, #1288]	; 0x508
   1ae54:	2705      	movs	r7, #5
   1ae56:	f44f 407a 	mov.w	r0, #64000	; 0xfa00
   1ae5a:	47c8      	blx	r9
   1ae5c:	3f01      	subs	r7, #1
   1ae5e:	d1fa      	bne.n	1ae56 <MyTemperatureAD<TemperatureInternal<(unsigned char)5> >::init()+0x96>
   1ae60:	f8d6 3504 	ldr.w	r3, [r6, #1284]	; 0x504
   1ae64:	f013 0f80 	tst.w	r3, #128	; 0x80
   1ae68:	f04f 0380 	mov.w	r3, #128	; 0x80
   1ae6c:	bf14      	ite	ne
   1ae6e:	f8c6 350c 	strne.w	r3, [r6, #1292]	; 0x50c
   1ae72:	f8c6 3508 	streq.w	r3, [r6, #1288]	; 0x508
   1ae76:	2705      	movs	r7, #5
   1ae78:	f44f 407a 	mov.w	r0, #64000	; 0xfa00
   1ae7c:	47c8      	blx	r9
   1ae7e:	3f01      	subs	r7, #1
   1ae80:	d1fa      	bne.n	1ae78 <MyTemperatureAD<TemperatureInternal<(unsigned char)5> >::init()+0xb8>
   1ae82:	3501      	adds	r5, #1
   1ae84:	b2ed      	uxtb	r5, r5
   1ae86:	f8d6 376c 	ldr.w	r3, [r6, #1900]	; 0x76c
   1ae8a:	2d5b      	cmp	r5, #91	; 0x5b
   1ae8c:	bf28      	it	cs
   1ae8e:	2541      	movcs	r5, #65	; 0x41
   1ae90:	07d9      	lsls	r1, r3, #31
   1ae92:	d41c      	bmi.n	1aece <MyTemperatureAD<TemperatureInternal<(unsigned char)5> >::init()+0x10e>
   1ae94:	f8d6 376c 	ldr.w	r3, [r6, #1900]	; 0x76c
   1ae98:	079a      	lsls	r2, r3, #30
   1ae9a:	d418      	bmi.n	1aece <MyTemperatureAD<TemperatureInternal<(unsigned char)5> >::init()+0x10e>
   1ae9c:	f44f 407a 	mov.w	r0, #64000	; 0xfa00
   1aea0:	47c8      	blx	r9
   1aea2:	f640 32b8 	movw	r2, #3000	; 0xbb8
   1aea6:	1e57      	subs	r7, r2, #1
   1aea8:	2463      	movs	r4, #99	; 0x63
   1aeaa:	b2bf      	uxth	r7, r7
   1aeac:	b17a      	cbz	r2, 1aece <MyTemperatureAD<TemperatureInternal<(unsigned char)5> >::init()+0x10e>
   1aeae:	f8d6 3510 	ldr.w	r3, [r6, #1296]	; 0x510
   1aeb2:	011b      	lsls	r3, r3, #4
   1aeb4:	d552      	bpl.n	1af5c <MyTemperatureAD<TemperatureInternal<(unsigned char)5> >::init()+0x19c>
   1aeb6:	f44f 407a 	mov.w	r0, #64000	; 0xfa00
   1aeba:	47c8      	blx	r9
   1aebc:	1e63      	subs	r3, r4, #1
   1aebe:	b29b      	uxth	r3, r3
   1aec0:	b12c      	cbz	r4, 1aece <MyTemperatureAD<TemperatureInternal<(unsigned char)5> >::init()+0x10e>
   1aec2:	463a      	mov	r2, r7
   1aec4:	1e57      	subs	r7, r2, #1
   1aec6:	461c      	mov	r4, r3
   1aec8:	b2bf      	uxth	r7, r7
   1aeca:	2a00      	cmp	r2, #0
   1aecc:	d1ef      	bne.n	1aeae <MyTemperatureAD<TemperatureInternal<(unsigned char)5> >::init()+0xee>
   1aece:	f8d6 3510 	ldr.w	r3, [r6, #1296]	; 0x510
   1aed2:	011c      	lsls	r4, r3, #4
   1aed4:	d5af      	bpl.n	1ae36 <MyTemperatureAD<TemperatureInternal<(unsigned char)5> >::init()+0x76>
   1aed6:	f04f 0801 	mov.w	r8, #1
   1aeda:	2732      	movs	r7, #50	; 0x32
   1aedc:	f44f 407a 	mov.w	r0, #64000	; 0xfa00
   1aee0:	47c8      	blx	r9
   1aee2:	3f01      	subs	r7, #1
   1aee4:	d1fa      	bne.n	1aedc <MyTemperatureAD<TemperatureInternal<(unsigned char)5> >::init()+0x11c>
   1aee6:	f1b8 0fc8 	cmp.w	r8, #200	; 0xc8
   1aeea:	d19f      	bne.n	1ae2c <MyTemperatureAD<TemperatureInternal<(unsigned char)5> >::init()+0x6c>
   1aeec:	2d40      	cmp	r5, #64	; 0x40
   1aeee:	d146      	bne.n	1af7e <MyTemperatureAD<TemperatureInternal<(unsigned char)5> >::init()+0x1be>
   1aef0:	f04f 47a0 	mov.w	r7, #1342177280	; 0x50000000
   1aef4:	f8d7 3720 	ldr.w	r3, [r7, #1824]	; 0x720
   1aef8:	07d9      	lsls	r1, r3, #31
   1aefa:	d529      	bpl.n	1af50 <MyTemperatureAD<TemperatureInternal<(unsigned char)5> >::init()+0x190>
   1aefc:	2605      	movs	r6, #5
   1aefe:	f44f 7480 	mov.w	r4, #256	; 0x100
   1af02:	f8d7 3504 	ldr.w	r3, [r7, #1284]	; 0x504
   1af06:	05da      	lsls	r2, r3, #23
   1af08:	bf4c      	ite	mi
   1af0a:	f8c7 450c 	strmi.w	r4, [r7, #1292]	; 0x50c
   1af0e:	f8c7 4508 	strpl.w	r4, [r7, #1288]	; 0x508
   1af12:	2532      	movs	r5, #50	; 0x32
   1af14:	f44f 407a 	mov.w	r0, #64000	; 0xfa00
   1af18:	47c8      	blx	r9
   1af1a:	3d01      	subs	r5, #1
   1af1c:	d1fa      	bne.n	1af14 <MyTemperatureAD<TemperatureInternal<(unsigned char)5> >::init()+0x154>
   1af1e:	f8d7 3504 	ldr.w	r3, [r7, #1284]	; 0x504
   1af22:	05db      	lsls	r3, r3, #23
   1af24:	bf4c      	ite	mi
   1af26:	f8c7 450c 	strmi.w	r4, [r7, #1292]	; 0x50c
   1af2a:	f8c7 4508 	strpl.w	r4, [r7, #1288]	; 0x508
   1af2e:	2532      	movs	r5, #50	; 0x32
   1af30:	f44f 407a 	mov.w	r0, #64000	; 0xfa00
   1af34:	47c8      	blx	r9
   1af36:	3d01      	subs	r5, #1
   1af38:	d1fa      	bne.n	1af30 <MyTemperatureAD<TemperatureInternal<(unsigned char)5> >::init()+0x170>
   1af3a:	3e01      	subs	r6, #1
   1af3c:	b2b6      	uxth	r6, r6
   1af3e:	2e00      	cmp	r6, #0
   1af40:	d1df      	bne.n	1af02 <MyTemperatureAD<TemperatureInternal<(unsigned char)5> >::init()+0x142>
   1af42:	f44f 757a 	mov.w	r5, #1000	; 0x3e8
   1af46:	f44f 407a 	mov.w	r0, #64000	; 0xfa00
   1af4a:	47c8      	blx	r9
   1af4c:	3d01      	subs	r5, #1
   1af4e:	d1fa      	bne.n	1af46 <MyTemperatureAD<TemperatureInternal<(unsigned char)5> >::init()+0x186>
   1af50:	f7ff fece 	bl	1acf0 <MyTemperatureAD<TemperatureInternal<(unsigned char)5> >::getNameFlash()>
   1af54:	f7ff ff2c 	bl	1adb0 <MyTemperatureAD<TemperatureInternal<(unsigned char)5> >::setName(char)>
   1af58:	e8bd 83f8 	ldmia.w	sp!, {r3, r4, r5, r6, r7, r8, r9, pc}
   1af5c:	f44f 407a 	mov.w	r0, #64000	; 0xfa00
   1af60:	3f01      	subs	r7, #1
   1af62:	47c8      	blx	r9
   1af64:	b2bf      	uxth	r7, r7
   1af66:	f64f 73ff 	movw	r3, #65535	; 0xffff
   1af6a:	429f      	cmp	r7, r3
   1af6c:	f04f 0463 	mov.w	r4, #99	; 0x63
   1af70:	d19d      	bne.n	1aeae <MyTemperatureAD<TemperatureInternal<(unsigned char)5> >::init()+0xee>
   1af72:	f8d6 3510 	ldr.w	r3, [r6, #1296]	; 0x510
   1af76:	011c      	lsls	r4, r3, #4
   1af78:	f57f af5d 	bpl.w	1ae36 <MyTemperatureAD<TemperatureInternal<(unsigned char)5> >::init()+0x76>
   1af7c:	e7ab      	b.n	1aed6 <MyTemperatureAD<TemperatureInternal<(unsigned char)5> >::init()+0x116>
   1af7e:	f04f 46a0 	mov.w	r6, #1342177280	; 0x50000000
   1af82:	4628      	mov	r0, r5
   1af84:	f7ff ff04 	bl	1ad90 <MyTemperatureAD<TemperatureInternal<(unsigned char)5> >::setNameFlash(char)>
   1af88:	f8d6 3720 	ldr.w	r3, [r6, #1824]	; 0x720
   1af8c:	07dd      	lsls	r5, r3, #31
   1af8e:	d5df      	bpl.n	1af50 <MyTemperatureAD<TemperatureInternal<(unsigned char)5> >::init()+0x190>
   1af90:	f04f 0802 	mov.w	r8, #2
   1af94:	f44f 7780 	mov.w	r7, #256	; 0x100
   1af98:	f8d6 3504 	ldr.w	r3, [r6, #1284]	; 0x504
   1af9c:	05dc      	lsls	r4, r3, #23
   1af9e:	bf4c      	ite	mi
   1afa0:	f8c6 750c 	strmi.w	r7, [r6, #1292]	; 0x50c
   1afa4:	f8c6 7508 	strpl.w	r7, [r6, #1288]	; 0x508
   1afa8:	25fa      	movs	r5, #250	; 0xfa
   1afaa:	f44f 407a 	mov.w	r0, #64000	; 0xfa00
   1afae:	47c8      	blx	r9
   1afb0:	3d01      	subs	r5, #1
   1afb2:	d1fa      	bne.n	1afaa <MyTemperatureAD<TemperatureInternal<(unsigned char)5> >::init()+0x1ea>
   1afb4:	f8d6 3504 	ldr.w	r3, [r6, #1284]	; 0x504
   1afb8:	05d8      	lsls	r0, r3, #23
   1afba:	bf4c      	ite	mi
   1afbc:	f8c6 750c 	strmi.w	r7, [r6, #1292]	; 0x50c
   1afc0:	f8c6 7508 	strpl.w	r7, [r6, #1288]	; 0x508
   1afc4:	25fa      	movs	r5, #250	; 0xfa
   1afc6:	f44f 407a 	mov.w	r0, #64000	; 0xfa00
   1afca:	47c8      	blx	r9
   1afcc:	3d01      	subs	r5, #1
   1afce:	d1fa      	bne.n	1afc6 <MyTemperatureAD<TemperatureInternal<(unsigned char)5> >::init()+0x206>
   1afd0:	f1b8 0f01 	cmp.w	r8, #1
   1afd4:	d002      	beq.n	1afdc <MyTemperatureAD<TemperatureInternal<(unsigned char)5> >::init()+0x21c>
   1afd6:	f04f 0801 	mov.w	r8, #1
   1afda:	e7dd      	b.n	1af98 <MyTemperatureAD<TemperatureInternal<(unsigned char)5> >::init()+0x1d8>
   1afdc:	f44f 757a 	mov.w	r5, #1000	; 0x3e8
   1afe0:	f44f 407a 	mov.w	r0, #64000	; 0xfa00
   1afe4:	47c8      	blx	r9
   1afe6:	3d01      	subs	r5, #1
   1afe8:	d1fa      	bne.n	1afe0 <MyTemperatureAD<TemperatureInternal<(unsigned char)5> >::init()+0x220>
   1afea:	f7ff fe81 	bl	1acf0 <MyTemperatureAD<TemperatureInternal<(unsigned char)5> >::getNameFlash()>
   1afee:	f7ff fedf 	bl	1adb0 <MyTemperatureAD<TemperatureInternal<(unsigned char)5> >::setName(char)>
   1aff2:	e8bd 83f8 	ldmia.w	sp!, {r3, r4, r5, r6, r7, r8, r9, pc}
   1aff6:	f108 0801 	add.w	r8, r8, #1
   1affa:	e76e      	b.n	1aeda <MyTemperatureAD<TemperatureInternal<(unsigned char)5> >::init()+0x11a>
   1affc:	0001d900 	.word	0x0001d900

0001b000 <Advertising<MyTemperatureAD<TemperatureInternal<(unsigned char)5> >, (unsigned short)3000, &(advInitCB())>::stop()>:
   1b000:	b510      	push	{r4, lr}
   1b002:	4c07      	ldr	r4, [pc, #28]	; (1b020 <Advertising<MyTemperatureAD<TemperatureInternal<(unsigned char)5> >, (unsigned short)3000, &(advInitCB())>::stop()+0x20>)
   1b004:	7823      	ldrb	r3, [r4, #0]
   1b006:	b903      	cbnz	r3, 1b00a <Advertising<MyTemperatureAD<TemperatureInternal<(unsigned char)5> >, (unsigned short)3000, &(advInitCB())>::stop()+0xa>
   1b008:	bd10      	pop	{r4, pc}
   1b00a:	4b06      	ldr	r3, [pc, #24]	; (1b024 <Advertising<MyTemperatureAD<TemperatureInternal<(unsigned char)5> >, (unsigned short)3000, &(advInitCB())>::stop()+0x24>)
   1b00c:	7818      	ldrb	r0, [r3, #0]
   1b00e:	f7ff facf 	bl	1a5b0 <sd_ble_gap_adv_stop>
   1b012:	b280      	uxth	r0, r0
   1b014:	f7ff fad0 	bl	1a5b8 <Errors::check(unsigned short, bool) [clone .constprop.0]>
   1b018:	2300      	movs	r3, #0
   1b01a:	7023      	strb	r3, [r4, #0]
   1b01c:	bd10      	pop	{r4, pc}
   1b01e:	bf00      	nop
   1b020:	20001349 	.word	0x20001349
   1b024:	20001140 	.word	0x20001140

0001b028 <MyTemperatureAD<TemperatureInternal<(unsigned char)5> >::uuidId(unsigned short)>:
   1b028:	4b01      	ldr	r3, [pc, #4]	; (1b030 <MyTemperatureAD<TemperatureInternal<(unsigned char)5> >::uuidId(unsigned short)+0x8>)
   1b02a:	81d8      	strh	r0, [r3, #14]
   1b02c:	4770      	bx	lr
   1b02e:	bf00      	nop
   1b030:	20001388 	.word	0x20001388

0001b034 <MyTemperatureAD<TemperatureInternal<(unsigned char)5> >::uuidCountInc()>:
   1b034:	4b05      	ldr	r3, [pc, #20]	; (1b04c <MyTemperatureAD<TemperatureInternal<(unsigned char)5> >::uuidCountInc()+0x18>)
   1b036:	8998      	ldrh	r0, [r3, #12]
   1b038:	3001      	adds	r0, #1
   1b03a:	b280      	uxth	r0, r0
   1b03c:	f242 720f 	movw	r2, #9999	; 0x270f
   1b040:	4290      	cmp	r0, r2
   1b042:	bf88      	it	hi
   1b044:	2000      	movhi	r0, #0
   1b046:	8198      	strh	r0, [r3, #12]
   1b048:	4770      	bx	lr
   1b04a:	bf00      	nop
   1b04c:	20001388 	.word	0x20001388

0001b050 <Temperature<(unsigned char)5>::histSize()>:
   1b050:	2005      	movs	r0, #5
   1b052:	4770      	bx	lr

0001b054 <MyTemperatureAD<TemperatureInternal<(unsigned char)5> >::uuidTempShift()>:
   1b054:	4b03      	ldr	r3, [pc, #12]	; (1b064 <MyTemperatureAD<TemperatureInternal<(unsigned char)5> >::uuidTempShift()+0x10>)
   1b056:	f8d3 1002 	ldr.w	r1, [r3, #2]
   1b05a:	f8d3 2006 	ldr.w	r2, [r3, #6]
   1b05e:	6019      	str	r1, [r3, #0]
   1b060:	605a      	str	r2, [r3, #4]
   1b062:	4770      	bx	lr
   1b064:	20001388 	.word	0x20001388

0001b068 <Temperature<(unsigned char)5>::addHistory(short)>:
   1b068:	b430      	push	{r4, r5}
   1b06a:	4c12      	ldr	r4, [pc, #72]	; (1b0b4 <Temperature<(unsigned char)5>::addHistory(short)+0x4c>)
   1b06c:	7823      	ldrb	r3, [r4, #0]
   1b06e:	b1b3      	cbz	r3, 1b09e <Temperature<(unsigned char)5>::addHistory(short)+0x36>
   1b070:	4a11      	ldr	r2, [pc, #68]	; (1b0b8 <Temperature<(unsigned char)5>::addHistory(short)+0x50>)
   1b072:	4912      	ldr	r1, [pc, #72]	; (1b0bc <Temperature<(unsigned char)5>::addHistory(short)+0x54>)
   1b074:	4d12      	ldr	r5, [pc, #72]	; (1b0c0 <Temperature<(unsigned char)5>::addHistory(short)+0x58>)
   1b076:	780c      	ldrb	r4, [r1, #0]
   1b078:	f5b0 6fe1 	cmp.w	r0, #1800	; 0x708
   1b07c:	bfa8      	it	ge
   1b07e:	f44f 60e1 	movge.w	r0, #1800	; 0x708
   1b082:	1c63      	adds	r3, r4, #1
   1b084:	b2db      	uxtb	r3, r3
   1b086:	42a8      	cmp	r0, r5
   1b088:	bfb8      	it	lt
   1b08a:	4628      	movlt	r0, r5
   1b08c:	2b04      	cmp	r3, #4
   1b08e:	700b      	strb	r3, [r1, #0]
   1b090:	f822 0014 	strh.w	r0, [r2, r4, lsl #1]
   1b094:	bf84      	itt	hi
   1b096:	2300      	movhi	r3, #0
   1b098:	700b      	strbhi	r3, [r1, #0]
   1b09a:	bc30      	pop	{r4, r5}
   1b09c:	4770      	bx	lr
   1b09e:	4a06      	ldr	r2, [pc, #24]	; (1b0b8 <Temperature<(unsigned char)5>::addHistory(short)+0x50>)
   1b0a0:	f360 030f 	bfi	r3, r0, #0, #16
   1b0a4:	f360 431f 	bfi	r3, r0, #16, #16
   1b0a8:	2101      	movs	r1, #1
   1b0aa:	6013      	str	r3, [r2, #0]
   1b0ac:	6053      	str	r3, [r2, #4]
   1b0ae:	8110      	strh	r0, [r2, #8]
   1b0b0:	7021      	strb	r1, [r4, #0]
   1b0b2:	e7de      	b.n	1b072 <Temperature<(unsigned char)5>::addHistory(short)+0xa>
   1b0b4:	20001319 	.word	0x20001319
   1b0b8:	20001398 	.word	0x20001398
   1b0bc:	20001318 	.word	0x20001318
   1b0c0:	fffffe70 	.word	0xfffffe70

0001b0c4 <Temperature<(unsigned char)5>::average()>:
   1b0c4:	b430      	push	{r4, r5}
   1b0c6:	4a0a      	ldr	r2, [pc, #40]	; (1b0f0 <Temperature<(unsigned char)5>::average()+0x2c>)
   1b0c8:	480a      	ldr	r0, [pc, #40]	; (1b0f4 <Temperature<(unsigned char)5>::average()+0x30>)
   1b0ca:	8815      	ldrh	r5, [r2, #0]
   1b0cc:	8853      	ldrh	r3, [r2, #2]
   1b0ce:	8894      	ldrh	r4, [r2, #4]
   1b0d0:	88d1      	ldrh	r1, [r2, #6]
   1b0d2:	8912      	ldrh	r2, [r2, #8]
   1b0d4:	442b      	add	r3, r5
   1b0d6:	4423      	add	r3, r4
   1b0d8:	440b      	add	r3, r1
   1b0da:	4413      	add	r3, r2
   1b0dc:	b21b      	sxth	r3, r3
   1b0de:	fb80 2003 	smull	r2, r0, r0, r3
   1b0e2:	17db      	asrs	r3, r3, #31
   1b0e4:	ebc3 0060 	rsb	r0, r3, r0, asr #1
   1b0e8:	b200      	sxth	r0, r0
   1b0ea:	bc30      	pop	{r4, r5}
   1b0ec:	4770      	bx	lr
   1b0ee:	bf00      	nop
   1b0f0:	20001398 	.word	0x20001398
   1b0f4:	66666667 	.word	0x66666667

0001b0f8 <MyTemperatureAD<TemperatureInternal<(unsigned char)5> >::uuidTempLatest(unsigned short)>:
   1b0f8:	4b01      	ldr	r3, [pc, #4]	; (1b100 <MyTemperatureAD<TemperatureInternal<(unsigned char)5> >::uuidTempLatest(unsigned short)+0x8>)
   1b0fa:	8118      	strh	r0, [r3, #8]
   1b0fc:	4770      	bx	lr
   1b0fe:	bf00      	nop
   1b100:	20001388 	.word	0x20001388

0001b104 <MyTemperatureAD<TemperatureInternal<(unsigned char)5> >::getName()>:
   1b104:	4b01      	ldr	r3, [pc, #4]	; (1b10c <MyTemperatureAD<TemperatureInternal<(unsigned char)5> >::getName()+0x8>)
   1b106:	7818      	ldrb	r0, [r3, #0]
   1b108:	4770      	bx	lr
   1b10a:	bf00      	nop
   1b10c:	20001385 	.word	0x20001385

0001b110 <Advertising<MyTemperatureAD<TemperatureInternal<(unsigned char)5> >, (unsigned short)3000, &(advInitCB())>::power(unsigned char)>:
   1b110:	b508      	push	{r3, lr}
   1b112:	2809      	cmp	r0, #9
   1b114:	4b06      	ldr	r3, [pc, #24]	; (1b130 <Advertising<MyTemperatureAD<TemperatureInternal<(unsigned char)5> >, (unsigned short)3000, &(advInitCB())>::power(unsigned char)+0x20>)
   1b116:	4a07      	ldr	r2, [pc, #28]	; (1b134 <Advertising<MyTemperatureAD<TemperatureInternal<(unsigned char)5> >, (unsigned short)3000, &(advInitCB())>::power(unsigned char)+0x24>)
   1b118:	7819      	ldrb	r1, [r3, #0]
   1b11a:	bf28      	it	cs
   1b11c:	2009      	movcs	r0, #9
   1b11e:	5612      	ldrsb	r2, [r2, r0]
   1b120:	2001      	movs	r0, #1
   1b122:	f7ff fa47 	bl	1a5b4 <sd_ble_gap_tx_power_set>
   1b126:	e8bd 4008 	ldmia.w	sp!, {r3, lr}
   1b12a:	b280      	uxth	r0, r0
   1b12c:	f7ff ba44 	b.w	1a5b8 <Errors::check(unsigned short, bool) [clone .constprop.0]>
   1b130:	20001140 	.word	0x20001140
   1b134:	0001d8f4 	.word	0x0001d8f4

0001b138 <Advertising<MyTemperatureAD<TemperatureInternal<(unsigned char)5> >, (unsigned short)3000, &(advInitCB())>::start()>:
   1b138:	b570      	push	{r4, r5, r6, lr}
   1b13a:	4c39      	ldr	r4, [pc, #228]	; (1b220 <Advertising<MyTemperatureAD<TemperatureInternal<(unsigned char)5> >, (unsigned short)3000, &(advInitCB())>::start()+0xe8>)
   1b13c:	7825      	ldrb	r5, [r4, #0]
   1b13e:	b105      	cbz	r5, 1b142 <Advertising<MyTemperatureAD<TemperatureInternal<(unsigned char)5> >, (unsigned short)3000, &(advInitCB())>::start()+0xa>
   1b140:	bd70      	pop	{r4, r5, r6, pc}
   1b142:	4e38      	ldr	r6, [pc, #224]	; (1b224 <Advertising<MyTemperatureAD<TemperatureInternal<(unsigned char)5> >, (unsigned short)3000, &(advInitCB())>::start()+0xec>)
   1b144:	4a38      	ldr	r2, [pc, #224]	; (1b228 <Advertising<MyTemperatureAD<TemperatureInternal<(unsigned char)5> >, (unsigned short)3000, &(advInitCB())>::start()+0xf0>)
   1b146:	4939      	ldr	r1, [pc, #228]	; (1b22c <Advertising<MyTemperatureAD<TemperatureInternal<(unsigned char)5> >, (unsigned short)3000, &(advInitCB())>::start()+0xf4>)
   1b148:	4630      	mov	r0, r6
   1b14a:	f7ff fa2d 	bl	1a5a8 <sd_ble_gap_adv_set_configure>
   1b14e:	b280      	uxth	r0, r0
   1b150:	f7ff fa32 	bl	1a5b8 <Errors::check(unsigned short, bool) [clone .constprop.0]>
   1b154:	4629      	mov	r1, r5
   1b156:	7830      	ldrb	r0, [r6, #0]
   1b158:	f7ff fa28 	bl	1a5ac <sd_ble_gap_adv_start>
   1b15c:	b280      	uxth	r0, r0
   1b15e:	f7ff fa2b 	bl	1a5b8 <Errors::check(unsigned short, bool) [clone .constprop.0]>
   1b162:	4a33      	ldr	r2, [pc, #204]	; (1b230 <Advertising<MyTemperatureAD<TemperatureInternal<(unsigned char)5> >, (unsigned short)3000, &(advInitCB())>::start()+0xf8>)
   1b164:	2301      	movs	r3, #1
   1b166:	7810      	ldrb	r0, [r2, #0]
   1b168:	7023      	strb	r3, [r4, #0]
   1b16a:	f7ff ffd1 	bl	1b110 <Advertising<MyTemperatureAD<TemperatureInternal<(unsigned char)5> >, (unsigned short)3000, &(advInitCB())>::power(unsigned char)>
   1b16e:	f7ff fd1d 	bl	1abac <Battery::isOk()>
   1b172:	f04f 43a0 	mov.w	r3, #1342177280	; 0x50000000
   1b176:	b338      	cbz	r0, 1b1c8 <Advertising<MyTemperatureAD<TemperatureInternal<(unsigned char)5> >, (unsigned short)3000, &(advInitCB())>::start()+0x90>
   1b178:	f8d3 2720 	ldr.w	r2, [r3, #1824]	; 0x720
   1b17c:	07d1      	lsls	r1, r2, #31
   1b17e:	d5df      	bpl.n	1b140 <Advertising<MyTemperatureAD<TemperatureInternal<(unsigned char)5> >, (unsigned short)3000, &(advInitCB())>::start()+0x8>
   1b180:	f8d3 2504 	ldr.w	r2, [r3, #1284]	; 0x504
   1b184:	4c2b      	ldr	r4, [pc, #172]	; (1b234 <Advertising<MyTemperatureAD<TemperatureInternal<(unsigned char)5> >, (unsigned short)3000, &(advInitCB())>::start()+0xfc>)
   1b186:	f412 7f80 	tst.w	r2, #256	; 0x100
   1b18a:	f44f 7280 	mov.w	r2, #256	; 0x100
   1b18e:	bf14      	ite	ne
   1b190:	f8c3 250c 	strne.w	r2, [r3, #1292]	; 0x50c
   1b194:	f8c3 2508 	streq.w	r2, [r3, #1288]	; 0x508
   1b198:	f044 0401 	orr.w	r4, r4, #1
   1b19c:	f44f 407a 	mov.w	r0, #64000	; 0xfa00
   1b1a0:	47a0      	blx	r4
   1b1a2:	f04f 43a0 	mov.w	r3, #1342177280	; 0x50000000
   1b1a6:	f44f 407a 	mov.w	r0, #64000	; 0xfa00
   1b1aa:	f8d3 2504 	ldr.w	r2, [r3, #1284]	; 0x504
   1b1ae:	f412 7f80 	tst.w	r2, #256	; 0x100
   1b1b2:	f44f 7280 	mov.w	r2, #256	; 0x100
   1b1b6:	bf14      	ite	ne
   1b1b8:	f8c3 250c 	strne.w	r2, [r3, #1292]	; 0x50c
   1b1bc:	f8c3 2508 	streq.w	r2, [r3, #1288]	; 0x508
   1b1c0:	4623      	mov	r3, r4
   1b1c2:	e8bd 4070 	ldmia.w	sp!, {r4, r5, r6, lr}
   1b1c6:	4718      	bx	r3
   1b1c8:	f8d3 271c 	ldr.w	r2, [r3, #1820]	; 0x71c
   1b1cc:	07d2      	lsls	r2, r2, #31
   1b1ce:	d5b7      	bpl.n	1b140 <Advertising<MyTemperatureAD<TemperatureInternal<(unsigned char)5> >, (unsigned short)3000, &(advInitCB())>::start()+0x8>
   1b1d0:	f8d3 2504 	ldr.w	r2, [r3, #1284]	; 0x504
   1b1d4:	4c17      	ldr	r4, [pc, #92]	; (1b234 <Advertising<MyTemperatureAD<TemperatureInternal<(unsigned char)5> >, (unsigned short)3000, &(advInitCB())>::start()+0xfc>)
   1b1d6:	f012 0f80 	tst.w	r2, #128	; 0x80
   1b1da:	f04f 0280 	mov.w	r2, #128	; 0x80
   1b1de:	bf14      	ite	ne
   1b1e0:	f8c3 250c 	strne.w	r2, [r3, #1292]	; 0x50c
   1b1e4:	f8c3 2508 	streq.w	r2, [r3, #1288]	; 0x508
   1b1e8:	2505      	movs	r5, #5
   1b1ea:	f044 0401 	orr.w	r4, r4, #1
   1b1ee:	f44f 407a 	mov.w	r0, #64000	; 0xfa00
   1b1f2:	47a0      	blx	r4
   1b1f4:	3d01      	subs	r5, #1
   1b1f6:	d1fa      	bne.n	1b1ee <Advertising<MyTemperatureAD<TemperatureInternal<(unsigned char)5> >, (unsigned short)3000, &(advInitCB())>::start()+0xb6>
   1b1f8:	f04f 43a0 	mov.w	r3, #1342177280	; 0x50000000
   1b1fc:	2505      	movs	r5, #5
   1b1fe:	f8d3 2504 	ldr.w	r2, [r3, #1284]	; 0x504
   1b202:	f012 0f80 	tst.w	r2, #128	; 0x80
   1b206:	f04f 0280 	mov.w	r2, #128	; 0x80
   1b20a:	bf14      	ite	ne
   1b20c:	f8c3 250c 	strne.w	r2, [r3, #1292]	; 0x50c
   1b210:	f8c3 2508 	streq.w	r2, [r3, #1288]	; 0x508
   1b214:	f44f 407a 	mov.w	r0, #64000	; 0xfa00
   1b218:	47a0      	blx	r4
   1b21a:	3d01      	subs	r5, #1
   1b21c:	d1fa      	bne.n	1b214 <Advertising<MyTemperatureAD<TemperatureInternal<(unsigned char)5> >, (unsigned short)3000, &(advInitCB())>::start()+0xdc>
   1b21e:	bd70      	pop	{r4, r5, r6, pc}
   1b220:	20001349 	.word	0x20001349
   1b224:	20001140 	.word	0x20001140
   1b228:	2000136c 	.word	0x2000136c
   1b22c:	20001130 	.word	0x20001130
   1b230:	20001384 	.word	0x20001384
   1b234:	0001d900 	.word	0x0001d900

0001b238 <int markup<DevRtt<0> >(DevRtt<0>, char const*)>:
   1b238:	e92d 41f0 	stmdb	sp!, {r4, r5, r6, r7, r8, lr}
   1b23c:	7808      	ldrb	r0, [r1, #0]
   1b23e:	2800      	cmp	r0, #0
   1b240:	d042      	beq.n	1b2c8 <int markup<DevRtt<0> >(DevRtt<0>, char const*)+0x90>
   1b242:	4f28      	ldr	r7, [pc, #160]	; (1b2e4 <int markup<DevRtt<0> >(DevRtt<0>, char const*)+0xac>)
   1b244:	460d      	mov	r5, r1
   1b246:	4688      	mov	r8, r1
   1b248:	2600      	movs	r6, #0
   1b24a:	e003      	b.n	1b254 <int markup<DevRtt<0> >(DevRtt<0>, char const*)+0x1c>
   1b24c:	3501      	adds	r5, #1
   1b24e:	7828      	ldrb	r0, [r5, #0]
   1b250:	2800      	cmp	r0, #0
   1b252:	d03d      	beq.n	1b2d0 <int markup<DevRtt<0> >(DevRtt<0>, char const*)+0x98>
   1b254:	287b      	cmp	r0, #123	; 0x7b
   1b256:	d1f9      	bne.n	1b24c <int markup<DevRtt<0> >(DevRtt<0>, char const*)+0x14>
   1b258:	ebb5 0208 	subs.w	r2, r5, r8
   1b25c:	d12e      	bne.n	1b2bc <int markup<DevRtt<0> >(DevRtt<0>, char const*)+0x84>
   1b25e:	786a      	ldrb	r2, [r5, #1]
   1b260:	2a7b      	cmp	r2, #123	; 0x7b
   1b262:	f105 0401 	add.w	r4, r5, #1
   1b266:	d012      	beq.n	1b28e <int markup<DevRtt<0> >(DevRtt<0>, char const*)+0x56>
   1b268:	b172      	cbz	r2, 1b288 <int markup<DevRtt<0> >(DevRtt<0>, char const*)+0x50>
   1b26a:	2a7d      	cmp	r2, #125	; 0x7d
   1b26c:	d023      	beq.n	1b2b6 <int markup<DevRtt<0> >(DevRtt<0>, char const*)+0x7e>
   1b26e:	4b1e      	ldr	r3, [pc, #120]	; (1b2e8 <int markup<DevRtt<0> >(DevRtt<0>, char const*)+0xb0>)
   1b270:	f503 708a 	add.w	r0, r3, #276	; 0x114
   1b274:	7819      	ldrb	r1, [r3, #0]
   1b276:	4291      	cmp	r1, r2
   1b278:	d011      	beq.n	1b29e <int markup<DevRtt<0> >(DevRtt<0>, char const*)+0x66>
   1b27a:	330c      	adds	r3, #12
   1b27c:	4283      	cmp	r3, r0
   1b27e:	d1f9      	bne.n	1b274 <int markup<DevRtt<0> >(DevRtt<0>, char const*)+0x3c>
   1b280:	f814 2f01 	ldrb.w	r2, [r4, #1]!
   1b284:	2a00      	cmp	r2, #0
   1b286:	d1f0      	bne.n	1b26a <int markup<DevRtt<0> >(DevRtt<0>, char const*)+0x32>
   1b288:	4630      	mov	r0, r6
   1b28a:	e8bd 81f0 	ldmia.w	sp!, {r4, r5, r6, r7, r8, pc}
   1b28e:	4621      	mov	r1, r4
   1b290:	2201      	movs	r2, #1
   1b292:	2000      	movs	r0, #0
   1b294:	f000 fa98 	bl	1b7c8 <SEGGER_RTT_Write>
   1b298:	3502      	adds	r5, #2
   1b29a:	4406      	add	r6, r0
   1b29c:	e7d7      	b.n	1b24e <int markup<DevRtt<0> >(DevRtt<0>, char const*)+0x16>
   1b29e:	783a      	ldrb	r2, [r7, #0]
   1b2a0:	2a00      	cmp	r2, #0
   1b2a2:	d0ed      	beq.n	1b280 <int markup<DevRtt<0> >(DevRtt<0>, char const*)+0x48>
   1b2a4:	7a1a      	ldrb	r2, [r3, #8]
   1b2a6:	6859      	ldr	r1, [r3, #4]
   1b2a8:	2000      	movs	r0, #0
   1b2aa:	f000 fa8d 	bl	1b7c8 <SEGGER_RTT_Write>
   1b2ae:	f814 2f01 	ldrb.w	r2, [r4, #1]!
   1b2b2:	4406      	add	r6, r0
   1b2b4:	e7e6      	b.n	1b284 <int markup<DevRtt<0> >(DevRtt<0>, char const*)+0x4c>
   1b2b6:	1c65      	adds	r5, r4, #1
   1b2b8:	46a8      	mov	r8, r5
   1b2ba:	e7c8      	b.n	1b24e <int markup<DevRtt<0> >(DevRtt<0>, char const*)+0x16>
   1b2bc:	4641      	mov	r1, r8
   1b2be:	2000      	movs	r0, #0
   1b2c0:	f000 fa82 	bl	1b7c8 <SEGGER_RTT_Write>
   1b2c4:	4406      	add	r6, r0
   1b2c6:	e7ca      	b.n	1b25e <int markup<DevRtt<0> >(DevRtt<0>, char const*)+0x26>
   1b2c8:	4606      	mov	r6, r0
   1b2ca:	4630      	mov	r0, r6
   1b2cc:	e8bd 81f0 	ldmia.w	sp!, {r4, r5, r6, r7, r8, pc}
   1b2d0:	ebb5 0208 	subs.w	r2, r5, r8
   1b2d4:	d0d8      	beq.n	1b288 <int markup<DevRtt<0> >(DevRtt<0>, char const*)+0x50>
   1b2d6:	4641      	mov	r1, r8
   1b2d8:	f000 fa76 	bl	1b7c8 <SEGGER_RTT_Write>
   1b2dc:	4406      	add	r6, r0
   1b2de:	4630      	mov	r0, r6
   1b2e0:	e8bd 81f0 	ldmia.w	sp!, {r4, r5, r6, r7, r8, pc}
   1b2e4:	20001141 	.word	0x20001141
   1b2e8:	0001d908 	.word	0x0001d908

0001b2ec <int Print<DevRtt<0>, long, int, int>(DevRtt<0>, char const*, long, int, int) [clone .isra.0] [clone .constprop.0]>:
   1b2ec:	b500      	push	{lr}
   1b2ee:	b0c3      	sub	sp, #268	; 0x10c
   1b2f0:	e9cd 1200 	strd	r1, r2, [sp]
   1b2f4:	4603      	mov	r3, r0
   1b2f6:	4a07      	ldr	r2, [pc, #28]	; (1b314 <int Print<DevRtt<0>, long, int, int>(DevRtt<0>, char const*, long, int, int) [clone .isra.0] [clone .constprop.0]+0x28>)
   1b2f8:	a802      	add	r0, sp, #8
   1b2fa:	f44f 7180 	mov.w	r1, #256	; 0x100
   1b2fe:	f000 fd29 	bl	1bd54 <sniprintf>
   1b302:	a902      	add	r1, sp, #8
   1b304:	f04f 0000 	mov.w	r0, #0
   1b308:	f7ff ff96 	bl	1b238 <int markup<DevRtt<0> >(DevRtt<0>, char const*)>
   1b30c:	b043      	add	sp, #268	; 0x10c
   1b30e:	f85d fb04 	ldr.w	pc, [sp], #4
   1b312:	bf00      	nop
   1b314:	0001d674 	.word	0x0001d674

0001b318 <int Print<DevRtt<0>, char const*, int, char const*>(DevRtt<0>, char const*, char const*, int, char const*) [clone .isra.0] [clone .constprop.0]>:
   1b318:	b500      	push	{lr}
   1b31a:	b0c3      	sub	sp, #268	; 0x10c
   1b31c:	e9cd 1200 	strd	r1, r2, [sp]
   1b320:	4603      	mov	r3, r0
   1b322:	4a07      	ldr	r2, [pc, #28]	; (1b340 <int Print<DevRtt<0>, char const*, int, char const*>(DevRtt<0>, char const*, char const*, int, char const*) [clone .isra.0] [clone .constprop.0]+0x28>)
   1b324:	a802      	add	r0, sp, #8
   1b326:	f44f 7180 	mov.w	r1, #256	; 0x100
   1b32a:	f000 fd13 	bl	1bd54 <sniprintf>
   1b32e:	a902      	add	r1, sp, #8
   1b330:	f04f 0000 	mov.w	r0, #0
   1b334:	f7ff ff80 	bl	1b238 <int markup<DevRtt<0> >(DevRtt<0>, char const*)>
   1b338:	b043      	add	sp, #268	; 0x10c
   1b33a:	f85d fb04 	ldr.w	pc, [sp], #4
   1b33e:	bf00      	nop
   1b340:	0001d68c 	.word	0x0001d68c

0001b344 <TemperatureInternal<(unsigned char)5>::read()>:
   1b344:	b510      	push	{r4, lr}
   1b346:	b082      	sub	sp, #8
   1b348:	a801      	add	r0, sp, #4
   1b34a:	f7ff f927 	bl	1a59c <sd_temp_get>
   1b34e:	bb20      	cbnz	r0, 1b39a <TemperatureInternal<(unsigned char)5>::read()+0x56>
   1b350:	9b01      	ldr	r3, [sp, #4]
   1b352:	eb03 03c3 	add.w	r3, r3, r3, lsl #3
   1b356:	005b      	lsls	r3, r3, #1
   1b358:	f513 60a0 	adds.w	r0, r3, #1280	; 0x500
   1b35c:	bf48      	it	mi
   1b35e:	f203 5003 	addwmi	r0, r3, #1283	; 0x503
   1b362:	f340 008f 	sbfx	r0, r0, #2, #16
   1b366:	f7ff fe7f 	bl	1b068 <Temperature<(unsigned char)5>::addHistory(short)>
   1b36a:	4a0d      	ldr	r2, [pc, #52]	; (1b3a0 <TemperatureInternal<(unsigned char)5>::read()+0x5c>)
   1b36c:	4604      	mov	r4, r0
   1b36e:	214b      	movs	r1, #75	; 0x4b
   1b370:	480c      	ldr	r0, [pc, #48]	; (1b3a4 <TemperatureInternal<(unsigned char)5>::read()+0x60>)
   1b372:	f7ff ffd1 	bl	1b318 <int Print<DevRtt<0>, char const*, int, char const*>(DevRtt<0>, char const*, char const*, int, char const*) [clone .isra.0] [clone .constprop.0]>
   1b376:	4b0c      	ldr	r3, [pc, #48]	; (1b3a8 <TemperatureInternal<(unsigned char)5>::read()+0x64>)
   1b378:	9801      	ldr	r0, [sp, #4]
   1b37a:	fb83 2304 	smull	r2, r3, r3, r4
   1b37e:	17e1      	asrs	r1, r4, #31
   1b380:	ebc1 01a3 	rsb	r1, r1, r3, asr #2
   1b384:	eb01 0281 	add.w	r2, r1, r1, lsl #2
   1b388:	eba4 0242 	sub.w	r2, r4, r2, lsl #1
   1b38c:	b212      	sxth	r2, r2
   1b38e:	b209      	sxth	r1, r1
   1b390:	f7ff ffac 	bl	1b2ec <int Print<DevRtt<0>, long, int, int>(DevRtt<0>, char const*, long, int, int) [clone .isra.0] [clone .constprop.0]>
   1b394:	4620      	mov	r0, r4
   1b396:	b002      	add	sp, #8
   1b398:	bd10      	pop	{r4, pc}
   1b39a:	4c04      	ldr	r4, [pc, #16]	; (1b3ac <TemperatureInternal<(unsigned char)5>::read()+0x68>)
   1b39c:	e7fa      	b.n	1b394 <TemperatureInternal<(unsigned char)5>::read()+0x50>
   1b39e:	bf00      	nop
   1b3a0:	0001d6a4 	.word	0x0001d6a4
   1b3a4:	0001d6ac 	.word	0x0001d6ac
   1b3a8:	66666667 	.word	0x66666667
   1b3ac:	fffffc19 	.word	0xfffffc19

0001b3b0 <MyTemperatureAD<TemperatureInternal<(unsigned char)5> >::update(unsigned char (&) [31])>:
   1b3b0:	b5f0      	push	{r4, r5, r6, r7, lr}
   1b3b2:	4605      	mov	r5, r0
   1b3b4:	b085      	sub	sp, #20
   1b3b6:	f64d 609f 	movw	r0, #56991	; 0xde9f
   1b3ba:	f7ff fe35 	bl	1b028 <MyTemperatureAD<TemperatureInternal<(unsigned char)5> >::uuidId(unsigned short)>
   1b3be:	f7ff fe39 	bl	1b034 <MyTemperatureAD<TemperatureInternal<(unsigned char)5> >::uuidCountInc()>
   1b3c2:	4604      	mov	r4, r0
   1b3c4:	f7ff fe44 	bl	1b050 <Temperature<(unsigned char)5>::histSize()>
   1b3c8:	fbb4 f3f0 	udiv	r3, r4, r0
   1b3cc:	fb03 4010 	mls	r0, r3, r0, r4
   1b3d0:	2800      	cmp	r0, #0
   1b3d2:	d050      	beq.n	1b476 <MyTemperatureAD<TemperatureInternal<(unsigned char)5> >::update(unsigned char (&) [31])+0xc6>
   1b3d4:	f7ff fbe6 	bl	1aba4 <Battery::read()>
   1b3d8:	4b28      	ldr	r3, [pc, #160]	; (1b47c <MyTemperatureAD<TemperatureInternal<(unsigned char)5> >::update(unsigned char (&) [31])+0xcc>)
   1b3da:	8158      	strh	r0, [r3, #10]
   1b3dc:	f7ff ffb2 	bl	1b344 <TemperatureInternal<(unsigned char)5>::read()>
   1b3e0:	4606      	mov	r6, r0
   1b3e2:	f7ff fe6f 	bl	1b0c4 <Temperature<(unsigned char)5>::average()>
   1b3e6:	0403      	lsls	r3, r0, #16
   1b3e8:	bf42      	ittt	mi
   1b3ea:	4240      	negmi	r0, r0
   1b3ec:	ea6f 40c0 	mvnmi.w	r0, r0, lsl #19
   1b3f0:	ea6f 40d0 	mvnmi.w	r0, r0, lsr #19
   1b3f4:	b280      	uxth	r0, r0
   1b3f6:	f7ff fe7f 	bl	1b0f8 <MyTemperatureAD<TemperatureInternal<(unsigned char)5> >::uuidTempLatest(unsigned short)>
   1b3fa:	2e00      	cmp	r6, #0
   1b3fc:	db30      	blt.n	1b460 <MyTemperatureAD<TemperatureInternal<(unsigned char)5> >::update(unsigned char (&) [31])+0xb0>
   1b3fe:	4c20      	ldr	r4, [pc, #128]	; (1b480 <MyTemperatureAD<TemperatureInternal<(unsigned char)5> >::update(unsigned char (&) [31])+0xd0>)
   1b400:	17f7      	asrs	r7, r6, #31
   1b402:	fb84 3406 	smull	r3, r4, r4, r6
   1b406:	ebc7 04a4 	rsb	r4, r7, r4, asr #2
   1b40a:	eb04 0484 	add.w	r4, r4, r4, lsl #2
   1b40e:	eba6 0444 	sub.w	r4, r6, r4, lsl #1
   1b412:	b224      	sxth	r4, r4
   1b414:	f7ff fe76 	bl	1b104 <MyTemperatureAD<TemperatureInternal<(unsigned char)5> >::getName()>
   1b418:	4603      	mov	r3, r0
   1b41a:	4819      	ldr	r0, [pc, #100]	; (1b480 <MyTemperatureAD<TemperatureInternal<(unsigned char)5> >::update(unsigned char (&) [31])+0xd0>)
   1b41c:	9401      	str	r4, [sp, #4]
   1b41e:	fb80 2606 	smull	r2, r6, r0, r6
   1b422:	ebc7 06a6 	rsb	r6, r7, r6, asr #2
   1b426:	b236      	sxth	r6, r6
   1b428:	4a16      	ldr	r2, [pc, #88]	; (1b484 <MyTemperatureAD<TemperatureInternal<(unsigned char)5> >::update(unsigned char (&) [31])+0xd4>)
   1b42a:	9600      	str	r6, [sp, #0]
   1b42c:	a802      	add	r0, sp, #8
   1b42e:	2107      	movs	r1, #7
   1b430:	f000 fc90 	bl	1bd54 <sniprintf>
   1b434:	2104      	movs	r1, #4
   1b436:	4628      	mov	r0, r5
   1b438:	f7ff fbc4 	bl	1abc4 <Flags01::make(unsigned char*, unsigned char)>
   1b43c:	b2c4      	uxtb	r4, r0
   1b43e:	a902      	add	r1, sp, #8
   1b440:	1928      	adds	r0, r5, r4
   1b442:	2208      	movs	r2, #8
   1b444:	f7ff fbc6 	bl	1abd4 <CompleteName09::make(unsigned char*, char const*, unsigned char)>
   1b448:	4404      	add	r4, r0
   1b44a:	b2e4      	uxtb	r4, r4
   1b44c:	1928      	adds	r0, r5, r4
   1b44e:	490b      	ldr	r1, [pc, #44]	; (1b47c <MyTemperatureAD<TemperatureInternal<(unsigned char)5> >::update(unsigned char (&) [31])+0xcc>)
   1b450:	f7ff fc10 	bl	1ac74 <UUID07::makeBCD(unsigned char*, unsigned short const (&) [8])>
   1b454:	4404      	add	r4, r0
   1b456:	b2e4      	uxtb	r4, r4
   1b458:	2300      	movs	r3, #0
   1b45a:	552b      	strb	r3, [r5, r4]
   1b45c:	b005      	add	sp, #20
   1b45e:	bdf0      	pop	{r4, r5, r6, r7, pc}
   1b460:	4c09      	ldr	r4, [pc, #36]	; (1b488 <MyTemperatureAD<TemperatureInternal<(unsigned char)5> >::update(unsigned char (&) [31])+0xd8>)
   1b462:	4273      	negs	r3, r6
   1b464:	fba4 2403 	umull	r2, r4, r4, r3
   1b468:	08e4      	lsrs	r4, r4, #3
   1b46a:	eb04 0484 	add.w	r4, r4, r4, lsl #2
   1b46e:	eba3 0444 	sub.w	r4, r3, r4, lsl #1
   1b472:	17f7      	asrs	r7, r6, #31
   1b474:	e7ce      	b.n	1b414 <MyTemperatureAD<TemperatureInternal<(unsigned char)5> >::update(unsigned char (&) [31])+0x64>
   1b476:	f7ff fded 	bl	1b054 <MyTemperatureAD<TemperatureInternal<(unsigned char)5> >::uuidTempShift()>
   1b47a:	e7ab      	b.n	1b3d4 <MyTemperatureAD<TemperatureInternal<(unsigned char)5> >::update(unsigned char (&) [31])+0x24>
   1b47c:	20001388 	.word	0x20001388
   1b480:	66666667 	.word	0x66666667
   1b484:	0001d6c0 	.word	0x0001d6c0
   1b488:	cccccccd 	.word	0xcccccccd

0001b48c <Advertising<MyTemperatureAD<TemperatureInternal<(unsigned char)5> >, (unsigned short)3000, &(advInitCB())>::update(void*)>:
   1b48c:	e92d 4ff0 	stmdb	sp!, {r4, r5, r6, r7, r8, r9, sl, fp, lr}
   1b490:	4f52      	ldr	r7, [pc, #328]	; (1b5dc <Advertising<MyTemperatureAD<TemperatureInternal<(unsigned char)5> >, (unsigned short)3000, &(advInitCB())>::update(void*)+0x150>)
   1b492:	b0c3      	sub	sp, #268	; 0x10c
   1b494:	f7ff fdb4 	bl	1b000 <Advertising<MyTemperatureAD<TemperatureInternal<(unsigned char)5> >, (unsigned short)3000, &(advInitCB())>::stop()>
   1b498:	4638      	mov	r0, r7
   1b49a:	f7ff ff89 	bl	1b3b0 <MyTemperatureAD<TemperatureInternal<(unsigned char)5> >::update(unsigned char (&) [31])>
   1b49e:	4b50      	ldr	r3, [pc, #320]	; (1b5e0 <Advertising<MyTemperatureAD<TemperatureInternal<(unsigned char)5> >, (unsigned short)3000, &(advInitCB())>::update(void*)+0x154>)
   1b4a0:	9301      	str	r3, [sp, #4]
   1b4a2:	f240 134d 	movw	r3, #333	; 0x14d
   1b4a6:	4a4f      	ldr	r2, [pc, #316]	; (1b5e4 <Advertising<MyTemperatureAD<TemperatureInternal<(unsigned char)5> >, (unsigned short)3000, &(advInitCB())>::update(void*)+0x158>)
   1b4a8:	9300      	str	r3, [sp, #0]
   1b4aa:	f44f 7180 	mov.w	r1, #256	; 0x100
   1b4ae:	4b4e      	ldr	r3, [pc, #312]	; (1b5e8 <Advertising<MyTemperatureAD<TemperatureInternal<(unsigned char)5> >, (unsigned short)3000, &(advInitCB())>::update(void*)+0x15c>)
   1b4b0:	a802      	add	r0, sp, #8
   1b4b2:	f000 fc4f 	bl	1bd54 <sniprintf>
   1b4b6:	a902      	add	r1, sp, #8
   1b4b8:	f04f 0000 	mov.w	r0, #0
   1b4bc:	f7ff febc 	bl	1b238 <int markup<DevRtt<0> >(DevRtt<0>, char const*)>
   1b4c0:	4a4a      	ldr	r2, [pc, #296]	; (1b5ec <Advertising<MyTemperatureAD<TemperatureInternal<(unsigned char)5> >, (unsigned short)3000, &(advInitCB())>::update(void*)+0x160>)
   1b4c2:	f44f 7180 	mov.w	r1, #256	; 0x100
   1b4c6:	a802      	add	r0, sp, #8
   1b4c8:	f000 fc44 	bl	1bd54 <sniprintf>
   1b4cc:	a902      	add	r1, sp, #8
   1b4ce:	f04f 0000 	mov.w	r0, #0
   1b4d2:	f7ff feb1 	bl	1b238 <int markup<DevRtt<0> >(DevRtt<0>, char const*)>
   1b4d6:	783b      	ldrb	r3, [r7, #0]
   1b4d8:	2b00      	cmp	r3, #0
   1b4da:	d043      	beq.n	1b564 <Advertising<MyTemperatureAD<TemperatureInternal<(unsigned char)5> >, (unsigned short)3000, &(advInitCB())>::update(void*)+0xd8>
   1b4dc:	f8df 911c 	ldr.w	r9, [pc, #284]	; 1b5fc <Advertising<MyTemperatureAD<TemperatureInternal<(unsigned char)5> >, (unsigned short)3000, &(advInitCB())>::update(void*)+0x170>
   1b4e0:	2400      	movs	r4, #0
   1b4e2:	193e      	adds	r6, r7, r4
   1b4e4:	464a      	mov	r2, r9
   1b4e6:	f896 a001 	ldrb.w	sl, [r6, #1]
   1b4ea:	f8cd a000 	str.w	sl, [sp]
   1b4ee:	f44f 7180 	mov.w	r1, #256	; 0x100
   1b4f2:	a802      	add	r0, sp, #8
   1b4f4:	1e5d      	subs	r5, r3, #1
   1b4f6:	f000 fc2d 	bl	1bd54 <sniprintf>
   1b4fa:	a902      	add	r1, sp, #8
   1b4fc:	f04f 0000 	mov.w	r0, #0
   1b500:	f7ff fe9a 	bl	1b238 <int markup<DevRtt<0> >(DevRtt<0>, char const*)>
   1b504:	f1ba 0f09 	cmp.w	sl, #9
   1b508:	b2ed      	uxtb	r5, r5
   1b50a:	f104 0802 	add.w	r8, r4, #2
   1b50e:	d053      	beq.n	1b5b8 <Advertising<MyTemperatureAD<TemperatureInternal<(unsigned char)5> >, (unsigned short)3000, &(advInitCB())>::update(void*)+0x12c>
   1b510:	f1ba 0f07 	cmp.w	sl, #7
   1b514:	d036      	beq.n	1b584 <Advertising<MyTemperatureAD<TemperatureInternal<(unsigned char)5> >, (unsigned short)3000, &(advInitCB())>::update(void*)+0xf8>
   1b516:	b1ad      	cbz	r5, 1b544 <Advertising<MyTemperatureAD<TemperatureInternal<(unsigned char)5> >, (unsigned short)3000, &(advInitCB())>::update(void*)+0xb8>
   1b518:	4b35      	ldr	r3, [pc, #212]	; (1b5f0 <Advertising<MyTemperatureAD<TemperatureInternal<(unsigned char)5> >, (unsigned short)3000, &(advInitCB())>::update(void*)+0x164>)
   1b51a:	f8df a0e4 	ldr.w	sl, [pc, #228]	; 1b600 <Advertising<MyTemperatureAD<TemperatureInternal<(unsigned char)5> >, (unsigned short)3000, &(advInitCB())>::update(void*)+0x174>
   1b51e:	191e      	adds	r6, r3, r4
   1b520:	442e      	add	r6, r5
   1b522:	eb07 0408 	add.w	r4, r7, r8
   1b526:	f814 3b01 	ldrb.w	r3, [r4], #1
   1b52a:	4652      	mov	r2, sl
   1b52c:	f44f 7180 	mov.w	r1, #256	; 0x100
   1b530:	a802      	add	r0, sp, #8
   1b532:	f000 fc0f 	bl	1bd54 <sniprintf>
   1b536:	a902      	add	r1, sp, #8
   1b538:	f04f 0000 	mov.w	r0, #0
   1b53c:	f7ff fe7c 	bl	1b238 <int markup<DevRtt<0> >(DevRtt<0>, char const*)>
   1b540:	42a6      	cmp	r6, r4
   1b542:	d1f0      	bne.n	1b526 <Advertising<MyTemperatureAD<TemperatureInternal<(unsigned char)5> >, (unsigned short)3000, &(advInitCB())>::update(void*)+0x9a>
   1b544:	eb08 0405 	add.w	r4, r8, r5
   1b548:	4a2a      	ldr	r2, [pc, #168]	; (1b5f4 <Advertising<MyTemperatureAD<TemperatureInternal<(unsigned char)5> >, (unsigned short)3000, &(advInitCB())>::update(void*)+0x168>)
   1b54a:	f44f 7180 	mov.w	r1, #256	; 0x100
   1b54e:	a802      	add	r0, sp, #8
   1b550:	f000 fc00 	bl	1bd54 <sniprintf>
   1b554:	a902      	add	r1, sp, #8
   1b556:	f04f 0000 	mov.w	r0, #0
   1b55a:	f7ff fe6d 	bl	1b238 <int markup<DevRtt<0> >(DevRtt<0>, char const*)>
   1b55e:	5d3b      	ldrb	r3, [r7, r4]
   1b560:	2b00      	cmp	r3, #0
   1b562:	d1be      	bne.n	1b4e2 <Advertising<MyTemperatureAD<TemperatureInternal<(unsigned char)5> >, (unsigned short)3000, &(advInitCB())>::update(void*)+0x56>
   1b564:	4a23      	ldr	r2, [pc, #140]	; (1b5f4 <Advertising<MyTemperatureAD<TemperatureInternal<(unsigned char)5> >, (unsigned short)3000, &(advInitCB())>::update(void*)+0x168>)
   1b566:	f44f 7180 	mov.w	r1, #256	; 0x100
   1b56a:	a802      	add	r0, sp, #8
   1b56c:	f000 fbf2 	bl	1bd54 <sniprintf>
   1b570:	a902      	add	r1, sp, #8
   1b572:	f04f 0000 	mov.w	r0, #0
   1b576:	f7ff fe5f 	bl	1b238 <int markup<DevRtt<0> >(DevRtt<0>, char const*)>
   1b57a:	f7ff fddd 	bl	1b138 <Advertising<MyTemperatureAD<TemperatureInternal<(unsigned char)5> >, (unsigned short)3000, &(advInitCB())>::start()>
   1b57e:	b043      	add	sp, #268	; 0x10c
   1b580:	e8bd 8ff0 	ldmia.w	sp!, {r4, r5, r6, r7, r8, r9, sl, fp, pc}
   1b584:	1e6c      	subs	r4, r5, #1
   1b586:	2d00      	cmp	r5, #0
   1b588:	d0dc      	beq.n	1b544 <Advertising<MyTemperatureAD<TemperatureInternal<(unsigned char)5> >, (unsigned short)3000, &(advInitCB())>::update(void*)+0xb8>
   1b58a:	f8df b078 	ldr.w	fp, [pc, #120]	; 1b604 <Advertising<MyTemperatureAD<TemperatureInternal<(unsigned char)5> >, (unsigned short)3000, &(advInitCB())>::update(void*)+0x178>
   1b58e:	f106 0a02 	add.w	sl, r6, #2
   1b592:	1c72      	adds	r2, r6, #1
   1b594:	f81a 3004 	ldrb.w	r3, [sl, r4]
   1b598:	5d12      	ldrb	r2, [r2, r4]
   1b59a:	9200      	str	r2, [sp, #0]
   1b59c:	f44f 7180 	mov.w	r1, #256	; 0x100
   1b5a0:	465a      	mov	r2, fp
   1b5a2:	a802      	add	r0, sp, #8
   1b5a4:	f000 fbd6 	bl	1bd54 <sniprintf>
   1b5a8:	a902      	add	r1, sp, #8
   1b5aa:	f04f 0000 	mov.w	r0, #0
   1b5ae:	f7ff fe43 	bl	1b238 <int markup<DevRtt<0> >(DevRtt<0>, char const*)>
   1b5b2:	3c02      	subs	r4, #2
   1b5b4:	d5ed      	bpl.n	1b592 <Advertising<MyTemperatureAD<TemperatureInternal<(unsigned char)5> >, (unsigned short)3000, &(advInitCB())>::update(void*)+0x106>
   1b5b6:	e7c5      	b.n	1b544 <Advertising<MyTemperatureAD<TemperatureInternal<(unsigned char)5> >, (unsigned short)3000, &(advInitCB())>::update(void*)+0xb8>
   1b5b8:	eb07 0308 	add.w	r3, r7, r8
   1b5bc:	9300      	str	r3, [sp, #0]
   1b5be:	4a0e      	ldr	r2, [pc, #56]	; (1b5f8 <Advertising<MyTemperatureAD<TemperatureInternal<(unsigned char)5> >, (unsigned short)3000, &(advInitCB())>::update(void*)+0x16c>)
   1b5c0:	462b      	mov	r3, r5
   1b5c2:	f44f 7180 	mov.w	r1, #256	; 0x100
   1b5c6:	a802      	add	r0, sp, #8
   1b5c8:	f000 fbc4 	bl	1bd54 <sniprintf>
   1b5cc:	a902      	add	r1, sp, #8
   1b5ce:	f04f 0000 	mov.w	r0, #0
   1b5d2:	eb08 0405 	add.w	r4, r8, r5
   1b5d6:	f7ff fe2f 	bl	1b238 <int markup<DevRtt<0> >(DevRtt<0>, char const*)>
   1b5da:	e7b5      	b.n	1b548 <Advertising<MyTemperatureAD<TemperatureInternal<(unsigned char)5> >, (unsigned short)3000, &(advInitCB())>::update(void*)+0xbc>
   1b5dc:	2000134c 	.word	0x2000134c
   1b5e0:	0001d6e0 	.word	0x0001d6e0
   1b5e4:	0001d68c 	.word	0x0001d68c
   1b5e8:	0001d6cc 	.word	0x0001d6cc
   1b5ec:	0001d6e8 	.word	0x0001d6e8
   1b5f0:	2000134e 	.word	0x2000134e
   1b5f4:	0001d6a0 	.word	0x0001d6a0
   1b5f8:	0001d728 	.word	0x0001d728
   1b5fc:	0001d708 	.word	0x0001d708
   1b600:	0001d734 	.word	0x0001d734
   1b604:	0001d730 	.word	0x0001d730

0001b608 <Advertising<MyTemperatureAD<TemperatureInternal<(unsigned char)5> >, (unsigned short)3000, &(advInitCB())>::init()>:
   1b608:	b538      	push	{r3, r4, r5, lr}
   1b60a:	f7ff fbd9 	bl	1adc0 <MyTemperatureAD<TemperatureInternal<(unsigned char)5> >::init()>
   1b60e:	4c14      	ldr	r4, [pc, #80]	; (1b660 <Advertising<MyTemperatureAD<TemperatureInternal<(unsigned char)5> >, (unsigned short)3000, &(advInitCB())>::init()+0x58>)
   1b610:	4b14      	ldr	r3, [pc, #80]	; (1b664 <Advertising<MyTemperatureAD<TemperatureInternal<(unsigned char)5> >, (unsigned short)3000, &(advInitCB())>::init()+0x5c>)
   1b612:	4d15      	ldr	r5, [pc, #84]	; (1b668 <Advertising<MyTemperatureAD<TemperatureInternal<(unsigned char)5> >, (unsigned short)3000, &(advInitCB())>::init()+0x60>)
   1b614:	2205      	movs	r2, #5
   1b616:	e9d3 0100 	ldrd	r0, r1, [r3]
   1b61a:	7022      	strb	r2, [r4, #0]
   1b61c:	f001 f83e 	bl	1c69c <__aeabi_d2uiz>
   1b620:	4603      	mov	r3, r0
   1b622:	2000      	movs	r0, #0
   1b624:	60a3      	str	r3, [r4, #8]
   1b626:	f7ff ff31 	bl	1b48c <Advertising<MyTemperatureAD<TemperatureInternal<(unsigned char)5> >, (unsigned short)3000, &(advInitCB())>::update(void*)>
   1b62a:	782b      	ldrb	r3, [r5, #0]
   1b62c:	b91b      	cbnz	r3, 1b636 <Advertising<MyTemperatureAD<TemperatureInternal<(unsigned char)5> >, (unsigned short)3000, &(advInitCB())>::init()+0x2e>
   1b62e:	f7fe f837 	bl	196a0 <app_timer_init>
   1b632:	2301      	movs	r3, #1
   1b634:	702b      	strb	r3, [r5, #0]
   1b636:	4a0d      	ldr	r2, [pc, #52]	; (1b66c <Advertising<MyTemperatureAD<TemperatureInternal<(unsigned char)5> >, (unsigned short)3000, &(advInitCB())>::init()+0x64>)
   1b638:	480d      	ldr	r0, [pc, #52]	; (1b670 <Advertising<MyTemperatureAD<TemperatureInternal<(unsigned char)5> >, (unsigned short)3000, &(advInitCB())>::init()+0x68>)
   1b63a:	2101      	movs	r1, #1
   1b63c:	f7fe f866 	bl	1970c <app_timer_create>
   1b640:	b280      	uxth	r0, r0
   1b642:	f7fe ffb9 	bl	1a5b8 <Errors::check(unsigned short, bool) [clone .constprop.0]>
   1b646:	4b0b      	ldr	r3, [pc, #44]	; (1b674 <Advertising<MyTemperatureAD<TemperatureInternal<(unsigned char)5> >, (unsigned short)3000, &(advInitCB())>::init()+0x6c>)
   1b648:	2200      	movs	r2, #0
   1b64a:	6a18      	ldr	r0, [r3, #32]
   1b64c:	f44f 2170 	mov.w	r1, #983040	; 0xf0000
   1b650:	f7fe f86a 	bl	19728 <app_timer_start>
   1b654:	e8bd 4038 	ldmia.w	sp!, {r3, r4, r5, lr}
   1b658:	b280      	uxth	r0, r0
   1b65a:	f7fe bfad 	b.w	1a5b8 <Errors::check(unsigned short, bool) [clone .constprop.0]>
   1b65e:	bf00      	nop
   1b660:	2000136c 	.word	0x2000136c
   1b664:	20001128 	.word	0x20001128
   1b668:	20001348 	.word	0x20001348
   1b66c:	0001b48d 	.word	0x0001b48d
   1b670:	20001340 	.word	0x20001340
   1b674:	20001320 	.word	0x20001320

0001b678 <main>:
   1b678:	b510      	push	{r4, lr}
   1b67a:	b0c0      	sub	sp, #256	; 0x100
   1b67c:	4a18      	ldr	r2, [pc, #96]	; (1b6e0 <main+0x68>)
   1b67e:	f44f 7180 	mov.w	r1, #256	; 0x100
   1b682:	4668      	mov	r0, sp
   1b684:	f000 fb66 	bl	1bd54 <sniprintf>
   1b688:	4669      	mov	r1, sp
   1b68a:	f04f 0000 	mov.w	r0, #0
   1b68e:	f7ff fdd3 	bl	1b238 <int markup<DevRtt<0> >(DevRtt<0>, char const*)>
   1b692:	f7ff f857 	bl	1a744 <BL651tempBoard::init()>
   1b696:	f7ff f869 	bl	1a76c <BL651tempBoard::alive()>
   1b69a:	f7fe faa5 	bl	19be8 <nrf_pwr_mgmt_init>
   1b69e:	b280      	uxth	r0, r0
   1b6a0:	f7fe ff8a 	bl	1a5b8 <Errors::check(unsigned short, bool) [clone .constprop.0]>
   1b6a4:	f04f 4380 	mov.w	r3, #1073741824	; 0x40000000
   1b6a8:	2201      	movs	r2, #1
   1b6aa:	f8c3 2578 	str.w	r2, [r3, #1400]	; 0x578
   1b6ae:	2400      	movs	r4, #0
   1b6b0:	9400      	str	r4, [sp, #0]
   1b6b2:	f000 f99d 	bl	1b9f0 <nrf_sdh_enable_request>
   1b6b6:	b280      	uxth	r0, r0
   1b6b8:	f7fe ff7e 	bl	1a5b8 <Errors::check(unsigned short, bool) [clone .constprop.0]>
   1b6bc:	4669      	mov	r1, sp
   1b6be:	4620      	mov	r0, r4
   1b6c0:	f000 fa72 	bl	1bba8 <nrf_sdh_ble_default_cfg_set>
   1b6c4:	b280      	uxth	r0, r0
   1b6c6:	f7fe ff77 	bl	1a5b8 <Errors::check(unsigned short, bool) [clone .constprop.0]>
   1b6ca:	4668      	mov	r0, sp
   1b6cc:	f000 fac2 	bl	1bc54 <nrf_sdh_ble_enable>
   1b6d0:	b280      	uxth	r0, r0
   1b6d2:	f7fe ff71 	bl	1a5b8 <Errors::check(unsigned short, bool) [clone .constprop.0]>
   1b6d6:	f7ff ff97 	bl	1b608 <Advertising<MyTemperatureAD<TemperatureInternal<(unsigned char)5> >, (unsigned short)3000, &(advInitCB())>::init()>
   1b6da:	f7fe fa9b 	bl	19c14 <nrf_pwr_mgmt_run>
   1b6de:	e7fc      	b.n	1b6da <main+0x62>
   1b6e0:	0001d73c 	.word	0x0001d73c

0001b6e4 <_GLOBAL__sub_I_main>:
   1b6e4:	4b2a      	ldr	r3, [pc, #168]	; (1b790 <_GLOBAL__sub_I_main+0xac>)
   1b6e6:	681a      	ldr	r2, [r3, #0]
   1b6e8:	07d0      	lsls	r0, r2, #31
   1b6ea:	bf5c      	itt	pl
   1b6ec:	2201      	movpl	r2, #1
   1b6ee:	601a      	strpl	r2, [r3, #0]
   1b6f0:	4b28      	ldr	r3, [pc, #160]	; (1b794 <_GLOBAL__sub_I_main+0xb0>)
   1b6f2:	681a      	ldr	r2, [r3, #0]
   1b6f4:	07d1      	lsls	r1, r2, #31
   1b6f6:	bf5c      	itt	pl
   1b6f8:	2201      	movpl	r2, #1
   1b6fa:	601a      	strpl	r2, [r3, #0]
   1b6fc:	4b26      	ldr	r3, [pc, #152]	; (1b798 <_GLOBAL__sub_I_main+0xb4>)
   1b6fe:	681a      	ldr	r2, [r3, #0]
   1b700:	07d2      	lsls	r2, r2, #31
   1b702:	bf5c      	itt	pl
   1b704:	2201      	movpl	r2, #1
   1b706:	601a      	strpl	r2, [r3, #0]
   1b708:	4b24      	ldr	r3, [pc, #144]	; (1b79c <_GLOBAL__sub_I_main+0xb8>)
   1b70a:	681a      	ldr	r2, [r3, #0]
   1b70c:	07d0      	lsls	r0, r2, #31
   1b70e:	bf5c      	itt	pl
   1b710:	2201      	movpl	r2, #1
   1b712:	601a      	strpl	r2, [r3, #0]
   1b714:	4b22      	ldr	r3, [pc, #136]	; (1b7a0 <_GLOBAL__sub_I_main+0xbc>)
   1b716:	681a      	ldr	r2, [r3, #0]
   1b718:	07d1      	lsls	r1, r2, #31
   1b71a:	bf5c      	itt	pl
   1b71c:	2201      	movpl	r2, #1
   1b71e:	601a      	strpl	r2, [r3, #0]
   1b720:	4b20      	ldr	r3, [pc, #128]	; (1b7a4 <_GLOBAL__sub_I_main+0xc0>)
   1b722:	681a      	ldr	r2, [r3, #0]
   1b724:	07d2      	lsls	r2, r2, #31
   1b726:	bf5c      	itt	pl
   1b728:	2201      	movpl	r2, #1
   1b72a:	601a      	strpl	r2, [r3, #0]
   1b72c:	4a1e      	ldr	r2, [pc, #120]	; (1b7a8 <_GLOBAL__sub_I_main+0xc4>)
   1b72e:	6813      	ldr	r3, [r2, #0]
   1b730:	f013 0301 	ands.w	r3, r3, #1
   1b734:	d11d      	bne.n	1b772 <_GLOBAL__sub_I_main+0x8e>
   1b736:	b430      	push	{r4, r5}
   1b738:	4c1c      	ldr	r4, [pc, #112]	; (1b7ac <_GLOBAL__sub_I_main+0xc8>)
   1b73a:	4d1d      	ldr	r5, [pc, #116]	; (1b7b0 <_GLOBAL__sub_I_main+0xcc>)
   1b73c:	491d      	ldr	r1, [pc, #116]	; (1b7b4 <_GLOBAL__sub_I_main+0xd0>)
   1b73e:	7023      	strb	r3, [r4, #0]
   1b740:	702b      	strb	r3, [r5, #0]
   1b742:	2409      	movs	r4, #9
   1b744:	4b1c      	ldr	r3, [pc, #112]	; (1b7b8 <_GLOBAL__sub_I_main+0xd4>)
   1b746:	700c      	strb	r4, [r1, #0]
   1b748:	2101      	movs	r1, #1
   1b74a:	481c      	ldr	r0, [pc, #112]	; (1b7bc <_GLOBAL__sub_I_main+0xd8>)
   1b74c:	6011      	str	r1, [r2, #0]
   1b74e:	681a      	ldr	r2, [r3, #0]
   1b750:	f44f 3400 	mov.w	r4, #131072	; 0x20000
   1b754:	6004      	str	r4, [r0, #0]
   1b756:	07d4      	lsls	r4, r2, #31
   1b758:	d403      	bmi.n	1b762 <_GLOBAL__sub_I_main+0x7e>
   1b75a:	4a19      	ldr	r2, [pc, #100]	; (1b7c0 <_GLOBAL__sub_I_main+0xdc>)
   1b75c:	2101      	movs	r1, #1
   1b75e:	6212      	str	r2, [r2, #32]
   1b760:	6019      	str	r1, [r3, #0]
   1b762:	4b18      	ldr	r3, [pc, #96]	; (1b7c4 <_GLOBAL__sub_I_main+0xe0>)
   1b764:	681a      	ldr	r2, [r3, #0]
   1b766:	07d0      	lsls	r0, r2, #31
   1b768:	bf5c      	itt	pl
   1b76a:	2201      	movpl	r2, #1
   1b76c:	601a      	strpl	r2, [r3, #0]
   1b76e:	bc30      	pop	{r4, r5}
   1b770:	4770      	bx	lr
   1b772:	4b11      	ldr	r3, [pc, #68]	; (1b7b8 <_GLOBAL__sub_I_main+0xd4>)
   1b774:	681a      	ldr	r2, [r3, #0]
   1b776:	07d1      	lsls	r1, r2, #31
   1b778:	d403      	bmi.n	1b782 <_GLOBAL__sub_I_main+0x9e>
   1b77a:	4a11      	ldr	r2, [pc, #68]	; (1b7c0 <_GLOBAL__sub_I_main+0xdc>)
   1b77c:	2101      	movs	r1, #1
   1b77e:	6212      	str	r2, [r2, #32]
   1b780:	6019      	str	r1, [r3, #0]
   1b782:	4b10      	ldr	r3, [pc, #64]	; (1b7c4 <_GLOBAL__sub_I_main+0xe0>)
   1b784:	681a      	ldr	r2, [r3, #0]
   1b786:	07d2      	lsls	r2, r2, #31
   1b788:	bf5c      	itt	pl
   1b78a:	2201      	movpl	r2, #1
   1b78c:	601a      	strpl	r2, [r3, #0]
   1b78e:	4770      	bx	lr
   1b790:	20001314 	.word	0x20001314
   1b794:	20001310 	.word	0x20001310
   1b798:	2000130c 	.word	0x2000130c
   1b79c:	20001308 	.word	0x20001308
   1b7a0:	20001304 	.word	0x20001304
   1b7a4:	20001300 	.word	0x20001300
   1b7a8:	200012fc 	.word	0x200012fc
   1b7ac:	200013ae 	.word	0x200013ae
   1b7b0:	200013ac 	.word	0x200013ac
   1b7b4:	200013ad 	.word	0x200013ad
   1b7b8:	200012f8 	.word	0x200012f8
   1b7bc:	200013a8 	.word	0x200013a8
   1b7c0:	20001320 	.word	0x20001320
   1b7c4:	200012f4 	.word	0x200012f4

0001b7c8 <SEGGER_RTT_Write>:
   1b7c8:	e92d 4ff0 	stmdb	sp!, {r4, r5, r6, r7, r8, r9, sl, fp, lr}
   1b7cc:	4f81      	ldr	r7, [pc, #516]	; (1b9d4 <SEGGER_RTT_Write+0x20c>)
   1b7ce:	783b      	ldrb	r3, [r7, #0]
   1b7d0:	b085      	sub	sp, #20
   1b7d2:	4680      	mov	r8, r0
   1b7d4:	468a      	mov	sl, r1
   1b7d6:	4691      	mov	r9, r2
   1b7d8:	b1eb      	cbz	r3, 1b816 <SEGGER_RTT_Write+0x4e>
   1b7da:	eb08 0548 	add.w	r5, r8, r8, lsl #1
   1b7de:	eb07 05c5 	add.w	r5, r7, r5, lsl #3
   1b7e2:	f04f 0b00 	mov.w	fp, #0
   1b7e6:	f10d 000f 	add.w	r0, sp, #15
   1b7ea:	f88d b00f 	strb.w	fp, [sp, #15]
   1b7ee:	f7fd ffe1 	bl	197b4 <app_util_critical_region_enter>
   1b7f2:	6aee      	ldr	r6, [r5, #44]	; 0x2c
   1b7f4:	2e01      	cmp	r6, #1
   1b7f6:	ea4f 0448 	mov.w	r4, r8, lsl #1
   1b7fa:	f000 808d 	beq.w	1b918 <SEGGER_RTT_Write+0x150>
   1b7fe:	2e02      	cmp	r6, #2
   1b800:	d04f      	beq.n	1b8a2 <SEGGER_RTT_Write+0xda>
   1b802:	b346      	cbz	r6, 1b856 <SEGGER_RTT_Write+0x8e>
   1b804:	465e      	mov	r6, fp
   1b806:	f89d 000f 	ldrb.w	r0, [sp, #15]
   1b80a:	f7fd fff9 	bl	19800 <app_util_critical_region_exit>
   1b80e:	4630      	mov	r0, r6
   1b810:	b005      	add	sp, #20
   1b812:	e8bd 8ff0 	ldmia.w	sp!, {r4, r5, r6, r7, r8, r9, sl, fp, pc}
   1b816:	4a70      	ldr	r2, [pc, #448]	; (1b9d8 <SEGGER_RTT_Write+0x210>)
   1b818:	62bb      	str	r3, [r7, #40]	; 0x28
   1b81a:	2102      	movs	r1, #2
   1b81c:	627b      	str	r3, [r7, #36]	; 0x24
   1b81e:	62fb      	str	r3, [r7, #44]	; 0x2c
   1b820:	65bb      	str	r3, [r7, #88]	; 0x58
   1b822:	657b      	str	r3, [r7, #84]	; 0x54
   1b824:	65fb      	str	r3, [r7, #92]	; 0x5c
   1b826:	4b6d      	ldr	r3, [pc, #436]	; (1b9dc <SEGGER_RTT_Write+0x214>)
   1b828:	61ba      	str	r2, [r7, #24]
   1b82a:	e9c7 1104 	strd	r1, r1, [r7, #16]
   1b82e:	64ba      	str	r2, [r7, #72]	; 0x48
   1b830:	f44f 7100 	mov.w	r1, #512	; 0x200
   1b834:	4a6a      	ldr	r2, [pc, #424]	; (1b9e0 <SEGGER_RTT_Write+0x218>)
   1b836:	61fb      	str	r3, [r7, #28]
   1b838:	2310      	movs	r3, #16
   1b83a:	653b      	str	r3, [r7, #80]	; 0x50
   1b83c:	6239      	str	r1, [r7, #32]
   1b83e:	64fa      	str	r2, [r7, #76]	; 0x4c
   1b840:	4968      	ldr	r1, [pc, #416]	; (1b9e4 <SEGGER_RTT_Write+0x21c>)
   1b842:	1df8      	adds	r0, r7, #7
   1b844:	f000 faba 	bl	1bdbc <strcpy>
   1b848:	4967      	ldr	r1, [pc, #412]	; (1b9e8 <SEGGER_RTT_Write+0x220>)
   1b84a:	4638      	mov	r0, r7
   1b84c:	f000 fab6 	bl	1bdbc <strcpy>
   1b850:	2320      	movs	r3, #32
   1b852:	71bb      	strb	r3, [r7, #6]
   1b854:	e7c1      	b.n	1b7da <SEGGER_RTT_Write+0x12>
   1b856:	6aab      	ldr	r3, [r5, #40]	; 0x28
   1b858:	f8d5 b024 	ldr.w	fp, [r5, #36]	; 0x24
   1b85c:	455b      	cmp	r3, fp
   1b85e:	bf9c      	itt	ls
   1b860:	6a2a      	ldrls	r2, [r5, #32]
   1b862:	189b      	addls	r3, r3, r2
   1b864:	3b01      	subs	r3, #1
   1b866:	eba3 030b 	sub.w	r3, r3, fp
   1b86a:	4599      	cmp	r9, r3
   1b86c:	d8cb      	bhi.n	1b806 <SEGGER_RTT_Write+0x3e>
   1b86e:	4444      	add	r4, r8
   1b870:	eb07 04c4 	add.w	r4, r7, r4, lsl #3
   1b874:	f108 0801 	add.w	r8, r8, #1
   1b878:	6a25      	ldr	r5, [r4, #32]
   1b87a:	eba5 060b 	sub.w	r6, r5, fp
   1b87e:	eb08 0848 	add.w	r8, r8, r8, lsl #1
   1b882:	45b1      	cmp	r9, r6
   1b884:	eb07 07c8 	add.w	r7, r7, r8, lsl #3
   1b888:	f080 8091 	bcs.w	1b9ae <SEGGER_RTT_Write+0x1e6>
   1b88c:	6878      	ldr	r0, [r7, #4]
   1b88e:	4651      	mov	r1, sl
   1b890:	464a      	mov	r2, r9
   1b892:	4458      	add	r0, fp
   1b894:	f000 fa48 	bl	1bd28 <memcpy>
   1b898:	eb09 030b 	add.w	r3, r9, fp
   1b89c:	6263      	str	r3, [r4, #36]	; 0x24
   1b89e:	464e      	mov	r6, r9
   1b8a0:	e7b1      	b.n	1b806 <SEGGER_RTT_Write+0x3e>
   1b8a2:	f108 0801 	add.w	r8, r8, #1
   1b8a6:	eb08 0848 	add.w	r8, r8, r8, lsl #1
   1b8aa:	6a6c      	ldr	r4, [r5, #36]	; 0x24
   1b8ac:	ea4f 08c8 	mov.w	r8, r8, lsl #3
   1b8b0:	465e      	mov	r6, fp
   1b8b2:	6aab      	ldr	r3, [r5, #40]	; 0x28
   1b8b4:	42a3      	cmp	r3, r4
   1b8b6:	f103 32ff 	add.w	r2, r3, #4294967295	; 0xffffffff
   1b8ba:	d922      	bls.n	1b902 <SEGGER_RTT_Write+0x13a>
   1b8bc:	1b13      	subs	r3, r2, r4
   1b8be:	6a2a      	ldr	r2, [r5, #32]
   1b8c0:	454b      	cmp	r3, r9
   1b8c2:	eb07 0108 	add.w	r1, r7, r8
   1b8c6:	eba2 0b04 	sub.w	fp, r2, r4
   1b8ca:	bf28      	it	cs
   1b8cc:	464b      	movcs	r3, r9
   1b8ce:	459b      	cmp	fp, r3
   1b8d0:	6848      	ldr	r0, [r1, #4]
   1b8d2:	bf28      	it	cs
   1b8d4:	469b      	movcs	fp, r3
   1b8d6:	4420      	add	r0, r4
   1b8d8:	4651      	mov	r1, sl
   1b8da:	465a      	mov	r2, fp
   1b8dc:	f000 fa24 	bl	1bd28 <memcpy>
   1b8e0:	6a2b      	ldr	r3, [r5, #32]
   1b8e2:	445c      	add	r4, fp
   1b8e4:	429c      	cmp	r4, r3
   1b8e6:	445e      	add	r6, fp
   1b8e8:	eba9 090b 	sub.w	r9, r9, fp
   1b8ec:	44da      	add	sl, fp
   1b8ee:	d00d      	beq.n	1b90c <SEGGER_RTT_Write+0x144>
   1b8f0:	626c      	str	r4, [r5, #36]	; 0x24
   1b8f2:	f1b9 0f00 	cmp.w	r9, #0
   1b8f6:	d086      	beq.n	1b806 <SEGGER_RTT_Write+0x3e>
   1b8f8:	6aab      	ldr	r3, [r5, #40]	; 0x28
   1b8fa:	42a3      	cmp	r3, r4
   1b8fc:	f103 32ff 	add.w	r2, r3, #4294967295	; 0xffffffff
   1b900:	d8dc      	bhi.n	1b8bc <SEGGER_RTT_Write+0xf4>
   1b902:	6a2a      	ldr	r2, [r5, #32]
   1b904:	4413      	add	r3, r2
   1b906:	3b01      	subs	r3, #1
   1b908:	1b1b      	subs	r3, r3, r4
   1b90a:	e7d9      	b.n	1b8c0 <SEGGER_RTT_Write+0xf8>
   1b90c:	2400      	movs	r4, #0
   1b90e:	626c      	str	r4, [r5, #36]	; 0x24
   1b910:	f1b9 0f00 	cmp.w	r9, #0
   1b914:	d1cd      	bne.n	1b8b2 <SEGGER_RTT_Write+0xea>
   1b916:	e776      	b.n	1b806 <SEGGER_RTT_Write+0x3e>
   1b918:	6aae      	ldr	r6, [r5, #40]	; 0x28
   1b91a:	f8d5 b024 	ldr.w	fp, [r5, #36]	; 0x24
   1b91e:	455e      	cmp	r6, fp
   1b920:	d91d      	bls.n	1b95e <SEGGER_RTT_Write+0x196>
   1b922:	3e01      	subs	r6, #1
   1b924:	eba6 060b 	sub.w	r6, r6, fp
   1b928:	6a2d      	ldr	r5, [r5, #32]
   1b92a:	454e      	cmp	r6, r9
   1b92c:	bf28      	it	cs
   1b92e:	464e      	movcs	r6, r9
   1b930:	eba5 020b 	sub.w	r2, r5, fp
   1b934:	4296      	cmp	r6, r2
   1b936:	d21e      	bcs.n	1b976 <SEGGER_RTT_Write+0x1ae>
   1b938:	f108 0301 	add.w	r3, r8, #1
   1b93c:	eb03 0343 	add.w	r3, r3, r3, lsl #1
   1b940:	eb07 03c3 	add.w	r3, r7, r3, lsl #3
   1b944:	44a0      	add	r8, r4
   1b946:	6858      	ldr	r0, [r3, #4]
   1b948:	4632      	mov	r2, r6
   1b94a:	4651      	mov	r1, sl
   1b94c:	4458      	add	r0, fp
   1b94e:	eb07 07c8 	add.w	r7, r7, r8, lsl #3
   1b952:	f000 f9e9 	bl	1bd28 <memcpy>
   1b956:	eb0b 0206 	add.w	r2, fp, r6
   1b95a:	627a      	str	r2, [r7, #36]	; 0x24
   1b95c:	e753      	b.n	1b806 <SEGGER_RTT_Write+0x3e>
   1b95e:	6a2d      	ldr	r5, [r5, #32]
   1b960:	442e      	add	r6, r5
   1b962:	3e01      	subs	r6, #1
   1b964:	eba6 060b 	sub.w	r6, r6, fp
   1b968:	454e      	cmp	r6, r9
   1b96a:	bf28      	it	cs
   1b96c:	464e      	movcs	r6, r9
   1b96e:	eba5 020b 	sub.w	r2, r5, fp
   1b972:	4296      	cmp	r6, r2
   1b974:	d3e0      	bcc.n	1b938 <SEGGER_RTT_Write+0x170>
   1b976:	f108 0901 	add.w	r9, r8, #1
   1b97a:	eb09 0949 	add.w	r9, r9, r9, lsl #1
   1b97e:	eb07 09c9 	add.w	r9, r7, r9, lsl #3
   1b982:	4651      	mov	r1, sl
   1b984:	f8d9 0004 	ldr.w	r0, [r9, #4]
   1b988:	9201      	str	r2, [sp, #4]
   1b98a:	4458      	add	r0, fp
   1b98c:	f000 f9cc 	bl	1bd28 <memcpy>
   1b990:	1b75      	subs	r5, r6, r5
   1b992:	9a01      	ldr	r2, [sp, #4]
   1b994:	f8d9 0004 	ldr.w	r0, [r9, #4]
   1b998:	44a0      	add	r8, r4
   1b99a:	445d      	add	r5, fp
   1b99c:	eb07 07c8 	add.w	r7, r7, r8, lsl #3
   1b9a0:	eb0a 0102 	add.w	r1, sl, r2
   1b9a4:	462a      	mov	r2, r5
   1b9a6:	f000 f9bf 	bl	1bd28 <memcpy>
   1b9aa:	627d      	str	r5, [r7, #36]	; 0x24
   1b9ac:	e72b      	b.n	1b806 <SEGGER_RTT_Write+0x3e>
   1b9ae:	6878      	ldr	r0, [r7, #4]
   1b9b0:	4458      	add	r0, fp
   1b9b2:	44cb      	add	fp, r9
   1b9b4:	4632      	mov	r2, r6
   1b9b6:	4651      	mov	r1, sl
   1b9b8:	ebab 0505 	sub.w	r5, fp, r5
   1b9bc:	f000 f9b4 	bl	1bd28 <memcpy>
   1b9c0:	eb0a 0106 	add.w	r1, sl, r6
   1b9c4:	6878      	ldr	r0, [r7, #4]
   1b9c6:	462a      	mov	r2, r5
   1b9c8:	f000 f9ae 	bl	1bd28 <memcpy>
   1b9cc:	464e      	mov	r6, r9
   1b9ce:	6265      	str	r5, [r4, #36]	; 0x24
   1b9d0:	e719      	b.n	1b806 <SEGGER_RTT_Write+0x3e>
   1b9d2:	bf00      	nop
   1b9d4:	200015dc 	.word	0x200015dc
   1b9d8:	0001da1c 	.word	0x0001da1c
   1b9dc:	200013c0 	.word	0x200013c0
   1b9e0:	200013b0 	.word	0x200013b0
   1b9e4:	0001da28 	.word	0x0001da28
   1b9e8:	0001da2c 	.word	0x0001da2c

0001b9ec <sd_softdevice_enable>:
   1b9ec:	df10      	svc	16
   1b9ee:	4770      	bx	lr

0001b9f0 <nrf_sdh_enable_request>:
   1b9f0:	b570      	push	{r4, r5, r6, lr}
   1b9f2:	4d3c      	ldr	r5, [pc, #240]	; (1bae4 <nrf_sdh_enable_request+0xf4>)
   1b9f4:	782b      	ldrb	r3, [r5, #0]
   1b9f6:	b084      	sub	sp, #16
   1b9f8:	2b00      	cmp	r3, #0
   1b9fa:	d166      	bne.n	1baca <nrf_sdh_enable_request+0xda>
   1b9fc:	4e3a      	ldr	r6, [pc, #232]	; (1bae8 <nrf_sdh_enable_request+0xf8>)
   1b9fe:	493b      	ldr	r1, [pc, #236]	; (1baec <nrf_sdh_enable_request+0xfc>)
   1ba00:	2301      	movs	r3, #1
   1ba02:	a802      	add	r0, sp, #8
   1ba04:	7033      	strb	r3, [r6, #0]
   1ba06:	f7fe f911 	bl	19c2c <nrf_section_iter_init>
   1ba0a:	9b03      	ldr	r3, [sp, #12]
   1ba0c:	b923      	cbnz	r3, 1ba18 <nrf_sdh_enable_request+0x28>
   1ba0e:	e00e      	b.n	1ba2e <nrf_sdh_enable_request+0x3e>
   1ba10:	f7fe f916 	bl	19c40 <nrf_section_iter_next>
   1ba14:	9b03      	ldr	r3, [sp, #12]
   1ba16:	b153      	cbz	r3, 1ba2e <nrf_sdh_enable_request+0x3e>
   1ba18:	e9d3 2100 	ldrd	r2, r1, [r3]
   1ba1c:	2000      	movs	r0, #0
   1ba1e:	4790      	blx	r2
   1ba20:	4604      	mov	r4, r0
   1ba22:	a802      	add	r0, sp, #8
   1ba24:	2c00      	cmp	r4, #0
   1ba26:	d1f3      	bne.n	1ba10 <nrf_sdh_enable_request+0x20>
   1ba28:	4620      	mov	r0, r4
   1ba2a:	b004      	add	sp, #16
   1ba2c:	bd70      	pop	{r4, r5, r6, pc}
   1ba2e:	4930      	ldr	r1, [pc, #192]	; (1baf0 <nrf_sdh_enable_request+0x100>)
   1ba30:	a802      	add	r0, sp, #8
   1ba32:	f7fe f8fb 	bl	19c2c <nrf_section_iter_init>
   1ba36:	9b03      	ldr	r3, [sp, #12]
   1ba38:	b14b      	cbz	r3, 1ba4e <nrf_sdh_enable_request+0x5e>
   1ba3a:	e9d3 2100 	ldrd	r2, r1, [r3]
   1ba3e:	2000      	movs	r0, #0
   1ba40:	4790      	blx	r2
   1ba42:	a802      	add	r0, sp, #8
   1ba44:	f7fe f8fc 	bl	19c40 <nrf_section_iter_next>
   1ba48:	9b03      	ldr	r3, [sp, #12]
   1ba4a:	2b00      	cmp	r3, #0
   1ba4c:	d1f5      	bne.n	1ba3a <nrf_sdh_enable_request+0x4a>
   1ba4e:	4a29      	ldr	r2, [pc, #164]	; (1baf4 <nrf_sdh_enable_request+0x104>)
   1ba50:	2300      	movs	r3, #0
   1ba52:	6812      	ldr	r2, [r2, #0]
   1ba54:	f88d 3008 	strb.w	r3, [sp, #8]
   1ba58:	a802      	add	r0, sp, #8
   1ba5a:	9201      	str	r2, [sp, #4]
   1ba5c:	f7fd feaa 	bl	197b4 <app_util_critical_region_enter>
   1ba60:	4925      	ldr	r1, [pc, #148]	; (1baf8 <nrf_sdh_enable_request+0x108>)
   1ba62:	a801      	add	r0, sp, #4
   1ba64:	f7ff ffc2 	bl	1b9ec <sd_softdevice_enable>
   1ba68:	fab0 f380 	clz	r3, r0
   1ba6c:	4604      	mov	r4, r0
   1ba6e:	095b      	lsrs	r3, r3, #5
   1ba70:	f89d 0008 	ldrb.w	r0, [sp, #8]
   1ba74:	702b      	strb	r3, [r5, #0]
   1ba76:	f7fd fec3 	bl	19800 <app_util_critical_region_exit>
   1ba7a:	2c00      	cmp	r4, #0
   1ba7c:	d1d4      	bne.n	1ba28 <nrf_sdh_enable_request+0x38>
   1ba7e:	4b1f      	ldr	r3, [pc, #124]	; (1bafc <nrf_sdh_enable_request+0x10c>)
   1ba80:	491f      	ldr	r1, [pc, #124]	; (1bb00 <nrf_sdh_enable_request+0x110>)
   1ba82:	701c      	strb	r4, [r3, #0]
   1ba84:	7034      	strb	r4, [r6, #0]
   1ba86:	f891 2316 	ldrb.w	r2, [r1, #790]	; 0x316
   1ba8a:	23ec      	movs	r3, #236	; 0xec
   1ba8c:	0952      	lsrs	r2, r2, #5
   1ba8e:	4113      	asrs	r3, r2
   1ba90:	07db      	lsls	r3, r3, #31
   1ba92:	d51e      	bpl.n	1bad2 <nrf_sdh_enable_request+0xe2>
   1ba94:	4b1b      	ldr	r3, [pc, #108]	; (1bb04 <nrf_sdh_enable_request+0x114>)
   1ba96:	689a      	ldr	r2, [r3, #8]
   1ba98:	b302      	cbz	r2, 1badc <nrf_sdh_enable_request+0xec>
   1ba9a:	681a      	ldr	r2, [r3, #0]
   1ba9c:	f442 0280 	orr.w	r2, r2, #4194304	; 0x400000
   1baa0:	601a      	str	r2, [r3, #0]
   1baa2:	4913      	ldr	r1, [pc, #76]	; (1baf0 <nrf_sdh_enable_request+0x100>)
   1baa4:	a802      	add	r0, sp, #8
   1baa6:	f7fe f8c1 	bl	19c2c <nrf_section_iter_init>
   1baaa:	9b03      	ldr	r3, [sp, #12]
   1baac:	2b00      	cmp	r3, #0
   1baae:	d0bb      	beq.n	1ba28 <nrf_sdh_enable_request+0x38>
   1bab0:	e9d3 2100 	ldrd	r2, r1, [r3]
   1bab4:	2001      	movs	r0, #1
   1bab6:	4790      	blx	r2
   1bab8:	a802      	add	r0, sp, #8
   1baba:	f7fe f8c1 	bl	19c40 <nrf_section_iter_next>
   1babe:	9b03      	ldr	r3, [sp, #12]
   1bac0:	2b00      	cmp	r3, #0
   1bac2:	d1f5      	bne.n	1bab0 <nrf_sdh_enable_request+0xc0>
   1bac4:	4620      	mov	r0, r4
   1bac6:	b004      	add	sp, #16
   1bac8:	bd70      	pop	{r4, r5, r6, pc}
   1baca:	2408      	movs	r4, #8
   1bacc:	4620      	mov	r0, r4
   1bace:	b004      	add	sp, #16
   1bad0:	bd70      	pop	{r4, r5, r6, pc}
   1bad2:	f242 0002 	movw	r0, #8194	; 0x2002
   1bad6:	f7fd fc25 	bl	19324 <app_error_handler_bare>
   1bada:	e7e2      	b.n	1baa2 <nrf_sdh_enable_request+0xb2>
   1badc:	f44f 0380 	mov.w	r3, #4194304	; 0x400000
   1bae0:	600b      	str	r3, [r1, #0]
   1bae2:	e7de      	b.n	1baa2 <nrf_sdh_enable_request+0xb2>
   1bae4:	200015c1 	.word	0x200015c1
   1bae8:	200015c0 	.word	0x200015c0
   1baec:	0001da38 	.word	0x0001da38
   1baf0:	0001da50 	.word	0x0001da50
   1baf4:	0001da34 	.word	0x0001da34
   1baf8:	00019345 	.word	0x00019345
   1bafc:	200015c2 	.word	0x200015c2
   1bb00:	e000e100 	.word	0xe000e100
   1bb04:	200015d0 	.word	0x200015d0

0001bb08 <nrf_sdh_is_enabled>:
   1bb08:	4b01      	ldr	r3, [pc, #4]	; (1bb10 <nrf_sdh_is_enabled+0x8>)
   1bb0a:	7818      	ldrb	r0, [r3, #0]
   1bb0c:	4770      	bx	lr
   1bb0e:	bf00      	nop
   1bb10:	200015c1 	.word	0x200015c1

0001bb14 <SWI2_IRQHandler>:
   1bb14:	b500      	push	{lr}
   1bb16:	b083      	sub	sp, #12
   1bb18:	4908      	ldr	r1, [pc, #32]	; (1bb3c <SWI2_IRQHandler+0x28>)
   1bb1a:	4668      	mov	r0, sp
   1bb1c:	f7fe f886 	bl	19c2c <nrf_section_iter_init>
   1bb20:	9b01      	ldr	r3, [sp, #4]
   1bb22:	b143      	cbz	r3, 1bb36 <SWI2_IRQHandler+0x22>
   1bb24:	e9d3 2000 	ldrd	r2, r0, [r3]
   1bb28:	4790      	blx	r2
   1bb2a:	4668      	mov	r0, sp
   1bb2c:	f7fe f888 	bl	19c40 <nrf_section_iter_next>
   1bb30:	9b01      	ldr	r3, [sp, #4]
   1bb32:	2b00      	cmp	r3, #0
   1bb34:	d1f6      	bne.n	1bb24 <SWI2_IRQHandler+0x10>
   1bb36:	b003      	add	sp, #12
   1bb38:	f85d fb04 	ldr.w	pc, [sp], #4
   1bb3c:	0001da44 	.word	0x0001da44

0001bb40 <sd_ble_enable>:
   1bb40:	df60      	svc	96	; 0x60
   1bb42:	4770      	bx	lr

0001bb44 <sd_ble_cfg_set>:
   1bb44:	df69      	svc	105	; 0x69
   1bb46:	4770      	bx	lr

0001bb48 <sd_ble_evt_get>:
   1bb48:	df61      	svc	97	; 0x61
   1bb4a:	4770      	bx	lr

0001bb4c <nrf_sdh_ble_evts_poll>:
   1bb4c:	4b14      	ldr	r3, [pc, #80]	; (1bba0 <nrf_sdh_ble_evts_poll+0x54>)
   1bb4e:	781b      	ldrb	r3, [r3, #0]
   1bb50:	b32b      	cbz	r3, 1bb9e <nrf_sdh_ble_evts_poll+0x52>
   1bb52:	b530      	push	{r4, r5, lr}
   1bb54:	4d13      	ldr	r5, [pc, #76]	; (1bba4 <nrf_sdh_ble_evts_poll+0x58>)
   1bb56:	b091      	sub	sp, #68	; 0x44
   1bb58:	2434      	movs	r4, #52	; 0x34
   1bb5a:	f10d 0102 	add.w	r1, sp, #2
   1bb5e:	a803      	add	r0, sp, #12
   1bb60:	f8ad 4002 	strh.w	r4, [sp, #2]
   1bb64:	f7ff fff0 	bl	1bb48 <sd_ble_evt_get>
   1bb68:	b988      	cbnz	r0, 1bb8e <nrf_sdh_ble_evts_poll+0x42>
   1bb6a:	4629      	mov	r1, r5
   1bb6c:	a801      	add	r0, sp, #4
   1bb6e:	f7fe f85d 	bl	19c2c <nrf_section_iter_init>
   1bb72:	9b02      	ldr	r3, [sp, #8]
   1bb74:	2b00      	cmp	r3, #0
   1bb76:	d0f0      	beq.n	1bb5a <nrf_sdh_ble_evts_poll+0xe>
   1bb78:	e9d3 2100 	ldrd	r2, r1, [r3]
   1bb7c:	a803      	add	r0, sp, #12
   1bb7e:	4790      	blx	r2
   1bb80:	a801      	add	r0, sp, #4
   1bb82:	f7fe f85d 	bl	19c40 <nrf_section_iter_next>
   1bb86:	9b02      	ldr	r3, [sp, #8]
   1bb88:	2b00      	cmp	r3, #0
   1bb8a:	d1f5      	bne.n	1bb78 <nrf_sdh_ble_evts_poll+0x2c>
   1bb8c:	e7e5      	b.n	1bb5a <nrf_sdh_ble_evts_poll+0xe>
   1bb8e:	2805      	cmp	r0, #5
   1bb90:	d101      	bne.n	1bb96 <nrf_sdh_ble_evts_poll+0x4a>
   1bb92:	b011      	add	sp, #68	; 0x44
   1bb94:	bd30      	pop	{r4, r5, pc}
   1bb96:	f7fd fbc5 	bl	19324 <app_error_handler_bare>
   1bb9a:	b011      	add	sp, #68	; 0x44
   1bb9c:	bd30      	pop	{r4, r5, pc}
   1bb9e:	4770      	bx	lr
   1bba0:	200015c3 	.word	0x200015c3
   1bba4:	0001da5c 	.word	0x0001da5c

0001bba8 <nrf_sdh_ble_default_cfg_set>:
   1bba8:	2900      	cmp	r1, #0
   1bbaa:	d04f      	beq.n	1bc4c <nrf_sdh_ble_default_cfg_set+0xa4>
   1bbac:	b570      	push	{r4, r5, r6, lr}
   1bbae:	4b28      	ldr	r3, [pc, #160]	; (1bc50 <nrf_sdh_ble_default_cfg_set+0xa8>)
   1bbb0:	600b      	str	r3, [r1, #0]
   1bbb2:	b084      	sub	sp, #16
   1bbb4:	460c      	mov	r4, r1
   1bbb6:	4605      	mov	r5, r0
   1bbb8:	220c      	movs	r2, #12
   1bbba:	a801      	add	r0, sp, #4
   1bbbc:	2100      	movs	r1, #0
   1bbbe:	f000 f8c1 	bl	1bd44 <memset>
   1bbc2:	2601      	movs	r6, #1
   1bbc4:	2306      	movs	r3, #6
   1bbc6:	6822      	ldr	r2, [r4, #0]
   1bbc8:	f8ad 3008 	strh.w	r3, [sp, #8]
   1bbcc:	a901      	add	r1, sp, #4
   1bbce:	2020      	movs	r0, #32
   1bbd0:	f88d 5004 	strb.w	r5, [sp, #4]
   1bbd4:	f88d 6006 	strb.w	r6, [sp, #6]
   1bbd8:	f7ff ffb4 	bl	1bb44 <sd_ble_cfg_set>
   1bbdc:	a801      	add	r0, sp, #4
   1bbde:	220c      	movs	r2, #12
   1bbe0:	2100      	movs	r1, #0
   1bbe2:	2500      	movs	r5, #0
   1bbe4:	f000 f8ae 	bl	1bd44 <memset>
   1bbe8:	6822      	ldr	r2, [r4, #0]
   1bbea:	f88d 5005 	strb.w	r5, [sp, #5]
   1bbee:	a901      	add	r1, sp, #4
   1bbf0:	2040      	movs	r0, #64	; 0x40
   1bbf2:	f7ff ffa7 	bl	1bb44 <sd_ble_cfg_set>
   1bbf6:	4629      	mov	r1, r5
   1bbf8:	a801      	add	r0, sp, #4
   1bbfa:	220c      	movs	r2, #12
   1bbfc:	f000 f8a2 	bl	1bd44 <memset>
   1bc00:	6822      	ldr	r2, [r4, #0]
   1bc02:	f88d 5004 	strb.w	r5, [sp, #4]
   1bc06:	a901      	add	r1, sp, #4
   1bc08:	4630      	mov	r0, r6
   1bc0a:	f7ff ff9b 	bl	1bb44 <sd_ble_cfg_set>
   1bc0e:	4629      	mov	r1, r5
   1bc10:	a801      	add	r0, sp, #4
   1bc12:	220c      	movs	r2, #12
   1bc14:	f000 f896 	bl	1bd44 <memset>
   1bc18:	23f8      	movs	r3, #248	; 0xf8
   1bc1a:	6822      	ldr	r2, [r4, #0]
   1bc1c:	9301      	str	r3, [sp, #4]
   1bc1e:	a901      	add	r1, sp, #4
   1bc20:	20a1      	movs	r0, #161	; 0xa1
   1bc22:	f7ff ff8f 	bl	1bb44 <sd_ble_cfg_set>
   1bc26:	4629      	mov	r1, r5
   1bc28:	a801      	add	r0, sp, #4
   1bc2a:	220c      	movs	r2, #12
   1bc2c:	f000 f88a 	bl	1bd44 <memset>
   1bc30:	f89d 3004 	ldrb.w	r3, [sp, #4]
   1bc34:	6822      	ldr	r2, [r4, #0]
   1bc36:	f365 0300 	bfi	r3, r5, #0, #1
   1bc3a:	a901      	add	r1, sp, #4
   1bc3c:	20a0      	movs	r0, #160	; 0xa0
   1bc3e:	f88d 3004 	strb.w	r3, [sp, #4]
   1bc42:	f7ff ff7f 	bl	1bb44 <sd_ble_cfg_set>
   1bc46:	4628      	mov	r0, r5
   1bc48:	b004      	add	sp, #16
   1bc4a:	bd70      	pop	{r4, r5, r6, pc}
   1bc4c:	200e      	movs	r0, #14
   1bc4e:	4770      	bx	lr
   1bc50:	20001118 	.word	0x20001118

0001bc54 <nrf_sdh_ble_enable>:
   1bc54:	b508      	push	{r3, lr}
   1bc56:	f7ff ff73 	bl	1bb40 <sd_ble_enable>
   1bc5a:	b910      	cbnz	r0, 1bc62 <nrf_sdh_ble_enable+0xe>
   1bc5c:	4b01      	ldr	r3, [pc, #4]	; (1bc64 <nrf_sdh_ble_enable+0x10>)
   1bc5e:	2201      	movs	r2, #1
   1bc60:	701a      	strb	r2, [r3, #0]
   1bc62:	bd08      	pop	{r3, pc}
   1bc64:	200015c3 	.word	0x200015c3

0001bc68 <sd_evt_get>:
   1bc68:	df4b      	svc	75	; 0x4b
   1bc6a:	4770      	bx	lr

0001bc6c <nrf_sdh_soc_evts_poll>:
   1bc6c:	b510      	push	{r4, lr}
   1bc6e:	4c11      	ldr	r4, [pc, #68]	; (1bcb4 <nrf_sdh_soc_evts_poll+0x48>)
   1bc70:	b084      	sub	sp, #16
   1bc72:	a801      	add	r0, sp, #4
   1bc74:	f7ff fff8 	bl	1bc68 <sd_evt_get>
   1bc78:	b9a8      	cbnz	r0, 1bca6 <nrf_sdh_soc_evts_poll+0x3a>
   1bc7a:	4621      	mov	r1, r4
   1bc7c:	a802      	add	r0, sp, #8
   1bc7e:	f7fd ffd5 	bl	19c2c <nrf_section_iter_init>
   1bc82:	9b03      	ldr	r3, [sp, #12]
   1bc84:	2b00      	cmp	r3, #0
   1bc86:	d0f4      	beq.n	1bc72 <nrf_sdh_soc_evts_poll+0x6>
   1bc88:	e9d3 2100 	ldrd	r2, r1, [r3]
   1bc8c:	9801      	ldr	r0, [sp, #4]
   1bc8e:	4790      	blx	r2
   1bc90:	a802      	add	r0, sp, #8
   1bc92:	f7fd ffd5 	bl	19c40 <nrf_section_iter_next>
   1bc96:	9b03      	ldr	r3, [sp, #12]
   1bc98:	2b00      	cmp	r3, #0
   1bc9a:	d1f5      	bne.n	1bc88 <nrf_sdh_soc_evts_poll+0x1c>
   1bc9c:	a801      	add	r0, sp, #4
   1bc9e:	f7ff ffe3 	bl	1bc68 <sd_evt_get>
   1bca2:	2800      	cmp	r0, #0
   1bca4:	d0e9      	beq.n	1bc7a <nrf_sdh_soc_evts_poll+0xe>
   1bca6:	2805      	cmp	r0, #5
   1bca8:	d001      	beq.n	1bcae <nrf_sdh_soc_evts_poll+0x42>
   1bcaa:	f7fd fb3b 	bl	19324 <app_error_handler_bare>
   1bcae:	b004      	add	sp, #16
   1bcb0:	bd10      	pop	{r4, pc}
   1bcb2:	bf00      	nop
   1bcb4:	0001da68 	.word	0x0001da68

0001bcb8 <exit>:
   1bcb8:	b508      	push	{r3, lr}
   1bcba:	4b07      	ldr	r3, [pc, #28]	; (1bcd8 <exit+0x20>)
   1bcbc:	4604      	mov	r4, r0
   1bcbe:	b113      	cbz	r3, 1bcc6 <exit+0xe>
   1bcc0:	2100      	movs	r1, #0
   1bcc2:	f3af 8000 	nop.w
   1bcc6:	4b05      	ldr	r3, [pc, #20]	; (1bcdc <exit+0x24>)
   1bcc8:	6818      	ldr	r0, [r3, #0]
   1bcca:	6a83      	ldr	r3, [r0, #40]	; 0x28
   1bccc:	b103      	cbz	r3, 1bcd0 <exit+0x18>
   1bcce:	4798      	blx	r3
   1bcd0:	4620      	mov	r0, r4
   1bcd2:	f000 fce1 	bl	1c698 <_exit>
   1bcd6:	bf00      	nop
   1bcd8:	00000000 	.word	0x00000000
   1bcdc:	0001da74 	.word	0x0001da74

0001bce0 <__libc_init_array>:
   1bce0:	b570      	push	{r4, r5, r6, lr}
   1bce2:	4d0d      	ldr	r5, [pc, #52]	; (1bd18 <__libc_init_array+0x38>)
   1bce4:	4c0d      	ldr	r4, [pc, #52]	; (1bd1c <__libc_init_array+0x3c>)
   1bce6:	1b64      	subs	r4, r4, r5
   1bce8:	10a4      	asrs	r4, r4, #2
   1bcea:	2600      	movs	r6, #0
   1bcec:	42a6      	cmp	r6, r4
   1bcee:	d109      	bne.n	1bd04 <__libc_init_array+0x24>
   1bcf0:	4d0b      	ldr	r5, [pc, #44]	; (1bd20 <__libc_init_array+0x40>)
   1bcf2:	4c0c      	ldr	r4, [pc, #48]	; (1bd24 <__libc_init_array+0x44>)
   1bcf4:	f001 fca0 	bl	1d638 <_init>
   1bcf8:	1b64      	subs	r4, r4, r5
   1bcfa:	10a4      	asrs	r4, r4, #2
   1bcfc:	2600      	movs	r6, #0
   1bcfe:	42a6      	cmp	r6, r4
   1bd00:	d105      	bne.n	1bd0e <__libc_init_array+0x2e>
   1bd02:	bd70      	pop	{r4, r5, r6, pc}
   1bd04:	f855 3b04 	ldr.w	r3, [r5], #4
   1bd08:	4798      	blx	r3
   1bd0a:	3601      	adds	r6, #1
   1bd0c:	e7ee      	b.n	1bcec <__libc_init_array+0xc>
   1bd0e:	f855 3b04 	ldr.w	r3, [r5], #4
   1bd12:	4798      	blx	r3
   1bd14:	3601      	adds	r6, #1
   1bd16:	e7f2      	b.n	1bcfe <__libc_init_array+0x1e>
   1bd18:	200011a8 	.word	0x200011a8
   1bd1c:	200011a8 	.word	0x200011a8
   1bd20:	200011a8 	.word	0x200011a8
   1bd24:	200011b0 	.word	0x200011b0

0001bd28 <memcpy>:
   1bd28:	440a      	add	r2, r1
   1bd2a:	4291      	cmp	r1, r2
   1bd2c:	f100 33ff 	add.w	r3, r0, #4294967295	; 0xffffffff
   1bd30:	d100      	bne.n	1bd34 <memcpy+0xc>
   1bd32:	4770      	bx	lr
   1bd34:	b510      	push	{r4, lr}
   1bd36:	f811 4b01 	ldrb.w	r4, [r1], #1
   1bd3a:	f803 4f01 	strb.w	r4, [r3, #1]!
   1bd3e:	4291      	cmp	r1, r2
   1bd40:	d1f9      	bne.n	1bd36 <memcpy+0xe>
   1bd42:	bd10      	pop	{r4, pc}

0001bd44 <memset>:
   1bd44:	4402      	add	r2, r0
   1bd46:	4603      	mov	r3, r0
   1bd48:	4293      	cmp	r3, r2
   1bd4a:	d100      	bne.n	1bd4e <memset+0xa>
   1bd4c:	4770      	bx	lr
   1bd4e:	f803 1b01 	strb.w	r1, [r3], #1
   1bd52:	e7f9      	b.n	1bd48 <memset+0x4>

0001bd54 <sniprintf>:
   1bd54:	b40c      	push	{r2, r3}
   1bd56:	b530      	push	{r4, r5, lr}
   1bd58:	4b17      	ldr	r3, [pc, #92]	; (1bdb8 <sniprintf+0x64>)
   1bd5a:	1e0c      	subs	r4, r1, #0
   1bd5c:	681d      	ldr	r5, [r3, #0]
   1bd5e:	b09d      	sub	sp, #116	; 0x74
   1bd60:	da08      	bge.n	1bd74 <sniprintf+0x20>
   1bd62:	238b      	movs	r3, #139	; 0x8b
   1bd64:	602b      	str	r3, [r5, #0]
   1bd66:	f04f 30ff 	mov.w	r0, #4294967295	; 0xffffffff
   1bd6a:	b01d      	add	sp, #116	; 0x74
   1bd6c:	e8bd 4030 	ldmia.w	sp!, {r4, r5, lr}
   1bd70:	b002      	add	sp, #8
   1bd72:	4770      	bx	lr
   1bd74:	f44f 7302 	mov.w	r3, #520	; 0x208
   1bd78:	f8ad 3014 	strh.w	r3, [sp, #20]
   1bd7c:	bf14      	ite	ne
   1bd7e:	f104 33ff 	addne.w	r3, r4, #4294967295	; 0xffffffff
   1bd82:	4623      	moveq	r3, r4
   1bd84:	9304      	str	r3, [sp, #16]
   1bd86:	9307      	str	r3, [sp, #28]
   1bd88:	f64f 73ff 	movw	r3, #65535	; 0xffff
   1bd8c:	9002      	str	r0, [sp, #8]
   1bd8e:	9006      	str	r0, [sp, #24]
   1bd90:	f8ad 3016 	strh.w	r3, [sp, #22]
   1bd94:	9a20      	ldr	r2, [sp, #128]	; 0x80
   1bd96:	ab21      	add	r3, sp, #132	; 0x84
   1bd98:	a902      	add	r1, sp, #8
   1bd9a:	4628      	mov	r0, r5
   1bd9c:	9301      	str	r3, [sp, #4]
   1bd9e:	f000 f879 	bl	1be94 <_svfiprintf_r>
   1bda2:	1c43      	adds	r3, r0, #1
   1bda4:	bfbc      	itt	lt
   1bda6:	238b      	movlt	r3, #139	; 0x8b
   1bda8:	602b      	strlt	r3, [r5, #0]
   1bdaa:	2c00      	cmp	r4, #0
   1bdac:	d0dd      	beq.n	1bd6a <sniprintf+0x16>
   1bdae:	9b02      	ldr	r3, [sp, #8]
   1bdb0:	2200      	movs	r2, #0
   1bdb2:	701a      	strb	r2, [r3, #0]
   1bdb4:	e7d9      	b.n	1bd6a <sniprintf+0x16>
   1bdb6:	bf00      	nop
   1bdb8:	20001144 	.word	0x20001144

0001bdbc <strcpy>:
   1bdbc:	4603      	mov	r3, r0
   1bdbe:	f811 2b01 	ldrb.w	r2, [r1], #1
   1bdc2:	f803 2b01 	strb.w	r2, [r3], #1
   1bdc6:	2a00      	cmp	r2, #0
   1bdc8:	d1f9      	bne.n	1bdbe <strcpy+0x2>
   1bdca:	4770      	bx	lr

0001bdcc <strlen>:
   1bdcc:	4603      	mov	r3, r0
   1bdce:	f813 2b01 	ldrb.w	r2, [r3], #1
   1bdd2:	2a00      	cmp	r2, #0
   1bdd4:	d1fb      	bne.n	1bdce <strlen+0x2>
   1bdd6:	1a18      	subs	r0, r3, r0
   1bdd8:	3801      	subs	r0, #1
   1bdda:	4770      	bx	lr

0001bddc <__ssputs_r>:
   1bddc:	e92d 47f0 	stmdb	sp!, {r4, r5, r6, r7, r8, r9, sl, lr}
   1bde0:	688e      	ldr	r6, [r1, #8]
   1bde2:	429e      	cmp	r6, r3
   1bde4:	4682      	mov	sl, r0
   1bde6:	460c      	mov	r4, r1
   1bde8:	4690      	mov	r8, r2
   1bdea:	461f      	mov	r7, r3
   1bdec:	d838      	bhi.n	1be60 <__ssputs_r+0x84>
   1bdee:	898a      	ldrh	r2, [r1, #12]
   1bdf0:	f412 6f90 	tst.w	r2, #1152	; 0x480
   1bdf4:	d032      	beq.n	1be5c <__ssputs_r+0x80>
   1bdf6:	6825      	ldr	r5, [r4, #0]
   1bdf8:	6909      	ldr	r1, [r1, #16]
   1bdfa:	eba5 0901 	sub.w	r9, r5, r1
   1bdfe:	6965      	ldr	r5, [r4, #20]
   1be00:	eb05 0545 	add.w	r5, r5, r5, lsl #1
   1be04:	eb05 75d5 	add.w	r5, r5, r5, lsr #31
   1be08:	3301      	adds	r3, #1
   1be0a:	444b      	add	r3, r9
   1be0c:	106d      	asrs	r5, r5, #1
   1be0e:	429d      	cmp	r5, r3
   1be10:	bf38      	it	cc
   1be12:	461d      	movcc	r5, r3
   1be14:	0553      	lsls	r3, r2, #21
   1be16:	d531      	bpl.n	1be7c <__ssputs_r+0xa0>
   1be18:	4629      	mov	r1, r5
   1be1a:	f000 fb89 	bl	1c530 <_malloc_r>
   1be1e:	4606      	mov	r6, r0
   1be20:	b950      	cbnz	r0, 1be38 <__ssputs_r+0x5c>
   1be22:	230c      	movs	r3, #12
   1be24:	f8ca 3000 	str.w	r3, [sl]
   1be28:	89a3      	ldrh	r3, [r4, #12]
   1be2a:	f043 0340 	orr.w	r3, r3, #64	; 0x40
   1be2e:	81a3      	strh	r3, [r4, #12]
   1be30:	f04f 30ff 	mov.w	r0, #4294967295	; 0xffffffff
   1be34:	e8bd 87f0 	ldmia.w	sp!, {r4, r5, r6, r7, r8, r9, sl, pc}
   1be38:	6921      	ldr	r1, [r4, #16]
   1be3a:	464a      	mov	r2, r9
   1be3c:	f7ff ff74 	bl	1bd28 <memcpy>
   1be40:	89a3      	ldrh	r3, [r4, #12]
   1be42:	f423 6390 	bic.w	r3, r3, #1152	; 0x480
   1be46:	f043 0380 	orr.w	r3, r3, #128	; 0x80
   1be4a:	81a3      	strh	r3, [r4, #12]
   1be4c:	6126      	str	r6, [r4, #16]
   1be4e:	6165      	str	r5, [r4, #20]
   1be50:	444e      	add	r6, r9
   1be52:	eba5 0509 	sub.w	r5, r5, r9
   1be56:	6026      	str	r6, [r4, #0]
   1be58:	60a5      	str	r5, [r4, #8]
   1be5a:	463e      	mov	r6, r7
   1be5c:	42be      	cmp	r6, r7
   1be5e:	d900      	bls.n	1be62 <__ssputs_r+0x86>
   1be60:	463e      	mov	r6, r7
   1be62:	4632      	mov	r2, r6
   1be64:	6820      	ldr	r0, [r4, #0]
   1be66:	4641      	mov	r1, r8
   1be68:	f000 fafa 	bl	1c460 <memmove>
   1be6c:	68a3      	ldr	r3, [r4, #8]
   1be6e:	6822      	ldr	r2, [r4, #0]
   1be70:	1b9b      	subs	r3, r3, r6
   1be72:	4432      	add	r2, r6
   1be74:	60a3      	str	r3, [r4, #8]
   1be76:	6022      	str	r2, [r4, #0]
   1be78:	2000      	movs	r0, #0
   1be7a:	e7db      	b.n	1be34 <__ssputs_r+0x58>
   1be7c:	462a      	mov	r2, r5
   1be7e:	f000 fbb1 	bl	1c5e4 <_realloc_r>
   1be82:	4606      	mov	r6, r0
   1be84:	2800      	cmp	r0, #0
   1be86:	d1e1      	bne.n	1be4c <__ssputs_r+0x70>
   1be88:	6921      	ldr	r1, [r4, #16]
   1be8a:	4650      	mov	r0, sl
   1be8c:	f000 fb02 	bl	1c494 <_free_r>
   1be90:	e7c7      	b.n	1be22 <__ssputs_r+0x46>
	...

0001be94 <_svfiprintf_r>:
   1be94:	e92d 4ff0 	stmdb	sp!, {r4, r5, r6, r7, r8, r9, sl, fp, lr}
   1be98:	4698      	mov	r8, r3
   1be9a:	898b      	ldrh	r3, [r1, #12]
   1be9c:	061b      	lsls	r3, r3, #24
   1be9e:	b09d      	sub	sp, #116	; 0x74
   1bea0:	4607      	mov	r7, r0
   1bea2:	460d      	mov	r5, r1
   1bea4:	4614      	mov	r4, r2
   1bea6:	d50e      	bpl.n	1bec6 <_svfiprintf_r+0x32>
   1bea8:	690b      	ldr	r3, [r1, #16]
   1beaa:	b963      	cbnz	r3, 1bec6 <_svfiprintf_r+0x32>
   1beac:	2140      	movs	r1, #64	; 0x40
   1beae:	f000 fb3f 	bl	1c530 <_malloc_r>
   1beb2:	6028      	str	r0, [r5, #0]
   1beb4:	6128      	str	r0, [r5, #16]
   1beb6:	b920      	cbnz	r0, 1bec2 <_svfiprintf_r+0x2e>
   1beb8:	230c      	movs	r3, #12
   1beba:	603b      	str	r3, [r7, #0]
   1bebc:	f04f 30ff 	mov.w	r0, #4294967295	; 0xffffffff
   1bec0:	e0d1      	b.n	1c066 <_svfiprintf_r+0x1d2>
   1bec2:	2340      	movs	r3, #64	; 0x40
   1bec4:	616b      	str	r3, [r5, #20]
   1bec6:	2300      	movs	r3, #0
   1bec8:	9309      	str	r3, [sp, #36]	; 0x24
   1beca:	2320      	movs	r3, #32
   1becc:	f88d 3029 	strb.w	r3, [sp, #41]	; 0x29
   1bed0:	f8cd 800c 	str.w	r8, [sp, #12]
   1bed4:	2330      	movs	r3, #48	; 0x30
   1bed6:	f8df 81a8 	ldr.w	r8, [pc, #424]	; 1c080 <_svfiprintf_r+0x1ec>
   1beda:	f88d 302a 	strb.w	r3, [sp, #42]	; 0x2a
   1bede:	f04f 0901 	mov.w	r9, #1
   1bee2:	4623      	mov	r3, r4
   1bee4:	469a      	mov	sl, r3
   1bee6:	f813 2b01 	ldrb.w	r2, [r3], #1
   1beea:	b10a      	cbz	r2, 1bef0 <_svfiprintf_r+0x5c>
   1beec:	2a25      	cmp	r2, #37	; 0x25
   1beee:	d1f9      	bne.n	1bee4 <_svfiprintf_r+0x50>
   1bef0:	ebba 0b04 	subs.w	fp, sl, r4
   1bef4:	d00b      	beq.n	1bf0e <_svfiprintf_r+0x7a>
   1bef6:	465b      	mov	r3, fp
   1bef8:	4622      	mov	r2, r4
   1befa:	4629      	mov	r1, r5
   1befc:	4638      	mov	r0, r7
   1befe:	f7ff ff6d 	bl	1bddc <__ssputs_r>
   1bf02:	3001      	adds	r0, #1
   1bf04:	f000 80aa 	beq.w	1c05c <_svfiprintf_r+0x1c8>
   1bf08:	9a09      	ldr	r2, [sp, #36]	; 0x24
   1bf0a:	445a      	add	r2, fp
   1bf0c:	9209      	str	r2, [sp, #36]	; 0x24
   1bf0e:	f89a 3000 	ldrb.w	r3, [sl]
   1bf12:	2b00      	cmp	r3, #0
   1bf14:	f000 80a2 	beq.w	1c05c <_svfiprintf_r+0x1c8>
   1bf18:	2300      	movs	r3, #0
   1bf1a:	f04f 32ff 	mov.w	r2, #4294967295	; 0xffffffff
   1bf1e:	e9cd 2305 	strd	r2, r3, [sp, #20]
   1bf22:	f10a 0a01 	add.w	sl, sl, #1
   1bf26:	9304      	str	r3, [sp, #16]
   1bf28:	9307      	str	r3, [sp, #28]
   1bf2a:	f88d 3053 	strb.w	r3, [sp, #83]	; 0x53
   1bf2e:	931a      	str	r3, [sp, #104]	; 0x68
   1bf30:	4654      	mov	r4, sl
   1bf32:	2205      	movs	r2, #5
   1bf34:	f814 1b01 	ldrb.w	r1, [r4], #1
   1bf38:	4851      	ldr	r0, [pc, #324]	; (1c080 <_svfiprintf_r+0x1ec>)
   1bf3a:	f000 fa41 	bl	1c3c0 <memchr>
   1bf3e:	9a04      	ldr	r2, [sp, #16]
   1bf40:	b9d8      	cbnz	r0, 1bf7a <_svfiprintf_r+0xe6>
   1bf42:	06d0      	lsls	r0, r2, #27
   1bf44:	bf44      	itt	mi
   1bf46:	2320      	movmi	r3, #32
   1bf48:	f88d 3053 	strbmi.w	r3, [sp, #83]	; 0x53
   1bf4c:	0711      	lsls	r1, r2, #28
   1bf4e:	bf44      	itt	mi
   1bf50:	232b      	movmi	r3, #43	; 0x2b
   1bf52:	f88d 3053 	strbmi.w	r3, [sp, #83]	; 0x53
   1bf56:	f89a 3000 	ldrb.w	r3, [sl]
   1bf5a:	2b2a      	cmp	r3, #42	; 0x2a
   1bf5c:	d015      	beq.n	1bf8a <_svfiprintf_r+0xf6>
   1bf5e:	9a07      	ldr	r2, [sp, #28]
   1bf60:	4654      	mov	r4, sl
   1bf62:	2000      	movs	r0, #0
   1bf64:	f04f 0c0a 	mov.w	ip, #10
   1bf68:	4621      	mov	r1, r4
   1bf6a:	f811 3b01 	ldrb.w	r3, [r1], #1
   1bf6e:	3b30      	subs	r3, #48	; 0x30
   1bf70:	2b09      	cmp	r3, #9
   1bf72:	d94e      	bls.n	1c012 <_svfiprintf_r+0x17e>
   1bf74:	b1b0      	cbz	r0, 1bfa4 <_svfiprintf_r+0x110>
   1bf76:	9207      	str	r2, [sp, #28]
   1bf78:	e014      	b.n	1bfa4 <_svfiprintf_r+0x110>
   1bf7a:	eba0 0308 	sub.w	r3, r0, r8
   1bf7e:	fa09 f303 	lsl.w	r3, r9, r3
   1bf82:	4313      	orrs	r3, r2
   1bf84:	9304      	str	r3, [sp, #16]
   1bf86:	46a2      	mov	sl, r4
   1bf88:	e7d2      	b.n	1bf30 <_svfiprintf_r+0x9c>
   1bf8a:	9b03      	ldr	r3, [sp, #12]
   1bf8c:	1d19      	adds	r1, r3, #4
   1bf8e:	681b      	ldr	r3, [r3, #0]
   1bf90:	9103      	str	r1, [sp, #12]
   1bf92:	2b00      	cmp	r3, #0
   1bf94:	bfbb      	ittet	lt
   1bf96:	425b      	neglt	r3, r3
   1bf98:	f042 0202 	orrlt.w	r2, r2, #2
   1bf9c:	9307      	strge	r3, [sp, #28]
   1bf9e:	9307      	strlt	r3, [sp, #28]
   1bfa0:	bfb8      	it	lt
   1bfa2:	9204      	strlt	r2, [sp, #16]
   1bfa4:	7823      	ldrb	r3, [r4, #0]
   1bfa6:	2b2e      	cmp	r3, #46	; 0x2e
   1bfa8:	d10c      	bne.n	1bfc4 <_svfiprintf_r+0x130>
   1bfaa:	7863      	ldrb	r3, [r4, #1]
   1bfac:	2b2a      	cmp	r3, #42	; 0x2a
   1bfae:	d135      	bne.n	1c01c <_svfiprintf_r+0x188>
   1bfb0:	9b03      	ldr	r3, [sp, #12]
   1bfb2:	1d1a      	adds	r2, r3, #4
   1bfb4:	681b      	ldr	r3, [r3, #0]
   1bfb6:	9203      	str	r2, [sp, #12]
   1bfb8:	2b00      	cmp	r3, #0
   1bfba:	bfb8      	it	lt
   1bfbc:	f04f 33ff 	movlt.w	r3, #4294967295	; 0xffffffff
   1bfc0:	3402      	adds	r4, #2
   1bfc2:	9305      	str	r3, [sp, #20]
   1bfc4:	f8df a0c8 	ldr.w	sl, [pc, #200]	; 1c090 <_svfiprintf_r+0x1fc>
   1bfc8:	7821      	ldrb	r1, [r4, #0]
   1bfca:	2203      	movs	r2, #3
   1bfcc:	4650      	mov	r0, sl
   1bfce:	f000 f9f7 	bl	1c3c0 <memchr>
   1bfd2:	b140      	cbz	r0, 1bfe6 <_svfiprintf_r+0x152>
   1bfd4:	2340      	movs	r3, #64	; 0x40
   1bfd6:	eba0 000a 	sub.w	r0, r0, sl
   1bfda:	fa03 f000 	lsl.w	r0, r3, r0
   1bfde:	9b04      	ldr	r3, [sp, #16]
   1bfe0:	4303      	orrs	r3, r0
   1bfe2:	3401      	adds	r4, #1
   1bfe4:	9304      	str	r3, [sp, #16]
   1bfe6:	f814 1b01 	ldrb.w	r1, [r4], #1
   1bfea:	4826      	ldr	r0, [pc, #152]	; (1c084 <_svfiprintf_r+0x1f0>)
   1bfec:	f88d 1028 	strb.w	r1, [sp, #40]	; 0x28
   1bff0:	2206      	movs	r2, #6
   1bff2:	f000 f9e5 	bl	1c3c0 <memchr>
   1bff6:	2800      	cmp	r0, #0
   1bff8:	d038      	beq.n	1c06c <_svfiprintf_r+0x1d8>
   1bffa:	4b23      	ldr	r3, [pc, #140]	; (1c088 <_svfiprintf_r+0x1f4>)
   1bffc:	bb1b      	cbnz	r3, 1c046 <_svfiprintf_r+0x1b2>
   1bffe:	9b03      	ldr	r3, [sp, #12]
   1c000:	3307      	adds	r3, #7
   1c002:	f023 0307 	bic.w	r3, r3, #7
   1c006:	3308      	adds	r3, #8
   1c008:	9303      	str	r3, [sp, #12]
   1c00a:	9b09      	ldr	r3, [sp, #36]	; 0x24
   1c00c:	4433      	add	r3, r6
   1c00e:	9309      	str	r3, [sp, #36]	; 0x24
   1c010:	e767      	b.n	1bee2 <_svfiprintf_r+0x4e>
   1c012:	fb0c 3202 	mla	r2, ip, r2, r3
   1c016:	460c      	mov	r4, r1
   1c018:	2001      	movs	r0, #1
   1c01a:	e7a5      	b.n	1bf68 <_svfiprintf_r+0xd4>
   1c01c:	2300      	movs	r3, #0
   1c01e:	3401      	adds	r4, #1
   1c020:	9305      	str	r3, [sp, #20]
   1c022:	4619      	mov	r1, r3
   1c024:	f04f 0c0a 	mov.w	ip, #10
   1c028:	4620      	mov	r0, r4
   1c02a:	f810 2b01 	ldrb.w	r2, [r0], #1
   1c02e:	3a30      	subs	r2, #48	; 0x30
   1c030:	2a09      	cmp	r2, #9
   1c032:	d903      	bls.n	1c03c <_svfiprintf_r+0x1a8>
   1c034:	2b00      	cmp	r3, #0
   1c036:	d0c5      	beq.n	1bfc4 <_svfiprintf_r+0x130>
   1c038:	9105      	str	r1, [sp, #20]
   1c03a:	e7c3      	b.n	1bfc4 <_svfiprintf_r+0x130>
   1c03c:	fb0c 2101 	mla	r1, ip, r1, r2
   1c040:	4604      	mov	r4, r0
   1c042:	2301      	movs	r3, #1
   1c044:	e7f0      	b.n	1c028 <_svfiprintf_r+0x194>
   1c046:	ab03      	add	r3, sp, #12
   1c048:	9300      	str	r3, [sp, #0]
   1c04a:	462a      	mov	r2, r5
   1c04c:	4b0f      	ldr	r3, [pc, #60]	; (1c08c <_svfiprintf_r+0x1f8>)
   1c04e:	a904      	add	r1, sp, #16
   1c050:	4638      	mov	r0, r7
   1c052:	f3af 8000 	nop.w
   1c056:	1c42      	adds	r2, r0, #1
   1c058:	4606      	mov	r6, r0
   1c05a:	d1d6      	bne.n	1c00a <_svfiprintf_r+0x176>
   1c05c:	89ab      	ldrh	r3, [r5, #12]
   1c05e:	065b      	lsls	r3, r3, #25
   1c060:	f53f af2c 	bmi.w	1bebc <_svfiprintf_r+0x28>
   1c064:	9809      	ldr	r0, [sp, #36]	; 0x24
   1c066:	b01d      	add	sp, #116	; 0x74
   1c068:	e8bd 8ff0 	ldmia.w	sp!, {r4, r5, r6, r7, r8, r9, sl, fp, pc}
   1c06c:	ab03      	add	r3, sp, #12
   1c06e:	9300      	str	r3, [sp, #0]
   1c070:	462a      	mov	r2, r5
   1c072:	4b06      	ldr	r3, [pc, #24]	; (1c08c <_svfiprintf_r+0x1f8>)
   1c074:	a904      	add	r1, sp, #16
   1c076:	4638      	mov	r0, r7
   1c078:	f000 f87a 	bl	1c170 <_printf_i>
   1c07c:	e7eb      	b.n	1c056 <_svfiprintf_r+0x1c2>
   1c07e:	bf00      	nop
   1c080:	0001da78 	.word	0x0001da78
   1c084:	0001da82 	.word	0x0001da82
   1c088:	00000000 	.word	0x00000000
   1c08c:	0001bddd 	.word	0x0001bddd
   1c090:	0001da7e 	.word	0x0001da7e

0001c094 <_printf_common>:
   1c094:	e92d 47f0 	stmdb	sp!, {r4, r5, r6, r7, r8, r9, sl, lr}
   1c098:	4616      	mov	r6, r2
   1c09a:	4699      	mov	r9, r3
   1c09c:	688a      	ldr	r2, [r1, #8]
   1c09e:	690b      	ldr	r3, [r1, #16]
   1c0a0:	f8dd 8020 	ldr.w	r8, [sp, #32]
   1c0a4:	4293      	cmp	r3, r2
   1c0a6:	bfb8      	it	lt
   1c0a8:	4613      	movlt	r3, r2
   1c0aa:	6033      	str	r3, [r6, #0]
   1c0ac:	f891 2043 	ldrb.w	r2, [r1, #67]	; 0x43
   1c0b0:	4607      	mov	r7, r0
   1c0b2:	460c      	mov	r4, r1
   1c0b4:	b10a      	cbz	r2, 1c0ba <_printf_common+0x26>
   1c0b6:	3301      	adds	r3, #1
   1c0b8:	6033      	str	r3, [r6, #0]
   1c0ba:	6823      	ldr	r3, [r4, #0]
   1c0bc:	0699      	lsls	r1, r3, #26
   1c0be:	bf42      	ittt	mi
   1c0c0:	6833      	ldrmi	r3, [r6, #0]
   1c0c2:	3302      	addmi	r3, #2
   1c0c4:	6033      	strmi	r3, [r6, #0]
   1c0c6:	6825      	ldr	r5, [r4, #0]
   1c0c8:	f015 0506 	ands.w	r5, r5, #6
   1c0cc:	d106      	bne.n	1c0dc <_printf_common+0x48>
   1c0ce:	f104 0a19 	add.w	sl, r4, #25
   1c0d2:	68e3      	ldr	r3, [r4, #12]
   1c0d4:	6832      	ldr	r2, [r6, #0]
   1c0d6:	1a9b      	subs	r3, r3, r2
   1c0d8:	42ab      	cmp	r3, r5
   1c0da:	dc26      	bgt.n	1c12a <_printf_common+0x96>
   1c0dc:	f894 2043 	ldrb.w	r2, [r4, #67]	; 0x43
   1c0e0:	1e13      	subs	r3, r2, #0
   1c0e2:	6822      	ldr	r2, [r4, #0]
   1c0e4:	bf18      	it	ne
   1c0e6:	2301      	movne	r3, #1
   1c0e8:	0692      	lsls	r2, r2, #26
   1c0ea:	d42b      	bmi.n	1c144 <_printf_common+0xb0>
   1c0ec:	f104 0243 	add.w	r2, r4, #67	; 0x43
   1c0f0:	4649      	mov	r1, r9
   1c0f2:	4638      	mov	r0, r7
   1c0f4:	47c0      	blx	r8
   1c0f6:	3001      	adds	r0, #1
   1c0f8:	d01e      	beq.n	1c138 <_printf_common+0xa4>
   1c0fa:	6823      	ldr	r3, [r4, #0]
   1c0fc:	68e5      	ldr	r5, [r4, #12]
   1c0fe:	6832      	ldr	r2, [r6, #0]
   1c100:	f003 0306 	and.w	r3, r3, #6
   1c104:	2b04      	cmp	r3, #4
   1c106:	bf08      	it	eq
   1c108:	1aad      	subeq	r5, r5, r2
   1c10a:	68a3      	ldr	r3, [r4, #8]
   1c10c:	6922      	ldr	r2, [r4, #16]
   1c10e:	bf0c      	ite	eq
   1c110:	ea25 75e5 	biceq.w	r5, r5, r5, asr #31
   1c114:	2500      	movne	r5, #0
   1c116:	4293      	cmp	r3, r2
   1c118:	bfc4      	itt	gt
   1c11a:	1a9b      	subgt	r3, r3, r2
   1c11c:	18ed      	addgt	r5, r5, r3
   1c11e:	2600      	movs	r6, #0
   1c120:	341a      	adds	r4, #26
   1c122:	42b5      	cmp	r5, r6
   1c124:	d11a      	bne.n	1c15c <_printf_common+0xc8>
   1c126:	2000      	movs	r0, #0
   1c128:	e008      	b.n	1c13c <_printf_common+0xa8>
   1c12a:	2301      	movs	r3, #1
   1c12c:	4652      	mov	r2, sl
   1c12e:	4649      	mov	r1, r9
   1c130:	4638      	mov	r0, r7
   1c132:	47c0      	blx	r8
   1c134:	3001      	adds	r0, #1
   1c136:	d103      	bne.n	1c140 <_printf_common+0xac>
   1c138:	f04f 30ff 	mov.w	r0, #4294967295	; 0xffffffff
   1c13c:	e8bd 87f0 	ldmia.w	sp!, {r4, r5, r6, r7, r8, r9, sl, pc}
   1c140:	3501      	adds	r5, #1
   1c142:	e7c6      	b.n	1c0d2 <_printf_common+0x3e>
   1c144:	18e1      	adds	r1, r4, r3
   1c146:	1c5a      	adds	r2, r3, #1
   1c148:	2030      	movs	r0, #48	; 0x30
   1c14a:	f881 0043 	strb.w	r0, [r1, #67]	; 0x43
   1c14e:	4422      	add	r2, r4
   1c150:	f894 1045 	ldrb.w	r1, [r4, #69]	; 0x45
   1c154:	f882 1043 	strb.w	r1, [r2, #67]	; 0x43
   1c158:	3302      	adds	r3, #2
   1c15a:	e7c7      	b.n	1c0ec <_printf_common+0x58>
   1c15c:	2301      	movs	r3, #1
   1c15e:	4622      	mov	r2, r4
   1c160:	4649      	mov	r1, r9
   1c162:	4638      	mov	r0, r7
   1c164:	47c0      	blx	r8
   1c166:	3001      	adds	r0, #1
   1c168:	d0e6      	beq.n	1c138 <_printf_common+0xa4>
   1c16a:	3601      	adds	r6, #1
   1c16c:	e7d9      	b.n	1c122 <_printf_common+0x8e>
	...

0001c170 <_printf_i>:
   1c170:	e92d 47ff 	stmdb	sp!, {r0, r1, r2, r3, r4, r5, r6, r7, r8, r9, sl, lr}
   1c174:	460c      	mov	r4, r1
   1c176:	4691      	mov	r9, r2
   1c178:	7e27      	ldrb	r7, [r4, #24]
   1c17a:	990c      	ldr	r1, [sp, #48]	; 0x30
   1c17c:	2f78      	cmp	r7, #120	; 0x78
   1c17e:	4680      	mov	r8, r0
   1c180:	469a      	mov	sl, r3
   1c182:	f104 0243 	add.w	r2, r4, #67	; 0x43
   1c186:	d807      	bhi.n	1c198 <_printf_i+0x28>
   1c188:	2f62      	cmp	r7, #98	; 0x62
   1c18a:	d80a      	bhi.n	1c1a2 <_printf_i+0x32>
   1c18c:	2f00      	cmp	r7, #0
   1c18e:	f000 80d8 	beq.w	1c342 <_printf_i+0x1d2>
   1c192:	2f58      	cmp	r7, #88	; 0x58
   1c194:	f000 80a3 	beq.w	1c2de <_printf_i+0x16e>
   1c198:	f104 0642 	add.w	r6, r4, #66	; 0x42
   1c19c:	f884 7042 	strb.w	r7, [r4, #66]	; 0x42
   1c1a0:	e03a      	b.n	1c218 <_printf_i+0xa8>
   1c1a2:	f1a7 0363 	sub.w	r3, r7, #99	; 0x63
   1c1a6:	2b15      	cmp	r3, #21
   1c1a8:	d8f6      	bhi.n	1c198 <_printf_i+0x28>
   1c1aa:	a001      	add	r0, pc, #4	; (adr r0, 1c1b0 <_printf_i+0x40>)
   1c1ac:	f850 f023 	ldr.w	pc, [r0, r3, lsl #2]
   1c1b0:	0001c209 	.word	0x0001c209
   1c1b4:	0001c21d 	.word	0x0001c21d
   1c1b8:	0001c199 	.word	0x0001c199
   1c1bc:	0001c199 	.word	0x0001c199
   1c1c0:	0001c199 	.word	0x0001c199
   1c1c4:	0001c199 	.word	0x0001c199
   1c1c8:	0001c21d 	.word	0x0001c21d
   1c1cc:	0001c199 	.word	0x0001c199
   1c1d0:	0001c199 	.word	0x0001c199
   1c1d4:	0001c199 	.word	0x0001c199
   1c1d8:	0001c199 	.word	0x0001c199
   1c1dc:	0001c329 	.word	0x0001c329
   1c1e0:	0001c24d 	.word	0x0001c24d
   1c1e4:	0001c30b 	.word	0x0001c30b
   1c1e8:	0001c199 	.word	0x0001c199
   1c1ec:	0001c199 	.word	0x0001c199
   1c1f0:	0001c34b 	.word	0x0001c34b
   1c1f4:	0001c199 	.word	0x0001c199
   1c1f8:	0001c24d 	.word	0x0001c24d
   1c1fc:	0001c199 	.word	0x0001c199
   1c200:	0001c199 	.word	0x0001c199
   1c204:	0001c313 	.word	0x0001c313
   1c208:	680b      	ldr	r3, [r1, #0]
   1c20a:	1d1a      	adds	r2, r3, #4
   1c20c:	681b      	ldr	r3, [r3, #0]
   1c20e:	600a      	str	r2, [r1, #0]
   1c210:	f104 0642 	add.w	r6, r4, #66	; 0x42
   1c214:	f884 3042 	strb.w	r3, [r4, #66]	; 0x42
   1c218:	2301      	movs	r3, #1
   1c21a:	e0a3      	b.n	1c364 <_printf_i+0x1f4>
   1c21c:	6825      	ldr	r5, [r4, #0]
   1c21e:	6808      	ldr	r0, [r1, #0]
   1c220:	062e      	lsls	r6, r5, #24
   1c222:	f100 0304 	add.w	r3, r0, #4
   1c226:	d50a      	bpl.n	1c23e <_printf_i+0xce>
   1c228:	6805      	ldr	r5, [r0, #0]
   1c22a:	600b      	str	r3, [r1, #0]
   1c22c:	2d00      	cmp	r5, #0
   1c22e:	da03      	bge.n	1c238 <_printf_i+0xc8>
   1c230:	232d      	movs	r3, #45	; 0x2d
   1c232:	426d      	negs	r5, r5
   1c234:	f884 3043 	strb.w	r3, [r4, #67]	; 0x43
   1c238:	485e      	ldr	r0, [pc, #376]	; (1c3b4 <_printf_i+0x244>)
   1c23a:	230a      	movs	r3, #10
   1c23c:	e019      	b.n	1c272 <_printf_i+0x102>
   1c23e:	f015 0f40 	tst.w	r5, #64	; 0x40
   1c242:	6805      	ldr	r5, [r0, #0]
   1c244:	600b      	str	r3, [r1, #0]
   1c246:	bf18      	it	ne
   1c248:	b22d      	sxthne	r5, r5
   1c24a:	e7ef      	b.n	1c22c <_printf_i+0xbc>
   1c24c:	680b      	ldr	r3, [r1, #0]
   1c24e:	6825      	ldr	r5, [r4, #0]
   1c250:	1d18      	adds	r0, r3, #4
   1c252:	6008      	str	r0, [r1, #0]
   1c254:	0628      	lsls	r0, r5, #24
   1c256:	d501      	bpl.n	1c25c <_printf_i+0xec>
   1c258:	681d      	ldr	r5, [r3, #0]
   1c25a:	e002      	b.n	1c262 <_printf_i+0xf2>
   1c25c:	0669      	lsls	r1, r5, #25
   1c25e:	d5fb      	bpl.n	1c258 <_printf_i+0xe8>
   1c260:	881d      	ldrh	r5, [r3, #0]
   1c262:	4854      	ldr	r0, [pc, #336]	; (1c3b4 <_printf_i+0x244>)
   1c264:	2f6f      	cmp	r7, #111	; 0x6f
   1c266:	bf0c      	ite	eq
   1c268:	2308      	moveq	r3, #8
   1c26a:	230a      	movne	r3, #10
   1c26c:	2100      	movs	r1, #0
   1c26e:	f884 1043 	strb.w	r1, [r4, #67]	; 0x43
   1c272:	6866      	ldr	r6, [r4, #4]
   1c274:	60a6      	str	r6, [r4, #8]
   1c276:	2e00      	cmp	r6, #0
   1c278:	bfa2      	ittt	ge
   1c27a:	6821      	ldrge	r1, [r4, #0]
   1c27c:	f021 0104 	bicge.w	r1, r1, #4
   1c280:	6021      	strge	r1, [r4, #0]
   1c282:	b90d      	cbnz	r5, 1c288 <_printf_i+0x118>
   1c284:	2e00      	cmp	r6, #0
   1c286:	d04d      	beq.n	1c324 <_printf_i+0x1b4>
   1c288:	4616      	mov	r6, r2
   1c28a:	fbb5 f1f3 	udiv	r1, r5, r3
   1c28e:	fb03 5711 	mls	r7, r3, r1, r5
   1c292:	5dc7      	ldrb	r7, [r0, r7]
   1c294:	f806 7d01 	strb.w	r7, [r6, #-1]!
   1c298:	462f      	mov	r7, r5
   1c29a:	42bb      	cmp	r3, r7
   1c29c:	460d      	mov	r5, r1
   1c29e:	d9f4      	bls.n	1c28a <_printf_i+0x11a>
   1c2a0:	2b08      	cmp	r3, #8
   1c2a2:	d10b      	bne.n	1c2bc <_printf_i+0x14c>
   1c2a4:	6823      	ldr	r3, [r4, #0]
   1c2a6:	07df      	lsls	r7, r3, #31
   1c2a8:	d508      	bpl.n	1c2bc <_printf_i+0x14c>
   1c2aa:	6923      	ldr	r3, [r4, #16]
   1c2ac:	6861      	ldr	r1, [r4, #4]
   1c2ae:	4299      	cmp	r1, r3
   1c2b0:	bfde      	ittt	le
   1c2b2:	2330      	movle	r3, #48	; 0x30
   1c2b4:	f806 3c01 	strble.w	r3, [r6, #-1]
   1c2b8:	f106 36ff 	addle.w	r6, r6, #4294967295	; 0xffffffff
   1c2bc:	1b92      	subs	r2, r2, r6
   1c2be:	6122      	str	r2, [r4, #16]
   1c2c0:	f8cd a000 	str.w	sl, [sp]
   1c2c4:	464b      	mov	r3, r9
   1c2c6:	aa03      	add	r2, sp, #12
   1c2c8:	4621      	mov	r1, r4
   1c2ca:	4640      	mov	r0, r8
   1c2cc:	f7ff fee2 	bl	1c094 <_printf_common>
   1c2d0:	3001      	adds	r0, #1
   1c2d2:	d14c      	bne.n	1c36e <_printf_i+0x1fe>
   1c2d4:	f04f 30ff 	mov.w	r0, #4294967295	; 0xffffffff
   1c2d8:	b004      	add	sp, #16
   1c2da:	e8bd 87f0 	ldmia.w	sp!, {r4, r5, r6, r7, r8, r9, sl, pc}
   1c2de:	4835      	ldr	r0, [pc, #212]	; (1c3b4 <_printf_i+0x244>)
   1c2e0:	f884 7045 	strb.w	r7, [r4, #69]	; 0x45
   1c2e4:	6823      	ldr	r3, [r4, #0]
   1c2e6:	680e      	ldr	r6, [r1, #0]
   1c2e8:	061f      	lsls	r7, r3, #24
   1c2ea:	f856 5b04 	ldr.w	r5, [r6], #4
   1c2ee:	600e      	str	r6, [r1, #0]
   1c2f0:	d514      	bpl.n	1c31c <_printf_i+0x1ac>
   1c2f2:	07d9      	lsls	r1, r3, #31
   1c2f4:	bf44      	itt	mi
   1c2f6:	f043 0320 	orrmi.w	r3, r3, #32
   1c2fa:	6023      	strmi	r3, [r4, #0]
   1c2fc:	b91d      	cbnz	r5, 1c306 <_printf_i+0x196>
   1c2fe:	6823      	ldr	r3, [r4, #0]
   1c300:	f023 0320 	bic.w	r3, r3, #32
   1c304:	6023      	str	r3, [r4, #0]
   1c306:	2310      	movs	r3, #16
   1c308:	e7b0      	b.n	1c26c <_printf_i+0xfc>
   1c30a:	6823      	ldr	r3, [r4, #0]
   1c30c:	f043 0320 	orr.w	r3, r3, #32
   1c310:	6023      	str	r3, [r4, #0]
   1c312:	2378      	movs	r3, #120	; 0x78
   1c314:	4828      	ldr	r0, [pc, #160]	; (1c3b8 <_printf_i+0x248>)
   1c316:	f884 3045 	strb.w	r3, [r4, #69]	; 0x45
   1c31a:	e7e3      	b.n	1c2e4 <_printf_i+0x174>
   1c31c:	065e      	lsls	r6, r3, #25
   1c31e:	bf48      	it	mi
   1c320:	b2ad      	uxthmi	r5, r5
   1c322:	e7e6      	b.n	1c2f2 <_printf_i+0x182>
   1c324:	4616      	mov	r6, r2
   1c326:	e7bb      	b.n	1c2a0 <_printf_i+0x130>
   1c328:	680b      	ldr	r3, [r1, #0]
   1c32a:	6826      	ldr	r6, [r4, #0]
   1c32c:	6960      	ldr	r0, [r4, #20]
   1c32e:	1d1d      	adds	r5, r3, #4
   1c330:	600d      	str	r5, [r1, #0]
   1c332:	0635      	lsls	r5, r6, #24
   1c334:	681b      	ldr	r3, [r3, #0]
   1c336:	d501      	bpl.n	1c33c <_printf_i+0x1cc>
   1c338:	6018      	str	r0, [r3, #0]
   1c33a:	e002      	b.n	1c342 <_printf_i+0x1d2>
   1c33c:	0671      	lsls	r1, r6, #25
   1c33e:	d5fb      	bpl.n	1c338 <_printf_i+0x1c8>
   1c340:	8018      	strh	r0, [r3, #0]
   1c342:	2300      	movs	r3, #0
   1c344:	6123      	str	r3, [r4, #16]
   1c346:	4616      	mov	r6, r2
   1c348:	e7ba      	b.n	1c2c0 <_printf_i+0x150>
   1c34a:	680b      	ldr	r3, [r1, #0]
   1c34c:	1d1a      	adds	r2, r3, #4
   1c34e:	600a      	str	r2, [r1, #0]
   1c350:	681e      	ldr	r6, [r3, #0]
   1c352:	6862      	ldr	r2, [r4, #4]
   1c354:	2100      	movs	r1, #0
   1c356:	4630      	mov	r0, r6
   1c358:	f000 f832 	bl	1c3c0 <memchr>
   1c35c:	b108      	cbz	r0, 1c362 <_printf_i+0x1f2>
   1c35e:	1b80      	subs	r0, r0, r6
   1c360:	6060      	str	r0, [r4, #4]
   1c362:	6863      	ldr	r3, [r4, #4]
   1c364:	6123      	str	r3, [r4, #16]
   1c366:	2300      	movs	r3, #0
   1c368:	f884 3043 	strb.w	r3, [r4, #67]	; 0x43
   1c36c:	e7a8      	b.n	1c2c0 <_printf_i+0x150>
   1c36e:	6923      	ldr	r3, [r4, #16]
   1c370:	4632      	mov	r2, r6
   1c372:	4649      	mov	r1, r9
   1c374:	4640      	mov	r0, r8
   1c376:	47d0      	blx	sl
   1c378:	3001      	adds	r0, #1
   1c37a:	d0ab      	beq.n	1c2d4 <_printf_i+0x164>
   1c37c:	6823      	ldr	r3, [r4, #0]
   1c37e:	079b      	lsls	r3, r3, #30
   1c380:	d413      	bmi.n	1c3aa <_printf_i+0x23a>
   1c382:	68e0      	ldr	r0, [r4, #12]
   1c384:	9b03      	ldr	r3, [sp, #12]
   1c386:	4298      	cmp	r0, r3
   1c388:	bfb8      	it	lt
   1c38a:	4618      	movlt	r0, r3
   1c38c:	e7a4      	b.n	1c2d8 <_printf_i+0x168>
   1c38e:	2301      	movs	r3, #1
   1c390:	4632      	mov	r2, r6
   1c392:	4649      	mov	r1, r9
   1c394:	4640      	mov	r0, r8
   1c396:	47d0      	blx	sl
   1c398:	3001      	adds	r0, #1
   1c39a:	d09b      	beq.n	1c2d4 <_printf_i+0x164>
   1c39c:	3501      	adds	r5, #1
   1c39e:	68e3      	ldr	r3, [r4, #12]
   1c3a0:	9903      	ldr	r1, [sp, #12]
   1c3a2:	1a5b      	subs	r3, r3, r1
   1c3a4:	42ab      	cmp	r3, r5
   1c3a6:	dcf2      	bgt.n	1c38e <_printf_i+0x21e>
   1c3a8:	e7eb      	b.n	1c382 <_printf_i+0x212>
   1c3aa:	2500      	movs	r5, #0
   1c3ac:	f104 0619 	add.w	r6, r4, #25
   1c3b0:	e7f5      	b.n	1c39e <_printf_i+0x22e>
   1c3b2:	bf00      	nop
   1c3b4:	0001da89 	.word	0x0001da89
   1c3b8:	0001da9a 	.word	0x0001da9a
   1c3bc:	00000000 	.word	0x00000000

0001c3c0 <memchr>:
   1c3c0:	f001 01ff 	and.w	r1, r1, #255	; 0xff
   1c3c4:	2a10      	cmp	r2, #16
   1c3c6:	db2b      	blt.n	1c420 <memchr+0x60>
   1c3c8:	f010 0f07 	tst.w	r0, #7
   1c3cc:	d008      	beq.n	1c3e0 <memchr+0x20>
   1c3ce:	f810 3b01 	ldrb.w	r3, [r0], #1
   1c3d2:	3a01      	subs	r2, #1
   1c3d4:	428b      	cmp	r3, r1
   1c3d6:	d02d      	beq.n	1c434 <memchr+0x74>
   1c3d8:	f010 0f07 	tst.w	r0, #7
   1c3dc:	b342      	cbz	r2, 1c430 <memchr+0x70>
   1c3de:	d1f6      	bne.n	1c3ce <memchr+0xe>
   1c3e0:	b4f0      	push	{r4, r5, r6, r7}
   1c3e2:	ea41 2101 	orr.w	r1, r1, r1, lsl #8
   1c3e6:	ea41 4101 	orr.w	r1, r1, r1, lsl #16
   1c3ea:	f022 0407 	bic.w	r4, r2, #7
   1c3ee:	f07f 0700 	mvns.w	r7, #0
   1c3f2:	2300      	movs	r3, #0
   1c3f4:	e8f0 5602 	ldrd	r5, r6, [r0], #8
   1c3f8:	3c08      	subs	r4, #8
   1c3fa:	ea85 0501 	eor.w	r5, r5, r1
   1c3fe:	ea86 0601 	eor.w	r6, r6, r1
   1c402:	fa85 f547 	uadd8	r5, r5, r7
   1c406:	faa3 f587 	sel	r5, r3, r7
   1c40a:	fa86 f647 	uadd8	r6, r6, r7
   1c40e:	faa5 f687 	sel	r6, r5, r7
   1c412:	b98e      	cbnz	r6, 1c438 <memchr+0x78>
   1c414:	d1ee      	bne.n	1c3f4 <memchr+0x34>
   1c416:	bcf0      	pop	{r4, r5, r6, r7}
   1c418:	f001 01ff 	and.w	r1, r1, #255	; 0xff
   1c41c:	f002 0207 	and.w	r2, r2, #7
   1c420:	b132      	cbz	r2, 1c430 <memchr+0x70>
   1c422:	f810 3b01 	ldrb.w	r3, [r0], #1
   1c426:	3a01      	subs	r2, #1
   1c428:	ea83 0301 	eor.w	r3, r3, r1
   1c42c:	b113      	cbz	r3, 1c434 <memchr+0x74>
   1c42e:	d1f8      	bne.n	1c422 <memchr+0x62>
   1c430:	2000      	movs	r0, #0
   1c432:	4770      	bx	lr
   1c434:	3801      	subs	r0, #1
   1c436:	4770      	bx	lr
   1c438:	2d00      	cmp	r5, #0
   1c43a:	bf06      	itte	eq
   1c43c:	4635      	moveq	r5, r6
   1c43e:	3803      	subeq	r0, #3
   1c440:	3807      	subne	r0, #7
   1c442:	f015 0f01 	tst.w	r5, #1
   1c446:	d107      	bne.n	1c458 <memchr+0x98>
   1c448:	3001      	adds	r0, #1
   1c44a:	f415 7f80 	tst.w	r5, #256	; 0x100
   1c44e:	bf02      	ittt	eq
   1c450:	3001      	addeq	r0, #1
   1c452:	f415 3fc0 	tsteq.w	r5, #98304	; 0x18000
   1c456:	3001      	addeq	r0, #1
   1c458:	bcf0      	pop	{r4, r5, r6, r7}
   1c45a:	3801      	subs	r0, #1
   1c45c:	4770      	bx	lr
   1c45e:	bf00      	nop

0001c460 <memmove>:
   1c460:	4288      	cmp	r0, r1
   1c462:	b510      	push	{r4, lr}
   1c464:	eb01 0402 	add.w	r4, r1, r2
   1c468:	d902      	bls.n	1c470 <memmove+0x10>
   1c46a:	4284      	cmp	r4, r0
   1c46c:	4623      	mov	r3, r4
   1c46e:	d807      	bhi.n	1c480 <memmove+0x20>
   1c470:	1e43      	subs	r3, r0, #1
   1c472:	42a1      	cmp	r1, r4
   1c474:	d008      	beq.n	1c488 <memmove+0x28>
   1c476:	f811 2b01 	ldrb.w	r2, [r1], #1
   1c47a:	f803 2f01 	strb.w	r2, [r3, #1]!
   1c47e:	e7f8      	b.n	1c472 <memmove+0x12>
   1c480:	4402      	add	r2, r0
   1c482:	4601      	mov	r1, r0
   1c484:	428a      	cmp	r2, r1
   1c486:	d100      	bne.n	1c48a <memmove+0x2a>
   1c488:	bd10      	pop	{r4, pc}
   1c48a:	f813 4d01 	ldrb.w	r4, [r3, #-1]!
   1c48e:	f802 4d01 	strb.w	r4, [r2, #-1]!
   1c492:	e7f7      	b.n	1c484 <memmove+0x24>

0001c494 <_free_r>:
   1c494:	b538      	push	{r3, r4, r5, lr}
   1c496:	4605      	mov	r5, r0
   1c498:	2900      	cmp	r1, #0
   1c49a:	d045      	beq.n	1c528 <_free_r+0x94>
   1c49c:	f851 3c04 	ldr.w	r3, [r1, #-4]
   1c4a0:	1f0c      	subs	r4, r1, #4
   1c4a2:	2b00      	cmp	r3, #0
   1c4a4:	bfb8      	it	lt
   1c4a6:	18e4      	addlt	r4, r4, r3
   1c4a8:	f000 f8d2 	bl	1c650 <__malloc_lock>
   1c4ac:	4a1f      	ldr	r2, [pc, #124]	; (1c52c <_free_r+0x98>)
   1c4ae:	6813      	ldr	r3, [r2, #0]
   1c4b0:	4610      	mov	r0, r2
   1c4b2:	b933      	cbnz	r3, 1c4c2 <_free_r+0x2e>
   1c4b4:	6063      	str	r3, [r4, #4]
   1c4b6:	6014      	str	r4, [r2, #0]
   1c4b8:	4628      	mov	r0, r5
   1c4ba:	e8bd 4038 	ldmia.w	sp!, {r3, r4, r5, lr}
   1c4be:	f000 b8cd 	b.w	1c65c <__malloc_unlock>
   1c4c2:	42a3      	cmp	r3, r4
   1c4c4:	d90b      	bls.n	1c4de <_free_r+0x4a>
   1c4c6:	6821      	ldr	r1, [r4, #0]
   1c4c8:	1862      	adds	r2, r4, r1
   1c4ca:	4293      	cmp	r3, r2
   1c4cc:	bf04      	itt	eq
   1c4ce:	681a      	ldreq	r2, [r3, #0]
   1c4d0:	685b      	ldreq	r3, [r3, #4]
   1c4d2:	6063      	str	r3, [r4, #4]
   1c4d4:	bf04      	itt	eq
   1c4d6:	1852      	addeq	r2, r2, r1
   1c4d8:	6022      	streq	r2, [r4, #0]
   1c4da:	6004      	str	r4, [r0, #0]
   1c4dc:	e7ec      	b.n	1c4b8 <_free_r+0x24>
   1c4de:	461a      	mov	r2, r3
   1c4e0:	685b      	ldr	r3, [r3, #4]
   1c4e2:	b10b      	cbz	r3, 1c4e8 <_free_r+0x54>
   1c4e4:	42a3      	cmp	r3, r4
   1c4e6:	d9fa      	bls.n	1c4de <_free_r+0x4a>
   1c4e8:	6811      	ldr	r1, [r2, #0]
   1c4ea:	1850      	adds	r0, r2, r1
   1c4ec:	42a0      	cmp	r0, r4
   1c4ee:	d10b      	bne.n	1c508 <_free_r+0x74>
   1c4f0:	6820      	ldr	r0, [r4, #0]
   1c4f2:	4401      	add	r1, r0
   1c4f4:	1850      	adds	r0, r2, r1
   1c4f6:	4283      	cmp	r3, r0
   1c4f8:	6011      	str	r1, [r2, #0]
   1c4fa:	d1dd      	bne.n	1c4b8 <_free_r+0x24>
   1c4fc:	6818      	ldr	r0, [r3, #0]
   1c4fe:	685b      	ldr	r3, [r3, #4]
   1c500:	6053      	str	r3, [r2, #4]
   1c502:	4401      	add	r1, r0
   1c504:	6011      	str	r1, [r2, #0]
   1c506:	e7d7      	b.n	1c4b8 <_free_r+0x24>
   1c508:	d902      	bls.n	1c510 <_free_r+0x7c>
   1c50a:	230c      	movs	r3, #12
   1c50c:	602b      	str	r3, [r5, #0]
   1c50e:	e7d3      	b.n	1c4b8 <_free_r+0x24>
   1c510:	6820      	ldr	r0, [r4, #0]
   1c512:	1821      	adds	r1, r4, r0
   1c514:	428b      	cmp	r3, r1
   1c516:	bf04      	itt	eq
   1c518:	6819      	ldreq	r1, [r3, #0]
   1c51a:	685b      	ldreq	r3, [r3, #4]
   1c51c:	6063      	str	r3, [r4, #4]
   1c51e:	bf04      	itt	eq
   1c520:	1809      	addeq	r1, r1, r0
   1c522:	6021      	streq	r1, [r4, #0]
   1c524:	6054      	str	r4, [r2, #4]
   1c526:	e7c7      	b.n	1c4b8 <_free_r+0x24>
   1c528:	bd38      	pop	{r3, r4, r5, pc}
   1c52a:	bf00      	nop
   1c52c:	200015c4 	.word	0x200015c4

0001c530 <_malloc_r>:
   1c530:	b5f8      	push	{r3, r4, r5, r6, r7, lr}
   1c532:	1ccd      	adds	r5, r1, #3
   1c534:	f025 0503 	bic.w	r5, r5, #3
   1c538:	3508      	adds	r5, #8
   1c53a:	2d0c      	cmp	r5, #12
   1c53c:	bf38      	it	cc
   1c53e:	250c      	movcc	r5, #12
   1c540:	2d00      	cmp	r5, #0
   1c542:	4606      	mov	r6, r0
   1c544:	db01      	blt.n	1c54a <_malloc_r+0x1a>
   1c546:	42a9      	cmp	r1, r5
   1c548:	d903      	bls.n	1c552 <_malloc_r+0x22>
   1c54a:	230c      	movs	r3, #12
   1c54c:	6033      	str	r3, [r6, #0]
   1c54e:	2000      	movs	r0, #0
   1c550:	bdf8      	pop	{r3, r4, r5, r6, r7, pc}
   1c552:	f000 f87d 	bl	1c650 <__malloc_lock>
   1c556:	4921      	ldr	r1, [pc, #132]	; (1c5dc <_malloc_r+0xac>)
   1c558:	680a      	ldr	r2, [r1, #0]
   1c55a:	4614      	mov	r4, r2
   1c55c:	b99c      	cbnz	r4, 1c586 <_malloc_r+0x56>
   1c55e:	4f20      	ldr	r7, [pc, #128]	; (1c5e0 <_malloc_r+0xb0>)
   1c560:	683b      	ldr	r3, [r7, #0]
   1c562:	b923      	cbnz	r3, 1c56e <_malloc_r+0x3e>
   1c564:	4621      	mov	r1, r4
   1c566:	4630      	mov	r0, r6
   1c568:	f000 f862 	bl	1c630 <_sbrk_r>
   1c56c:	6038      	str	r0, [r7, #0]
   1c56e:	4629      	mov	r1, r5
   1c570:	4630      	mov	r0, r6
   1c572:	f000 f85d 	bl	1c630 <_sbrk_r>
   1c576:	1c43      	adds	r3, r0, #1
   1c578:	d123      	bne.n	1c5c2 <_malloc_r+0x92>
   1c57a:	230c      	movs	r3, #12
   1c57c:	6033      	str	r3, [r6, #0]
   1c57e:	4630      	mov	r0, r6
   1c580:	f000 f86c 	bl	1c65c <__malloc_unlock>
   1c584:	e7e3      	b.n	1c54e <_malloc_r+0x1e>
   1c586:	6823      	ldr	r3, [r4, #0]
   1c588:	1b5b      	subs	r3, r3, r5
   1c58a:	d417      	bmi.n	1c5bc <_malloc_r+0x8c>
   1c58c:	2b0b      	cmp	r3, #11
   1c58e:	d903      	bls.n	1c598 <_malloc_r+0x68>
   1c590:	6023      	str	r3, [r4, #0]
   1c592:	441c      	add	r4, r3
   1c594:	6025      	str	r5, [r4, #0]
   1c596:	e004      	b.n	1c5a2 <_malloc_r+0x72>
   1c598:	6863      	ldr	r3, [r4, #4]
   1c59a:	42a2      	cmp	r2, r4
   1c59c:	bf0c      	ite	eq
   1c59e:	600b      	streq	r3, [r1, #0]
   1c5a0:	6053      	strne	r3, [r2, #4]
   1c5a2:	4630      	mov	r0, r6
   1c5a4:	f000 f85a 	bl	1c65c <__malloc_unlock>
   1c5a8:	f104 000b 	add.w	r0, r4, #11
   1c5ac:	1d23      	adds	r3, r4, #4
   1c5ae:	f020 0007 	bic.w	r0, r0, #7
   1c5b2:	1ac2      	subs	r2, r0, r3
   1c5b4:	d0cc      	beq.n	1c550 <_malloc_r+0x20>
   1c5b6:	1a1b      	subs	r3, r3, r0
   1c5b8:	50a3      	str	r3, [r4, r2]
   1c5ba:	e7c9      	b.n	1c550 <_malloc_r+0x20>
   1c5bc:	4622      	mov	r2, r4
   1c5be:	6864      	ldr	r4, [r4, #4]
   1c5c0:	e7cc      	b.n	1c55c <_malloc_r+0x2c>
   1c5c2:	1cc4      	adds	r4, r0, #3
   1c5c4:	f024 0403 	bic.w	r4, r4, #3
   1c5c8:	42a0      	cmp	r0, r4
   1c5ca:	d0e3      	beq.n	1c594 <_malloc_r+0x64>
   1c5cc:	1a21      	subs	r1, r4, r0
   1c5ce:	4630      	mov	r0, r6
   1c5d0:	f000 f82e 	bl	1c630 <_sbrk_r>
   1c5d4:	3001      	adds	r0, #1
   1c5d6:	d1dd      	bne.n	1c594 <_malloc_r+0x64>
   1c5d8:	e7cf      	b.n	1c57a <_malloc_r+0x4a>
   1c5da:	bf00      	nop
   1c5dc:	200015c4 	.word	0x200015c4
   1c5e0:	200015c8 	.word	0x200015c8

0001c5e4 <_realloc_r>:
   1c5e4:	b5f8      	push	{r3, r4, r5, r6, r7, lr}
   1c5e6:	4607      	mov	r7, r0
   1c5e8:	4614      	mov	r4, r2
   1c5ea:	460e      	mov	r6, r1
   1c5ec:	b921      	cbnz	r1, 1c5f8 <_realloc_r+0x14>
   1c5ee:	e8bd 40f8 	ldmia.w	sp!, {r3, r4, r5, r6, r7, lr}
   1c5f2:	4611      	mov	r1, r2
   1c5f4:	f7ff bf9c 	b.w	1c530 <_malloc_r>
   1c5f8:	b922      	cbnz	r2, 1c604 <_realloc_r+0x20>
   1c5fa:	f7ff ff4b 	bl	1c494 <_free_r>
   1c5fe:	4625      	mov	r5, r4
   1c600:	4628      	mov	r0, r5
   1c602:	bdf8      	pop	{r3, r4, r5, r6, r7, pc}
   1c604:	f000 f830 	bl	1c668 <_malloc_usable_size_r>
   1c608:	42a0      	cmp	r0, r4
   1c60a:	d20f      	bcs.n	1c62c <_realloc_r+0x48>
   1c60c:	4621      	mov	r1, r4
   1c60e:	4638      	mov	r0, r7
   1c610:	f7ff ff8e 	bl	1c530 <_malloc_r>
   1c614:	4605      	mov	r5, r0
   1c616:	2800      	cmp	r0, #0
   1c618:	d0f2      	beq.n	1c600 <_realloc_r+0x1c>
   1c61a:	4631      	mov	r1, r6
   1c61c:	4622      	mov	r2, r4
   1c61e:	f7ff fb83 	bl	1bd28 <memcpy>
   1c622:	4631      	mov	r1, r6
   1c624:	4638      	mov	r0, r7
   1c626:	f7ff ff35 	bl	1c494 <_free_r>
   1c62a:	e7e9      	b.n	1c600 <_realloc_r+0x1c>
   1c62c:	4635      	mov	r5, r6
   1c62e:	e7e7      	b.n	1c600 <_realloc_r+0x1c>

0001c630 <_sbrk_r>:
   1c630:	b538      	push	{r3, r4, r5, lr}
   1c632:	4d06      	ldr	r5, [pc, #24]	; (1c64c <_sbrk_r+0x1c>)
   1c634:	2300      	movs	r3, #0
   1c636:	4604      	mov	r4, r0
   1c638:	4608      	mov	r0, r1
   1c63a:	602b      	str	r3, [r5, #0]
   1c63c:	f000 f81e 	bl	1c67c <_sbrk>
   1c640:	1c43      	adds	r3, r0, #1
   1c642:	d102      	bne.n	1c64a <_sbrk_r+0x1a>
   1c644:	682b      	ldr	r3, [r5, #0]
   1c646:	b103      	cbz	r3, 1c64a <_sbrk_r+0x1a>
   1c648:	6023      	str	r3, [r4, #0]
   1c64a:	bd38      	pop	{r3, r4, r5, pc}
   1c64c:	20001654 	.word	0x20001654

0001c650 <__malloc_lock>:
   1c650:	4801      	ldr	r0, [pc, #4]	; (1c658 <__malloc_lock+0x8>)
   1c652:	f000 b811 	b.w	1c678 <__retarget_lock_acquire_recursive>
   1c656:	bf00      	nop
   1c658:	2000165c 	.word	0x2000165c

0001c65c <__malloc_unlock>:
   1c65c:	4801      	ldr	r0, [pc, #4]	; (1c664 <__malloc_unlock+0x8>)
   1c65e:	f000 b80c 	b.w	1c67a <__retarget_lock_release_recursive>
   1c662:	bf00      	nop
   1c664:	2000165c 	.word	0x2000165c

0001c668 <_malloc_usable_size_r>:
   1c668:	f851 3c04 	ldr.w	r3, [r1, #-4]
   1c66c:	1f18      	subs	r0, r3, #4
   1c66e:	2b00      	cmp	r3, #0
   1c670:	bfbc      	itt	lt
   1c672:	580b      	ldrlt	r3, [r1, r0]
   1c674:	18c0      	addlt	r0, r0, r3
   1c676:	4770      	bx	lr

0001c678 <__retarget_lock_acquire_recursive>:
   1c678:	4770      	bx	lr

0001c67a <__retarget_lock_release_recursive>:
   1c67a:	4770      	bx	lr

0001c67c <_sbrk>:
   1c67c:	4a04      	ldr	r2, [pc, #16]	; (1c690 <_sbrk+0x14>)
   1c67e:	4905      	ldr	r1, [pc, #20]	; (1c694 <_sbrk+0x18>)
   1c680:	6813      	ldr	r3, [r2, #0]
   1c682:	2b00      	cmp	r3, #0
   1c684:	bf08      	it	eq
   1c686:	460b      	moveq	r3, r1
   1c688:	4418      	add	r0, r3
   1c68a:	6010      	str	r0, [r2, #0]
   1c68c:	4618      	mov	r0, r3
   1c68e:	4770      	bx	lr
   1c690:	200015cc 	.word	0x200015cc
   1c694:	20001668 	.word	0x20001668

0001c698 <_exit>:
   1c698:	e7fe      	b.n	1c698 <_exit>
   1c69a:	bf00      	nop

0001c69c <__aeabi_d2uiz>:
   1c69c:	004a      	lsls	r2, r1, #1
   1c69e:	d211      	bcs.n	1c6c4 <__aeabi_d2uiz+0x28>
   1c6a0:	f512 1200 	adds.w	r2, r2, #2097152	; 0x200000
   1c6a4:	d211      	bcs.n	1c6ca <__aeabi_d2uiz+0x2e>
   1c6a6:	d50d      	bpl.n	1c6c4 <__aeabi_d2uiz+0x28>
   1c6a8:	f46f 7378 	mvn.w	r3, #992	; 0x3e0
   1c6ac:	ebb3 5262 	subs.w	r2, r3, r2, asr #21
   1c6b0:	d40e      	bmi.n	1c6d0 <__aeabi_d2uiz+0x34>
   1c6b2:	ea4f 23c1 	mov.w	r3, r1, lsl #11
   1c6b6:	f043 4300 	orr.w	r3, r3, #2147483648	; 0x80000000
   1c6ba:	ea43 5350 	orr.w	r3, r3, r0, lsr #21
   1c6be:	fa23 f002 	lsr.w	r0, r3, r2
   1c6c2:	4770      	bx	lr
   1c6c4:	f04f 0000 	mov.w	r0, #0
   1c6c8:	4770      	bx	lr
   1c6ca:	ea50 3001 	orrs.w	r0, r0, r1, lsl #12
   1c6ce:	d102      	bne.n	1c6d6 <__aeabi_d2uiz+0x3a>
   1c6d0:	f04f 30ff 	mov.w	r0, #4294967295	; 0xffffffff
   1c6d4:	4770      	bx	lr
   1c6d6:	f04f 0000 	mov.w	r0, #0
   1c6da:	4770      	bx	lr

0001c6dc <selfrel_offset31>:
   1c6dc:	6803      	ldr	r3, [r0, #0]
   1c6de:	005a      	lsls	r2, r3, #1
   1c6e0:	bf4c      	ite	mi
   1c6e2:	f043 4300 	orrmi.w	r3, r3, #2147483648	; 0x80000000
   1c6e6:	f023 4300 	bicpl.w	r3, r3, #2147483648	; 0x80000000
   1c6ea:	4418      	add	r0, r3
   1c6ec:	4770      	bx	lr
   1c6ee:	bf00      	nop

0001c6f0 <search_EIT_table>:
   1c6f0:	e92d 43f8 	stmdb	sp!, {r3, r4, r5, r6, r7, r8, r9, lr}
   1c6f4:	b329      	cbz	r1, 1c742 <search_EIT_table+0x52>
   1c6f6:	1e4f      	subs	r7, r1, #1
   1c6f8:	4604      	mov	r4, r0
   1c6fa:	4615      	mov	r5, r2
   1c6fc:	463e      	mov	r6, r7
   1c6fe:	f04f 0800 	mov.w	r8, #0
   1c702:	eb08 0106 	add.w	r1, r8, r6
   1c706:	eb01 71d1 	add.w	r1, r1, r1, lsr #31
   1c70a:	1049      	asrs	r1, r1, #1
   1c70c:	eb04 09c1 	add.w	r9, r4, r1, lsl #3
   1c710:	4648      	mov	r0, r9
   1c712:	f7ff ffe3 	bl	1c6dc <selfrel_offset31>
   1c716:	4603      	mov	r3, r0
   1c718:	00c8      	lsls	r0, r1, #3
   1c71a:	3008      	adds	r0, #8
   1c71c:	428f      	cmp	r7, r1
   1c71e:	4420      	add	r0, r4
   1c720:	d009      	beq.n	1c736 <search_EIT_table+0x46>
   1c722:	42ab      	cmp	r3, r5
   1c724:	d809      	bhi.n	1c73a <search_EIT_table+0x4a>
   1c726:	f7ff ffd9 	bl	1c6dc <selfrel_offset31>
   1c72a:	3801      	subs	r0, #1
   1c72c:	42a8      	cmp	r0, r5
   1c72e:	d20a      	bcs.n	1c746 <search_EIT_table+0x56>
   1c730:	f101 0801 	add.w	r8, r1, #1
   1c734:	e7e5      	b.n	1c702 <search_EIT_table+0x12>
   1c736:	42ab      	cmp	r3, r5
   1c738:	d905      	bls.n	1c746 <search_EIT_table+0x56>
   1c73a:	4588      	cmp	r8, r1
   1c73c:	d001      	beq.n	1c742 <search_EIT_table+0x52>
   1c73e:	1e4e      	subs	r6, r1, #1
   1c740:	e7df      	b.n	1c702 <search_EIT_table+0x12>
   1c742:	f04f 0900 	mov.w	r9, #0
   1c746:	4648      	mov	r0, r9
   1c748:	e8bd 83f8 	ldmia.w	sp!, {r3, r4, r5, r6, r7, r8, r9, pc}

0001c74c <__gnu_unwind_get_pr_addr>:
   1c74c:	2801      	cmp	r0, #1
   1c74e:	d007      	beq.n	1c760 <__gnu_unwind_get_pr_addr+0x14>
   1c750:	2802      	cmp	r0, #2
   1c752:	d007      	beq.n	1c764 <__gnu_unwind_get_pr_addr+0x18>
   1c754:	4b04      	ldr	r3, [pc, #16]	; (1c768 <__gnu_unwind_get_pr_addr+0x1c>)
   1c756:	2800      	cmp	r0, #0
   1c758:	bf0c      	ite	eq
   1c75a:	4618      	moveq	r0, r3
   1c75c:	2000      	movne	r0, #0
   1c75e:	4770      	bx	lr
   1c760:	4802      	ldr	r0, [pc, #8]	; (1c76c <__gnu_unwind_get_pr_addr+0x20>)
   1c762:	4770      	bx	lr
   1c764:	4802      	ldr	r0, [pc, #8]	; (1c770 <__gnu_unwind_get_pr_addr+0x24>)
   1c766:	4770      	bx	lr
   1c768:	0001ce11 	.word	0x0001ce11
   1c76c:	0001ce15 	.word	0x0001ce15
   1c770:	0001ce19 	.word	0x0001ce19

0001c774 <get_eit_entry>:
   1c774:	b530      	push	{r4, r5, lr}
   1c776:	4b23      	ldr	r3, [pc, #140]	; (1c804 <get_eit_entry+0x90>)
   1c778:	b083      	sub	sp, #12
   1c77a:	4604      	mov	r4, r0
   1c77c:	1e8d      	subs	r5, r1, #2
   1c77e:	b33b      	cbz	r3, 1c7d0 <get_eit_entry+0x5c>
   1c780:	a901      	add	r1, sp, #4
   1c782:	4628      	mov	r0, r5
   1c784:	f3af 8000 	nop.w
   1c788:	b1e8      	cbz	r0, 1c7c6 <get_eit_entry+0x52>
   1c78a:	9901      	ldr	r1, [sp, #4]
   1c78c:	462a      	mov	r2, r5
   1c78e:	f7ff ffaf 	bl	1c6f0 <search_EIT_table>
   1c792:	4601      	mov	r1, r0
   1c794:	b1b8      	cbz	r0, 1c7c6 <get_eit_entry+0x52>
   1c796:	f7ff ffa1 	bl	1c6dc <selfrel_offset31>
   1c79a:	684b      	ldr	r3, [r1, #4]
   1c79c:	64a0      	str	r0, [r4, #72]	; 0x48
   1c79e:	2b01      	cmp	r3, #1
   1c7a0:	d02b      	beq.n	1c7fa <get_eit_entry+0x86>
   1c7a2:	2b00      	cmp	r3, #0
   1c7a4:	f101 0004 	add.w	r0, r1, #4
   1c7a8:	db23      	blt.n	1c7f2 <get_eit_entry+0x7e>
   1c7aa:	f7ff ff97 	bl	1c6dc <selfrel_offset31>
   1c7ae:	2300      	movs	r3, #0
   1c7b0:	e9c4 0313 	strd	r0, r3, [r4, #76]	; 0x4c
   1c7b4:	6803      	ldr	r3, [r0, #0]
   1c7b6:	2b00      	cmp	r3, #0
   1c7b8:	db10      	blt.n	1c7dc <get_eit_entry+0x68>
   1c7ba:	f7ff ff8f 	bl	1c6dc <selfrel_offset31>
   1c7be:	6120      	str	r0, [r4, #16]
   1c7c0:	2000      	movs	r0, #0
   1c7c2:	b003      	add	sp, #12
   1c7c4:	bd30      	pop	{r4, r5, pc}
   1c7c6:	2300      	movs	r3, #0
   1c7c8:	2009      	movs	r0, #9
   1c7ca:	6123      	str	r3, [r4, #16]
   1c7cc:	b003      	add	sp, #12
   1c7ce:	bd30      	pop	{r4, r5, pc}
   1c7d0:	490d      	ldr	r1, [pc, #52]	; (1c808 <get_eit_entry+0x94>)
   1c7d2:	480e      	ldr	r0, [pc, #56]	; (1c80c <get_eit_entry+0x98>)
   1c7d4:	1a09      	subs	r1, r1, r0
   1c7d6:	10c9      	asrs	r1, r1, #3
   1c7d8:	9101      	str	r1, [sp, #4]
   1c7da:	e7d7      	b.n	1c78c <get_eit_entry+0x18>
   1c7dc:	f3c3 6003 	ubfx	r0, r3, #24, #4
   1c7e0:	f7ff ffb4 	bl	1c74c <__gnu_unwind_get_pr_addr>
   1c7e4:	2800      	cmp	r0, #0
   1c7e6:	6120      	str	r0, [r4, #16]
   1c7e8:	bf14      	ite	ne
   1c7ea:	2000      	movne	r0, #0
   1c7ec:	2009      	moveq	r0, #9
   1c7ee:	b003      	add	sp, #12
   1c7f0:	bd30      	pop	{r4, r5, pc}
   1c7f2:	2301      	movs	r3, #1
   1c7f4:	e9c4 0313 	strd	r0, r3, [r4, #76]	; 0x4c
   1c7f8:	e7dc      	b.n	1c7b4 <get_eit_entry+0x40>
   1c7fa:	2300      	movs	r3, #0
   1c7fc:	6123      	str	r3, [r4, #16]
   1c7fe:	2005      	movs	r0, #5
   1c800:	e7df      	b.n	1c7c2 <get_eit_entry+0x4e>
   1c802:	bf00      	nop
   1c804:	00000000 	.word	0x00000000
   1c808:	0001dc70 	.word	0x0001dc70
   1c80c:	0001db08 	.word	0x0001db08

0001c810 <restore_non_core_regs>:
   1c810:	6803      	ldr	r3, [r0, #0]
   1c812:	07da      	lsls	r2, r3, #31
   1c814:	b510      	push	{r4, lr}
   1c816:	4604      	mov	r4, r0
   1c818:	d406      	bmi.n	1c828 <restore_non_core_regs+0x18>
   1c81a:	079b      	lsls	r3, r3, #30
   1c81c:	f100 0048 	add.w	r0, r0, #72	; 0x48
   1c820:	d509      	bpl.n	1c836 <restore_non_core_regs+0x26>
   1c822:	f000 fc4b 	bl	1d0bc <__gnu_Unwind_Restore_VFP_D>
   1c826:	6823      	ldr	r3, [r4, #0]
   1c828:	0759      	lsls	r1, r3, #29
   1c82a:	d509      	bpl.n	1c840 <restore_non_core_regs+0x30>
   1c82c:	071a      	lsls	r2, r3, #28
   1c82e:	d50e      	bpl.n	1c84e <restore_non_core_regs+0x3e>
   1c830:	06db      	lsls	r3, r3, #27
   1c832:	d513      	bpl.n	1c85c <restore_non_core_regs+0x4c>
   1c834:	bd10      	pop	{r4, pc}
   1c836:	f000 fc39 	bl	1d0ac <__gnu_Unwind_Restore_VFP>
   1c83a:	6823      	ldr	r3, [r4, #0]
   1c83c:	0759      	lsls	r1, r3, #29
   1c83e:	d4f5      	bmi.n	1c82c <restore_non_core_regs+0x1c>
   1c840:	f104 00d0 	add.w	r0, r4, #208	; 0xd0
   1c844:	f000 fc42 	bl	1d0cc <__gnu_Unwind_Restore_VFP_D_16_to_31>
   1c848:	6823      	ldr	r3, [r4, #0]
   1c84a:	071a      	lsls	r2, r3, #28
   1c84c:	d4f0      	bmi.n	1c830 <restore_non_core_regs+0x20>
   1c84e:	f504 70a8 	add.w	r0, r4, #336	; 0x150
   1c852:	f000 fc43 	bl	1d0dc <__gnu_Unwind_Restore_WMMXD>
   1c856:	6823      	ldr	r3, [r4, #0]
   1c858:	06db      	lsls	r3, r3, #27
   1c85a:	d4eb      	bmi.n	1c834 <restore_non_core_regs+0x24>
   1c85c:	f504 70e8 	add.w	r0, r4, #464	; 0x1d0
   1c860:	e8bd 4010 	ldmia.w	sp!, {r4, lr}
   1c864:	f000 bc7e 	b.w	1d164 <__gnu_Unwind_Restore_WMMXC>

0001c868 <_Unwind_decode_typeinfo_ptr.isra.0>:
   1c868:	4603      	mov	r3, r0
   1c86a:	6800      	ldr	r0, [r0, #0]
   1c86c:	b100      	cbz	r0, 1c870 <_Unwind_decode_typeinfo_ptr.isra.0+0x8>
   1c86e:	4418      	add	r0, r3
   1c870:	4770      	bx	lr
   1c872:	bf00      	nop

0001c874 <__gnu_unwind_24bit.isra.0>:
   1c874:	2009      	movs	r0, #9
   1c876:	4770      	bx	lr

0001c878 <_Unwind_DebugHook>:
   1c878:	4770      	bx	lr
   1c87a:	bf00      	nop

0001c87c <unwind_phase2>:
   1c87c:	b570      	push	{r4, r5, r6, lr}
   1c87e:	4604      	mov	r4, r0
   1c880:	460e      	mov	r6, r1
   1c882:	6c31      	ldr	r1, [r6, #64]	; 0x40
   1c884:	4620      	mov	r0, r4
   1c886:	f7ff ff75 	bl	1c774 <get_eit_entry>
   1c88a:	4605      	mov	r5, r0
   1c88c:	b988      	cbnz	r0, 1c8b2 <unwind_phase2+0x36>
   1c88e:	6c33      	ldr	r3, [r6, #64]	; 0x40
   1c890:	6163      	str	r3, [r4, #20]
   1c892:	4632      	mov	r2, r6
   1c894:	6923      	ldr	r3, [r4, #16]
   1c896:	4621      	mov	r1, r4
   1c898:	2001      	movs	r0, #1
   1c89a:	4798      	blx	r3
   1c89c:	2808      	cmp	r0, #8
   1c89e:	d0f0      	beq.n	1c882 <unwind_phase2+0x6>
   1c8a0:	2807      	cmp	r0, #7
   1c8a2:	d106      	bne.n	1c8b2 <unwind_phase2+0x36>
   1c8a4:	4628      	mov	r0, r5
   1c8a6:	6c31      	ldr	r1, [r6, #64]	; 0x40
   1c8a8:	f7ff ffe6 	bl	1c878 <_Unwind_DebugHook>
   1c8ac:	1d30      	adds	r0, r6, #4
   1c8ae:	f000 fbf1 	bl	1d094 <__restore_core_regs>
   1c8b2:	f000 fe65 	bl	1d580 <abort>
   1c8b6:	bf00      	nop

0001c8b8 <unwind_phase2_forced>:
   1c8b8:	e92d 47f0 	stmdb	sp!, {r4, r5, r6, r7, r8, r9, sl, lr}
   1c8bc:	1d0d      	adds	r5, r1, #4
   1c8be:	4606      	mov	r6, r0
   1c8c0:	4614      	mov	r4, r2
   1c8c2:	cd0f      	ldmia	r5!, {r0, r1, r2, r3}
   1c8c4:	f5ad 7d72 	sub.w	sp, sp, #968	; 0x3c8
   1c8c8:	f10d 0c0c 	add.w	ip, sp, #12
   1c8cc:	e8ac 000f 	stmia.w	ip!, {r0, r1, r2, r3}
   1c8d0:	cd0f      	ldmia	r5!, {r0, r1, r2, r3}
   1c8d2:	e8ac 000f 	stmia.w	ip!, {r0, r1, r2, r3}
   1c8d6:	cd0f      	ldmia	r5!, {r0, r1, r2, r3}
   1c8d8:	e8ac 000f 	stmia.w	ip!, {r0, r1, r2, r3}
   1c8dc:	e895 000f 	ldmia.w	r5, {r0, r1, r2, r3}
   1c8e0:	ad02      	add	r5, sp, #8
   1c8e2:	68f7      	ldr	r7, [r6, #12]
   1c8e4:	f8d6 8018 	ldr.w	r8, [r6, #24]
   1c8e8:	e88c 000f 	stmia.w	ip, {r0, r1, r2, r3}
   1c8ec:	2300      	movs	r3, #0
   1c8ee:	602b      	str	r3, [r5, #0]
   1c8f0:	e021      	b.n	1c936 <unwind_phase2_forced+0x7e>
   1c8f2:	6c2b      	ldr	r3, [r5, #64]	; 0x40
   1c8f4:	6173      	str	r3, [r6, #20]
   1c8f6:	f44f 72f0 	mov.w	r2, #480	; 0x1e0
   1c8fa:	4629      	mov	r1, r5
   1c8fc:	a87a      	add	r0, sp, #488	; 0x1e8
   1c8fe:	f7ff fa13 	bl	1bd28 <memcpy>
   1c902:	6933      	ldr	r3, [r6, #16]
   1c904:	aa7a      	add	r2, sp, #488	; 0x1e8
   1c906:	4631      	mov	r1, r6
   1c908:	4650      	mov	r0, sl
   1c90a:	4798      	blx	r3
   1c90c:	9b88      	ldr	r3, [sp, #544]	; 0x220
   1c90e:	e9cd 5800 	strd	r5, r8, [sp]
   1c912:	4621      	mov	r1, r4
   1c914:	646b      	str	r3, [r5, #68]	; 0x44
   1c916:	4681      	mov	r9, r0
   1c918:	4633      	mov	r3, r6
   1c91a:	4632      	mov	r2, r6
   1c91c:	2001      	movs	r0, #1
   1c91e:	47b8      	blx	r7
   1c920:	4604      	mov	r4, r0
   1c922:	b9e8      	cbnz	r0, 1c960 <unwind_phase2_forced+0xa8>
   1c924:	f44f 72f0 	mov.w	r2, #480	; 0x1e0
   1c928:	a97a      	add	r1, sp, #488	; 0x1e8
   1c92a:	4628      	mov	r0, r5
   1c92c:	f7ff f9fc 	bl	1bd28 <memcpy>
   1c930:	f1b9 0f08 	cmp.w	r9, #8
   1c934:	d11b      	bne.n	1c96e <unwind_phase2_forced+0xb6>
   1c936:	6c29      	ldr	r1, [r5, #64]	; 0x40
   1c938:	4630      	mov	r0, r6
   1c93a:	f7ff ff1b 	bl	1c774 <get_eit_entry>
   1c93e:	3409      	adds	r4, #9
   1c940:	fa5f fa84 	uxtb.w	sl, r4
   1c944:	4681      	mov	r9, r0
   1c946:	2800      	cmp	r0, #0
   1c948:	d0d3      	beq.n	1c8f2 <unwind_phase2_forced+0x3a>
   1c94a:	6bab      	ldr	r3, [r5, #56]	; 0x38
   1c94c:	f04a 0110 	orr.w	r1, sl, #16
   1c950:	e9cd 5800 	strd	r5, r8, [sp]
   1c954:	4632      	mov	r2, r6
   1c956:	646b      	str	r3, [r5, #68]	; 0x44
   1c958:	2001      	movs	r0, #1
   1c95a:	4633      	mov	r3, r6
   1c95c:	47b8      	blx	r7
   1c95e:	b108      	cbz	r0, 1c964 <unwind_phase2_forced+0xac>
   1c960:	f04f 0909 	mov.w	r9, #9
   1c964:	4648      	mov	r0, r9
   1c966:	f50d 7d72 	add.w	sp, sp, #968	; 0x3c8
   1c96a:	e8bd 87f0 	ldmia.w	sp!, {r4, r5, r6, r7, r8, r9, sl, pc}
   1c96e:	f1b9 0f07 	cmp.w	r9, #7
   1c972:	d1f5      	bne.n	1c960 <unwind_phase2_forced+0xa8>
   1c974:	4620      	mov	r0, r4
   1c976:	6c29      	ldr	r1, [r5, #64]	; 0x40
   1c978:	f7ff ff7e 	bl	1c878 <_Unwind_DebugHook>
   1c97c:	a803      	add	r0, sp, #12
   1c97e:	f000 fb89 	bl	1d094 <__restore_core_regs>
   1c982:	bf00      	nop

0001c984 <_Unwind_GetCFA>:
   1c984:	6c40      	ldr	r0, [r0, #68]	; 0x44
   1c986:	4770      	bx	lr

0001c988 <__gnu_Unwind_RaiseException>:
   1c988:	b5f0      	push	{r4, r5, r6, r7, lr}
   1c98a:	6bcb      	ldr	r3, [r1, #60]	; 0x3c
   1c98c:	640b      	str	r3, [r1, #64]	; 0x40
   1c98e:	1d0e      	adds	r6, r1, #4
   1c990:	460f      	mov	r7, r1
   1c992:	4605      	mov	r5, r0
   1c994:	ce0f      	ldmia	r6!, {r0, r1, r2, r3}
   1c996:	b0f9      	sub	sp, #484	; 0x1e4
   1c998:	ac01      	add	r4, sp, #4
   1c99a:	c40f      	stmia	r4!, {r0, r1, r2, r3}
   1c99c:	ce0f      	ldmia	r6!, {r0, r1, r2, r3}
   1c99e:	c40f      	stmia	r4!, {r0, r1, r2, r3}
   1c9a0:	ce0f      	ldmia	r6!, {r0, r1, r2, r3}
   1c9a2:	c40f      	stmia	r4!, {r0, r1, r2, r3}
   1c9a4:	e896 000f 	ldmia.w	r6, {r0, r1, r2, r3}
   1c9a8:	f04f 36ff 	mov.w	r6, #4294967295	; 0xffffffff
   1c9ac:	e884 000f 	stmia.w	r4, {r0, r1, r2, r3}
   1c9b0:	9600      	str	r6, [sp, #0]
   1c9b2:	e006      	b.n	1c9c2 <__gnu_Unwind_RaiseException+0x3a>
   1c9b4:	692b      	ldr	r3, [r5, #16]
   1c9b6:	466a      	mov	r2, sp
   1c9b8:	4629      	mov	r1, r5
   1c9ba:	4798      	blx	r3
   1c9bc:	2808      	cmp	r0, #8
   1c9be:	4604      	mov	r4, r0
   1c9c0:	d108      	bne.n	1c9d4 <__gnu_Unwind_RaiseException+0x4c>
   1c9c2:	9910      	ldr	r1, [sp, #64]	; 0x40
   1c9c4:	4628      	mov	r0, r5
   1c9c6:	f7ff fed5 	bl	1c774 <get_eit_entry>
   1c9ca:	2800      	cmp	r0, #0
   1c9cc:	d0f2      	beq.n	1c9b4 <__gnu_Unwind_RaiseException+0x2c>
   1c9ce:	2009      	movs	r0, #9
   1c9d0:	b079      	add	sp, #484	; 0x1e4
   1c9d2:	bdf0      	pop	{r4, r5, r6, r7, pc}
   1c9d4:	4668      	mov	r0, sp
   1c9d6:	f7ff ff1b 	bl	1c810 <restore_non_core_regs>
   1c9da:	2c06      	cmp	r4, #6
   1c9dc:	d1f7      	bne.n	1c9ce <__gnu_Unwind_RaiseException+0x46>
   1c9de:	4639      	mov	r1, r7
   1c9e0:	4628      	mov	r0, r5
   1c9e2:	f7ff ff4b 	bl	1c87c <unwind_phase2>
   1c9e6:	bf00      	nop

0001c9e8 <__gnu_Unwind_ForcedUnwind>:
   1c9e8:	b430      	push	{r4, r5}
   1c9ea:	6bdd      	ldr	r5, [r3, #60]	; 0x3c
   1c9ec:	60c1      	str	r1, [r0, #12]
   1c9ee:	6182      	str	r2, [r0, #24]
   1c9f0:	4619      	mov	r1, r3
   1c9f2:	641d      	str	r5, [r3, #64]	; 0x40
   1c9f4:	2200      	movs	r2, #0
   1c9f6:	bc30      	pop	{r4, r5}
   1c9f8:	e75e      	b.n	1c8b8 <unwind_phase2_forced>
   1c9fa:	bf00      	nop

0001c9fc <__gnu_Unwind_Resume>:
   1c9fc:	b570      	push	{r4, r5, r6, lr}
   1c9fe:	68c6      	ldr	r6, [r0, #12]
   1ca00:	6943      	ldr	r3, [r0, #20]
   1ca02:	640b      	str	r3, [r1, #64]	; 0x40
   1ca04:	b9ae      	cbnz	r6, 1ca32 <__gnu_Unwind_Resume+0x36>
   1ca06:	6903      	ldr	r3, [r0, #16]
   1ca08:	460a      	mov	r2, r1
   1ca0a:	4604      	mov	r4, r0
   1ca0c:	460d      	mov	r5, r1
   1ca0e:	4601      	mov	r1, r0
   1ca10:	2002      	movs	r0, #2
   1ca12:	4798      	blx	r3
   1ca14:	2807      	cmp	r0, #7
   1ca16:	d005      	beq.n	1ca24 <__gnu_Unwind_Resume+0x28>
   1ca18:	2808      	cmp	r0, #8
   1ca1a:	d10f      	bne.n	1ca3c <__gnu_Unwind_Resume+0x40>
   1ca1c:	4629      	mov	r1, r5
   1ca1e:	4620      	mov	r0, r4
   1ca20:	f7ff ff2c 	bl	1c87c <unwind_phase2>
   1ca24:	4630      	mov	r0, r6
   1ca26:	6c29      	ldr	r1, [r5, #64]	; 0x40
   1ca28:	f7ff ff26 	bl	1c878 <_Unwind_DebugHook>
   1ca2c:	1d28      	adds	r0, r5, #4
   1ca2e:	f000 fb31 	bl	1d094 <__restore_core_regs>
   1ca32:	2201      	movs	r2, #1
   1ca34:	f7ff ff40 	bl	1c8b8 <unwind_phase2_forced>
   1ca38:	f000 fda2 	bl	1d580 <abort>
   1ca3c:	f000 fda0 	bl	1d580 <abort>

0001ca40 <__gnu_Unwind_Resume_or_Rethrow>:
   1ca40:	68c2      	ldr	r2, [r0, #12]
   1ca42:	b11a      	cbz	r2, 1ca4c <__gnu_Unwind_Resume_or_Rethrow+0xc>
   1ca44:	6bca      	ldr	r2, [r1, #60]	; 0x3c
   1ca46:	640a      	str	r2, [r1, #64]	; 0x40
   1ca48:	2200      	movs	r2, #0
   1ca4a:	e735      	b.n	1c8b8 <unwind_phase2_forced>
   1ca4c:	e79c      	b.n	1c988 <__gnu_Unwind_RaiseException>
   1ca4e:	bf00      	nop

0001ca50 <_Unwind_Complete>:
   1ca50:	4770      	bx	lr
   1ca52:	bf00      	nop

0001ca54 <_Unwind_DeleteException>:
   1ca54:	6883      	ldr	r3, [r0, #8]
   1ca56:	4601      	mov	r1, r0
   1ca58:	b10b      	cbz	r3, 1ca5e <_Unwind_DeleteException+0xa>
   1ca5a:	2001      	movs	r0, #1
   1ca5c:	4718      	bx	r3
   1ca5e:	4770      	bx	lr

0001ca60 <_Unwind_VRS_Get>:
   1ca60:	2901      	cmp	r1, #1
   1ca62:	d012      	beq.n	1ca8a <_Unwind_VRS_Get+0x2a>
   1ca64:	d809      	bhi.n	1ca7a <_Unwind_VRS_Get+0x1a>
   1ca66:	b973      	cbnz	r3, 1ca86 <_Unwind_VRS_Get+0x26>
   1ca68:	2a0f      	cmp	r2, #15
   1ca6a:	d80c      	bhi.n	1ca86 <_Unwind_VRS_Get+0x26>
   1ca6c:	eb00 0282 	add.w	r2, r0, r2, lsl #2
   1ca70:	4618      	mov	r0, r3
   1ca72:	6853      	ldr	r3, [r2, #4]
   1ca74:	9a00      	ldr	r2, [sp, #0]
   1ca76:	6013      	str	r3, [r2, #0]
   1ca78:	4770      	bx	lr
   1ca7a:	3903      	subs	r1, #3
   1ca7c:	2901      	cmp	r1, #1
   1ca7e:	bf94      	ite	ls
   1ca80:	2001      	movls	r0, #1
   1ca82:	2002      	movhi	r0, #2
   1ca84:	4770      	bx	lr
   1ca86:	2002      	movs	r0, #2
   1ca88:	4770      	bx	lr
   1ca8a:	4608      	mov	r0, r1
   1ca8c:	4770      	bx	lr
   1ca8e:	bf00      	nop

0001ca90 <_Unwind_GetGR>:
   1ca90:	b510      	push	{r4, lr}
   1ca92:	b084      	sub	sp, #16
   1ca94:	2300      	movs	r3, #0
   1ca96:	ac03      	add	r4, sp, #12
   1ca98:	460a      	mov	r2, r1
   1ca9a:	9400      	str	r4, [sp, #0]
   1ca9c:	4619      	mov	r1, r3
   1ca9e:	f7ff ffdf 	bl	1ca60 <_Unwind_VRS_Get>
   1caa2:	9803      	ldr	r0, [sp, #12]
   1caa4:	b004      	add	sp, #16
   1caa6:	bd10      	pop	{r4, pc}

0001caa8 <_Unwind_VRS_Set>:
   1caa8:	2901      	cmp	r1, #1
   1caaa:	d012      	beq.n	1cad2 <_Unwind_VRS_Set+0x2a>
   1caac:	d809      	bhi.n	1cac2 <_Unwind_VRS_Set+0x1a>
   1caae:	b973      	cbnz	r3, 1cace <_Unwind_VRS_Set+0x26>
   1cab0:	2a0f      	cmp	r2, #15
   1cab2:	d80c      	bhi.n	1cace <_Unwind_VRS_Set+0x26>
   1cab4:	eb00 0082 	add.w	r0, r0, r2, lsl #2
   1cab8:	9a00      	ldr	r2, [sp, #0]
   1caba:	6812      	ldr	r2, [r2, #0]
   1cabc:	6042      	str	r2, [r0, #4]
   1cabe:	4618      	mov	r0, r3
   1cac0:	4770      	bx	lr
   1cac2:	3903      	subs	r1, #3
   1cac4:	2901      	cmp	r1, #1
   1cac6:	bf94      	ite	ls
   1cac8:	2001      	movls	r0, #1
   1caca:	2002      	movhi	r0, #2
   1cacc:	4770      	bx	lr
   1cace:	2002      	movs	r0, #2
   1cad0:	4770      	bx	lr
   1cad2:	4608      	mov	r0, r1
   1cad4:	4770      	bx	lr
   1cad6:	bf00      	nop

0001cad8 <_Unwind_SetGR>:
   1cad8:	b510      	push	{r4, lr}
   1cada:	b084      	sub	sp, #16
   1cadc:	2300      	movs	r3, #0
   1cade:	ac03      	add	r4, sp, #12
   1cae0:	9203      	str	r2, [sp, #12]
   1cae2:	9400      	str	r4, [sp, #0]
   1cae4:	460a      	mov	r2, r1
   1cae6:	4619      	mov	r1, r3
   1cae8:	f7ff ffde 	bl	1caa8 <_Unwind_VRS_Set>
   1caec:	b004      	add	sp, #16
   1caee:	bd10      	pop	{r4, pc}

0001caf0 <__gnu_Unwind_Backtrace>:
   1caf0:	b5f0      	push	{r4, r5, r6, r7, lr}
   1caf2:	6bd3      	ldr	r3, [r2, #60]	; 0x3c
   1caf4:	6413      	str	r3, [r2, #64]	; 0x40
   1caf6:	1d15      	adds	r5, r2, #4
   1caf8:	468c      	mov	ip, r1
   1cafa:	4606      	mov	r6, r0
   1cafc:	cd0f      	ldmia	r5!, {r0, r1, r2, r3}
   1cafe:	f5ad 7d0f 	sub.w	sp, sp, #572	; 0x23c
   1cb02:	ac17      	add	r4, sp, #92	; 0x5c
   1cb04:	c40f      	stmia	r4!, {r0, r1, r2, r3}
   1cb06:	cd0f      	ldmia	r5!, {r0, r1, r2, r3}
   1cb08:	c40f      	stmia	r4!, {r0, r1, r2, r3}
   1cb0a:	cd0f      	ldmia	r5!, {r0, r1, r2, r3}
   1cb0c:	c40f      	stmia	r4!, {r0, r1, r2, r3}
   1cb0e:	e895 000f 	ldmia.w	r5, {r0, r1, r2, r3}
   1cb12:	f04f 37ff 	mov.w	r7, #4294967295	; 0xffffffff
   1cb16:	e884 000f 	stmia.w	r4, {r0, r1, r2, r3}
   1cb1a:	4665      	mov	r5, ip
   1cb1c:	9716      	str	r7, [sp, #88]	; 0x58
   1cb1e:	e010      	b.n	1cb42 <__gnu_Unwind_Backtrace+0x52>
   1cb20:	f7ff ffda 	bl	1cad8 <_Unwind_SetGR>
   1cb24:	4629      	mov	r1, r5
   1cb26:	a816      	add	r0, sp, #88	; 0x58
   1cb28:	47b0      	blx	r6
   1cb2a:	4603      	mov	r3, r0
   1cb2c:	aa16      	add	r2, sp, #88	; 0x58
   1cb2e:	4669      	mov	r1, sp
   1cb30:	2008      	movs	r0, #8
   1cb32:	b983      	cbnz	r3, 1cb56 <__gnu_Unwind_Backtrace+0x66>
   1cb34:	9b04      	ldr	r3, [sp, #16]
   1cb36:	4798      	blx	r3
   1cb38:	2805      	cmp	r0, #5
   1cb3a:	4604      	mov	r4, r0
   1cb3c:	d00c      	beq.n	1cb58 <__gnu_Unwind_Backtrace+0x68>
   1cb3e:	2809      	cmp	r0, #9
   1cb40:	d009      	beq.n	1cb56 <__gnu_Unwind_Backtrace+0x66>
   1cb42:	9926      	ldr	r1, [sp, #152]	; 0x98
   1cb44:	4668      	mov	r0, sp
   1cb46:	f7ff fe15 	bl	1c774 <get_eit_entry>
   1cb4a:	4603      	mov	r3, r0
   1cb4c:	466a      	mov	r2, sp
   1cb4e:	210c      	movs	r1, #12
   1cb50:	a816      	add	r0, sp, #88	; 0x58
   1cb52:	2b00      	cmp	r3, #0
   1cb54:	d0e4      	beq.n	1cb20 <__gnu_Unwind_Backtrace+0x30>
   1cb56:	2409      	movs	r4, #9
   1cb58:	a816      	add	r0, sp, #88	; 0x58
   1cb5a:	f7ff fe59 	bl	1c810 <restore_non_core_regs>
   1cb5e:	4620      	mov	r0, r4
   1cb60:	f50d 7d0f 	add.w	sp, sp, #572	; 0x23c
   1cb64:	bdf0      	pop	{r4, r5, r6, r7, pc}
   1cb66:	bf00      	nop

0001cb68 <__gnu_unwind_pr_common>:
   1cb68:	e92d 4ff0 	stmdb	sp!, {r4, r5, r6, r7, r8, r9, sl, fp, lr}
   1cb6c:	6ccc      	ldr	r4, [r1, #76]	; 0x4c
   1cb6e:	b089      	sub	sp, #36	; 0x24
   1cb70:	460d      	mov	r5, r1
   1cb72:	f854 1b04 	ldr.w	r1, [r4], #4
   1cb76:	9406      	str	r4, [sp, #24]
   1cb78:	4617      	mov	r7, r2
   1cb7a:	f000 0803 	and.w	r8, r0, #3
   1cb7e:	461e      	mov	r6, r3
   1cb80:	2b00      	cmp	r3, #0
   1cb82:	d079      	beq.n	1cc78 <__gnu_unwind_pr_common+0x110>
   1cb84:	0c0b      	lsrs	r3, r1, #16
   1cb86:	b2da      	uxtb	r2, r3
   1cb88:	0409      	lsls	r1, r1, #16
   1cb8a:	f88d 301d 	strb.w	r3, [sp, #29]
   1cb8e:	2302      	movs	r3, #2
   1cb90:	eb04 0482 	add.w	r4, r4, r2, lsl #2
   1cb94:	9105      	str	r1, [sp, #20]
   1cb96:	f88d 301c 	strb.w	r3, [sp, #28]
   1cb9a:	6d2b      	ldr	r3, [r5, #80]	; 0x50
   1cb9c:	f1b8 0f02 	cmp.w	r8, #2
   1cba0:	bf08      	it	eq
   1cba2:	6bac      	ldreq	r4, [r5, #56]	; 0x38
   1cba4:	f013 0301 	ands.w	r3, r3, #1
   1cba8:	d00c      	beq.n	1cbc4 <__gnu_unwind_pr_common+0x5c>
   1cbaa:	4638      	mov	r0, r7
   1cbac:	a905      	add	r1, sp, #20
   1cbae:	f000 fb73 	bl	1d298 <__gnu_unwind_execute>
   1cbb2:	b918      	cbnz	r0, 1cbbc <__gnu_unwind_pr_common+0x54>
   1cbb4:	2008      	movs	r0, #8
   1cbb6:	b009      	add	sp, #36	; 0x24
   1cbb8:	e8bd 8ff0 	ldmia.w	sp!, {r4, r5, r6, r7, r8, r9, sl, fp, pc}
   1cbbc:	2009      	movs	r0, #9
   1cbbe:	b009      	add	sp, #36	; 0x24
   1cbc0:	e8bd 8ff0 	ldmia.w	sp!, {r4, r5, r6, r7, r8, r9, sl, fp, pc}
   1cbc4:	f8d4 a000 	ldr.w	sl, [r4]
   1cbc8:	f1ba 0f00 	cmp.w	sl, #0
   1cbcc:	d0ed      	beq.n	1cbaa <__gnu_unwind_pr_common+0x42>
   1cbce:	9301      	str	r3, [sp, #4]
   1cbd0:	f000 0308 	and.w	r3, r0, #8
   1cbd4:	9302      	str	r3, [sp, #8]
   1cbd6:	2e02      	cmp	r6, #2
   1cbd8:	d04a      	beq.n	1cc70 <__gnu_unwind_pr_common+0x108>
   1cbda:	f8b4 a000 	ldrh.w	sl, [r4]
   1cbde:	f8b4 9002 	ldrh.w	r9, [r4, #2]
   1cbe2:	3404      	adds	r4, #4
   1cbe4:	6caa      	ldr	r2, [r5, #72]	; 0x48
   1cbe6:	f029 0b01 	bic.w	fp, r9, #1
   1cbea:	210f      	movs	r1, #15
   1cbec:	4638      	mov	r0, r7
   1cbee:	4493      	add	fp, r2
   1cbf0:	f7ff ff4e 	bl	1ca90 <_Unwind_GetGR>
   1cbf4:	4583      	cmp	fp, r0
   1cbf6:	d839      	bhi.n	1cc6c <__gnu_unwind_pr_common+0x104>
   1cbf8:	f02a 0201 	bic.w	r2, sl, #1
   1cbfc:	445a      	add	r2, fp
   1cbfe:	4282      	cmp	r2, r0
   1cc00:	bf94      	ite	ls
   1cc02:	2000      	movls	r0, #0
   1cc04:	2001      	movhi	r0, #1
   1cc06:	ea4f 0349 	mov.w	r3, r9, lsl #1
   1cc0a:	f003 0302 	and.w	r3, r3, #2
   1cc0e:	f00a 0a01 	and.w	sl, sl, #1
   1cc12:	ea43 030a 	orr.w	r3, r3, sl
   1cc16:	2b01      	cmp	r3, #1
   1cc18:	d049      	beq.n	1ccae <__gnu_unwind_pr_common+0x146>
   1cc1a:	2b02      	cmp	r3, #2
   1cc1c:	d032      	beq.n	1cc84 <__gnu_unwind_pr_common+0x11c>
   1cc1e:	2b00      	cmp	r3, #0
   1cc20:	d1cc      	bne.n	1cbbc <__gnu_unwind_pr_common+0x54>
   1cc22:	f1b8 0f00 	cmp.w	r8, #0
   1cc26:	d002      	beq.n	1cc2e <__gnu_unwind_pr_common+0xc6>
   1cc28:	2800      	cmp	r0, #0
   1cc2a:	f040 80cd 	bne.w	1cdc8 <__gnu_unwind_pr_common+0x260>
   1cc2e:	3404      	adds	r4, #4
   1cc30:	f8d4 a000 	ldr.w	sl, [r4]
   1cc34:	f1ba 0f00 	cmp.w	sl, #0
   1cc38:	d1cd      	bne.n	1cbd6 <__gnu_unwind_pr_common+0x6e>
   1cc3a:	a905      	add	r1, sp, #20
   1cc3c:	4638      	mov	r0, r7
   1cc3e:	f000 fb2b 	bl	1d298 <__gnu_unwind_execute>
   1cc42:	2800      	cmp	r0, #0
   1cc44:	d1ba      	bne.n	1cbbc <__gnu_unwind_pr_common+0x54>
   1cc46:	9b01      	ldr	r3, [sp, #4]
   1cc48:	2b00      	cmp	r3, #0
   1cc4a:	d0b3      	beq.n	1cbb4 <__gnu_unwind_pr_common+0x4c>
   1cc4c:	210f      	movs	r1, #15
   1cc4e:	4638      	mov	r0, r7
   1cc50:	f7ff ff1e 	bl	1ca90 <_Unwind_GetGR>
   1cc54:	210e      	movs	r1, #14
   1cc56:	4602      	mov	r2, r0
   1cc58:	4638      	mov	r0, r7
   1cc5a:	f7ff ff3d 	bl	1cad8 <_Unwind_SetGR>
   1cc5e:	4638      	mov	r0, r7
   1cc60:	4a6a      	ldr	r2, [pc, #424]	; (1ce0c <__gnu_unwind_pr_common+0x2a4>)
   1cc62:	210f      	movs	r1, #15
   1cc64:	f7ff ff38 	bl	1cad8 <_Unwind_SetGR>
   1cc68:	2007      	movs	r0, #7
   1cc6a:	e7a8      	b.n	1cbbe <__gnu_unwind_pr_common+0x56>
   1cc6c:	2000      	movs	r0, #0
   1cc6e:	e7ca      	b.n	1cc06 <__gnu_unwind_pr_common+0x9e>
   1cc70:	f8d4 9004 	ldr.w	r9, [r4, #4]
   1cc74:	3408      	adds	r4, #8
   1cc76:	e7b5      	b.n	1cbe4 <__gnu_unwind_pr_common+0x7c>
   1cc78:	0209      	lsls	r1, r1, #8
   1cc7a:	2303      	movs	r3, #3
   1cc7c:	9105      	str	r1, [sp, #20]
   1cc7e:	f8ad 301c 	strh.w	r3, [sp, #28]
   1cc82:	e78a      	b.n	1cb9a <__gnu_unwind_pr_common+0x32>
   1cc84:	6823      	ldr	r3, [r4, #0]
   1cc86:	f023 4b00 	bic.w	fp, r3, #2147483648	; 0x80000000
   1cc8a:	f1b8 0f00 	cmp.w	r8, #0
   1cc8e:	d145      	bne.n	1cd1c <__gnu_unwind_pr_common+0x1b4>
   1cc90:	b128      	cbz	r0, 1cc9e <__gnu_unwind_pr_common+0x136>
   1cc92:	9a02      	ldr	r2, [sp, #8]
   1cc94:	2a00      	cmp	r2, #0
   1cc96:	d05c      	beq.n	1cd52 <__gnu_unwind_pr_common+0x1ea>
   1cc98:	f1bb 0f00 	cmp.w	fp, #0
   1cc9c:	d074      	beq.n	1cd88 <__gnu_unwind_pr_common+0x220>
   1cc9e:	2b00      	cmp	r3, #0
   1cca0:	da00      	bge.n	1cca4 <__gnu_unwind_pr_common+0x13c>
   1cca2:	3404      	adds	r4, #4
   1cca4:	f10b 0b01 	add.w	fp, fp, #1
   1cca8:	eb04 048b 	add.w	r4, r4, fp, lsl #2
   1ccac:	e7c0      	b.n	1cc30 <__gnu_unwind_pr_common+0xc8>
   1ccae:	f1b8 0f00 	cmp.w	r8, #0
   1ccb2:	d119      	bne.n	1cce8 <__gnu_unwind_pr_common+0x180>
   1ccb4:	b1b0      	cbz	r0, 1cce4 <__gnu_unwind_pr_common+0x17c>
   1ccb6:	e9d4 2300 	ldrd	r2, r3, [r4]
   1ccba:	1c99      	adds	r1, r3, #2
   1ccbc:	ea4f 72d2 	mov.w	r2, r2, lsr #31
   1ccc0:	f43f af7c 	beq.w	1cbbc <__gnu_unwind_pr_common+0x54>
   1ccc4:	f105 0158 	add.w	r1, r5, #88	; 0x58
   1ccc8:	3301      	adds	r3, #1
   1ccca:	9104      	str	r1, [sp, #16]
   1cccc:	f000 8090 	beq.w	1cdf0 <__gnu_unwind_pr_common+0x288>
   1ccd0:	1d20      	adds	r0, r4, #4
   1ccd2:	f7ff fdc9 	bl	1c868 <_Unwind_decode_typeinfo_ptr.isra.0>
   1ccd6:	ab04      	add	r3, sp, #16
   1ccd8:	4601      	mov	r1, r0
   1ccda:	4628      	mov	r0, r5
   1ccdc:	f3af 8000 	nop.w
   1cce0:	2800      	cmp	r0, #0
   1cce2:	d15b      	bne.n	1cd9c <__gnu_unwind_pr_common+0x234>
   1cce4:	3408      	adds	r4, #8
   1cce6:	e7a3      	b.n	1cc30 <__gnu_unwind_pr_common+0xc8>
   1cce8:	210d      	movs	r1, #13
   1ccea:	4638      	mov	r0, r7
   1ccec:	f8d5 9020 	ldr.w	r9, [r5, #32]
   1ccf0:	f7ff fece 	bl	1ca90 <_Unwind_GetGR>
   1ccf4:	4581      	cmp	r9, r0
   1ccf6:	d1f5      	bne.n	1cce4 <__gnu_unwind_pr_common+0x17c>
   1ccf8:	6aab      	ldr	r3, [r5, #40]	; 0x28
   1ccfa:	429c      	cmp	r4, r3
   1ccfc:	d1f2      	bne.n	1cce4 <__gnu_unwind_pr_common+0x17c>
   1ccfe:	4620      	mov	r0, r4
   1cd00:	f7ff fcec 	bl	1c6dc <selfrel_offset31>
   1cd04:	210f      	movs	r1, #15
   1cd06:	4602      	mov	r2, r0
   1cd08:	4638      	mov	r0, r7
   1cd0a:	f7ff fee5 	bl	1cad8 <_Unwind_SetGR>
   1cd0e:	4638      	mov	r0, r7
   1cd10:	462a      	mov	r2, r5
   1cd12:	2100      	movs	r1, #0
   1cd14:	f7ff fee0 	bl	1cad8 <_Unwind_SetGR>
   1cd18:	2007      	movs	r0, #7
   1cd1a:	e750      	b.n	1cbbe <__gnu_unwind_pr_common+0x56>
   1cd1c:	210d      	movs	r1, #13
   1cd1e:	4638      	mov	r0, r7
   1cd20:	f8d5 9020 	ldr.w	r9, [r5, #32]
   1cd24:	f7ff feb4 	bl	1ca90 <_Unwind_GetGR>
   1cd28:	4581      	cmp	r9, r0
   1cd2a:	d001      	beq.n	1cd30 <__gnu_unwind_pr_common+0x1c8>
   1cd2c:	6823      	ldr	r3, [r4, #0]
   1cd2e:	e7b6      	b.n	1cc9e <__gnu_unwind_pr_common+0x136>
   1cd30:	6aab      	ldr	r3, [r5, #40]	; 0x28
   1cd32:	429c      	cmp	r4, r3
   1cd34:	d1fa      	bne.n	1cd2c <__gnu_unwind_pr_common+0x1c4>
   1cd36:	2204      	movs	r2, #4
   1cd38:	2100      	movs	r1, #0
   1cd3a:	e9c5 120b 	strd	r1, r2, [r5, #44]	; 0x2c
   1cd3e:	18a3      	adds	r3, r4, r2
   1cd40:	f8c5 b028 	str.w	fp, [r5, #40]	; 0x28
   1cd44:	636b      	str	r3, [r5, #52]	; 0x34
   1cd46:	6823      	ldr	r3, [r4, #0]
   1cd48:	428b      	cmp	r3, r1
   1cd4a:	db59      	blt.n	1ce00 <__gnu_unwind_pr_common+0x298>
   1cd4c:	2301      	movs	r3, #1
   1cd4e:	9301      	str	r3, [sp, #4]
   1cd50:	e7a8      	b.n	1cca4 <__gnu_unwind_pr_common+0x13c>
   1cd52:	f105 0358 	add.w	r3, r5, #88	; 0x58
   1cd56:	f8cd 800c 	str.w	r8, [sp, #12]
   1cd5a:	f104 0a04 	add.w	sl, r4, #4
   1cd5e:	46b0      	mov	r8, r6
   1cd60:	4691      	mov	r9, r2
   1cd62:	461e      	mov	r6, r3
   1cd64:	e00d      	b.n	1cd82 <__gnu_unwind_pr_common+0x21a>
   1cd66:	9604      	str	r6, [sp, #16]
   1cd68:	f7ff fd7e 	bl	1c868 <_Unwind_decode_typeinfo_ptr.isra.0>
   1cd6c:	ab04      	add	r3, sp, #16
   1cd6e:	4601      	mov	r1, r0
   1cd70:	2200      	movs	r2, #0
   1cd72:	4628      	mov	r0, r5
   1cd74:	f3af 8000 	nop.w
   1cd78:	f109 0901 	add.w	r9, r9, #1
   1cd7c:	f10a 0a04 	add.w	sl, sl, #4
   1cd80:	b9e8      	cbnz	r0, 1cdbe <__gnu_unwind_pr_common+0x256>
   1cd82:	45d9      	cmp	r9, fp
   1cd84:	4650      	mov	r0, sl
   1cd86:	d1ee      	bne.n	1cd66 <__gnu_unwind_pr_common+0x1fe>
   1cd88:	4638      	mov	r0, r7
   1cd8a:	210d      	movs	r1, #13
   1cd8c:	f7ff fe80 	bl	1ca90 <_Unwind_GetGR>
   1cd90:	9b04      	ldr	r3, [sp, #16]
   1cd92:	6228      	str	r0, [r5, #32]
   1cd94:	e9c5 3409 	strd	r3, r4, [r5, #36]	; 0x24
   1cd98:	2006      	movs	r0, #6
   1cd9a:	e710      	b.n	1cbbe <__gnu_unwind_pr_common+0x56>
   1cd9c:	4681      	mov	r9, r0
   1cd9e:	210d      	movs	r1, #13
   1cda0:	4638      	mov	r0, r7
   1cda2:	f7ff fe75 	bl	1ca90 <_Unwind_GetGR>
   1cda6:	f1b9 0f02 	cmp.w	r9, #2
   1cdaa:	6228      	str	r0, [r5, #32]
   1cdac:	d125      	bne.n	1cdfa <__gnu_unwind_pr_common+0x292>
   1cdae:	462b      	mov	r3, r5
   1cdb0:	9a04      	ldr	r2, [sp, #16]
   1cdb2:	f843 2f2c 	str.w	r2, [r3, #44]!
   1cdb6:	626b      	str	r3, [r5, #36]	; 0x24
   1cdb8:	62ac      	str	r4, [r5, #40]	; 0x28
   1cdba:	2006      	movs	r0, #6
   1cdbc:	e6ff      	b.n	1cbbe <__gnu_unwind_pr_common+0x56>
   1cdbe:	4646      	mov	r6, r8
   1cdc0:	6823      	ldr	r3, [r4, #0]
   1cdc2:	f8dd 800c 	ldr.w	r8, [sp, #12]
   1cdc6:	e76a      	b.n	1cc9e <__gnu_unwind_pr_common+0x136>
   1cdc8:	4620      	mov	r0, r4
   1cdca:	f7ff fc87 	bl	1c6dc <selfrel_offset31>
   1cdce:	3404      	adds	r4, #4
   1cdd0:	4602      	mov	r2, r0
   1cdd2:	63ac      	str	r4, [r5, #56]	; 0x38
   1cdd4:	4628      	mov	r0, r5
   1cdd6:	4614      	mov	r4, r2
   1cdd8:	f3af 8000 	nop.w
   1cddc:	2800      	cmp	r0, #0
   1cdde:	f43f aeed 	beq.w	1cbbc <__gnu_unwind_pr_common+0x54>
   1cde2:	4638      	mov	r0, r7
   1cde4:	4622      	mov	r2, r4
   1cde6:	210f      	movs	r1, #15
   1cde8:	f7ff fe76 	bl	1cad8 <_Unwind_SetGR>
   1cdec:	2007      	movs	r0, #7
   1cdee:	e6e6      	b.n	1cbbe <__gnu_unwind_pr_common+0x56>
   1cdf0:	4638      	mov	r0, r7
   1cdf2:	210d      	movs	r1, #13
   1cdf4:	f7ff fe4c 	bl	1ca90 <_Unwind_GetGR>
   1cdf8:	6228      	str	r0, [r5, #32]
   1cdfa:	9b04      	ldr	r3, [sp, #16]
   1cdfc:	626b      	str	r3, [r5, #36]	; 0x24
   1cdfe:	e7db      	b.n	1cdb8 <__gnu_unwind_pr_common+0x250>
   1ce00:	f10b 0001 	add.w	r0, fp, #1
   1ce04:	eb04 0080 	add.w	r0, r4, r0, lsl #2
   1ce08:	e77a      	b.n	1cd00 <__gnu_unwind_pr_common+0x198>
   1ce0a:	bf00      	nop
   1ce0c:	00000000 	.word	0x00000000

0001ce10 <__aeabi_unwind_cpp_pr0>:
   1ce10:	2300      	movs	r3, #0
   1ce12:	e6a9      	b.n	1cb68 <__gnu_unwind_pr_common>

0001ce14 <__aeabi_unwind_cpp_pr1>:
   1ce14:	2301      	movs	r3, #1
   1ce16:	e6a7      	b.n	1cb68 <__gnu_unwind_pr_common>

0001ce18 <__aeabi_unwind_cpp_pr2>:
   1ce18:	2302      	movs	r3, #2
   1ce1a:	e6a5      	b.n	1cb68 <__gnu_unwind_pr_common>

0001ce1c <_Unwind_VRS_Pop>:
   1ce1c:	e92d 43f0 	stmdb	sp!, {r4, r5, r6, r7, r8, r9, lr}
   1ce20:	4606      	mov	r6, r0
   1ce22:	b0c3      	sub	sp, #268	; 0x10c
   1ce24:	4615      	mov	r5, r2
   1ce26:	461c      	mov	r4, r3
   1ce28:	2904      	cmp	r1, #4
   1ce2a:	f200 80b9 	bhi.w	1cfa0 <_Unwind_VRS_Pop+0x184>
   1ce2e:	e8df f001 	tbb	[pc, r1]
   1ce32:	539a      	.short	0x539a
   1ce34:	29b7      	.short	0x29b7
   1ce36:	03          	.byte	0x03
   1ce37:	00          	.byte	0x00
   1ce38:	2c00      	cmp	r4, #0
   1ce3a:	f040 80b1 	bne.w	1cfa0 <_Unwind_VRS_Pop+0x184>
   1ce3e:	2a10      	cmp	r2, #16
   1ce40:	f200 80ae 	bhi.w	1cfa0 <_Unwind_VRS_Pop+0x184>
   1ce44:	6803      	ldr	r3, [r0, #0]
   1ce46:	06d8      	lsls	r0, r3, #27
   1ce48:	f100 80f3 	bmi.w	1d032 <_Unwind_VRS_Pop+0x216>
   1ce4c:	af20      	add	r7, sp, #128	; 0x80
   1ce4e:	4638      	mov	r0, r7
   1ce50:	f000 f992 	bl	1d178 <__gnu_Unwind_Save_WMMXC>
   1ce54:	6bb0      	ldr	r0, [r6, #56]	; 0x38
   1ce56:	2300      	movs	r3, #0
   1ce58:	2401      	movs	r4, #1
   1ce5a:	fa04 f203 	lsl.w	r2, r4, r3
   1ce5e:	422a      	tst	r2, r5
   1ce60:	4601      	mov	r1, r0
   1ce62:	d004      	beq.n	1ce6e <_Unwind_VRS_Pop+0x52>
   1ce64:	f851 2b04 	ldr.w	r2, [r1], #4
   1ce68:	f847 2023 	str.w	r2, [r7, r3, lsl #2]
   1ce6c:	4608      	mov	r0, r1
   1ce6e:	3301      	adds	r3, #1
   1ce70:	2b04      	cmp	r3, #4
   1ce72:	d1f2      	bne.n	1ce5a <_Unwind_VRS_Pop+0x3e>
   1ce74:	63b0      	str	r0, [r6, #56]	; 0x38
   1ce76:	4638      	mov	r0, r7
   1ce78:	f000 f974 	bl	1d164 <__gnu_Unwind_Restore_WMMXC>
   1ce7c:	2000      	movs	r0, #0
   1ce7e:	b043      	add	sp, #268	; 0x10c
   1ce80:	e8bd 83f0 	ldmia.w	sp!, {r4, r5, r6, r7, r8, r9, pc}
   1ce84:	2c03      	cmp	r4, #3
   1ce86:	f040 808b 	bne.w	1cfa0 <_Unwind_VRS_Pop+0x184>
   1ce8a:	b294      	uxth	r4, r2
   1ce8c:	eb04 4312 	add.w	r3, r4, r2, lsr #16
   1ce90:	2b10      	cmp	r3, #16
   1ce92:	ea4f 4512 	mov.w	r5, r2, lsr #16
   1ce96:	f200 8083 	bhi.w	1cfa0 <_Unwind_VRS_Pop+0x184>
   1ce9a:	6803      	ldr	r3, [r0, #0]
   1ce9c:	071f      	lsls	r7, r3, #28
   1ce9e:	f100 80d0 	bmi.w	1d042 <_Unwind_VRS_Pop+0x226>
   1cea2:	af20      	add	r7, sp, #128	; 0x80
   1cea4:	4638      	mov	r0, r7
   1cea6:	f000 f93b 	bl	1d120 <__gnu_Unwind_Save_WMMXD>
   1ceaa:	eb07 01c5 	add.w	r1, r7, r5, lsl #3
   1ceae:	6bb5      	ldr	r5, [r6, #56]	; 0x38
   1ceb0:	b154      	cbz	r4, 1cec8 <_Unwind_VRS_Pop+0xac>
   1ceb2:	460b      	mov	r3, r1
   1ceb4:	1ae8      	subs	r0, r5, r3
   1ceb6:	eb01 01c4 	add.w	r1, r1, r4, lsl #3
   1ceba:	00e4      	lsls	r4, r4, #3
   1cebc:	581a      	ldr	r2, [r3, r0]
   1cebe:	f843 2b04 	str.w	r2, [r3], #4
   1cec2:	428b      	cmp	r3, r1
   1cec4:	d1fa      	bne.n	1cebc <_Unwind_VRS_Pop+0xa0>
   1cec6:	4425      	add	r5, r4
   1cec8:	4638      	mov	r0, r7
   1ceca:	63b5      	str	r5, [r6, #56]	; 0x38
   1cecc:	f000 f906 	bl	1d0dc <__gnu_Unwind_Restore_WMMXD>
   1ced0:	2000      	movs	r0, #0
   1ced2:	b043      	add	sp, #268	; 0x10c
   1ced4:	e8bd 83f0 	ldmia.w	sp!, {r4, r5, r6, r7, r8, r9, pc}
   1ced8:	2c01      	cmp	r4, #1
   1ceda:	ea4f 4812 	mov.w	r8, r2, lsr #16
   1cede:	b295      	uxth	r5, r2
   1cee0:	d05a      	beq.n	1cf98 <_Unwind_VRS_Pop+0x17c>
   1cee2:	2c05      	cmp	r4, #5
   1cee4:	d15c      	bne.n	1cfa0 <_Unwind_VRS_Pop+0x184>
   1cee6:	eb08 0905 	add.w	r9, r8, r5
   1ceea:	f1b9 0f20 	cmp.w	r9, #32
   1ceee:	d857      	bhi.n	1cfa0 <_Unwind_VRS_Pop+0x184>
   1cef0:	f1b8 0f0f 	cmp.w	r8, #15
   1cef4:	d977      	bls.n	1cfe6 <_Unwind_VRS_Pop+0x1ca>
   1cef6:	46a9      	mov	r9, r5
   1cef8:	2d00      	cmp	r5, #0
   1cefa:	f040 8088 	bne.w	1d00e <_Unwind_VRS_Pop+0x1f2>
   1cefe:	6bb3      	ldr	r3, [r6, #56]	; 0x38
   1cf00:	b36d      	cbz	r5, 1cf5e <_Unwind_VRS_Pop+0x142>
   1cf02:	af20      	add	r7, sp, #128	; 0x80
   1cf04:	f04f 0900 	mov.w	r9, #0
   1cf08:	eb07 07c8 	add.w	r7, r7, r8, lsl #3
   1cf0c:	3f04      	subs	r7, #4
   1cf0e:	eb03 05c5 	add.w	r5, r3, r5, lsl #3
   1cf12:	f853 1b04 	ldr.w	r1, [r3], #4
   1cf16:	f847 1f04 	str.w	r1, [r7, #4]!
   1cf1a:	42ab      	cmp	r3, r5
   1cf1c:	d1f9      	bne.n	1cf12 <_Unwind_VRS_Pop+0xf6>
   1cf1e:	f1b9 0f00 	cmp.w	r9, #0
   1cf22:	d00f      	beq.n	1cf44 <_Unwind_VRS_Pop+0x128>
   1cf24:	466f      	mov	r7, sp
   1cf26:	4641      	mov	r1, r8
   1cf28:	2910      	cmp	r1, #16
   1cf2a:	bf38      	it	cc
   1cf2c:	2110      	movcc	r1, #16
   1cf2e:	eb07 01c1 	add.w	r1, r7, r1, lsl #3
   1cf32:	3984      	subs	r1, #132	; 0x84
   1cf34:	eb03 05c9 	add.w	r5, r3, r9, lsl #3
   1cf38:	f853 0b04 	ldr.w	r0, [r3], #4
   1cf3c:	f841 0f04 	str.w	r0, [r1, #4]!
   1cf40:	42ab      	cmp	r3, r5
   1cf42:	d1f9      	bne.n	1cf38 <_Unwind_VRS_Pop+0x11c>
   1cf44:	2c01      	cmp	r4, #1
   1cf46:	f000 8084 	beq.w	1d052 <_Unwind_VRS_Pop+0x236>
   1cf4a:	f1b8 0f0f 	cmp.w	r8, #15
   1cf4e:	63b5      	str	r5, [r6, #56]	; 0x38
   1cf50:	d945      	bls.n	1cfde <_Unwind_VRS_Pop+0x1c2>
   1cf52:	f1b9 0f00 	cmp.w	r9, #0
   1cf56:	d002      	beq.n	1cf5e <_Unwind_VRS_Pop+0x142>
   1cf58:	4668      	mov	r0, sp
   1cf5a:	f000 f8b7 	bl	1d0cc <__gnu_Unwind_Restore_VFP_D_16_to_31>
   1cf5e:	2000      	movs	r0, #0
   1cf60:	b043      	add	sp, #268	; 0x10c
   1cf62:	e8bd 83f0 	ldmia.w	sp!, {r4, r5, r6, r7, r8, r9, pc}
   1cf66:	b9dc      	cbnz	r4, 1cfa0 <_Unwind_VRS_Pop+0x184>
   1cf68:	6b87      	ldr	r7, [r0, #56]	; 0x38
   1cf6a:	4623      	mov	r3, r4
   1cf6c:	2001      	movs	r0, #1
   1cf6e:	b294      	uxth	r4, r2
   1cf70:	f106 0c04 	add.w	ip, r6, #4
   1cf74:	fa00 f203 	lsl.w	r2, r0, r3
   1cf78:	4222      	tst	r2, r4
   1cf7a:	4639      	mov	r1, r7
   1cf7c:	d004      	beq.n	1cf88 <_Unwind_VRS_Pop+0x16c>
   1cf7e:	f851 2b04 	ldr.w	r2, [r1], #4
   1cf82:	f84c 2023 	str.w	r2, [ip, r3, lsl #2]
   1cf86:	460f      	mov	r7, r1
   1cf88:	3301      	adds	r3, #1
   1cf8a:	2b10      	cmp	r3, #16
   1cf8c:	d1f2      	bne.n	1cf74 <_Unwind_VRS_Pop+0x158>
   1cf8e:	f415 5000 	ands.w	r0, r5, #8192	; 0x2000
   1cf92:	d1e4      	bne.n	1cf5e <_Unwind_VRS_Pop+0x142>
   1cf94:	63b7      	str	r7, [r6, #56]	; 0x38
   1cf96:	e004      	b.n	1cfa2 <_Unwind_VRS_Pop+0x186>
   1cf98:	eb08 0305 	add.w	r3, r8, r5
   1cf9c:	2b10      	cmp	r3, #16
   1cf9e:	d903      	bls.n	1cfa8 <_Unwind_VRS_Pop+0x18c>
   1cfa0:	2002      	movs	r0, #2
   1cfa2:	b043      	add	sp, #268	; 0x10c
   1cfa4:	e8bd 83f0 	ldmia.w	sp!, {r4, r5, r6, r7, r8, r9, pc}
   1cfa8:	f1b8 0f0f 	cmp.w	r8, #15
   1cfac:	d8f8      	bhi.n	1cfa0 <_Unwind_VRS_Pop+0x184>
   1cfae:	6833      	ldr	r3, [r6, #0]
   1cfb0:	07da      	lsls	r2, r3, #31
   1cfb2:	d506      	bpl.n	1cfc2 <_Unwind_VRS_Pop+0x1a6>
   1cfb4:	4630      	mov	r0, r6
   1cfb6:	f023 0303 	bic.w	r3, r3, #3
   1cfba:	f840 3b48 	str.w	r3, [r0], #72
   1cfbe:	f000 f879 	bl	1d0b4 <__gnu_Unwind_Save_VFP>
   1cfc2:	af20      	add	r7, sp, #128	; 0x80
   1cfc4:	4638      	mov	r0, r7
   1cfc6:	f000 f875 	bl	1d0b4 <__gnu_Unwind_Save_VFP>
   1cfca:	6bb3      	ldr	r3, [r6, #56]	; 0x38
   1cfcc:	2d00      	cmp	r5, #0
   1cfce:	d199      	bne.n	1cf04 <_Unwind_VRS_Pop+0xe8>
   1cfd0:	461d      	mov	r5, r3
   1cfd2:	3504      	adds	r5, #4
   1cfd4:	63b5      	str	r5, [r6, #56]	; 0x38
   1cfd6:	4638      	mov	r0, r7
   1cfd8:	f000 f868 	bl	1d0ac <__gnu_Unwind_Restore_VFP>
   1cfdc:	e7bf      	b.n	1cf5e <_Unwind_VRS_Pop+0x142>
   1cfde:	a820      	add	r0, sp, #128	; 0x80
   1cfe0:	f000 f86c 	bl	1d0bc <__gnu_Unwind_Restore_VFP_D>
   1cfe4:	e7b5      	b.n	1cf52 <_Unwind_VRS_Pop+0x136>
   1cfe6:	f1b9 0f10 	cmp.w	r9, #16
   1cfea:	d940      	bls.n	1d06e <_Unwind_VRS_Pop+0x252>
   1cfec:	f1a9 0910 	sub.w	r9, r9, #16
   1cff0:	6833      	ldr	r3, [r6, #0]
   1cff2:	07d9      	lsls	r1, r3, #31
   1cff4:	d508      	bpl.n	1d008 <_Unwind_VRS_Pop+0x1ec>
   1cff6:	f023 0301 	bic.w	r3, r3, #1
   1cffa:	4630      	mov	r0, r6
   1cffc:	f043 0302 	orr.w	r3, r3, #2
   1d000:	f840 3b48 	str.w	r3, [r0], #72
   1d004:	f000 f85e 	bl	1d0c4 <__gnu_Unwind_Save_VFP_D>
   1d008:	f1b9 0f00 	cmp.w	r9, #0
   1d00c:	d032      	beq.n	1d074 <_Unwind_VRS_Pop+0x258>
   1d00e:	6833      	ldr	r3, [r6, #0]
   1d010:	075a      	lsls	r2, r3, #29
   1d012:	d420      	bmi.n	1d056 <_Unwind_VRS_Pop+0x23a>
   1d014:	f1b8 0f0f 	cmp.w	r8, #15
   1d018:	d925      	bls.n	1d066 <_Unwind_VRS_Pop+0x24a>
   1d01a:	466f      	mov	r7, sp
   1d01c:	4638      	mov	r0, r7
   1d01e:	f1c8 0510 	rsb	r5, r8, #16
   1d022:	f000 f857 	bl	1d0d4 <__gnu_Unwind_Save_VFP_D_16_to_31>
   1d026:	2d00      	cmp	r5, #0
   1d028:	6bb3      	ldr	r3, [r6, #56]	; 0x38
   1d02a:	f77f af7c 	ble.w	1cf26 <_Unwind_VRS_Pop+0x10a>
   1d02e:	af20      	add	r7, sp, #128	; 0x80
   1d030:	e76a      	b.n	1cf08 <_Unwind_VRS_Pop+0xec>
   1d032:	f023 0310 	bic.w	r3, r3, #16
   1d036:	6033      	str	r3, [r6, #0]
   1d038:	f506 70e8 	add.w	r0, r6, #464	; 0x1d0
   1d03c:	f000 f89c 	bl	1d178 <__gnu_Unwind_Save_WMMXC>
   1d040:	e704      	b.n	1ce4c <_Unwind_VRS_Pop+0x30>
   1d042:	f023 0308 	bic.w	r3, r3, #8
   1d046:	6003      	str	r3, [r0, #0]
   1d048:	f500 70a8 	add.w	r0, r0, #336	; 0x150
   1d04c:	f000 f868 	bl	1d120 <__gnu_Unwind_Save_WMMXD>
   1d050:	e727      	b.n	1cea2 <_Unwind_VRS_Pop+0x86>
   1d052:	af20      	add	r7, sp, #128	; 0x80
   1d054:	e7bd      	b.n	1cfd2 <_Unwind_VRS_Pop+0x1b6>
   1d056:	4630      	mov	r0, r6
   1d058:	f023 0304 	bic.w	r3, r3, #4
   1d05c:	f840 3bd0 	str.w	r3, [r0], #208
   1d060:	f000 f838 	bl	1d0d4 <__gnu_Unwind_Save_VFP_D_16_to_31>
   1d064:	e7d6      	b.n	1d014 <_Unwind_VRS_Pop+0x1f8>
   1d066:	a820      	add	r0, sp, #128	; 0x80
   1d068:	f000 f82c 	bl	1d0c4 <__gnu_Unwind_Save_VFP_D>
   1d06c:	e7d5      	b.n	1d01a <_Unwind_VRS_Pop+0x1fe>
   1d06e:	f04f 0900 	mov.w	r9, #0
   1d072:	e7bd      	b.n	1cff0 <_Unwind_VRS_Pop+0x1d4>
   1d074:	f1b8 0f0f 	cmp.w	r8, #15
   1d078:	f63f af41 	bhi.w	1cefe <_Unwind_VRS_Pop+0xe2>
   1d07c:	af20      	add	r7, sp, #128	; 0x80
   1d07e:	4638      	mov	r0, r7
   1d080:	f000 f820 	bl	1d0c4 <__gnu_Unwind_Save_VFP_D>
   1d084:	6bb3      	ldr	r3, [r6, #56]	; 0x38
   1d086:	2d00      	cmp	r5, #0
   1d088:	f47f af3c 	bne.w	1cf04 <_Unwind_VRS_Pop+0xe8>
   1d08c:	4638      	mov	r0, r7
   1d08e:	f000 f815 	bl	1d0bc <__gnu_Unwind_Restore_VFP_D>
   1d092:	e764      	b.n	1cf5e <_Unwind_VRS_Pop+0x142>

0001d094 <__restore_core_regs>:
   1d094:	f100 0134 	add.w	r1, r0, #52	; 0x34
   1d098:	e891 0038 	ldmia.w	r1, {r3, r4, r5}
   1d09c:	469c      	mov	ip, r3
   1d09e:	46a6      	mov	lr, r4
   1d0a0:	f84c 5d04 	str.w	r5, [ip, #-4]!
   1d0a4:	e890 0fff 	ldmia.w	r0, {r0, r1, r2, r3, r4, r5, r6, r7, r8, r9, sl, fp}
   1d0a8:	46e5      	mov	sp, ip
   1d0aa:	bd00      	pop	{pc}

0001d0ac <__gnu_Unwind_Restore_VFP>:
   1d0ac:	ec90 0b21 	fldmiax	r0, {d0-d15}	;@ Deprecated
   1d0b0:	4770      	bx	lr
   1d0b2:	bf00      	nop

0001d0b4 <__gnu_Unwind_Save_VFP>:
   1d0b4:	ec80 0b21 	fstmiax	r0, {d0-d15}	;@ Deprecated
   1d0b8:	4770      	bx	lr
   1d0ba:	bf00      	nop

0001d0bc <__gnu_Unwind_Restore_VFP_D>:
   1d0bc:	ec90 0b20 	vldmia	r0, {d0-d15}
   1d0c0:	4770      	bx	lr
   1d0c2:	bf00      	nop

0001d0c4 <__gnu_Unwind_Save_VFP_D>:
   1d0c4:	ec80 0b20 	vstmia	r0, {d0-d15}
   1d0c8:	4770      	bx	lr
   1d0ca:	bf00      	nop

0001d0cc <__gnu_Unwind_Restore_VFP_D_16_to_31>:
   1d0cc:	ecd0 0b20 	vldmia	r0, {d16-d31}
   1d0d0:	4770      	bx	lr
   1d0d2:	bf00      	nop

0001d0d4 <__gnu_Unwind_Save_VFP_D_16_to_31>:
   1d0d4:	ecc0 0b20 	vstmia	r0, {d16-d31}
   1d0d8:	4770      	bx	lr
   1d0da:	bf00      	nop

0001d0dc <__gnu_Unwind_Restore_WMMXD>:
   1d0dc:	ecf0 0102 	ldfe	f0, [r0], #8
   1d0e0:	ecf0 1102 	ldfe	f1, [r0], #8
   1d0e4:	ecf0 2102 	ldfe	f2, [r0], #8
   1d0e8:	ecf0 3102 	ldfe	f3, [r0], #8
   1d0ec:	ecf0 4102 	ldfe	f4, [r0], #8
   1d0f0:	ecf0 5102 	ldfe	f5, [r0], #8
   1d0f4:	ecf0 6102 	ldfe	f6, [r0], #8
   1d0f8:	ecf0 7102 	ldfe	f7, [r0], #8
   1d0fc:	ecf0 8102 	ldfp	f0, [r0], #8
   1d100:	ecf0 9102 	ldfp	f1, [r0], #8
   1d104:	ecf0 a102 	ldfp	f2, [r0], #8
   1d108:	ecf0 b102 	ldfp	f3, [r0], #8
   1d10c:	ecf0 c102 	ldfp	f4, [r0], #8
   1d110:	ecf0 d102 	ldfp	f5, [r0], #8
   1d114:	ecf0 e102 	ldfp	f6, [r0], #8
   1d118:	ecf0 f102 	ldfp	f7, [r0], #8
   1d11c:	4770      	bx	lr
   1d11e:	bf00      	nop

0001d120 <__gnu_Unwind_Save_WMMXD>:
   1d120:	ece0 0102 	stfe	f0, [r0], #8
   1d124:	ece0 1102 	stfe	f1, [r0], #8
   1d128:	ece0 2102 	stfe	f2, [r0], #8
   1d12c:	ece0 3102 	stfe	f3, [r0], #8
   1d130:	ece0 4102 	stfe	f4, [r0], #8
   1d134:	ece0 5102 	stfe	f5, [r0], #8
   1d138:	ece0 6102 	stfe	f6, [r0], #8
   1d13c:	ece0 7102 	stfe	f7, [r0], #8
   1d140:	ece0 8102 	stfp	f0, [r0], #8
   1d144:	ece0 9102 	stfp	f1, [r0], #8
   1d148:	ece0 a102 	stfp	f2, [r0], #8
   1d14c:	ece0 b102 	stfp	f3, [r0], #8
   1d150:	ece0 c102 	stfp	f4, [r0], #8
   1d154:	ece0 d102 	stfp	f5, [r0], #8
   1d158:	ece0 e102 	stfp	f6, [r0], #8
   1d15c:	ece0 f102 	stfp	f7, [r0], #8
   1d160:	4770      	bx	lr
   1d162:	bf00      	nop

0001d164 <__gnu_Unwind_Restore_WMMXC>:
   1d164:	fcb0 8101 	ldc2	1, cr8, [r0], #4
   1d168:	fcb0 9101 	ldc2	1, cr9, [r0], #4
   1d16c:	fcb0 a101 	ldc2	1, cr10, [r0], #4
   1d170:	fcb0 b101 	ldc2	1, cr11, [r0], #4
   1d174:	4770      	bx	lr
   1d176:	bf00      	nop

0001d178 <__gnu_Unwind_Save_WMMXC>:
   1d178:	fca0 8101 	stc2	1, cr8, [r0], #4
   1d17c:	fca0 9101 	stc2	1, cr9, [r0], #4
   1d180:	fca0 a101 	stc2	1, cr10, [r0], #4
   1d184:	fca0 b101 	stc2	1, cr11, [r0], #4
   1d188:	4770      	bx	lr
   1d18a:	bf00      	nop

0001d18c <_Unwind_RaiseException>:
   1d18c:	46ec      	mov	ip, sp
   1d18e:	b500      	push	{lr}
   1d190:	e92d 5000 	stmdb	sp!, {ip, lr}
   1d194:	e92d 1fff 	stmdb	sp!, {r0, r1, r2, r3, r4, r5, r6, r7, r8, r9, sl, fp, ip}
   1d198:	f04f 0300 	mov.w	r3, #0
   1d19c:	e92d 000c 	stmdb	sp!, {r2, r3}
   1d1a0:	a901      	add	r1, sp, #4
   1d1a2:	f7ff fbf1 	bl	1c988 <__gnu_Unwind_RaiseException>
   1d1a6:	f8dd e040 	ldr.w	lr, [sp, #64]	; 0x40
   1d1aa:	b012      	add	sp, #72	; 0x48
   1d1ac:	4770      	bx	lr
   1d1ae:	bf00      	nop

0001d1b0 <_Unwind_Resume>:
   1d1b0:	46ec      	mov	ip, sp
   1d1b2:	b500      	push	{lr}
   1d1b4:	e92d 5000 	stmdb	sp!, {ip, lr}
   1d1b8:	e92d 1fff 	stmdb	sp!, {r0, r1, r2, r3, r4, r5, r6, r7, r8, r9, sl, fp, ip}
   1d1bc:	f04f 0300 	mov.w	r3, #0
   1d1c0:	e92d 000c 	stmdb	sp!, {r2, r3}
   1d1c4:	a901      	add	r1, sp, #4
   1d1c6:	f7ff fc19 	bl	1c9fc <__gnu_Unwind_Resume>
   1d1ca:	f8dd e040 	ldr.w	lr, [sp, #64]	; 0x40
   1d1ce:	b012      	add	sp, #72	; 0x48
   1d1d0:	4770      	bx	lr
   1d1d2:	bf00      	nop

0001d1d4 <_Unwind_Resume_or_Rethrow>:
   1d1d4:	46ec      	mov	ip, sp
   1d1d6:	b500      	push	{lr}
   1d1d8:	e92d 5000 	stmdb	sp!, {ip, lr}
   1d1dc:	e92d 1fff 	stmdb	sp!, {r0, r1, r2, r3, r4, r5, r6, r7, r8, r9, sl, fp, ip}
   1d1e0:	f04f 0300 	mov.w	r3, #0
   1d1e4:	e92d 000c 	stmdb	sp!, {r2, r3}
   1d1e8:	a901      	add	r1, sp, #4
   1d1ea:	f7ff fc29 	bl	1ca40 <__gnu_Unwind_Resume_or_Rethrow>
   1d1ee:	f8dd e040 	ldr.w	lr, [sp, #64]	; 0x40
   1d1f2:	b012      	add	sp, #72	; 0x48
   1d1f4:	4770      	bx	lr
   1d1f6:	bf00      	nop

0001d1f8 <_Unwind_ForcedUnwind>:
   1d1f8:	46ec      	mov	ip, sp
   1d1fa:	b500      	push	{lr}
   1d1fc:	e92d 5000 	stmdb	sp!, {ip, lr}
   1d200:	e92d 1fff 	stmdb	sp!, {r0, r1, r2, r3, r4, r5, r6, r7, r8, r9, sl, fp, ip}
   1d204:	f04f 0300 	mov.w	r3, #0
   1d208:	e92d 000c 	stmdb	sp!, {r2, r3}
   1d20c:	ab01      	add	r3, sp, #4
   1d20e:	f7ff fbeb 	bl	1c9e8 <__gnu_Unwind_ForcedUnwind>
   1d212:	f8dd e040 	ldr.w	lr, [sp, #64]	; 0x40
   1d216:	b012      	add	sp, #72	; 0x48
   1d218:	4770      	bx	lr
   1d21a:	bf00      	nop

0001d21c <_Unwind_Backtrace>:
   1d21c:	46ec      	mov	ip, sp
   1d21e:	b500      	push	{lr}
   1d220:	e92d 5000 	stmdb	sp!, {ip, lr}
   1d224:	e92d 1fff 	stmdb	sp!, {r0, r1, r2, r3, r4, r5, r6, r7, r8, r9, sl, fp, ip}
   1d228:	f04f 0300 	mov.w	r3, #0
   1d22c:	e92d 000c 	stmdb	sp!, {r2, r3}
   1d230:	aa01      	add	r2, sp, #4
   1d232:	f7ff fc5d 	bl	1caf0 <__gnu_Unwind_Backtrace>
   1d236:	f8dd e040 	ldr.w	lr, [sp, #64]	; 0x40
   1d23a:	b012      	add	sp, #72	; 0x48
   1d23c:	4770      	bx	lr
   1d23e:	bf00      	nop

0001d240 <next_unwind_byte>:
   1d240:	7a02      	ldrb	r2, [r0, #8]
   1d242:	b97a      	cbnz	r2, 1d264 <next_unwind_byte+0x24>
   1d244:	7a43      	ldrb	r3, [r0, #9]
   1d246:	b1a3      	cbz	r3, 1d272 <next_unwind_byte+0x32>
   1d248:	6842      	ldr	r2, [r0, #4]
   1d24a:	3b01      	subs	r3, #1
   1d24c:	b410      	push	{r4}
   1d24e:	7243      	strb	r3, [r0, #9]
   1d250:	6813      	ldr	r3, [r2, #0]
   1d252:	2103      	movs	r1, #3
   1d254:	1d14      	adds	r4, r2, #4
   1d256:	7201      	strb	r1, [r0, #8]
   1d258:	021a      	lsls	r2, r3, #8
   1d25a:	6044      	str	r4, [r0, #4]
   1d25c:	6002      	str	r2, [r0, #0]
   1d25e:	bc10      	pop	{r4}
   1d260:	0e18      	lsrs	r0, r3, #24
   1d262:	4770      	bx	lr
   1d264:	6803      	ldr	r3, [r0, #0]
   1d266:	3a01      	subs	r2, #1
   1d268:	7202      	strb	r2, [r0, #8]
   1d26a:	021a      	lsls	r2, r3, #8
   1d26c:	6002      	str	r2, [r0, #0]
   1d26e:	0e18      	lsrs	r0, r3, #24
   1d270:	4770      	bx	lr
   1d272:	20b0      	movs	r0, #176	; 0xb0
   1d274:	4770      	bx	lr
   1d276:	bf00      	nop

0001d278 <_Unwind_GetGR.constprop.0>:
   1d278:	b500      	push	{lr}
   1d27a:	b085      	sub	sp, #20
   1d27c:	aa03      	add	r2, sp, #12
   1d27e:	2300      	movs	r3, #0
   1d280:	9200      	str	r2, [sp, #0]
   1d282:	4619      	mov	r1, r3
   1d284:	220c      	movs	r2, #12
   1d286:	f7ff fbeb 	bl	1ca60 <_Unwind_VRS_Get>
   1d28a:	9803      	ldr	r0, [sp, #12]
   1d28c:	b005      	add	sp, #20
   1d28e:	f85d fb04 	ldr.w	pc, [sp], #4
   1d292:	bf00      	nop

0001d294 <unwind_UCB_from_context>:
   1d294:	e7f0      	b.n	1d278 <_Unwind_GetGR.constprop.0>
   1d296:	bf00      	nop

0001d298 <__gnu_unwind_execute>:
   1d298:	e92d 43f0 	stmdb	sp!, {r4, r5, r6, r7, r8, r9, lr}
   1d29c:	4605      	mov	r5, r0
   1d29e:	b085      	sub	sp, #20
   1d2a0:	460e      	mov	r6, r1
   1d2a2:	f04f 0800 	mov.w	r8, #0
   1d2a6:	4630      	mov	r0, r6
   1d2a8:	f7ff ffca 	bl	1d240 <next_unwind_byte>
   1d2ac:	28b0      	cmp	r0, #176	; 0xb0
   1d2ae:	4604      	mov	r4, r0
   1d2b0:	f000 80b2 	beq.w	1d418 <__gnu_unwind_execute+0x180>
   1d2b4:	0607      	lsls	r7, r0, #24
   1d2b6:	d520      	bpl.n	1d2fa <__gnu_unwind_execute+0x62>
   1d2b8:	f000 03f0 	and.w	r3, r0, #240	; 0xf0
   1d2bc:	2b80      	cmp	r3, #128	; 0x80
   1d2be:	d04d      	beq.n	1d35c <__gnu_unwind_execute+0xc4>
   1d2c0:	2b90      	cmp	r3, #144	; 0x90
   1d2c2:	d036      	beq.n	1d332 <__gnu_unwind_execute+0x9a>
   1d2c4:	2ba0      	cmp	r3, #160	; 0xa0
   1d2c6:	d060      	beq.n	1d38a <__gnu_unwind_execute+0xf2>
   1d2c8:	2bb0      	cmp	r3, #176	; 0xb0
   1d2ca:	d074      	beq.n	1d3b6 <__gnu_unwind_execute+0x11e>
   1d2cc:	2bc0      	cmp	r3, #192	; 0xc0
   1d2ce:	f000 808b 	beq.w	1d3e8 <__gnu_unwind_execute+0x150>
   1d2d2:	f000 03f8 	and.w	r3, r0, #248	; 0xf8
   1d2d6:	2bd0      	cmp	r3, #208	; 0xd0
   1d2d8:	d10b      	bne.n	1d2f2 <__gnu_unwind_execute+0x5a>
   1d2da:	f000 0207 	and.w	r2, r0, #7
   1d2de:	3201      	adds	r2, #1
   1d2e0:	f442 2200 	orr.w	r2, r2, #524288	; 0x80000
   1d2e4:	2305      	movs	r3, #5
   1d2e6:	2101      	movs	r1, #1
   1d2e8:	4628      	mov	r0, r5
   1d2ea:	f7ff fd97 	bl	1ce1c <_Unwind_VRS_Pop>
   1d2ee:	2800      	cmp	r0, #0
   1d2f0:	d0d9      	beq.n	1d2a6 <__gnu_unwind_execute+0xe>
   1d2f2:	2009      	movs	r0, #9
   1d2f4:	b005      	add	sp, #20
   1d2f6:	e8bd 83f0 	ldmia.w	sp!, {r4, r5, r6, r7, r8, r9, pc}
   1d2fa:	f10d 090c 	add.w	r9, sp, #12
   1d2fe:	2300      	movs	r3, #0
   1d300:	4619      	mov	r1, r3
   1d302:	0087      	lsls	r7, r0, #2
   1d304:	f8cd 9000 	str.w	r9, [sp]
   1d308:	220d      	movs	r2, #13
   1d30a:	4628      	mov	r0, r5
   1d30c:	f7ff fba8 	bl	1ca60 <_Unwind_VRS_Get>
   1d310:	b2ff      	uxtb	r7, r7
   1d312:	9b03      	ldr	r3, [sp, #12]
   1d314:	f8cd 9000 	str.w	r9, [sp]
   1d318:	3704      	adds	r7, #4
   1d31a:	0660      	lsls	r0, r4, #25
   1d31c:	bf4c      	ite	mi
   1d31e:	1bdf      	submi	r7, r3, r7
   1d320:	18ff      	addpl	r7, r7, r3
   1d322:	2300      	movs	r3, #0
   1d324:	4619      	mov	r1, r3
   1d326:	220d      	movs	r2, #13
   1d328:	4628      	mov	r0, r5
   1d32a:	9703      	str	r7, [sp, #12]
   1d32c:	f7ff fbbc 	bl	1caa8 <_Unwind_VRS_Set>
   1d330:	e7b9      	b.n	1d2a6 <__gnu_unwind_execute+0xe>
   1d332:	f000 030d 	and.w	r3, r0, #13
   1d336:	2b0d      	cmp	r3, #13
   1d338:	d0db      	beq.n	1d2f2 <__gnu_unwind_execute+0x5a>
   1d33a:	af03      	add	r7, sp, #12
   1d33c:	2300      	movs	r3, #0
   1d33e:	f000 020f 	and.w	r2, r0, #15
   1d342:	4619      	mov	r1, r3
   1d344:	9700      	str	r7, [sp, #0]
   1d346:	4628      	mov	r0, r5
   1d348:	f7ff fb8a 	bl	1ca60 <_Unwind_VRS_Get>
   1d34c:	2300      	movs	r3, #0
   1d34e:	9700      	str	r7, [sp, #0]
   1d350:	4619      	mov	r1, r3
   1d352:	220d      	movs	r2, #13
   1d354:	4628      	mov	r0, r5
   1d356:	f7ff fba7 	bl	1caa8 <_Unwind_VRS_Set>
   1d35a:	e7a4      	b.n	1d2a6 <__gnu_unwind_execute+0xe>
   1d35c:	4630      	mov	r0, r6
   1d35e:	f7ff ff6f 	bl	1d240 <next_unwind_byte>
   1d362:	0224      	lsls	r4, r4, #8
   1d364:	4320      	orrs	r0, r4
   1d366:	f5b0 4f00 	cmp.w	r0, #32768	; 0x8000
   1d36a:	d0c2      	beq.n	1d2f2 <__gnu_unwind_execute+0x5a>
   1d36c:	0104      	lsls	r4, r0, #4
   1d36e:	2300      	movs	r3, #0
   1d370:	b2a2      	uxth	r2, r4
   1d372:	4619      	mov	r1, r3
   1d374:	4628      	mov	r0, r5
   1d376:	f7ff fd51 	bl	1ce1c <_Unwind_VRS_Pop>
   1d37a:	2800      	cmp	r0, #0
   1d37c:	d1b9      	bne.n	1d2f2 <__gnu_unwind_execute+0x5a>
   1d37e:	f414 4f00 	tst.w	r4, #32768	; 0x8000
   1d382:	bf18      	it	ne
   1d384:	f04f 0801 	movne.w	r8, #1
   1d388:	e78d      	b.n	1d2a6 <__gnu_unwind_execute+0xe>
   1d38a:	43c2      	mvns	r2, r0
   1d38c:	f002 0307 	and.w	r3, r2, #7
   1d390:	f44f 627f 	mov.w	r2, #4080	; 0xff0
   1d394:	411a      	asrs	r2, r3
   1d396:	0701      	lsls	r1, r0, #28
   1d398:	f402 627f 	and.w	r2, r2, #4080	; 0xff0
   1d39c:	f04f 0300 	mov.w	r3, #0
   1d3a0:	bf48      	it	mi
   1d3a2:	f442 4280 	orrmi.w	r2, r2, #16384	; 0x4000
   1d3a6:	4619      	mov	r1, r3
   1d3a8:	4628      	mov	r0, r5
   1d3aa:	f7ff fd37 	bl	1ce1c <_Unwind_VRS_Pop>
   1d3ae:	2800      	cmp	r0, #0
   1d3b0:	f43f af79 	beq.w	1d2a6 <__gnu_unwind_execute+0xe>
   1d3b4:	e79d      	b.n	1d2f2 <__gnu_unwind_execute+0x5a>
   1d3b6:	28b1      	cmp	r0, #177	; 0xb1
   1d3b8:	d033      	beq.n	1d422 <__gnu_unwind_execute+0x18a>
   1d3ba:	28b2      	cmp	r0, #178	; 0xb2
   1d3bc:	f000 808b 	beq.w	1d4d6 <__gnu_unwind_execute+0x23e>
   1d3c0:	28b3      	cmp	r0, #179	; 0xb3
   1d3c2:	d039      	beq.n	1d438 <__gnu_unwind_execute+0x1a0>
   1d3c4:	f000 03fc 	and.w	r3, r0, #252	; 0xfc
   1d3c8:	2bb4      	cmp	r3, #180	; 0xb4
   1d3ca:	d092      	beq.n	1d2f2 <__gnu_unwind_execute+0x5a>
   1d3cc:	f000 0207 	and.w	r2, r0, #7
   1d3d0:	3201      	adds	r2, #1
   1d3d2:	2301      	movs	r3, #1
   1d3d4:	f442 2200 	orr.w	r2, r2, #524288	; 0x80000
   1d3d8:	4619      	mov	r1, r3
   1d3da:	4628      	mov	r0, r5
   1d3dc:	f7ff fd1e 	bl	1ce1c <_Unwind_VRS_Pop>
   1d3e0:	2800      	cmp	r0, #0
   1d3e2:	f43f af60 	beq.w	1d2a6 <__gnu_unwind_execute+0xe>
   1d3e6:	e784      	b.n	1d2f2 <__gnu_unwind_execute+0x5a>
   1d3e8:	28c6      	cmp	r0, #198	; 0xc6
   1d3ea:	d042      	beq.n	1d472 <__gnu_unwind_execute+0x1da>
   1d3ec:	28c7      	cmp	r0, #199	; 0xc7
   1d3ee:	d04c      	beq.n	1d48a <__gnu_unwind_execute+0x1f2>
   1d3f0:	f000 03f8 	and.w	r3, r0, #248	; 0xf8
   1d3f4:	2bc0      	cmp	r3, #192	; 0xc0
   1d3f6:	d05b      	beq.n	1d4b0 <__gnu_unwind_execute+0x218>
   1d3f8:	28c8      	cmp	r0, #200	; 0xc8
   1d3fa:	d060      	beq.n	1d4be <__gnu_unwind_execute+0x226>
   1d3fc:	28c9      	cmp	r0, #201	; 0xc9
   1d3fe:	f47f af78 	bne.w	1d2f2 <__gnu_unwind_execute+0x5a>
   1d402:	4630      	mov	r0, r6
   1d404:	f7ff ff1c 	bl	1d240 <next_unwind_byte>
   1d408:	0302      	lsls	r2, r0, #12
   1d40a:	f000 000f 	and.w	r0, r0, #15
   1d40e:	f402 2270 	and.w	r2, r2, #983040	; 0xf0000
   1d412:	3001      	adds	r0, #1
   1d414:	4302      	orrs	r2, r0
   1d416:	e765      	b.n	1d2e4 <__gnu_unwind_execute+0x4c>
   1d418:	f1b8 0f00 	cmp.w	r8, #0
   1d41c:	d018      	beq.n	1d450 <__gnu_unwind_execute+0x1b8>
   1d41e:	2000      	movs	r0, #0
   1d420:	e768      	b.n	1d2f4 <__gnu_unwind_execute+0x5c>
   1d422:	4630      	mov	r0, r6
   1d424:	f7ff ff0c 	bl	1d240 <next_unwind_byte>
   1d428:	4602      	mov	r2, r0
   1d42a:	2800      	cmp	r0, #0
   1d42c:	f43f af61 	beq.w	1d2f2 <__gnu_unwind_execute+0x5a>
   1d430:	f010 03f0 	ands.w	r3, r0, #240	; 0xf0
   1d434:	d0d0      	beq.n	1d3d8 <__gnu_unwind_execute+0x140>
   1d436:	e75c      	b.n	1d2f2 <__gnu_unwind_execute+0x5a>
   1d438:	4630      	mov	r0, r6
   1d43a:	f7ff ff01 	bl	1d240 <next_unwind_byte>
   1d43e:	0301      	lsls	r1, r0, #12
   1d440:	f000 000f 	and.w	r0, r0, #15
   1d444:	f401 2170 	and.w	r1, r1, #983040	; 0xf0000
   1d448:	1c42      	adds	r2, r0, #1
   1d44a:	2301      	movs	r3, #1
   1d44c:	430a      	orrs	r2, r1
   1d44e:	e7c3      	b.n	1d3d8 <__gnu_unwind_execute+0x140>
   1d450:	ac03      	add	r4, sp, #12
   1d452:	4643      	mov	r3, r8
   1d454:	220e      	movs	r2, #14
   1d456:	4641      	mov	r1, r8
   1d458:	9400      	str	r4, [sp, #0]
   1d45a:	4628      	mov	r0, r5
   1d45c:	f7ff fb00 	bl	1ca60 <_Unwind_VRS_Get>
   1d460:	9400      	str	r4, [sp, #0]
   1d462:	4628      	mov	r0, r5
   1d464:	4643      	mov	r3, r8
   1d466:	220f      	movs	r2, #15
   1d468:	4641      	mov	r1, r8
   1d46a:	f7ff fb1d 	bl	1caa8 <_Unwind_VRS_Set>
   1d46e:	4640      	mov	r0, r8
   1d470:	e740      	b.n	1d2f4 <__gnu_unwind_execute+0x5c>
   1d472:	4630      	mov	r0, r6
   1d474:	f7ff fee4 	bl	1d240 <next_unwind_byte>
   1d478:	0301      	lsls	r1, r0, #12
   1d47a:	f000 000f 	and.w	r0, r0, #15
   1d47e:	f401 2170 	and.w	r1, r1, #983040	; 0xf0000
   1d482:	1c42      	adds	r2, r0, #1
   1d484:	2303      	movs	r3, #3
   1d486:	430a      	orrs	r2, r1
   1d488:	e7a6      	b.n	1d3d8 <__gnu_unwind_execute+0x140>
   1d48a:	4630      	mov	r0, r6
   1d48c:	f7ff fed8 	bl	1d240 <next_unwind_byte>
   1d490:	4602      	mov	r2, r0
   1d492:	2800      	cmp	r0, #0
   1d494:	f43f af2d 	beq.w	1d2f2 <__gnu_unwind_execute+0x5a>
   1d498:	f010 03f0 	ands.w	r3, r0, #240	; 0xf0
   1d49c:	f47f af29 	bne.w	1d2f2 <__gnu_unwind_execute+0x5a>
   1d4a0:	2104      	movs	r1, #4
   1d4a2:	4628      	mov	r0, r5
   1d4a4:	f7ff fcba 	bl	1ce1c <_Unwind_VRS_Pop>
   1d4a8:	2800      	cmp	r0, #0
   1d4aa:	f43f aefc 	beq.w	1d2a6 <__gnu_unwind_execute+0xe>
   1d4ae:	e720      	b.n	1d2f2 <__gnu_unwind_execute+0x5a>
   1d4b0:	f000 020f 	and.w	r2, r0, #15
   1d4b4:	3201      	adds	r2, #1
   1d4b6:	2303      	movs	r3, #3
   1d4b8:	f442 2220 	orr.w	r2, r2, #655360	; 0xa0000
   1d4bc:	e78c      	b.n	1d3d8 <__gnu_unwind_execute+0x140>
   1d4be:	4630      	mov	r0, r6
   1d4c0:	f7ff febe 	bl	1d240 <next_unwind_byte>
   1d4c4:	f000 02f0 	and.w	r2, r0, #240	; 0xf0
   1d4c8:	f000 030f 	and.w	r3, r0, #15
   1d4cc:	3210      	adds	r2, #16
   1d4ce:	3301      	adds	r3, #1
   1d4d0:	ea43 3202 	orr.w	r2, r3, r2, lsl #12
   1d4d4:	e706      	b.n	1d2e4 <__gnu_unwind_execute+0x4c>
   1d4d6:	2300      	movs	r3, #0
   1d4d8:	f10d 090c 	add.w	r9, sp, #12
   1d4dc:	220d      	movs	r2, #13
   1d4de:	4619      	mov	r1, r3
   1d4e0:	f8cd 9000 	str.w	r9, [sp]
   1d4e4:	4628      	mov	r0, r5
   1d4e6:	f7ff fabb 	bl	1ca60 <_Unwind_VRS_Get>
   1d4ea:	4630      	mov	r0, r6
   1d4ec:	f7ff fea8 	bl	1d240 <next_unwind_byte>
   1d4f0:	0602      	lsls	r2, r0, #24
   1d4f2:	f04f 0702 	mov.w	r7, #2
   1d4f6:	d50c      	bpl.n	1d512 <__gnu_unwind_execute+0x27a>
   1d4f8:	9b03      	ldr	r3, [sp, #12]
   1d4fa:	f000 007f 	and.w	r0, r0, #127	; 0x7f
   1d4fe:	40b8      	lsls	r0, r7
   1d500:	4403      	add	r3, r0
   1d502:	4630      	mov	r0, r6
   1d504:	9303      	str	r3, [sp, #12]
   1d506:	f7ff fe9b 	bl	1d240 <next_unwind_byte>
   1d50a:	0603      	lsls	r3, r0, #24
   1d50c:	f107 0707 	add.w	r7, r7, #7
   1d510:	d4f2      	bmi.n	1d4f8 <__gnu_unwind_execute+0x260>
   1d512:	9b03      	ldr	r3, [sp, #12]
   1d514:	f8cd 9000 	str.w	r9, [sp]
   1d518:	f000 047f 	and.w	r4, r0, #127	; 0x7f
   1d51c:	f503 7201 	add.w	r2, r3, #516	; 0x204
   1d520:	40bc      	lsls	r4, r7
   1d522:	2300      	movs	r3, #0
   1d524:	4414      	add	r4, r2
   1d526:	4619      	mov	r1, r3
   1d528:	220d      	movs	r2, #13
   1d52a:	4628      	mov	r0, r5
   1d52c:	9403      	str	r4, [sp, #12]
   1d52e:	f7ff fabb 	bl	1caa8 <_Unwind_VRS_Set>
   1d532:	e6b8      	b.n	1d2a6 <__gnu_unwind_execute+0xe>

0001d534 <__gnu_unwind_frame>:
   1d534:	b510      	push	{r4, lr}
   1d536:	6cc2      	ldr	r2, [r0, #76]	; 0x4c
   1d538:	b084      	sub	sp, #16
   1d53a:	6853      	ldr	r3, [r2, #4]
   1d53c:	2403      	movs	r4, #3
   1d53e:	f88d 400c 	strb.w	r4, [sp, #12]
   1d542:	021b      	lsls	r3, r3, #8
   1d544:	f102 0408 	add.w	r4, r2, #8
   1d548:	4608      	mov	r0, r1
   1d54a:	79d2      	ldrb	r2, [r2, #7]
   1d54c:	9301      	str	r3, [sp, #4]
   1d54e:	a901      	add	r1, sp, #4
   1d550:	9402      	str	r4, [sp, #8]
   1d552:	f88d 200d 	strb.w	r2, [sp, #13]
   1d556:	f7ff fe9f 	bl	1d298 <__gnu_unwind_execute>
   1d55a:	b004      	add	sp, #16
   1d55c:	bd10      	pop	{r4, pc}
   1d55e:	bf00      	nop

0001d560 <_Unwind_GetRegionStart>:
   1d560:	b508      	push	{r3, lr}
   1d562:	f7ff fe97 	bl	1d294 <unwind_UCB_from_context>
   1d566:	6c80      	ldr	r0, [r0, #72]	; 0x48
   1d568:	bd08      	pop	{r3, pc}
   1d56a:	bf00      	nop

0001d56c <_Unwind_GetLanguageSpecificData>:
   1d56c:	b508      	push	{r3, lr}
   1d56e:	f7ff fe91 	bl	1d294 <unwind_UCB_from_context>
   1d572:	6cc0      	ldr	r0, [r0, #76]	; 0x4c
   1d574:	79c3      	ldrb	r3, [r0, #7]
   1d576:	3302      	adds	r3, #2
   1d578:	eb00 0083 	add.w	r0, r0, r3, lsl #2
   1d57c:	bd08      	pop	{r3, pc}
   1d57e:	bf00      	nop

0001d580 <abort>:
   1d580:	b508      	push	{r3, lr}
   1d582:	2006      	movs	r0, #6
   1d584:	f000 f82c 	bl	1d5e0 <raise>
   1d588:	2001      	movs	r0, #1
   1d58a:	f7ff f885 	bl	1c698 <_exit>

0001d58e <_raise_r>:
   1d58e:	291f      	cmp	r1, #31
   1d590:	b538      	push	{r3, r4, r5, lr}
   1d592:	4604      	mov	r4, r0
   1d594:	460d      	mov	r5, r1
   1d596:	d904      	bls.n	1d5a2 <_raise_r+0x14>
   1d598:	2316      	movs	r3, #22
   1d59a:	6003      	str	r3, [r0, #0]
   1d59c:	f04f 30ff 	mov.w	r0, #4294967295	; 0xffffffff
   1d5a0:	bd38      	pop	{r3, r4, r5, pc}
   1d5a2:	6c42      	ldr	r2, [r0, #68]	; 0x44
   1d5a4:	b112      	cbz	r2, 1d5ac <_raise_r+0x1e>
   1d5a6:	f852 3021 	ldr.w	r3, [r2, r1, lsl #2]
   1d5aa:	b94b      	cbnz	r3, 1d5c0 <_raise_r+0x32>
   1d5ac:	4620      	mov	r0, r4
   1d5ae:	f000 f831 	bl	1d614 <_getpid_r>
   1d5b2:	462a      	mov	r2, r5
   1d5b4:	4601      	mov	r1, r0
   1d5b6:	4620      	mov	r0, r4
   1d5b8:	e8bd 4038 	ldmia.w	sp!, {r3, r4, r5, lr}
   1d5bc:	f000 b818 	b.w	1d5f0 <_kill_r>
   1d5c0:	2b01      	cmp	r3, #1
   1d5c2:	d00a      	beq.n	1d5da <_raise_r+0x4c>
   1d5c4:	1c59      	adds	r1, r3, #1
   1d5c6:	d103      	bne.n	1d5d0 <_raise_r+0x42>
   1d5c8:	2316      	movs	r3, #22
   1d5ca:	6003      	str	r3, [r0, #0]
   1d5cc:	2001      	movs	r0, #1
   1d5ce:	e7e7      	b.n	1d5a0 <_raise_r+0x12>
   1d5d0:	2400      	movs	r4, #0
   1d5d2:	f842 4025 	str.w	r4, [r2, r5, lsl #2]
   1d5d6:	4628      	mov	r0, r5
   1d5d8:	4798      	blx	r3
   1d5da:	2000      	movs	r0, #0
   1d5dc:	e7e0      	b.n	1d5a0 <_raise_r+0x12>
	...

0001d5e0 <raise>:
   1d5e0:	4b02      	ldr	r3, [pc, #8]	; (1d5ec <raise+0xc>)
   1d5e2:	4601      	mov	r1, r0
   1d5e4:	6818      	ldr	r0, [r3, #0]
   1d5e6:	f7ff bfd2 	b.w	1d58e <_raise_r>
   1d5ea:	bf00      	nop
   1d5ec:	20001144 	.word	0x20001144

0001d5f0 <_kill_r>:
   1d5f0:	b538      	push	{r3, r4, r5, lr}
   1d5f2:	4d07      	ldr	r5, [pc, #28]	; (1d610 <_kill_r+0x20>)
   1d5f4:	2300      	movs	r3, #0
   1d5f6:	4604      	mov	r4, r0
   1d5f8:	4608      	mov	r0, r1
   1d5fa:	4611      	mov	r1, r2
   1d5fc:	602b      	str	r3, [r5, #0]
   1d5fe:	f000 f813 	bl	1d628 <_kill>
   1d602:	1c43      	adds	r3, r0, #1
   1d604:	d102      	bne.n	1d60c <_kill_r+0x1c>
   1d606:	682b      	ldr	r3, [r5, #0]
   1d608:	b103      	cbz	r3, 1d60c <_kill_r+0x1c>
   1d60a:	6023      	str	r3, [r4, #0]
   1d60c:	bd38      	pop	{r3, r4, r5, pc}
   1d60e:	bf00      	nop
   1d610:	20001654 	.word	0x20001654

0001d614 <_getpid_r>:
   1d614:	f000 b800 	b.w	1d618 <_getpid>

0001d618 <_getpid>:
   1d618:	4b02      	ldr	r3, [pc, #8]	; (1d624 <_getpid+0xc>)
   1d61a:	2258      	movs	r2, #88	; 0x58
   1d61c:	601a      	str	r2, [r3, #0]
   1d61e:	f04f 30ff 	mov.w	r0, #4294967295	; 0xffffffff
   1d622:	4770      	bx	lr
   1d624:	20001654 	.word	0x20001654

0001d628 <_kill>:
   1d628:	4b02      	ldr	r3, [pc, #8]	; (1d634 <_kill+0xc>)
   1d62a:	2258      	movs	r2, #88	; 0x58
   1d62c:	601a      	str	r2, [r3, #0]
   1d62e:	f04f 30ff 	mov.w	r0, #4294967295	; 0xffffffff
   1d632:	4770      	bx	lr
   1d634:	20001654 	.word	0x20001654

0001d638 <_init>:
   1d638:	b5f8      	push	{r3, r4, r5, r6, r7, lr}
   1d63a:	bf00      	nop
   1d63c:	bcf8      	pop	{r3, r4, r5, r6, r7}
   1d63e:	bc08      	pop	{r3}
   1d640:	469e      	mov	lr, r3
   1d642:	4770      	bx	lr

0001d644 <_fini>:
   1d644:	b5f8      	push	{r3, r4, r5, r6, r7, lr}
   1d646:	bf00      	nop
   1d648:	bcf8      	pop	{r3, r4, r5, r6, r7}
   1d64a:	bc08      	pop	{r3}
   1d64c:	469e      	mov	lr, r3
   1d64e:	4770      	bx	lr
   1d650:	00060001 	.word	0x00060001

0001d654 <m_app_timer_sortlist>:
   1d654:	00000000 200011d4 00019379              ....... y...

0001d660 <delay_machine_code.6859>:
   1d660:	d8fd3807 00004770                       .8..pG..

0001d668 <pwr_mgmt_data>:
   1d668:	0001dac0 0001dac0 00000004 77617209     .............raw
   1d678:	6425203a 2020090a 25203a46 2e643230     : %d..  F: %02d.
   1d688:	000a6425 5b7d477b 3a732520 3a206425     %d..{G}[ %s:%d :
   1d698:	2073253a 7d577b5d 0000000a 64616572     :%s ]{W}....read
   1d6a8:	00000000 542f2e2e 65706d65 75746172     ....../Temperatu
   1d6b8:	682e6572 00007070 33256325 75252e64     re.hpp..%c%3d.%u
   1d6c8:	00000000 412f2e2e 72657664 69736974     ....../Advertisi
   1d6d8:	682e676e 00007070 61647075 00006574     ng.hpp..update..
   1d6e8:	7d437b09 7664615b 69747265 676e6973     .{C}[advertising
   1d6f8:	63617020 5d74656b 0a7d577b 00000000      packet]{W}.....
   1d708:	6e656c09 3225203a 74202075 3a657079     .len: %2u  type:
   1d718:	32302520 64202078 3a617461 00000020      %02x  data: ...
   1d728:	732a2e25 00000020 58323025 58323025     %.*s ...%02X%02X
   1d738:	00000020 7d2f527b 20646572 7d7c477b      ...{R/}red {G|}
   1d748:	65657267 427b206e 6c627d2f 7b206575     green {B/}blue {
   1d758:	797d7c59 6f6c6c65 4d7b2077 616d7d2f     Y|}yellow {M/}ma
   1d768:	746e6567 437b2061 79637d7c 7b206e61     genta {C|}cyan {
   1d778:	68777d57 0a657469 00000000 38335b1b     W}white......[38
   1d788:	303b323b 303b303b 0000006d 38335b1b     ;2;0;0;0m....[38
   1d798:	323b323b 303b3535 006d303b 38335b1b     ;2;255;0;0m..[38
   1d7a8:	303b323b 3535323b 006d303b 38335b1b     ;2;0;255;0m..[38
   1d7b8:	323b323b 323b3535 303b3535 0000006d     ;2;255;255;0m...
   1d7c8:	38335b1b 303b323b 323b303b 006d3535     .[38;2;0;0;255m.
   1d7d8:	38335b1b 323b323b 303b3535 3535323b     .[38;2;255;0;255
   1d7e8:	0000006d 38335b1b 303b323b 3533313b     m....[38;2;0;135
   1d7f8:	3531323b 0000006d 38335b1b 323b323b     ;215m....[38;2;2
   1d808:	323b3535 323b3535 006d3535 38335b1b     55;255;255m..[38
   1d818:	323b323b 313b3535 303b3035 0000006d     ;2;255;150;0m...
   1d828:	4a325b1b 00000000 3b315b1b 00004831     .[2J.....[1;1H..
   1d838:	6d335b1b 00000000 6d305b1b 00000000     .[3m.....[0m....
   1d848:	6d345b1b 00000000 38345b1b 303b323b     .[4m.....[48;2;0
   1d858:	303b303b 0000006d 38345b1b 323b323b     ;0;0m....[48;2;2
   1d868:	303b3535 006d303b 38345b1b 303b323b     55;0;0m..[48;2;0
   1d878:	3535323b 006d303b 38345b1b 323b323b     ;255;0m..[48;2;2
   1d888:	323b3535 303b3535 0000006d 38345b1b     55;255;0m....[48
   1d898:	303b323b 323b303b 006d3535 38345b1b     ;2;0;0;255m..[48
   1d8a8:	323b323b 303b3535 3535323b 0000006d     ;2;255;0;255m...
   1d8b8:	38345b1b 303b323b 3533313b 3531323b     .[48;2;0;135;215
   1d8c8:	0000006d 38345b1b 323b323b 323b3535     m....[48;2;255;2
   1d8d8:	323b3535 006d3535 38345b1b 323b323b     55;255m..[48;2;2
   1d8e8:	313b3535 303b3035 0000006d              55;150;0m...

0001d8f4 <SD_TX_LEVELS>:
   1d8f4:	f0ecd800 00fcf8f4 00000403              ............

0001d900 <nrfx_coredep_delay_us::delay_machine_code>:
   1d900:	d8fd3807 00004770                       .8..pG..

0001d908 <codes>:
   1d908:	0000004b 0001d784 0000000d 00000052     K...........R...
   1d918:	0001d794 0000000f 00000047 0001d7a4     ........G.......
   1d928:	0000000f 00000059 0001d7b4 00000011     ....Y...........
   1d938:	00000042 0001d7c8 0000000f 0000004d     B...........M...
   1d948:	0001d7d8 00000011 00000043 0001d7ec     ........C.......
   1d958:	00000011 00000057 0001d800 00000013     ....W...........
   1d968:	0000004f 0001d814 00000011 00000021     O...........!...
   1d978:	0001d828 00000004 00000048 0001d830     (.......H...0...
   1d988:	00000006 0000002f 0001d838 00000004     ..../...8.......
   1d998:	0000007c 0001d840 00000004 0000005f     |...@......._...
   1d9a8:	0001d848 00000004 0000006b 0001d850     H.......k...P...
   1d9b8:	0000000d 00000072 0001d860 0000000f     ....r...`.......
   1d9c8:	00000067 0001d870 0000000f 00000079     g...p.......y...
   1d9d8:	0001d880 00000011 00000062 0001d894     ........b.......
   1d9e8:	0000000f 0000006d 0001d8a4 00000011     ....m...........
   1d9f8:	00000063 0001d8b8 00000011 00000077     c...........w...
   1da08:	0001d8cc 00000013 0000006f 0001d8e0     ........o.......
   1da18:	00000011 6d726554 6c616e69 00000000     ....Terminal....
   1da28:	00545452 47474553 00005245 01021000     RTT.SEGGER......

0001da38 <sdh_req_observers>:
   1da38:	0001dad8 0001dad8 00000008              ............

0001da44 <sdh_stack_observers>:
   1da44:	0001dac8 0001dad8 00000008              ............

0001da50 <sdh_state_observers>:
   1da50:	0001dac0 0001dac8 00000008              ............

0001da5c <sdh_ble_observers>:
   1da5c:	0001dab8 0001dac0 00000008              ............

0001da68 <sdh_soc_observers>:
   1da68:	0001dab0 0001dab8 00000008              ............

0001da74 <_global_impure_ptr>:
   1da74:	20001148 2b302d23 6c680020 6665004c     H.. #-0+ .hlL.ef
   1da84:	47464567 32313000 36353433 41393837     gEFG.0123456789A
   1da94:	45444342 31300046 35343332 39383736     BCDEF.0123456789
   1daa4:	64636261 00006665                       abcdef..

0001daac <__EH_FRAME_BEGIN__>:
   1daac:	00000000                                ....
