
_build/nrf52810_xxaa.out:     file format elf32-littlearm


Disassembly of section .text:

00019000 <__isr_vector>:
   19000:	20006000 	.word	0x20006000
   19004:	000192bd 	.word	0x000192bd
   19008:	00019311 	.word	0x00019311
   1900c:	00019313 	.word	0x00019313
   19010:	00019315 	.word	0x00019315
   19014:	00019317 	.word	0x00019317
   19018:	00019319 	.word	0x00019319
	...
   1902c:	0001931b 	.word	0x0001931b
   19030:	0001931d 	.word	0x0001931d
   19034:	00000000 	.word	0x00000000
   19038:	0001931f 	.word	0x0001931f
   1903c:	00019321 	.word	0x00019321
   19040:	00019e69 	.word	0x00019e69
   19044:	00019323 	.word	0x00019323
   19048:	00019323 	.word	0x00019323
   1904c:	00019323 	.word	0x00019323
   19050:	00019323 	.word	0x00019323
   19054:	00000000 	.word	0x00000000
   19058:	00019f05 	.word	0x00019f05
   1905c:	00019323 	.word	0x00019323
   19060:	00019323 	.word	0x00019323
   19064:	00019323 	.word	0x00019323
   19068:	00019323 	.word	0x00019323
   1906c:	00019323 	.word	0x00019323
   19070:	00019323 	.word	0x00019323
   19074:	00019323 	.word	0x00019323
   19078:	00019323 	.word	0x00019323
   1907c:	00019323 	.word	0x00019323
   19080:	00019323 	.word	0x00019323
   19084:	00019981 	.word	0x00019981
   19088:	00019323 	.word	0x00019323
   1908c:	00019323 	.word	0x00019323
   19090:	00019323 	.word	0x00019323
   19094:	00019323 	.word	0x00019323
   19098:	0001b92d 	.word	0x0001b92d
   1909c:	00019323 	.word	0x00019323
   190a0:	00019323 	.word	0x00019323
   190a4:	00019323 	.word	0x00019323
	...
   190b0:	00019323 	.word	0x00019323
   190b4:	00019323 	.word	0x00019323
	...

00019200 <__do_global_dtors_aux>:
   19200:	b510      	push	{r4, lr}
   19202:	4c05      	ldr	r4, [pc, #20]	; (19218 <__do_global_dtors_aux+0x18>)
   19204:	7823      	ldrb	r3, [r4, #0]
   19206:	b933      	cbnz	r3, 19216 <__do_global_dtors_aux+0x16>
   19208:	4b04      	ldr	r3, [pc, #16]	; (1921c <__do_global_dtors_aux+0x1c>)
   1920a:	b113      	cbz	r3, 19212 <__do_global_dtors_aux+0x12>
   1920c:	4804      	ldr	r0, [pc, #16]	; (19220 <__do_global_dtors_aux+0x20>)
   1920e:	f3af 8000 	nop.w
   19212:	2301      	movs	r3, #1
   19214:	7023      	strb	r3, [r4, #0]
   19216:	bd10      	pop	{r4, pc}
   19218:	200011b8 	.word	0x200011b8
   1921c:	00000000 	.word	0x00000000
   19220:	0001d7d4 	.word	0x0001d7d4

00019224 <frame_dummy>:
   19224:	b508      	push	{r3, lr}
   19226:	4b03      	ldr	r3, [pc, #12]	; (19234 <frame_dummy+0x10>)
   19228:	b11b      	cbz	r3, 19232 <frame_dummy+0xe>
   1922a:	4903      	ldr	r1, [pc, #12]	; (19238 <frame_dummy+0x14>)
   1922c:	4803      	ldr	r0, [pc, #12]	; (1923c <frame_dummy+0x18>)
   1922e:	f3af 8000 	nop.w
   19232:	bd08      	pop	{r3, pc}
   19234:	00000000 	.word	0x00000000
   19238:	200011bc 	.word	0x200011bc
   1923c:	0001d7d4 	.word	0x0001d7d4

00019240 <_stack_init>:
   19240:	f5a3 3a80 	sub.w	sl, r3, #65536	; 0x10000
   19244:	4770      	bx	lr
   19246:	bf00      	nop

00019248 <_mainCRTStartup>:
   19248:	4b17      	ldr	r3, [pc, #92]	; (192a8 <_mainCRTStartup+0x60>)
   1924a:	2b00      	cmp	r3, #0
   1924c:	bf08      	it	eq
   1924e:	4b13      	ldreq	r3, [pc, #76]	; (1929c <_mainCRTStartup+0x54>)
   19250:	469d      	mov	sp, r3
   19252:	f7ff fff5 	bl	19240 <_stack_init>
   19256:	2100      	movs	r1, #0
   19258:	468b      	mov	fp, r1
   1925a:	460f      	mov	r7, r1
   1925c:	4813      	ldr	r0, [pc, #76]	; (192ac <_mainCRTStartup+0x64>)
   1925e:	4a14      	ldr	r2, [pc, #80]	; (192b0 <_mainCRTStartup+0x68>)
   19260:	1a12      	subs	r2, r2, r0
   19262:	f002 fc59 	bl	1bb18 <memset>
   19266:	4b0e      	ldr	r3, [pc, #56]	; (192a0 <_mainCRTStartup+0x58>)
   19268:	2b00      	cmp	r3, #0
   1926a:	d000      	beq.n	1926e <_mainCRTStartup+0x26>
   1926c:	4798      	blx	r3
   1926e:	4b0d      	ldr	r3, [pc, #52]	; (192a4 <_mainCRTStartup+0x5c>)
   19270:	2b00      	cmp	r3, #0
   19272:	d000      	beq.n	19276 <_mainCRTStartup+0x2e>
   19274:	4798      	blx	r3
   19276:	2000      	movs	r0, #0
   19278:	2100      	movs	r1, #0
   1927a:	0004      	movs	r4, r0
   1927c:	000d      	movs	r5, r1
   1927e:	480d      	ldr	r0, [pc, #52]	; (192b4 <_mainCRTStartup+0x6c>)
   19280:	2800      	cmp	r0, #0
   19282:	d002      	beq.n	1928a <_mainCRTStartup+0x42>
   19284:	480c      	ldr	r0, [pc, #48]	; (192b8 <_mainCRTStartup+0x70>)
   19286:	f3af 8000 	nop.w
   1928a:	f002 fc13 	bl	1bab4 <__libc_init_array>
   1928e:	0020      	movs	r0, r4
   19290:	0029      	movs	r1, r5
   19292:	f002 f8fd 	bl	1b490 <main>
   19296:	f002 fbf9 	bl	1ba8c <exit>
   1929a:	bf00      	nop
   1929c:	00080000 	.word	0x00080000
	...
   192a8:	20006000 	.word	0x20006000
   192ac:	200011b8 	.word	0x200011b8
   192b0:	2000165c 	.word	0x2000165c
	...

000192bc <Reset_Handler>:
   192bc:	480e      	ldr	r0, [pc, #56]	; (192f8 <skip+0x1a>)
   192be:	6800      	ldr	r0, [r0, #0]
   192c0:	490e      	ldr	r1, [pc, #56]	; (192fc <skip+0x1e>)
   192c2:	6809      	ldr	r1, [r1, #0]
   192c4:	280a      	cmp	r0, #10
   192c6:	d10a      	bne.n	192de <skip>
   192c8:	2900      	cmp	r1, #0
   192ca:	d108      	bne.n	192de <skip>
   192cc:	480c      	ldr	r0, [pc, #48]	; (19300 <skip+0x22>)
   192ce:	6802      	ldr	r2, [r0, #0]
   192d0:	f06f 0370 	mvn.w	r3, #112	; 0x70
   192d4:	401a      	ands	r2, r3
   192d6:	f04f 0340 	mov.w	r3, #64	; 0x40
   192da:	431a      	orrs	r2, r3
   192dc:	6002      	str	r2, [r0, #0]

000192de <skip>:
   192de:	4909      	ldr	r1, [pc, #36]	; (19304 <skip+0x26>)
   192e0:	4a09      	ldr	r2, [pc, #36]	; (19308 <skip+0x2a>)
   192e2:	4b0a      	ldr	r3, [pc, #40]	; (1930c <skip+0x2e>)
   192e4:	1a9b      	subs	r3, r3, r2
   192e6:	dd03      	ble.n	192f0 <skip+0x12>
   192e8:	3b04      	subs	r3, #4
   192ea:	58c8      	ldr	r0, [r1, r3]
   192ec:	50d0      	str	r0, [r2, r3]
   192ee:	dcfb      	bgt.n	192e8 <skip+0xa>
   192f0:	f000 fc38 	bl	19b64 <SystemInit>
   192f4:	f7ff ffa8 	bl	19248 <_mainCRTStartup>
   192f8:	10000130 	.word	0x10000130
   192fc:	10000134 	.word	0x10000134
   19300:	40000ee4 	.word	0x40000ee4
   19304:	0001da10 	.word	0x0001da10
   19308:	20001118 	.word	0x20001118
   1930c:	200011b8 	.word	0x200011b8

00019310 <NMI_Handler>:
   19310:	e7fe      	b.n	19310 <NMI_Handler>

00019312 <HardFault_Handler>:
   19312:	e7fe      	b.n	19312 <HardFault_Handler>

00019314 <MemoryManagement_Handler>:
   19314:	e7fe      	b.n	19314 <MemoryManagement_Handler>

00019316 <BusFault_Handler>:
   19316:	e7fe      	b.n	19316 <BusFault_Handler>

00019318 <UsageFault_Handler>:
   19318:	e7fe      	b.n	19318 <UsageFault_Handler>

0001931a <SVC_Handler>:
   1931a:	e7fe      	b.n	1931a <SVC_Handler>

0001931c <DebugMon_Handler>:
   1931c:	e7fe      	b.n	1931c <DebugMon_Handler>

0001931e <PendSV_Handler>:
   1931e:	e7fe      	b.n	1931e <PendSV_Handler>

00019320 <SysTick_Handler>:
   19320:	e7fe      	b.n	19320 <SysTick_Handler>

00019322 <Default_Handler>:
   19322:	e7fe      	b.n	19322 <Default_Handler>

00019324 <app_error_handler_bare>:
   19324:	b51f      	push	{r0, r1, r2, r3, r4, lr}
   19326:	2100      	movs	r1, #0
   19328:	9003      	str	r0, [sp, #12]
   1932a:	aa01      	add	r2, sp, #4
   1932c:	f244 0001 	movw	r0, #16385	; 0x4001
   19330:	e9cd 1101 	strd	r1, r1, [sp, #4]
   19334:	f000 f804 	bl	19340 <app_error_fault_handler>
   19338:	b005      	add	sp, #20
   1933a:	f85d fb04 	ldr.w	pc, [sp], #4
	...

00019340 <app_error_fault_handler>:
   19340:	b672      	cpsid	i
   19342:	4b09      	ldr	r3, [pc, #36]	; (19368 <app_error_fault_handler+0x28>)
   19344:	681b      	ldr	r3, [r3, #0]
   19346:	07db      	lsls	r3, r3, #31
   19348:	d500      	bpl.n	1934c <app_error_fault_handler+0xc>
   1934a:	be00      	bkpt	0x0000
   1934c:	f3bf 8f4f 	dsb	sy
   19350:	4906      	ldr	r1, [pc, #24]	; (1936c <app_error_fault_handler+0x2c>)
   19352:	4b07      	ldr	r3, [pc, #28]	; (19370 <app_error_fault_handler+0x30>)
   19354:	68ca      	ldr	r2, [r1, #12]
   19356:	f402 62e0 	and.w	r2, r2, #1792	; 0x700
   1935a:	4313      	orrs	r3, r2
   1935c:	60cb      	str	r3, [r1, #12]
   1935e:	f3bf 8f4f 	dsb	sy
   19362:	bf00      	nop
   19364:	e7fd      	b.n	19362 <app_error_fault_handler+0x22>
   19366:	bf00      	nop
   19368:	e000edf0 	.word	0xe000edf0
   1936c:	e000ed00 	.word	0xe000ed00
   19370:	05fa0004 	.word	0x05fa0004

00019374 <compare_func>:
   19374:	e9d0 2302 	ldrd	r2, r3, [r0, #8]
   19378:	e9d1 0102 	ldrd	r0, r1, [r1, #8]
   1937c:	4299      	cmp	r1, r3
   1937e:	bf08      	it	eq
   19380:	4290      	cmpeq	r0, r2
   19382:	bf2c      	ite	cs
   19384:	2001      	movcs	r0, #1
   19386:	2000      	movcc	r0, #0
   19388:	4770      	bx	lr
	...

0001938c <get_now>:
   1938c:	b508      	push	{r3, lr}
   1938e:	480b      	ldr	r0, [pc, #44]	; (193bc <get_now+0x30>)
   19390:	f000 fae1 	bl	19956 <drv_rtc_counter_get>
   19394:	4b0a      	ldr	r3, [pc, #40]	; (193c0 <get_now+0x34>)
   19396:	490b      	ldr	r1, [pc, #44]	; (193c4 <get_now+0x38>)
   19398:	e9d3 2300 	ldrd	r2, r3, [r3]
   1939c:	1812      	adds	r2, r2, r0
   1939e:	e9d1 0100 	ldrd	r0, r1, [r1]
   193a2:	f143 0300 	adc.w	r3, r3, #0
   193a6:	428b      	cmp	r3, r1
   193a8:	bf08      	it	eq
   193aa:	4282      	cmpeq	r2, r0
   193ac:	d203      	bcs.n	193b6 <get_now+0x2a>
   193ae:	f112 7280 	adds.w	r2, r2, #16777216	; 0x1000000
   193b2:	f143 0300 	adc.w	r3, r3, #0
   193b6:	4610      	mov	r0, r2
   193b8:	4619      	mov	r1, r3
   193ba:	bd08      	pop	{r3, pc}
   193bc:	20001118 	.word	0x20001118
   193c0:	200011d8 	.word	0x200011d8
   193c4:	20001250 	.word	0x20001250

000193c8 <timer_req_schedule>:
   193c8:	b537      	push	{r0, r1, r2, r4, r5, lr}
   193ca:	4605      	mov	r5, r0
   193cc:	460c      	mov	r4, r1
   193ce:	480a      	ldr	r0, [pc, #40]	; (193f8 <timer_req_schedule+0x30>)
   193d0:	a901      	add	r1, sp, #4
   193d2:	f000 faf2 	bl	199ba <nrf_atfifo_item_alloc>
   193d6:	b160      	cbz	r0, 193f2 <timer_req_schedule+0x2a>
   193d8:	7005      	strb	r5, [r0, #0]
   193da:	6044      	str	r4, [r0, #4]
   193dc:	a901      	add	r1, sp, #4
   193de:	4806      	ldr	r0, [pc, #24]	; (193f8 <timer_req_schedule+0x30>)
   193e0:	f000 fb15 	bl	19a0e <nrf_atfifo_item_put>
   193e4:	b118      	cbz	r0, 193ee <timer_req_schedule+0x26>
   193e6:	4805      	ldr	r0, [pc, #20]	; (193fc <timer_req_schedule+0x34>)
   193e8:	f000 faba 	bl	19960 <drv_rtc_irq_trigger>
   193ec:	2000      	movs	r0, #0
   193ee:	b003      	add	sp, #12
   193f0:	bd30      	pop	{r4, r5, pc}
   193f2:	2004      	movs	r0, #4
   193f4:	e7fb      	b.n	193ee <timer_req_schedule+0x26>
   193f6:	bf00      	nop
   193f8:	2000123c 	.word	0x2000123c
   193fc:	20001118 	.word	0x20001118

00019400 <timer_expire>:
   19400:	b538      	push	{r3, r4, r5, lr}
   19402:	4b18      	ldr	r3, [pc, #96]	; (19464 <timer_expire+0x64>)
   19404:	781b      	ldrb	r3, [r3, #0]
   19406:	4604      	mov	r4, r0
   19408:	b913      	cbnz	r3, 19410 <timer_expire+0x10>
   1940a:	2500      	movs	r5, #0
   1940c:	4628      	mov	r0, r5
   1940e:	bd38      	pop	{r3, r4, r5, pc}
   19410:	2800      	cmp	r0, #0
   19412:	d0fa      	beq.n	1940a <timer_expire+0xa>
   19414:	7f03      	ldrb	r3, [r0, #28]
   19416:	f003 05ff 	and.w	r5, r3, #255	; 0xff
   1941a:	2b00      	cmp	r3, #0
   1941c:	d0f5      	beq.n	1940a <timer_expire+0xa>
   1941e:	f7ff ffb5 	bl	1938c <get_now>
   19422:	e9d4 2302 	ldrd	r2, r3, [r4, #8]
   19426:	4299      	cmp	r1, r3
   19428:	bf08      	it	eq
   1942a:	4290      	cmpeq	r0, r2
   1942c:	d314      	bcc.n	19458 <timer_expire+0x58>
   1942e:	6923      	ldr	r3, [r4, #16]
   19430:	b903      	cbnz	r3, 19434 <timer_expire+0x34>
   19432:	7723      	strb	r3, [r4, #28]
   19434:	e9d4 3005 	ldrd	r3, r0, [r4, #20]
   19438:	4798      	blx	r3
   1943a:	6921      	ldr	r1, [r4, #16]
   1943c:	2900      	cmp	r1, #0
   1943e:	d0e4      	beq.n	1940a <timer_expire+0xa>
   19440:	7f23      	ldrb	r3, [r4, #28]
   19442:	f003 05ff 	and.w	r5, r3, #255	; 0xff
   19446:	2b00      	cmp	r3, #0
   19448:	d0df      	beq.n	1940a <timer_expire+0xa>
   1944a:	e9d4 2302 	ldrd	r2, r3, [r4, #8]
   1944e:	1852      	adds	r2, r2, r1
   19450:	f143 0300 	adc.w	r3, r3, #0
   19454:	e9c4 2302 	strd	r2, r3, [r4, #8]
   19458:	4803      	ldr	r0, [pc, #12]	; (19468 <timer_expire+0x68>)
   1945a:	4621      	mov	r1, r4
   1945c:	f000 fb5b 	bl	19b16 <nrf_sortlist_add>
   19460:	e7d4      	b.n	1940c <timer_expire+0xc>
   19462:	bf00      	nop
   19464:	200011e0 	.word	0x200011e0
   19468:	0001d424 	.word	0x0001d424

0001946c <app_timer_init>:
   1946c:	b513      	push	{r0, r1, r4, lr}
   1946e:	4b11      	ldr	r3, [pc, #68]	; (194b4 <app_timer_init+0x48>)
   19470:	4911      	ldr	r1, [pc, #68]	; (194b8 <app_timer_init+0x4c>)
   19472:	6818      	ldr	r0, [r3, #0]
   19474:	9001      	str	r0, [sp, #4]
   19476:	2308      	movs	r3, #8
   19478:	4810      	ldr	r0, [pc, #64]	; (194bc <app_timer_init+0x50>)
   1947a:	2258      	movs	r2, #88	; 0x58
   1947c:	f000 fa8a 	bl	19994 <nrf_atfifo_init>
   19480:	4604      	mov	r4, r0
   19482:	b998      	cbnz	r0, 194ac <app_timer_init+0x40>
   19484:	4a0e      	ldr	r2, [pc, #56]	; (194c0 <app_timer_init+0x54>)
   19486:	480f      	ldr	r0, [pc, #60]	; (194c4 <app_timer_init+0x58>)
   19488:	a901      	add	r1, sp, #4
   1948a:	f000 f95f 	bl	1974c <drv_rtc_init>
   1948e:	4604      	mov	r4, r0
   19490:	b960      	cbnz	r0, 194ac <app_timer_init+0x40>
   19492:	480c      	ldr	r0, [pc, #48]	; (194c4 <app_timer_init+0x58>)
   19494:	2101      	movs	r1, #1
   19496:	f000 fa3f 	bl	19918 <drv_rtc_overflow_enable>
   1949a:	2301      	movs	r3, #1
   1949c:	4a0a      	ldr	r2, [pc, #40]	; (194c8 <app_timer_init+0x5c>)
   1949e:	4809      	ldr	r0, [pc, #36]	; (194c4 <app_timer_init+0x58>)
   194a0:	4619      	mov	r1, r3
   194a2:	f000 f99b 	bl	197dc <drv_rtc_compare_set>
   194a6:	4b09      	ldr	r3, [pc, #36]	; (194cc <app_timer_init+0x60>)
   194a8:	2201      	movs	r2, #1
   194aa:	701a      	strb	r2, [r3, #0]
   194ac:	4620      	mov	r0, r4
   194ae:	b002      	add	sp, #8
   194b0:	bd10      	pop	{r4, pc}
   194b2:	bf00      	nop
   194b4:	0001d420 	.word	0x0001d420
   194b8:	200011e4 	.word	0x200011e4
   194bc:	2000123c 	.word	0x2000123c
   194c0:	00019525 	.word	0x00019525
   194c4:	20001118 	.word	0x20001118
   194c8:	007fffff 	.word	0x007fffff
   194cc:	200011e0 	.word	0x200011e0

000194d0 <app_timer_create>:
   194d0:	b13a      	cbz	r2, 194e2 <app_timer_create+0x12>
   194d2:	6803      	ldr	r3, [r0, #0]
   194d4:	615a      	str	r2, [r3, #20]
   194d6:	1e4a      	subs	r2, r1, #1
   194d8:	4251      	negs	r1, r2
   194da:	4151      	adcs	r1, r2
   194dc:	6119      	str	r1, [r3, #16]
   194de:	2000      	movs	r0, #0
   194e0:	4770      	bx	lr
   194e2:	2007      	movs	r0, #7
   194e4:	4770      	bx	lr

000194e6 <app_timer_start>:
   194e6:	b538      	push	{r3, r4, r5, lr}
   194e8:	7f03      	ldrb	r3, [r0, #28]
   194ea:	4604      	mov	r4, r0
   194ec:	460d      	mov	r5, r1
   194ee:	b983      	cbnz	r3, 19512 <app_timer_start+0x2c>
   194f0:	6182      	str	r2, [r0, #24]
   194f2:	f7ff ff4b 	bl	1938c <get_now>
   194f6:	6923      	ldr	r3, [r4, #16]
   194f8:	1940      	adds	r0, r0, r5
   194fa:	f141 0100 	adc.w	r1, r1, #0
   194fe:	e9c4 0102 	strd	r0, r1, [r4, #8]
   19502:	b103      	cbz	r3, 19506 <app_timer_start+0x20>
   19504:	6125      	str	r5, [r4, #16]
   19506:	4621      	mov	r1, r4
   19508:	2000      	movs	r0, #0
   1950a:	e8bd 4038 	ldmia.w	sp!, {r3, r4, r5, lr}
   1950e:	f7ff bf5b 	b.w	193c8 <timer_req_schedule>
   19512:	2000      	movs	r0, #0
   19514:	bd38      	pop	{r3, r4, r5, pc}
	...

00019518 <app_timer_cnt_get>:
   19518:	4801      	ldr	r0, [pc, #4]	; (19520 <app_timer_cnt_get+0x8>)
   1951a:	f000 ba1c 	b.w	19956 <drv_rtc_counter_get>
   1951e:	bf00      	nop
   19520:	20001118 	.word	0x20001118

00019524 <rtc_irq>:
   19524:	e92d 4ff0 	stmdb	sp!, {r4, r5, r6, r7, r8, r9, sl, fp, lr}
   19528:	b085      	sub	sp, #20
   1952a:	4680      	mov	r8, r0
   1952c:	f000 f9fd 	bl	1992a <drv_rtc_overflow_pending>
   19530:	b140      	cbz	r0, 19544 <rtc_irq+0x20>
   19532:	4a5b      	ldr	r2, [pc, #364]	; (196a0 <rtc_irq+0x17c>)
   19534:	e9d2 3100 	ldrd	r3, r1, [r2]
   19538:	f113 7380 	adds.w	r3, r3, #16777216	; 0x1000000
   1953c:	f141 0100 	adc.w	r1, r1, #0
   19540:	e9c2 3100 	strd	r3, r1, [r2]
   19544:	2100      	movs	r1, #0
   19546:	4640      	mov	r0, r8
   19548:	f000 f9ff 	bl	1994a <drv_rtc_compare_pending>
   1954c:	b138      	cbz	r0, 1955e <rtc_irq+0x3a>
   1954e:	4e55      	ldr	r6, [pc, #340]	; (196a4 <rtc_irq+0x180>)
   19550:	6833      	ldr	r3, [r6, #0]
   19552:	b123      	cbz	r3, 1955e <rtc_irq+0x3a>
   19554:	6830      	ldr	r0, [r6, #0]
   19556:	f7ff ff53 	bl	19400 <timer_expire>
   1955a:	2300      	movs	r3, #0
   1955c:	6033      	str	r3, [r6, #0]
   1955e:	2101      	movs	r1, #1
   19560:	4640      	mov	r0, r8
   19562:	f000 f9f2 	bl	1994a <drv_rtc_compare_pending>
   19566:	b120      	cbz	r0, 19572 <rtc_irq+0x4e>
   19568:	f7ff ff10 	bl	1938c <get_now>
   1956c:	4b4e      	ldr	r3, [pc, #312]	; (196a8 <rtc_irq+0x184>)
   1956e:	e9c3 0100 	strd	r0, r1, [r3]
   19572:	484e      	ldr	r0, [pc, #312]	; (196ac <rtc_irq+0x188>)
   19574:	4f4b      	ldr	r7, [pc, #300]	; (196a4 <rtc_irq+0x180>)
   19576:	4e4e      	ldr	r6, [pc, #312]	; (196b0 <rtc_irq+0x18c>)
   19578:	f8df 913c 	ldr.w	r9, [pc, #316]	; 196b8 <rtc_irq+0x194>
   1957c:	a903      	add	r1, sp, #12
   1957e:	f000 fa56 	bl	19a2e <nrf_atfifo_item_get>
   19582:	2800      	cmp	r0, #0
   19584:	d145      	bne.n	19612 <rtc_irq+0xee>
   19586:	f8df 9128 	ldr.w	r9, [pc, #296]	; 196b0 <rtc_irq+0x18c>
   1958a:	4e46      	ldr	r6, [pc, #280]	; (196a4 <rtc_irq+0x180>)
   1958c:	f8df a12c 	ldr.w	sl, [pc, #300]	; 196bc <rtc_irq+0x198>
   19590:	4648      	mov	r0, r9
   19592:	f000 fad6 	bl	19b42 <nrf_sortlist_peek>
   19596:	6833      	ldr	r3, [r6, #0]
   19598:	2800      	cmp	r0, #0
   1959a:	d076      	beq.n	1968a <rtc_irq+0x166>
   1959c:	b17b      	cbz	r3, 195be <rtc_irq+0x9a>
   1959e:	6833      	ldr	r3, [r6, #0]
   195a0:	e9d0 0102 	ldrd	r0, r1, [r0, #8]
   195a4:	e9d3 2302 	ldrd	r2, r3, [r3, #8]
   195a8:	4299      	cmp	r1, r3
   195aa:	bf08      	it	eq
   195ac:	4290      	cmpeq	r0, r2
   195ae:	d22d      	bcs.n	1960c <rtc_irq+0xe8>
   195b0:	6833      	ldr	r3, [r6, #0]
   195b2:	7f1b      	ldrb	r3, [r3, #28]
   195b4:	b11b      	cbz	r3, 195be <rtc_irq+0x9a>
   195b6:	6831      	ldr	r1, [r6, #0]
   195b8:	4648      	mov	r0, r9
   195ba:	f000 faac 	bl	19b16 <nrf_sortlist_add>
   195be:	4648      	mov	r0, r9
   195c0:	f000 fab9 	bl	19b36 <nrf_sortlist_pop>
   195c4:	e9d0 b302 	ldrd	fp, r3, [r0, #8]
   195c8:	4607      	mov	r7, r0
   195ca:	9301      	str	r3, [sp, #4]
   195cc:	f7ff fede 	bl	1938c <get_now>
   195d0:	9b01      	ldr	r3, [sp, #4]
   195d2:	ebbb 0400 	subs.w	r4, fp, r0
   195d6:	eb63 0501 	sbc.w	r5, r3, r1
   195da:	2c01      	cmp	r4, #1
   195dc:	f175 0300 	sbcs.w	r3, r5, #0
   195e0:	db46      	blt.n	19670 <rtc_irq+0x14c>
   195e2:	f5b4 0f35 	cmp.w	r4, #11862016	; 0xb50000
   195e6:	d341      	bcc.n	1966c <rtc_irq+0x148>
   195e8:	f7ff ff96 	bl	19518 <app_timer_cnt_get>
   195ec:	4a31      	ldr	r2, [pc, #196]	; (196b4 <rtc_irq+0x190>)
   195ee:	4402      	add	r2, r0
   195f0:	f44f 0396 	mov.w	r3, #4915200	; 0x4b0000
   195f4:	2100      	movs	r1, #0
   195f6:	4650      	mov	r0, sl
   195f8:	f000 f914 	bl	19824 <drv_rtc_windowed_compare_set>
   195fc:	2800      	cmp	r0, #0
   195fe:	d13f      	bne.n	19680 <rtc_irq+0x15c>
   19600:	6833      	ldr	r3, [r6, #0]
   19602:	b913      	cbnz	r3, 1960a <rtc_irq+0xe6>
   19604:	4640      	mov	r0, r8
   19606:	f000 f8e1 	bl	197cc <drv_rtc_start>
   1960a:	6037      	str	r7, [r6, #0]
   1960c:	b005      	add	sp, #20
   1960e:	e8bd 8ff0 	ldmia.w	sp!, {r4, r5, r6, r7, r8, r9, sl, fp, pc}
   19612:	7803      	ldrb	r3, [r0, #0]
   19614:	2b01      	cmp	r3, #1
   19616:	d01e      	beq.n	19656 <rtc_irq+0x132>
   19618:	2b02      	cmp	r3, #2
   1961a:	d109      	bne.n	19630 <rtc_irq+0x10c>
   1961c:	f04f 0a00 	mov.w	sl, #0
   19620:	4630      	mov	r0, r6
   19622:	f000 fa88 	bl	19b36 <nrf_sortlist_pop>
   19626:	2800      	cmp	r0, #0
   19628:	d035      	beq.n	19696 <rtc_irq+0x172>
   1962a:	f880 a01c 	strb.w	sl, [r0, #28]
   1962e:	e7f7      	b.n	19620 <rtc_irq+0xfc>
   19630:	b943      	cbnz	r3, 19644 <rtc_irq+0x120>
   19632:	6843      	ldr	r3, [r0, #4]
   19634:	7f1a      	ldrb	r2, [r3, #28]
   19636:	b92a      	cbnz	r2, 19644 <rtc_irq+0x120>
   19638:	2201      	movs	r2, #1
   1963a:	771a      	strb	r2, [r3, #28]
   1963c:	6841      	ldr	r1, [r0, #4]
   1963e:	4630      	mov	r0, r6
   19640:	f000 fa69 	bl	19b16 <nrf_sortlist_add>
   19644:	a903      	add	r1, sp, #12
   19646:	4819      	ldr	r0, [pc, #100]	; (196ac <rtc_irq+0x188>)
   19648:	f000 fa1c 	bl	19a84 <nrf_atfifo_item_free>
   1964c:	a903      	add	r1, sp, #12
   1964e:	4817      	ldr	r0, [pc, #92]	; (196ac <rtc_irq+0x188>)
   19650:	f000 f9ed 	bl	19a2e <nrf_atfifo_item_get>
   19654:	e795      	b.n	19582 <rtc_irq+0x5e>
   19656:	6841      	ldr	r1, [r0, #4]
   19658:	683b      	ldr	r3, [r7, #0]
   1965a:	4299      	cmp	r1, r3
   1965c:	d102      	bne.n	19664 <rtc_irq+0x140>
   1965e:	2300      	movs	r3, #0
   19660:	603b      	str	r3, [r7, #0]
   19662:	e7ef      	b.n	19644 <rtc_irq+0x120>
   19664:	4630      	mov	r0, r6
   19666:	f000 fa6f 	bl	19b48 <nrf_sortlist_remove>
   1966a:	e7eb      	b.n	19644 <rtc_irq+0x120>
   1966c:	68ba      	ldr	r2, [r7, #8]
   1966e:	e7bf      	b.n	195f0 <rtc_irq+0xcc>
   19670:	2100      	movs	r1, #0
   19672:	4650      	mov	r0, sl
   19674:	f000 f95e 	bl	19934 <drv_rtc_compare_disable>
   19678:	4638      	mov	r0, r7
   1967a:	f7ff fec1 	bl	19400 <timer_expire>
   1967e:	e001      	b.n	19684 <rtc_irq+0x160>
   19680:	280d      	cmp	r0, #13
   19682:	d0f9      	beq.n	19678 <rtc_irq+0x154>
   19684:	2300      	movs	r3, #0
   19686:	6033      	str	r3, [r6, #0]
   19688:	e782      	b.n	19590 <rtc_irq+0x6c>
   1968a:	2b00      	cmp	r3, #0
   1968c:	d1be      	bne.n	1960c <rtc_irq+0xe8>
   1968e:	4640      	mov	r0, r8
   19690:	f000 f8a0 	bl	197d4 <drv_rtc_stop>
   19694:	e7ba      	b.n	1960c <rtc_irq+0xe8>
   19696:	2301      	movs	r3, #1
   19698:	f889 3000 	strb.w	r3, [r9]
   1969c:	e7d2      	b.n	19644 <rtc_irq+0x120>
   1969e:	bf00      	nop
   196a0:	200011d8 	.word	0x200011d8
   196a4:	20001258 	.word	0x20001258
   196a8:	20001250 	.word	0x20001250
   196ac:	2000123c 	.word	0x2000123c
   196b0:	0001d424 	.word	0x0001d424
   196b4:	00b4ffff 	.word	0x00b4ffff
   196b8:	200011e0 	.word	0x200011e0
   196bc:	20001118 	.word	0x20001118

000196c0 <app_util_critical_region_enter>:
   196c0:	b570      	push	{r4, r5, r6, lr}
   196c2:	f3ef 8610 	mrs	r6, PRIMASK
   196c6:	b672      	cpsid	i
   196c8:	4a0c      	ldr	r2, [pc, #48]	; (196fc <app_util_critical_region_enter+0x3c>)
   196ca:	6894      	ldr	r4, [r2, #8]
   196cc:	2301      	movs	r3, #1
   196ce:	b99c      	cbnz	r4, 196f8 <app_util_critical_region_enter+0x38>
   196d0:	6093      	str	r3, [r2, #8]
   196d2:	4b0b      	ldr	r3, [pc, #44]	; (19700 <app_util_critical_region_enter+0x40>)
   196d4:	4d0b      	ldr	r5, [pc, #44]	; (19704 <app_util_critical_region_enter+0x44>)
   196d6:	f8d3 1080 	ldr.w	r1, [r3, #128]	; 0x80
   196da:	4029      	ands	r1, r5
   196dc:	6011      	str	r1, [r2, #0]
   196de:	f8c3 5080 	str.w	r5, [r3, #128]	; 0x80
   196e2:	f8d3 1084 	ldr.w	r1, [r3, #132]	; 0x84
   196e6:	6051      	str	r1, [r2, #4]
   196e8:	f04f 32ff 	mov.w	r2, #4294967295	; 0xffffffff
   196ec:	f8c3 2084 	str.w	r2, [r3, #132]	; 0x84
   196f0:	7004      	strb	r4, [r0, #0]
   196f2:	b906      	cbnz	r6, 196f6 <app_util_critical_region_enter+0x36>
   196f4:	b662      	cpsie	i
   196f6:	bd70      	pop	{r4, r5, r6, pc}
   196f8:	7003      	strb	r3, [r0, #0]
   196fa:	e7fa      	b.n	196f2 <app_util_critical_region_enter+0x32>
   196fc:	200015c8 	.word	0x200015c8
   19700:	e000e100 	.word	0xe000e100
   19704:	bdff06fc 	.word	0xbdff06fc

00019708 <app_util_critical_region_exit>:
   19708:	b510      	push	{r4, lr}
   1970a:	4b08      	ldr	r3, [pc, #32]	; (1972c <app_util_critical_region_exit+0x24>)
   1970c:	689a      	ldr	r2, [r3, #8]
   1970e:	b15a      	cbz	r2, 19728 <app_util_critical_region_exit+0x20>
   19710:	b950      	cbnz	r0, 19728 <app_util_critical_region_exit+0x20>
   19712:	f3ef 8110 	mrs	r1, PRIMASK
   19716:	b672      	cpsid	i
   19718:	4a05      	ldr	r2, [pc, #20]	; (19730 <app_util_critical_region_exit+0x28>)
   1971a:	681c      	ldr	r4, [r3, #0]
   1971c:	6014      	str	r4, [r2, #0]
   1971e:	685c      	ldr	r4, [r3, #4]
   19720:	6054      	str	r4, [r2, #4]
   19722:	6098      	str	r0, [r3, #8]
   19724:	b901      	cbnz	r1, 19728 <app_util_critical_region_exit+0x20>
   19726:	b662      	cpsie	i
   19728:	bd10      	pop	{r4, pc}
   1972a:	bf00      	nop
   1972c:	200015c8 	.word	0x200015c8
   19730:	e000e100 	.word	0xe000e100

00019734 <evt_pending.isra.0>:
   19734:	4603      	mov	r3, r0
   19736:	5840      	ldr	r0, [r0, r1]
   19738:	b082      	sub	sp, #8
   1973a:	b128      	cbz	r0, 19748 <evt_pending.isra.0+0x14>
   1973c:	2200      	movs	r2, #0
   1973e:	505a      	str	r2, [r3, r1]
   19740:	585b      	ldr	r3, [r3, r1]
   19742:	9301      	str	r3, [sp, #4]
   19744:	9b01      	ldr	r3, [sp, #4]
   19746:	2001      	movs	r0, #1
   19748:	b002      	add	sp, #8
   1974a:	4770      	bx	lr

0001974c <drv_rtc_init>:
   1974c:	b530      	push	{r4, r5, lr}
   1974e:	4c1b      	ldr	r4, [pc, #108]	; (197bc <drv_rtc_init+0x70>)
   19750:	7943      	ldrb	r3, [r0, #5]
   19752:	f844 2023 	str.w	r2, [r4, r3, lsl #2]
   19756:	4c1a      	ldr	r4, [pc, #104]	; (197c0 <drv_rtc_init+0x74>)
   19758:	eb04 03c3 	add.w	r3, r4, r3, lsl #3
   1975c:	791b      	ldrb	r3, [r3, #4]
   1975e:	bb53      	cbnz	r3, 197b6 <drv_rtc_init+0x6a>
   19760:	6803      	ldr	r3, [r0, #0]
   19762:	880a      	ldrh	r2, [r1, #0]
   19764:	f8c3 2508 	str.w	r2, [r3, #1288]	; 0x508
   19768:	f990 3004 	ldrsb.w	r3, [r0, #4]
   1976c:	788a      	ldrb	r2, [r1, #2]
   1976e:	2b00      	cmp	r3, #0
   19770:	ea4f 1242 	mov.w	r2, r2, lsl #5
   19774:	bfaf      	iteee	ge
   19776:	f103 4360 	addge.w	r3, r3, #3758096384	; 0xe0000000
   1977a:	4912      	ldrlt	r1, [pc, #72]	; (197c4 <drv_rtc_init+0x78>)
   1977c:	f003 030f 	andlt.w	r3, r3, #15
   19780:	b2d2      	uxtblt	r2, r2
   19782:	bfa9      	itett	ge
   19784:	f503 4361 	addge.w	r3, r3, #57600	; 0xe100
   19788:	54ca      	strblt	r2, [r1, r3]
   1978a:	b2d2      	uxtbge	r2, r2
   1978c:	f883 2300 	strbge.w	r2, [r3, #768]	; 0x300
   19790:	f990 3004 	ldrsb.w	r3, [r0, #4]
   19794:	490c      	ldr	r1, [pc, #48]	; (197c8 <drv_rtc_init+0x7c>)
   19796:	095d      	lsrs	r5, r3, #5
   19798:	2201      	movs	r2, #1
   1979a:	f003 031f 	and.w	r3, r3, #31
   1979e:	fa02 f303 	lsl.w	r3, r2, r3
   197a2:	f841 3025 	str.w	r3, [r1, r5, lsl #2]
   197a6:	7943      	ldrb	r3, [r0, #5]
   197a8:	eb04 01c3 	add.w	r1, r4, r3, lsl #3
   197ac:	f844 0033 	str.w	r0, [r4, r3, lsl #3]
   197b0:	710a      	strb	r2, [r1, #4]
   197b2:	2000      	movs	r0, #0
   197b4:	bd30      	pop	{r4, r5, pc}
   197b6:	2008      	movs	r0, #8
   197b8:	e7fc      	b.n	197b4 <drv_rtc_init+0x68>
   197ba:	bf00      	nop
   197bc:	20001264 	.word	0x20001264
   197c0:	2000125c 	.word	0x2000125c
   197c4:	e000ed14 	.word	0xe000ed14
   197c8:	e000e100 	.word	0xe000e100

000197cc <drv_rtc_start>:
   197cc:	6803      	ldr	r3, [r0, #0]
   197ce:	2201      	movs	r2, #1
   197d0:	601a      	str	r2, [r3, #0]
   197d2:	4770      	bx	lr

000197d4 <drv_rtc_stop>:
   197d4:	6803      	ldr	r3, [r0, #0]
   197d6:	2201      	movs	r2, #1
   197d8:	605a      	str	r2, [r3, #4]
   197da:	4770      	bx	lr

000197dc <drv_rtc_compare_set>:
   197dc:	b5f7      	push	{r0, r1, r2, r4, r5, r6, r7, lr}
   197de:	6804      	ldr	r4, [r0, #0]
   197e0:	f44f 3580 	mov.w	r5, #65536	; 0x10000
   197e4:	408d      	lsls	r5, r1
   197e6:	f8c4 5308 	str.w	r5, [r4, #776]	; 0x308
   197ea:	6804      	ldr	r4, [r0, #0]
   197ec:	f8c4 5348 	str.w	r5, [r4, #840]	; 0x348
   197f0:	f101 0450 	add.w	r4, r1, #80	; 0x50
   197f4:	00a4      	lsls	r4, r4, #2
   197f6:	6806      	ldr	r6, [r0, #0]
   197f8:	b2a4      	uxth	r4, r4
   197fa:	2700      	movs	r7, #0
   197fc:	5137      	str	r7, [r6, r4]
   197fe:	5934      	ldr	r4, [r6, r4]
   19800:	9401      	str	r4, [sp, #4]
   19802:	9c01      	ldr	r4, [sp, #4]
   19804:	6804      	ldr	r4, [r0, #0]
   19806:	f501 71a8 	add.w	r1, r1, #336	; 0x150
   1980a:	f022 427f 	bic.w	r2, r2, #4278190080	; 0xff000000
   1980e:	f844 2021 	str.w	r2, [r4, r1, lsl #2]
   19812:	6802      	ldr	r2, [r0, #0]
   19814:	f8c2 5344 	str.w	r5, [r2, #836]	; 0x344
   19818:	b113      	cbz	r3, 19820 <drv_rtc_compare_set+0x44>
   1981a:	6803      	ldr	r3, [r0, #0]
   1981c:	f8c3 5304 	str.w	r5, [r3, #772]	; 0x304
   19820:	b003      	add	sp, #12
   19822:	bdf0      	pop	{r4, r5, r6, r7, pc}

00019824 <drv_rtc_windowed_compare_set>:
   19824:	e92d 47f3 	stmdb	sp!, {r0, r1, r4, r5, r6, r7, r8, r9, sl, lr}
   19828:	4699      	mov	r9, r3
   1982a:	f44f 3880 	mov.w	r8, #65536	; 0x10000
   1982e:	6803      	ldr	r3, [r0, #0]
   19830:	fa08 f801 	lsl.w	r8, r8, r1
   19834:	f8c3 8348 	str.w	r8, [r3, #840]	; 0x348
   19838:	6803      	ldr	r3, [r0, #0]
   1983a:	f8c3 8308 	str.w	r8, [r3, #776]	; 0x308
   1983e:	f022 457f 	bic.w	r5, r2, #4278190080	; 0xff000000
   19842:	6802      	ldr	r2, [r0, #0]
   19844:	460e      	mov	r6, r1
   19846:	f8d2 1504 	ldr.w	r1, [r2, #1284]	; 0x504
   1984a:	eb02 0286 	add.w	r2, r2, r6, lsl #2
   1984e:	f106 0750 	add.w	r7, r6, #80	; 0x50
   19852:	f8d2 3540 	ldr.w	r3, [r2, #1344]	; 0x540
   19856:	f8c2 1540 	str.w	r1, [r2, #1344]	; 0x540
   1985a:	00bf      	lsls	r7, r7, #2
   1985c:	6802      	ldr	r2, [r0, #0]
   1985e:	b2bf      	uxth	r7, r7
   19860:	f04f 0a00 	mov.w	sl, #0
   19864:	f842 a007 	str.w	sl, [r2, r7]
   19868:	1a5b      	subs	r3, r3, r1
   1986a:	59d2      	ldr	r2, [r2, r7]
   1986c:	9200      	str	r2, [sp, #0]
   1986e:	f023 437f 	bic.w	r3, r3, #4278190080	; 0xff000000
   19872:	2b01      	cmp	r3, #1
   19874:	9a00      	ldr	r2, [sp, #0]
   19876:	4604      	mov	r4, r0
   19878:	d10b      	bne.n	19892 <drv_rtc_windowed_compare_set+0x6e>
   1987a:	4b26      	ldr	r3, [pc, #152]	; (19914 <drv_rtc_windowed_compare_set+0xf0>)
   1987c:	f44f 6080 	mov.w	r0, #1024	; 0x400
   19880:	f043 0301 	orr.w	r3, r3, #1
   19884:	4798      	blx	r3
   19886:	6823      	ldr	r3, [r4, #0]
   19888:	f843 a007 	str.w	sl, [r3, r7]
   1988c:	59db      	ldr	r3, [r3, r7]
   1988e:	9301      	str	r3, [sp, #4]
   19890:	9b01      	ldr	r3, [sp, #4]
   19892:	6823      	ldr	r3, [r4, #0]
   19894:	f8d3 7504 	ldr.w	r7, [r3, #1284]	; 0x504
   19898:	f8c3 8344 	str.w	r8, [r3, #836]	; 0x344
   1989c:	1beb      	subs	r3, r5, r7
   1989e:	f023 437f 	bic.w	r3, r3, #4278190080	; 0xff000000
   198a2:	2b01      	cmp	r3, #1
   198a4:	f506 76a8 	add.w	r6, r6, #336	; 0x150
   198a8:	6823      	ldr	r3, [r4, #0]
   198aa:	d119      	bne.n	198e0 <drv_rtc_windowed_compare_set+0xbc>
   198ac:	3501      	adds	r5, #1
   198ae:	f843 5026 	str.w	r5, [r3, r6, lsl #2]
   198b2:	4b18      	ldr	r3, [pc, #96]	; (19914 <drv_rtc_windowed_compare_set+0xf0>)
   198b4:	f44f 6080 	mov.w	r0, #1024	; 0x400
   198b8:	f043 0301 	orr.w	r3, r3, #1
   198bc:	4798      	blx	r3
   198be:	6823      	ldr	r3, [r4, #0]
   198c0:	f8d3 3504 	ldr.w	r3, [r3, #1284]	; 0x504
   198c4:	429f      	cmp	r7, r3
   198c6:	d109      	bne.n	198dc <drv_rtc_windowed_compare_set+0xb8>
   198c8:	6823      	ldr	r3, [r4, #0]
   198ca:	f8c3 8344 	str.w	r8, [r3, #836]	; 0x344
   198ce:	6823      	ldr	r3, [r4, #0]
   198d0:	2000      	movs	r0, #0
   198d2:	f8c3 8304 	str.w	r8, [r3, #772]	; 0x304
   198d6:	b002      	add	sp, #8
   198d8:	e8bd 87f0 	ldmia.w	sp!, {r4, r5, r6, r7, r8, r9, sl, pc}
   198dc:	200d      	movs	r0, #13
   198de:	e7fa      	b.n	198d6 <drv_rtc_windowed_compare_set+0xb2>
   198e0:	f843 5026 	str.w	r5, [r3, r6, lsl #2]
   198e4:	6820      	ldr	r0, [r4, #0]
   198e6:	f8d0 1504 	ldr.w	r1, [r0, #1284]	; 0x504
   198ea:	1a6a      	subs	r2, r5, r1
   198ec:	3a01      	subs	r2, #1
   198ee:	f1c9 13ff 	rsb	r3, r9, #16711935	; 0xff00ff
   198f2:	f022 427f 	bic.w	r2, r2, #4278190080	; 0xff000000
   198f6:	f503 437f 	add.w	r3, r3, #65280	; 0xff00
   198fa:	4293      	cmp	r3, r2
   198fc:	d3ee      	bcc.n	198dc <drv_rtc_windowed_compare_set+0xb8>
   198fe:	2a00      	cmp	r2, #0
   19900:	d1e2      	bne.n	198c8 <drv_rtc_windowed_compare_set+0xa4>
   19902:	3501      	adds	r5, #1
   19904:	f840 5026 	str.w	r5, [r0, r6, lsl #2]
   19908:	6823      	ldr	r3, [r4, #0]
   1990a:	f8d3 3504 	ldr.w	r3, [r3, #1284]	; 0x504
   1990e:	4299      	cmp	r1, r3
   19910:	e7d9      	b.n	198c6 <drv_rtc_windowed_compare_set+0xa2>
   19912:	bf00      	nop
   19914:	0001d430 	.word	0x0001d430

00019918 <drv_rtc_overflow_enable>:
   19918:	6802      	ldr	r2, [r0, #0]
   1991a:	2302      	movs	r3, #2
   1991c:	f8c2 3344 	str.w	r3, [r2, #836]	; 0x344
   19920:	b111      	cbz	r1, 19928 <drv_rtc_overflow_enable+0x10>
   19922:	6802      	ldr	r2, [r0, #0]
   19924:	f8c2 3304 	str.w	r3, [r2, #772]	; 0x304
   19928:	4770      	bx	lr

0001992a <drv_rtc_overflow_pending>:
   1992a:	6800      	ldr	r0, [r0, #0]
   1992c:	f44f 7182 	mov.w	r1, #260	; 0x104
   19930:	f7ff bf00 	b.w	19734 <evt_pending.isra.0>

00019934 <drv_rtc_compare_disable>:
   19934:	f44f 3380 	mov.w	r3, #65536	; 0x10000
   19938:	fa03 f101 	lsl.w	r1, r3, r1
   1993c:	6803      	ldr	r3, [r0, #0]
   1993e:	f8c3 1348 	str.w	r1, [r3, #840]	; 0x348
   19942:	6803      	ldr	r3, [r0, #0]
   19944:	f8c3 1308 	str.w	r1, [r3, #776]	; 0x308
   19948:	4770      	bx	lr

0001994a <drv_rtc_compare_pending>:
   1994a:	3150      	adds	r1, #80	; 0x50
   1994c:	0089      	lsls	r1, r1, #2
   1994e:	6800      	ldr	r0, [r0, #0]
   19950:	b289      	uxth	r1, r1
   19952:	f7ff beef 	b.w	19734 <evt_pending.isra.0>

00019956 <drv_rtc_counter_get>:
   19956:	6803      	ldr	r3, [r0, #0]
   19958:	f8d3 0504 	ldr.w	r0, [r3, #1284]	; 0x504
   1995c:	4770      	bx	lr
	...

00019960 <drv_rtc_irq_trigger>:
   19960:	f990 3004 	ldrsb.w	r3, [r0, #4]
   19964:	2101      	movs	r1, #1
   19966:	095a      	lsrs	r2, r3, #5
   19968:	f003 031f 	and.w	r3, r3, #31
   1996c:	fa01 f303 	lsl.w	r3, r1, r3
   19970:	3240      	adds	r2, #64	; 0x40
   19972:	4902      	ldr	r1, [pc, #8]	; (1997c <drv_rtc_irq_trigger+0x1c>)
   19974:	f841 3022 	str.w	r3, [r1, r2, lsl #2]
   19978:	4770      	bx	lr
   1997a:	bf00      	nop
   1997c:	e000e100 	.word	0xe000e100

00019980 <RTC1_IRQHandler>:
   19980:	4b02      	ldr	r3, [pc, #8]	; (1998c <RTC1_IRQHandler+0xc>)
   19982:	4a03      	ldr	r2, [pc, #12]	; (19990 <RTC1_IRQHandler+0x10>)
   19984:	681b      	ldr	r3, [r3, #0]
   19986:	6810      	ldr	r0, [r2, #0]
   19988:	4718      	bx	r3
   1998a:	bf00      	nop
   1998c:	20001264 	.word	0x20001264
   19990:	2000125c 	.word	0x2000125c

00019994 <nrf_atfifo_init>:
   19994:	b530      	push	{r4, r5, lr}
   19996:	4605      	mov	r5, r0
   19998:	b159      	cbz	r1, 199b2 <nrf_atfifo_init+0x1e>
   1999a:	fbb2 f4f3 	udiv	r4, r2, r3
   1999e:	fb03 2414 	mls	r4, r3, r4, r2
   199a2:	b2a0      	uxth	r0, r4
   199a4:	b938      	cbnz	r0, 199b6 <nrf_atfifo_init+0x22>
   199a6:	e9c5 1000 	strd	r1, r0, [r5]
   199aa:	60a8      	str	r0, [r5, #8]
   199ac:	81aa      	strh	r2, [r5, #12]
   199ae:	81eb      	strh	r3, [r5, #14]
   199b0:	bd30      	pop	{r4, r5, pc}
   199b2:	200e      	movs	r0, #14
   199b4:	e7fc      	b.n	199b0 <nrf_atfifo_init+0x1c>
   199b6:	2009      	movs	r0, #9
   199b8:	e7fa      	b.n	199b0 <nrf_atfifo_init+0x1c>

000199ba <nrf_atfifo_item_alloc>:
   199ba:	b537      	push	{r0, r1, r2, r4, r5, lr}
   199bc:	e850 3f01 	ldrex	r3, [r0, #4]
   199c0:	b29d      	uxth	r5, r3
   199c2:	89c4      	ldrh	r4, [r0, #14]
   199c4:	4425      	add	r5, r4
   199c6:	8984      	ldrh	r4, [r0, #12]
   199c8:	42a5      	cmp	r5, r4
   199ca:	bf28      	it	cs
   199cc:	1b2d      	subcs	r5, r5, r4
   199ce:	8904      	ldrh	r4, [r0, #8]
   199d0:	42a5      	cmp	r5, r4
   199d2:	bf02      	ittt	eq
   199d4:	f3bf 8f2f 	clrexeq
   199d8:	2200      	moveq	r2, #0
   199da:	e007      	beq.n	199ec <nrf_atfifo_item_alloc+0x32>
   199dc:	eac5 0503 	pkhbt	r5, r5, r3
   199e0:	e840 5401 	strex	r4, r5, [r0, #4]
   199e4:	2c00      	cmp	r4, #0
   199e6:	d1e9      	bne.n	199bc <nrf_atfifo_item_alloc+0x2>
   199e8:	f04f 0201 	mov.w	r2, #1
   199ec:	f88d 2003 	strb.w	r2, [sp, #3]
   199f0:	9301      	str	r3, [sp, #4]
   199f2:	9b01      	ldr	r3, [sp, #4]
   199f4:	f89d 2003 	ldrb.w	r2, [sp, #3]
   199f8:	600b      	str	r3, [r1, #0]
   199fa:	f002 03ff 	and.w	r3, r2, #255	; 0xff
   199fe:	b122      	cbz	r2, 19a0a <nrf_atfifo_item_alloc+0x50>
   19a00:	880b      	ldrh	r3, [r1, #0]
   19a02:	6800      	ldr	r0, [r0, #0]
   19a04:	4418      	add	r0, r3
   19a06:	b003      	add	sp, #12
   19a08:	bd30      	pop	{r4, r5, pc}
   19a0a:	4618      	mov	r0, r3
   19a0c:	e7fb      	b.n	19a06 <nrf_atfifo_item_alloc+0x4c>

00019a0e <nrf_atfifo_item_put>:
   19a0e:	880a      	ldrh	r2, [r1, #0]
   19a10:	884b      	ldrh	r3, [r1, #2]
   19a12:	429a      	cmp	r2, r3
   19a14:	d109      	bne.n	19a2a <nrf_atfifo_item_put+0x1c>
   19a16:	e850 2f01 	ldrex	r2, [r0, #4]
   19a1a:	eac2 4202 	pkhbt	r2, r2, r2, lsl #16
   19a1e:	e840 2301 	strex	r3, r2, [r0, #4]
   19a22:	2b00      	cmp	r3, #0
   19a24:	d1f7      	bne.n	19a16 <nrf_atfifo_item_put+0x8>
   19a26:	2001      	movs	r0, #1
   19a28:	4770      	bx	lr
   19a2a:	2000      	movs	r0, #0
   19a2c:	4770      	bx	lr

00019a2e <nrf_atfifo_item_get>:
   19a2e:	b537      	push	{r0, r1, r2, r4, r5, lr}
   19a30:	e850 3f02 	ldrex	r3, [r0, #8]
   19a34:	fa1f f5a3 	uxth.w	r5, r3, ror #16
   19a38:	88c4      	ldrh	r4, [r0, #6]
   19a3a:	42a5      	cmp	r5, r4
   19a3c:	bf02      	ittt	eq
   19a3e:	f3bf 8f2f 	clrexeq
   19a42:	2200      	moveq	r2, #0
   19a44:	e00d      	beq.n	19a62 <nrf_atfifo_item_get+0x34>
   19a46:	89c4      	ldrh	r4, [r0, #14]
   19a48:	4425      	add	r5, r4
   19a4a:	8984      	ldrh	r4, [r0, #12]
   19a4c:	42a5      	cmp	r5, r4
   19a4e:	bf28      	it	cs
   19a50:	1b2d      	subcs	r5, r5, r4
   19a52:	eac3 4505 	pkhbt	r5, r3, r5, lsl #16
   19a56:	e840 5402 	strex	r4, r5, [r0, #8]
   19a5a:	2c00      	cmp	r4, #0
   19a5c:	d1e8      	bne.n	19a30 <nrf_atfifo_item_get+0x2>
   19a5e:	f04f 0201 	mov.w	r2, #1
   19a62:	f88d 2003 	strb.w	r2, [sp, #3]
   19a66:	9301      	str	r3, [sp, #4]
   19a68:	9b01      	ldr	r3, [sp, #4]
   19a6a:	f89d 2003 	ldrb.w	r2, [sp, #3]
   19a6e:	600b      	str	r3, [r1, #0]
   19a70:	f002 03ff 	and.w	r3, r2, #255	; 0xff
   19a74:	b122      	cbz	r2, 19a80 <nrf_atfifo_item_get+0x52>
   19a76:	884b      	ldrh	r3, [r1, #2]
   19a78:	6800      	ldr	r0, [r0, #0]
   19a7a:	4418      	add	r0, r3
   19a7c:	b003      	add	sp, #12
   19a7e:	bd30      	pop	{r4, r5, pc}
   19a80:	4618      	mov	r0, r3
   19a82:	e7fb      	b.n	19a7c <nrf_atfifo_item_get+0x4e>

00019a84 <nrf_atfifo_item_free>:
   19a84:	880a      	ldrh	r2, [r1, #0]
   19a86:	884b      	ldrh	r3, [r1, #2]
   19a88:	429a      	cmp	r2, r3
   19a8a:	d109      	bne.n	19aa0 <nrf_atfifo_item_free+0x1c>
   19a8c:	e850 2f02 	ldrex	r2, [r0, #8]
   19a90:	eac2 4222 	pkhtb	r2, r2, r2, asr #16
   19a94:	e840 2302 	strex	r3, r2, [r0, #8]
   19a98:	2b00      	cmp	r3, #0
   19a9a:	d1f7      	bne.n	19a8c <nrf_atfifo_item_free+0x8>
   19a9c:	2001      	movs	r0, #1
   19a9e:	4770      	bx	lr
   19aa0:	2000      	movs	r0, #0
   19aa2:	4770      	bx	lr

00019aa4 <sd_app_evt_wait>:
   19aa4:	df41      	svc	65	; 0x41
   19aa6:	4770      	bx	lr

00019aa8 <nrf_pwr_mgmt_init>:
   19aa8:	4b06      	ldr	r3, [pc, #24]	; (19ac4 <nrf_pwr_mgmt_init+0x1c>)
   19aaa:	b510      	push	{r4, lr}
   19aac:	2400      	movs	r4, #0
   19aae:	701c      	strb	r4, [r3, #0]
   19ab0:	4b05      	ldr	r3, [pc, #20]	; (19ac8 <nrf_pwr_mgmt_init+0x20>)
   19ab2:	601c      	str	r4, [r3, #0]
   19ab4:	f3bf 8f5f 	dmb	sy
   19ab8:	4904      	ldr	r1, [pc, #16]	; (19acc <nrf_pwr_mgmt_init+0x24>)
   19aba:	4805      	ldr	r0, [pc, #20]	; (19ad0 <nrf_pwr_mgmt_init+0x28>)
   19abc:	f000 f816 	bl	19aec <nrf_section_iter_init>
   19ac0:	4620      	mov	r0, r4
   19ac2:	bd10      	pop	{r4, pc}
   19ac4:	20001270 	.word	0x20001270
   19ac8:	20001274 	.word	0x20001274
   19acc:	0001d438 	.word	0x0001d438
   19ad0:	20001268 	.word	0x20001268

00019ad4 <nrf_pwr_mgmt_run>:
   19ad4:	b508      	push	{r3, lr}
   19ad6:	f001 ff0f 	bl	1b8f8 <nrf_sdh_is_enabled>
   19ada:	b118      	cbz	r0, 19ae4 <nrf_pwr_mgmt_run+0x10>
   19adc:	e8bd 4008 	ldmia.w	sp!, {r3, lr}
   19ae0:	f7ff bfe0 	b.w	19aa4 <sd_app_evt_wait>
   19ae4:	bf20      	wfe
   19ae6:	bf40      	sev
   19ae8:	bf20      	wfe
   19aea:	bd08      	pop	{r3, pc}

00019aec <nrf_section_iter_init>:
   19aec:	6001      	str	r1, [r0, #0]
   19aee:	680b      	ldr	r3, [r1, #0]
   19af0:	6043      	str	r3, [r0, #4]
   19af2:	684a      	ldr	r2, [r1, #4]
   19af4:	4293      	cmp	r3, r2
   19af6:	bf04      	itt	eq
   19af8:	2300      	moveq	r3, #0
   19afa:	6043      	streq	r3, [r0, #4]
   19afc:	4770      	bx	lr

00019afe <nrf_section_iter_next>:
   19afe:	6843      	ldr	r3, [r0, #4]
   19b00:	b143      	cbz	r3, 19b14 <nrf_section_iter_next+0x16>
   19b02:	6802      	ldr	r2, [r0, #0]
   19b04:	6891      	ldr	r1, [r2, #8]
   19b06:	440b      	add	r3, r1
   19b08:	6043      	str	r3, [r0, #4]
   19b0a:	6852      	ldr	r2, [r2, #4]
   19b0c:	4293      	cmp	r3, r2
   19b0e:	bf04      	itt	eq
   19b10:	2300      	moveq	r3, #0
   19b12:	6043      	streq	r3, [r0, #4]
   19b14:	4770      	bx	lr

00019b16 <nrf_sortlist_add>:
   19b16:	b570      	push	{r4, r5, r6, lr}
   19b18:	6844      	ldr	r4, [r0, #4]
   19b1a:	4606      	mov	r6, r0
   19b1c:	460d      	mov	r5, r1
   19b1e:	6820      	ldr	r0, [r4, #0]
   19b20:	b118      	cbz	r0, 19b2a <nrf_sortlist_add+0x14>
   19b22:	68b3      	ldr	r3, [r6, #8]
   19b24:	4629      	mov	r1, r5
   19b26:	4798      	blx	r3
   19b28:	b918      	cbnz	r0, 19b32 <nrf_sortlist_add+0x1c>
   19b2a:	6823      	ldr	r3, [r4, #0]
   19b2c:	602b      	str	r3, [r5, #0]
   19b2e:	6025      	str	r5, [r4, #0]
   19b30:	bd70      	pop	{r4, r5, r6, pc}
   19b32:	6824      	ldr	r4, [r4, #0]
   19b34:	e7f3      	b.n	19b1e <nrf_sortlist_add+0x8>

00019b36 <nrf_sortlist_pop>:
   19b36:	6843      	ldr	r3, [r0, #4]
   19b38:	6818      	ldr	r0, [r3, #0]
   19b3a:	b108      	cbz	r0, 19b40 <nrf_sortlist_pop+0xa>
   19b3c:	6802      	ldr	r2, [r0, #0]
   19b3e:	601a      	str	r2, [r3, #0]
   19b40:	4770      	bx	lr

00019b42 <nrf_sortlist_peek>:
   19b42:	6843      	ldr	r3, [r0, #4]
   19b44:	6818      	ldr	r0, [r3, #0]
   19b46:	4770      	bx	lr

00019b48 <nrf_sortlist_remove>:
   19b48:	6843      	ldr	r3, [r0, #4]
   19b4a:	6818      	ldr	r0, [r3, #0]
   19b4c:	b900      	cbnz	r0, 19b50 <nrf_sortlist_remove+0x8>
   19b4e:	4770      	bx	lr
   19b50:	4288      	cmp	r0, r1
   19b52:	d103      	bne.n	19b5c <nrf_sortlist_remove+0x14>
   19b54:	6802      	ldr	r2, [r0, #0]
   19b56:	601a      	str	r2, [r3, #0]
   19b58:	2001      	movs	r0, #1
   19b5a:	4770      	bx	lr
   19b5c:	4603      	mov	r3, r0
   19b5e:	6800      	ldr	r0, [r0, #0]
   19b60:	e7f4      	b.n	19b4c <nrf_sortlist_remove+0x4>
	...

00019b64 <SystemInit>:
   19b64:	4b5a      	ldr	r3, [pc, #360]	; (19cd0 <SystemInit+0x16c>)
   19b66:	4a5b      	ldr	r2, [pc, #364]	; (19cd4 <SystemInit+0x170>)
   19b68:	681b      	ldr	r3, [r3, #0]
   19b6a:	f3c3 3342 	ubfx	r3, r3, #13, #3
   19b6e:	6013      	str	r3, [r2, #0]
   19b70:	f04f 4380 	mov.w	r3, #1073741824	; 0x40000000
   19b74:	2200      	movs	r2, #0
   19b76:	f8c3 210c 	str.w	r2, [r3, #268]	; 0x10c
   19b7a:	f8c3 2110 	str.w	r2, [r3, #272]	; 0x110
   19b7e:	f8c3 2538 	str.w	r2, [r3, #1336]	; 0x538
   19b82:	f04f 5280 	mov.w	r2, #268435456	; 0x10000000
   19b86:	f503 4340 	add.w	r3, r3, #49152	; 0xc000
   19b8a:	f8d2 1404 	ldr.w	r1, [r2, #1028]	; 0x404
   19b8e:	f8c3 1520 	str.w	r1, [r3, #1312]	; 0x520
   19b92:	f8d2 1408 	ldr.w	r1, [r2, #1032]	; 0x408
   19b96:	f8c3 1524 	str.w	r1, [r3, #1316]	; 0x524
   19b9a:	f8d2 140c 	ldr.w	r1, [r2, #1036]	; 0x40c
   19b9e:	f8c3 1528 	str.w	r1, [r3, #1320]	; 0x528
   19ba2:	f8d2 1410 	ldr.w	r1, [r2, #1040]	; 0x410
   19ba6:	f8c3 152c 	str.w	r1, [r3, #1324]	; 0x52c
   19baa:	f8d2 1414 	ldr.w	r1, [r2, #1044]	; 0x414
   19bae:	f8c3 1530 	str.w	r1, [r3, #1328]	; 0x530
   19bb2:	f8d2 1418 	ldr.w	r1, [r2, #1048]	; 0x418
   19bb6:	f8c3 1534 	str.w	r1, [r3, #1332]	; 0x534
   19bba:	f8d2 141c 	ldr.w	r1, [r2, #1052]	; 0x41c
   19bbe:	f8c3 1540 	str.w	r1, [r3, #1344]	; 0x540
   19bc2:	f8d2 1420 	ldr.w	r1, [r2, #1056]	; 0x420
   19bc6:	f8c3 1544 	str.w	r1, [r3, #1348]	; 0x544
   19bca:	f8d2 1424 	ldr.w	r1, [r2, #1060]	; 0x424
   19bce:	f8c3 1548 	str.w	r1, [r3, #1352]	; 0x548
   19bd2:	f8d2 1428 	ldr.w	r1, [r2, #1064]	; 0x428
   19bd6:	f8c3 154c 	str.w	r1, [r3, #1356]	; 0x54c
   19bda:	f8d2 142c 	ldr.w	r1, [r2, #1068]	; 0x42c
   19bde:	f8c3 1550 	str.w	r1, [r3, #1360]	; 0x550
   19be2:	f8d2 1430 	ldr.w	r1, [r2, #1072]	; 0x430
   19be6:	f8c3 1554 	str.w	r1, [r3, #1364]	; 0x554
   19bea:	f8d2 1434 	ldr.w	r1, [r2, #1076]	; 0x434
   19bee:	f8c3 1560 	str.w	r1, [r3, #1376]	; 0x560
   19bf2:	f8d2 1438 	ldr.w	r1, [r2, #1080]	; 0x438
   19bf6:	f8c3 1564 	str.w	r1, [r3, #1380]	; 0x564
   19bfa:	f8d2 143c 	ldr.w	r1, [r2, #1084]	; 0x43c
   19bfe:	f8c3 1568 	str.w	r1, [r3, #1384]	; 0x568
   19c02:	f8d2 1440 	ldr.w	r1, [r2, #1088]	; 0x440
   19c06:	f8c3 156c 	str.w	r1, [r3, #1388]	; 0x56c
   19c0a:	f8d2 2444 	ldr.w	r2, [r2, #1092]	; 0x444
   19c0e:	f8c3 2570 	str.w	r2, [r3, #1392]	; 0x570
   19c12:	4b31      	ldr	r3, [pc, #196]	; (19cd8 <SystemInit+0x174>)
   19c14:	681b      	ldr	r3, [r3, #0]
   19c16:	2b0a      	cmp	r3, #10
   19c18:	d106      	bne.n	19c28 <SystemInit+0xc4>
   19c1a:	4b30      	ldr	r3, [pc, #192]	; (19cdc <SystemInit+0x178>)
   19c1c:	681b      	ldr	r3, [r3, #0]
   19c1e:	b91b      	cbnz	r3, 19c28 <SystemInit+0xc4>
   19c20:	4b2f      	ldr	r3, [pc, #188]	; (19ce0 <SystemInit+0x17c>)
   19c22:	22fb      	movs	r2, #251	; 0xfb
   19c24:	f8c3 2518 	str.w	r2, [r3, #1304]	; 0x518
   19c28:	f04f 4380 	mov.w	r3, #1073741824	; 0x40000000
   19c2c:	f8d3 2400 	ldr.w	r2, [r3, #1024]	; 0x400
   19c30:	07d2      	lsls	r2, r2, #31
   19c32:	bf44      	itt	mi
   19c34:	f06f 0201 	mvnmi.w	r2, #1
   19c38:	f8c3 2400 	strmi.w	r2, [r3, #1024]	; 0x400
   19c3c:	4b26      	ldr	r3, [pc, #152]	; (19cd8 <SystemInit+0x174>)
   19c3e:	681b      	ldr	r3, [r3, #0]
   19c40:	2b0a      	cmp	r3, #10
   19c42:	d102      	bne.n	19c4a <SystemInit+0xe6>
   19c44:	4b25      	ldr	r3, [pc, #148]	; (19cdc <SystemInit+0x178>)
   19c46:	681b      	ldr	r3, [r3, #0]
   19c48:	b123      	cbz	r3, 19c54 <SystemInit+0xf0>
   19c4a:	4a26      	ldr	r2, [pc, #152]	; (19ce4 <SystemInit+0x180>)
   19c4c:	6813      	ldr	r3, [r2, #0]
   19c4e:	f043 030f 	orr.w	r3, r3, #15
   19c52:	6013      	str	r3, [r2, #0]
   19c54:	f04f 2310 	mov.w	r3, #268439552	; 0x10001000
   19c58:	f8d3 2200 	ldr.w	r2, [r3, #512]	; 0x200
   19c5c:	2a00      	cmp	r2, #0
   19c5e:	db03      	blt.n	19c68 <SystemInit+0x104>
   19c60:	f8d3 3204 	ldr.w	r3, [r3, #516]	; 0x204
   19c64:	2b00      	cmp	r3, #0
   19c66:	da2f      	bge.n	19cc8 <SystemInit+0x164>
   19c68:	4b1f      	ldr	r3, [pc, #124]	; (19ce8 <SystemInit+0x184>)
   19c6a:	2201      	movs	r2, #1
   19c6c:	f8c3 2504 	str.w	r2, [r3, #1284]	; 0x504
   19c70:	f8d3 2400 	ldr.w	r2, [r3, #1024]	; 0x400
   19c74:	2a00      	cmp	r2, #0
   19c76:	d0fb      	beq.n	19c70 <SystemInit+0x10c>
   19c78:	f04f 2210 	mov.w	r2, #268439552	; 0x10001000
   19c7c:	2115      	movs	r1, #21
   19c7e:	f8c2 1200 	str.w	r1, [r2, #512]	; 0x200
   19c82:	f8d3 2400 	ldr.w	r2, [r3, #1024]	; 0x400
   19c86:	2a00      	cmp	r2, #0
   19c88:	d0fb      	beq.n	19c82 <SystemInit+0x11e>
   19c8a:	f04f 2310 	mov.w	r3, #268439552	; 0x10001000
   19c8e:	2215      	movs	r2, #21
   19c90:	f8c3 2204 	str.w	r2, [r3, #516]	; 0x204
   19c94:	4b14      	ldr	r3, [pc, #80]	; (19ce8 <SystemInit+0x184>)
   19c96:	461a      	mov	r2, r3
   19c98:	f8d3 1400 	ldr.w	r1, [r3, #1024]	; 0x400
   19c9c:	2900      	cmp	r1, #0
   19c9e:	d0fb      	beq.n	19c98 <SystemInit+0x134>
   19ca0:	2100      	movs	r1, #0
   19ca2:	f8c3 1504 	str.w	r1, [r3, #1284]	; 0x504
   19ca6:	f8d2 3400 	ldr.w	r3, [r2, #1024]	; 0x400
   19caa:	2b00      	cmp	r3, #0
   19cac:	d0fb      	beq.n	19ca6 <SystemInit+0x142>
   19cae:	f3bf 8f4f 	dsb	sy
   19cb2:	490e      	ldr	r1, [pc, #56]	; (19cec <SystemInit+0x188>)
   19cb4:	4b0e      	ldr	r3, [pc, #56]	; (19cf0 <SystemInit+0x18c>)
   19cb6:	68ca      	ldr	r2, [r1, #12]
   19cb8:	f402 62e0 	and.w	r2, r2, #1792	; 0x700
   19cbc:	4313      	orrs	r3, r2
   19cbe:	60cb      	str	r3, [r1, #12]
   19cc0:	f3bf 8f4f 	dsb	sy
   19cc4:	bf00      	nop
   19cc6:	e7fd      	b.n	19cc4 <SystemInit+0x160>
   19cc8:	4b0a      	ldr	r3, [pc, #40]	; (19cf4 <SystemInit+0x190>)
   19cca:	4a0b      	ldr	r2, [pc, #44]	; (19cf8 <SystemInit+0x194>)
   19ccc:	601a      	str	r2, [r3, #0]
   19cce:	4770      	bx	lr
   19cd0:	10000244 	.word	0x10000244
   19cd4:	4000053c 	.word	0x4000053c
   19cd8:	10000130 	.word	0x10000130
   19cdc:	10000134 	.word	0x10000134
   19ce0:	4000f000 	.word	0x4000f000
   19ce4:	40000ee4 	.word	0x40000ee4
   19ce8:	4001e000 	.word	0x4001e000
   19cec:	e000ed00 	.word	0xe000ed00
   19cf0:	05fa0004 	.word	0x05fa0004
   19cf4:	20001120 	.word	0x20001120
   19cf8:	03d09000 	.word	0x03d09000

00019cfc <clock_clk_started_notify>:
   19cfc:	b538      	push	{r3, r4, r5, lr}
   19cfe:	4c07      	ldr	r4, [pc, #28]	; (19d1c <clock_clk_started_notify+0x20>)
   19d00:	1e05      	subs	r5, r0, #0
   19d02:	f104 0308 	add.w	r3, r4, #8
   19d06:	bf18      	it	ne
   19d08:	461c      	movne	r4, r3
   19d0a:	6823      	ldr	r3, [r4, #0]
   19d0c:	b12b      	cbz	r3, 19d1a <clock_clk_started_notify+0x1e>
   19d0e:	681a      	ldr	r2, [r3, #0]
   19d10:	6022      	str	r2, [r4, #0]
   19d12:	685b      	ldr	r3, [r3, #4]
   19d14:	4628      	mov	r0, r5
   19d16:	4798      	blx	r3
   19d18:	e7f7      	b.n	19d0a <clock_clk_started_notify+0xe>
   19d1a:	bd38      	pop	{r3, r4, r5, pc}
   19d1c:	20001280 	.word	0x20001280

00019d20 <clock_irq_handler>:
   19d20:	b920      	cbnz	r0, 19d2c <clock_irq_handler+0xc>
   19d22:	4b05      	ldr	r3, [pc, #20]	; (19d38 <clock_irq_handler+0x18>)
   19d24:	2201      	movs	r2, #1
   19d26:	705a      	strb	r2, [r3, #1]
   19d28:	f7ff bfe8 	b.w	19cfc <clock_clk_started_notify>
   19d2c:	2801      	cmp	r0, #1
   19d2e:	d102      	bne.n	19d36 <clock_irq_handler+0x16>
   19d30:	4a01      	ldr	r2, [pc, #4]	; (19d38 <clock_irq_handler+0x18>)
   19d32:	7090      	strb	r0, [r2, #2]
   19d34:	e7f8      	b.n	19d28 <clock_irq_handler+0x8>
   19d36:	4770      	bx	lr
   19d38:	20001278 	.word	0x20001278

00019d3c <soc_evt_handler>:
   19d3c:	b920      	cbnz	r0, 19d48 <soc_evt_handler+0xc>
   19d3e:	4b03      	ldr	r3, [pc, #12]	; (19d4c <soc_evt_handler+0x10>)
   19d40:	2201      	movs	r2, #1
   19d42:	705a      	strb	r2, [r3, #1]
   19d44:	f7ff bfda 	b.w	19cfc <clock_clk_started_notify>
   19d48:	4770      	bx	lr
   19d4a:	bf00      	nop
   19d4c:	20001278 	.word	0x20001278

00019d50 <nrf_drv_clock_init>:
   19d50:	b538      	push	{r3, r4, r5, lr}
   19d52:	4c0b      	ldr	r4, [pc, #44]	; (19d80 <nrf_drv_clock_init+0x30>)
   19d54:	7823      	ldrb	r3, [r4, #0]
   19d56:	b983      	cbnz	r3, 19d7a <nrf_drv_clock_init+0x2a>
   19d58:	480a      	ldr	r0, [pc, #40]	; (19d84 <nrf_drv_clock_init+0x34>)
   19d5a:	6063      	str	r3, [r4, #4]
   19d5c:	60a3      	str	r3, [r4, #8]
   19d5e:	6123      	str	r3, [r4, #16]
   19d60:	60e3      	str	r3, [r4, #12]
   19d62:	f000 f857 	bl	19e14 <nrfx_clock_init>
   19d66:	4605      	mov	r5, r0
   19d68:	f001 fdc6 	bl	1b8f8 <nrf_sdh_is_enabled>
   19d6c:	b908      	cbnz	r0, 19d72 <nrf_drv_clock_init+0x22>
   19d6e:	f000 f85d 	bl	19e2c <nrfx_clock_enable>
   19d72:	2301      	movs	r3, #1
   19d74:	7023      	strb	r3, [r4, #0]
   19d76:	4628      	mov	r0, r5
   19d78:	bd38      	pop	{r3, r4, r5, pc}
   19d7a:	2585      	movs	r5, #133	; 0x85
   19d7c:	e7fb      	b.n	19d76 <nrf_drv_clock_init+0x26>
   19d7e:	bf00      	nop
   19d80:	20001278 	.word	0x20001278
   19d84:	00019d21 	.word	0x00019d21

00019d88 <nrf_drv_clock_lfclk_release>:
   19d88:	b537      	push	{r0, r1, r2, r4, r5, lr}
   19d8a:	4c0b      	ldr	r4, [pc, #44]	; (19db8 <nrf_drv_clock_lfclk_release+0x30>)
   19d8c:	2300      	movs	r3, #0
   19d8e:	f10d 0007 	add.w	r0, sp, #7
   19d92:	f88d 3007 	strb.w	r3, [sp, #7]
   19d96:	f7ff fc93 	bl	196c0 <app_util_critical_region_enter>
   19d9a:	68e3      	ldr	r3, [r4, #12]
   19d9c:	3b01      	subs	r3, #1
   19d9e:	60e3      	str	r3, [r4, #12]
   19da0:	68e5      	ldr	r5, [r4, #12]
   19da2:	b915      	cbnz	r5, 19daa <nrf_drv_clock_lfclk_release+0x22>
   19da4:	f000 f854 	bl	19e50 <nrfx_clock_lfclk_stop>
   19da8:	70a5      	strb	r5, [r4, #2]
   19daa:	f89d 0007 	ldrb.w	r0, [sp, #7]
   19dae:	f7ff fcab 	bl	19708 <app_util_critical_region_exit>
   19db2:	b003      	add	sp, #12
   19db4:	bd30      	pop	{r4, r5, pc}
   19db6:	bf00      	nop
   19db8:	20001278 	.word	0x20001278

00019dbc <sd_state_evt_handler>:
   19dbc:	2801      	cmp	r0, #1
   19dbe:	b513      	push	{r0, r1, r4, lr}
   19dc0:	d008      	beq.n	19dd4 <sd_state_evt_handler+0x18>
   19dc2:	2803      	cmp	r0, #3
   19dc4:	d01c      	beq.n	19e00 <sd_state_evt_handler+0x44>
   19dc6:	b918      	cbnz	r0, 19dd0 <sd_state_evt_handler+0x14>
   19dc8:	4b10      	ldr	r3, [pc, #64]	; (19e0c <sd_state_evt_handler+0x50>)
   19dca:	2201      	movs	r2, #1
   19dcc:	f8c3 2080 	str.w	r2, [r3, #128]	; 0x80
   19dd0:	b002      	add	sp, #8
   19dd2:	bd10      	pop	{r4, pc}
   19dd4:	4c0e      	ldr	r4, [pc, #56]	; (19e10 <sd_state_evt_handler+0x54>)
   19dd6:	2300      	movs	r3, #0
   19dd8:	f10d 0007 	add.w	r0, sp, #7
   19ddc:	f88d 3007 	strb.w	r3, [sp, #7]
   19de0:	f7ff fc6e 	bl	196c0 <app_util_critical_region_enter>
   19de4:	7823      	ldrb	r3, [r4, #0]
   19de6:	b90b      	cbnz	r3, 19dec <sd_state_evt_handler+0x30>
   19de8:	f7ff ffb2 	bl	19d50 <nrf_drv_clock_init>
   19dec:	68e3      	ldr	r3, [r4, #12]
   19dee:	f89d 0007 	ldrb.w	r0, [sp, #7]
   19df2:	3301      	adds	r3, #1
   19df4:	60e3      	str	r3, [r4, #12]
   19df6:	2301      	movs	r3, #1
   19df8:	70a3      	strb	r3, [r4, #2]
   19dfa:	f7ff fc85 	bl	19708 <app_util_critical_region_exit>
   19dfe:	e7e7      	b.n	19dd0 <sd_state_evt_handler+0x14>
   19e00:	f000 f814 	bl	19e2c <nrfx_clock_enable>
   19e04:	f7ff ffc0 	bl	19d88 <nrf_drv_clock_lfclk_release>
   19e08:	e7e2      	b.n	19dd0 <sd_state_evt_handler+0x14>
   19e0a:	bf00      	nop
   19e0c:	e000e100 	.word	0xe000e100
   19e10:	20001278 	.word	0x20001278

00019e14 <nrfx_clock_init>:
   19e14:	4b04      	ldr	r3, [pc, #16]	; (19e28 <nrfx_clock_init+0x14>)
   19e16:	4602      	mov	r2, r0
   19e18:	7918      	ldrb	r0, [r3, #4]
   19e1a:	b918      	cbnz	r0, 19e24 <nrfx_clock_init+0x10>
   19e1c:	601a      	str	r2, [r3, #0]
   19e1e:	2201      	movs	r2, #1
   19e20:	809a      	strh	r2, [r3, #4]
   19e22:	4770      	bx	lr
   19e24:	2085      	movs	r0, #133	; 0x85
   19e26:	4770      	bx	lr
   19e28:	2000128c 	.word	0x2000128c

00019e2c <nrfx_clock_enable>:
   19e2c:	4b07      	ldr	r3, [pc, #28]	; (19e4c <nrfx_clock_enable+0x20>)
   19e2e:	681a      	ldr	r2, [r3, #0]
   19e30:	07d2      	lsls	r2, r2, #31
   19e32:	bf5f      	itttt	pl
   19e34:	22c0      	movpl	r2, #192	; 0xc0
   19e36:	f883 2300 	strbpl.w	r2, [r3, #768]	; 0x300
   19e3a:	2201      	movpl	r2, #1
   19e3c:	601a      	strpl	r2, [r3, #0]
   19e3e:	f04f 4380 	mov.w	r3, #1073741824	; 0x40000000
   19e42:	2201      	movs	r2, #1
   19e44:	f8c3 2518 	str.w	r2, [r3, #1304]	; 0x518
   19e48:	4770      	bx	lr
   19e4a:	bf00      	nop
   19e4c:	e000e100 	.word	0xe000e100

00019e50 <nrfx_clock_lfclk_stop>:
   19e50:	4b04      	ldr	r3, [pc, #16]	; (19e64 <nrfx_clock_lfclk_stop+0x14>)
   19e52:	2201      	movs	r2, #1
   19e54:	601a      	str	r2, [r3, #0]
   19e56:	f04f 4280 	mov.w	r2, #1073741824	; 0x40000000
   19e5a:	f8d2 3418 	ldr.w	r3, [r2, #1048]	; 0x418
   19e5e:	03db      	lsls	r3, r3, #15
   19e60:	d4fb      	bmi.n	19e5a <nrfx_clock_lfclk_stop+0xa>
   19e62:	4770      	bx	lr
   19e64:	4000000c 	.word	0x4000000c

00019e68 <POWER_CLOCK_IRQHandler>:
   19e68:	b507      	push	{r0, r1, r2, lr}
   19e6a:	4b15      	ldr	r3, [pc, #84]	; (19ec0 <POWER_CLOCK_IRQHandler+0x58>)
   19e6c:	681a      	ldr	r2, [r3, #0]
   19e6e:	b17a      	cbz	r2, 19e90 <POWER_CLOCK_IRQHandler+0x28>
   19e70:	2200      	movs	r2, #0
   19e72:	601a      	str	r2, [r3, #0]
   19e74:	681b      	ldr	r3, [r3, #0]
   19e76:	9300      	str	r3, [sp, #0]
   19e78:	9b00      	ldr	r3, [sp, #0]
   19e7a:	f04f 4380 	mov.w	r3, #1073741824	; 0x40000000
   19e7e:	2201      	movs	r2, #1
   19e80:	f8c3 2308 	str.w	r2, [r3, #776]	; 0x308
   19e84:	4b0f      	ldr	r3, [pc, #60]	; (19ec4 <POWER_CLOCK_IRQHandler+0x5c>)
   19e86:	7958      	ldrb	r0, [r3, #5]
   19e88:	b910      	cbnz	r0, 19e90 <POWER_CLOCK_IRQHandler+0x28>
   19e8a:	715a      	strb	r2, [r3, #5]
   19e8c:	681b      	ldr	r3, [r3, #0]
   19e8e:	4798      	blx	r3
   19e90:	4b0d      	ldr	r3, [pc, #52]	; (19ec8 <POWER_CLOCK_IRQHandler+0x60>)
   19e92:	681a      	ldr	r2, [r3, #0]
   19e94:	b182      	cbz	r2, 19eb8 <POWER_CLOCK_IRQHandler+0x50>
   19e96:	2200      	movs	r2, #0
   19e98:	601a      	str	r2, [r3, #0]
   19e9a:	681b      	ldr	r3, [r3, #0]
   19e9c:	9301      	str	r3, [sp, #4]
   19e9e:	9b01      	ldr	r3, [sp, #4]
   19ea0:	f04f 4380 	mov.w	r3, #1073741824	; 0x40000000
   19ea4:	2202      	movs	r2, #2
   19ea6:	f8c3 2308 	str.w	r2, [r3, #776]	; 0x308
   19eaa:	4b06      	ldr	r3, [pc, #24]	; (19ec4 <POWER_CLOCK_IRQHandler+0x5c>)
   19eac:	681b      	ldr	r3, [r3, #0]
   19eae:	2001      	movs	r0, #1
   19eb0:	b003      	add	sp, #12
   19eb2:	f85d eb04 	ldr.w	lr, [sp], #4
   19eb6:	4718      	bx	r3
   19eb8:	b003      	add	sp, #12
   19eba:	f85d fb04 	ldr.w	pc, [sp], #4
   19ebe:	bf00      	nop
   19ec0:	40000100 	.word	0x40000100
   19ec4:	2000128c 	.word	0x2000128c
   19ec8:	40000104 	.word	0x40000104

00019ecc <nrf_gpiote_event_clear>:
   19ecc:	f100 4080 	add.w	r0, r0, #1073741824	; 0x40000000
   19ed0:	f500 40c0 	add.w	r0, r0, #24576	; 0x6000
   19ed4:	2300      	movs	r3, #0
   19ed6:	b082      	sub	sp, #8
   19ed8:	6003      	str	r3, [r0, #0]
   19eda:	6803      	ldr	r3, [r0, #0]
   19edc:	9301      	str	r3, [sp, #4]
   19ede:	9b01      	ldr	r3, [sp, #4]
   19ee0:	b002      	add	sp, #8
   19ee2:	4770      	bx	lr

00019ee4 <nrf_gpio_cfg_sense_set>:
   19ee4:	0080      	lsls	r0, r0, #2
   19ee6:	f100 40a0 	add.w	r0, r0, #1342177280	; 0x50000000
   19eea:	f8d0 2700 	ldr.w	r2, [r0, #1792]	; 0x700
   19eee:	f422 3240 	bic.w	r2, r2, #196608	; 0x30000
   19ef2:	f8c0 2700 	str.w	r2, [r0, #1792]	; 0x700
   19ef6:	f8d0 3700 	ldr.w	r3, [r0, #1792]	; 0x700
   19efa:	ea43 4301 	orr.w	r3, r3, r1, lsl #16
   19efe:	f8c0 3700 	str.w	r3, [r0, #1792]	; 0x700
   19f02:	4770      	bx	lr

00019f04 <GPIOTE_IRQHandler>:
   19f04:	e92d 4ff0 	stmdb	sp!, {r4, r5, r6, r7, r8, r9, sl, fp, lr}
   19f08:	b087      	sub	sp, #28
   19f0a:	2400      	movs	r4, #0
   19f0c:	4d5a      	ldr	r5, [pc, #360]	; (1a078 <GPIOTE_IRQHandler+0x174>)
   19f0e:	9403      	str	r4, [sp, #12]
   19f10:	f44f 7280 	mov.w	r2, #256	; 0x100
   19f14:	2101      	movs	r1, #1
   19f16:	f102 4380 	add.w	r3, r2, #1073741824	; 0x40000000
   19f1a:	f503 43c0 	add.w	r3, r3, #24576	; 0x6000
   19f1e:	b290      	uxth	r0, r2
   19f20:	681b      	ldr	r3, [r3, #0]
   19f22:	2b01      	cmp	r3, #1
   19f24:	d106      	bne.n	19f34 <GPIOTE_IRQHandler+0x30>
   19f26:	f8d5 3304 	ldr.w	r3, [r5, #772]	; 0x304
   19f2a:	420b      	tst	r3, r1
   19f2c:	d002      	beq.n	19f34 <GPIOTE_IRQHandler+0x30>
   19f2e:	f7ff ffcd 	bl	19ecc <nrf_gpiote_event_clear>
   19f32:	430c      	orrs	r4, r1
   19f34:	3204      	adds	r2, #4
   19f36:	f5b2 7f90 	cmp.w	r2, #288	; 0x120
   19f3a:	ea4f 0141 	mov.w	r1, r1, lsl #1
   19f3e:	d1ea      	bne.n	19f16 <GPIOTE_IRQHandler+0x12>
   19f40:	4b4e      	ldr	r3, [pc, #312]	; (1a07c <GPIOTE_IRQHandler+0x178>)
   19f42:	681b      	ldr	r3, [r3, #0]
   19f44:	2b01      	cmp	r3, #1
   19f46:	d10a      	bne.n	19f5e <GPIOTE_IRQHandler+0x5a>
   19f48:	f44f 70be 	mov.w	r0, #380	; 0x17c
   19f4c:	f7ff ffbe 	bl	19ecc <nrf_gpiote_event_clear>
   19f50:	f04f 43a0 	mov.w	r3, #1342177280	; 0x50000000
   19f54:	f044 4400 	orr.w	r4, r4, #2147483648	; 0x80000000
   19f58:	f8d3 3510 	ldr.w	r3, [r3, #1296]	; 0x510
   19f5c:	9303      	str	r3, [sp, #12]
   19f5e:	f014 0fff 	tst.w	r4, #255	; 0xff
   19f62:	d01a      	beq.n	19f9a <GPIOTE_IRQHandler+0x96>
   19f64:	4f46      	ldr	r7, [pc, #280]	; (1a080 <GPIOTE_IRQHandler+0x17c>)
   19f66:	2601      	movs	r6, #1
   19f68:	2500      	movs	r5, #0
   19f6a:	4234      	tst	r4, r6
   19f6c:	d010      	beq.n	19f90 <GPIOTE_IRQHandler+0x8c>
   19f6e:	00ab      	lsls	r3, r5, #2
   19f70:	f103 4380 	add.w	r3, r3, #1073741824	; 0x40000000
   19f74:	f503 43c0 	add.w	r3, r3, #24576	; 0x6000
   19f78:	f8d3 0510 	ldr.w	r0, [r3, #1296]	; 0x510
   19f7c:	f8d3 1510 	ldr.w	r1, [r3, #1296]	; 0x510
   19f80:	f857 3025 	ldr.w	r3, [r7, r5, lsl #2]
   19f84:	b123      	cbz	r3, 19f90 <GPIOTE_IRQHandler+0x8c>
   19f86:	f3c1 4101 	ubfx	r1, r1, #16, #2
   19f8a:	f3c0 2004 	ubfx	r0, r0, #8, #5
   19f8e:	4798      	blx	r3
   19f90:	3501      	adds	r5, #1
   19f92:	2d08      	cmp	r5, #8
   19f94:	ea4f 0646 	mov.w	r6, r6, lsl #1
   19f98:	d1e7      	bne.n	19f6a <GPIOTE_IRQHandler+0x66>
   19f9a:	2c00      	cmp	r4, #0
   19f9c:	da65      	bge.n	1a06a <GPIOTE_IRQHandler+0x166>
   19f9e:	2100      	movs	r1, #0
   19fa0:	f04f 33ff 	mov.w	r3, #4294967295	; 0xffffffff
   19fa4:	e9cd 1304 	strd	r1, r3, [sp, #16]
   19fa8:	4d35      	ldr	r5, [pc, #212]	; (1a080 <GPIOTE_IRQHandler+0x17c>)
   19faa:	4e36      	ldr	r6, [pc, #216]	; (1a084 <GPIOTE_IRQHandler+0x180>)
   19fac:	f04f 0900 	mov.w	r9, #0
   19fb0:	46ca      	mov	sl, r9
   19fb2:	2701      	movs	r7, #1
   19fb4:	f04f 48a0 	mov.w	r8, #1342177280	; 0x50000000
   19fb8:	f916 3b01 	ldrsb.w	r3, [r6], #1
   19fbc:	1c5a      	adds	r2, r3, #1
   19fbe:	d045      	beq.n	1a04c <GPIOTE_IRQHandler+0x148>
   19fc0:	f3c3 01c2 	ubfx	r1, r3, #3, #3
   19fc4:	aa06      	add	r2, sp, #24
   19fc6:	1850      	adds	r0, r2, r1
   19fc8:	b2dc      	uxtb	r4, r3
   19fca:	f810 2c04 	ldrb.w	r2, [r0, #-4]
   19fce:	f003 0b3f 	and.w	fp, r3, #63	; 0x3f
   19fd2:	f003 0307 	and.w	r3, r3, #7
   19fd6:	fa07 f303 	lsl.w	r3, r7, r3
   19fda:	421a      	tst	r2, r3
   19fdc:	d036      	beq.n	1a04c <GPIOTE_IRQHandler+0x148>
   19fde:	eb05 020b 	add.w	r2, r5, fp
   19fe2:	09a4      	lsrs	r4, r4, #6
   19fe4:	f992 2030 	ldrsb.w	r2, [r2, #48]	; 0x30
   19fe8:	f855 2022 	ldr.w	r2, [r5, r2, lsl #2]
   19fec:	b952      	cbnz	r2, 1a004 <GPIOTE_IRQHandler+0x100>
   19fee:	2c03      	cmp	r4, #3
   19ff0:	d12c      	bne.n	1a04c <GPIOTE_IRQHandler+0x148>
   19ff2:	f10d 0e10 	add.w	lr, sp, #16
   19ff6:	f81e c001 	ldrb.w	ip, [lr, r1]
   19ffa:	ea4c 0c03 	orr.w	ip, ip, r3
   19ffe:	f80e c001 	strb.w	ip, [lr, r1]
   1a002:	e001      	b.n	1a008 <GPIOTE_IRQHandler+0x104>
   1a004:	2c03      	cmp	r4, #3
   1a006:	d0f4      	beq.n	19ff2 <GPIOTE_IRQHandler+0xee>
   1a008:	f50b 71e0 	add.w	r1, fp, #448	; 0x1c0
   1a00c:	f810 0c0c 	ldrb.w	r0, [r0, #-12]
   1a010:	f858 1021 	ldr.w	r1, [r8, r1, lsl #2]
   1a014:	4218      	tst	r0, r3
   1a016:	f3c1 4101 	ubfx	r1, r1, #16, #2
   1a01a:	d005      	beq.n	1a028 <GPIOTE_IRQHandler+0x124>
   1a01c:	2902      	cmp	r1, #2
   1a01e:	d115      	bne.n	1a04c <GPIOTE_IRQHandler+0x148>
   1a020:	2c03      	cmp	r4, #3
   1a022:	d10f      	bne.n	1a044 <GPIOTE_IRQHandler+0x140>
   1a024:	4621      	mov	r1, r4
   1a026:	e004      	b.n	1a032 <GPIOTE_IRQHandler+0x12e>
   1a028:	2903      	cmp	r1, #3
   1a02a:	d10f      	bne.n	1a04c <GPIOTE_IRQHandler+0x148>
   1a02c:	2c03      	cmp	r4, #3
   1a02e:	d109      	bne.n	1a044 <GPIOTE_IRQHandler+0x140>
   1a030:	2102      	movs	r1, #2
   1a032:	4658      	mov	r0, fp
   1a034:	9201      	str	r2, [sp, #4]
   1a036:	f109 0901 	add.w	r9, r9, #1
   1a03a:	f7ff ff53 	bl	19ee4 <nrf_gpio_cfg_sense_set>
   1a03e:	9a01      	ldr	r2, [sp, #4]
   1a040:	fa5f f989 	uxtb.w	r9, r9
   1a044:	b112      	cbz	r2, 1a04c <GPIOTE_IRQHandler+0x148>
   1a046:	4621      	mov	r1, r4
   1a048:	4658      	mov	r0, fp
   1a04a:	4790      	blx	r2
   1a04c:	f10a 0a01 	add.w	sl, sl, #1
   1a050:	f1ba 0f04 	cmp.w	sl, #4
   1a054:	d1b0      	bne.n	19fb8 <GPIOTE_IRQHandler+0xb4>
   1a056:	f1b9 0f00 	cmp.w	r9, #0
   1a05a:	d006      	beq.n	1a06a <GPIOTE_IRQHandler+0x166>
   1a05c:	f04f 43a0 	mov.w	r3, #1342177280	; 0x50000000
   1a060:	9a03      	ldr	r2, [sp, #12]
   1a062:	f8d3 3510 	ldr.w	r3, [r3, #1296]	; 0x510
   1a066:	4293      	cmp	r3, r2
   1a068:	d102      	bne.n	1a070 <GPIOTE_IRQHandler+0x16c>
   1a06a:	b007      	add	sp, #28
   1a06c:	e8bd 8ff0 	ldmia.w	sp!, {r4, r5, r6, r7, r8, r9, sl, fp, pc}
   1a070:	9303      	str	r3, [sp, #12]
   1a072:	9b04      	ldr	r3, [sp, #16]
   1a074:	9305      	str	r3, [sp, #20]
   1a076:	e798      	b.n	19faa <GPIOTE_IRQHandler+0xa6>
   1a078:	40006000 	.word	0x40006000
   1a07c:	4000617c 	.word	0x4000617c
   1a080:	20001294 	.word	0x20001294
   1a084:	200012e4 	.word	0x200012e4

0001a088 <wait_for_flash_ready>:
   1a088:	4a02      	ldr	r2, [pc, #8]	; (1a094 <wait_for_flash_ready+0xc>)
   1a08a:	f8d2 3400 	ldr.w	r3, [r2, #1024]	; 0x400
   1a08e:	2b00      	cmp	r3, #0
   1a090:	d0fb      	beq.n	1a08a <wait_for_flash_ready+0x2>
   1a092:	4770      	bx	lr
   1a094:	4001e000 	.word	0x4001e000

0001a098 <nrf_nvmc_page_erase>:
   1a098:	490a      	ldr	r1, [pc, #40]	; (1a0c4 <nrf_nvmc_page_erase+0x2c>)
   1a09a:	b508      	push	{r3, lr}
   1a09c:	2302      	movs	r3, #2
   1a09e:	f8c1 3504 	str.w	r3, [r1, #1284]	; 0x504
   1a0a2:	f3bf 8f6f 	isb	sy
   1a0a6:	f3bf 8f4f 	dsb	sy
   1a0aa:	f8c1 0508 	str.w	r0, [r1, #1288]	; 0x508
   1a0ae:	f7ff ffeb 	bl	1a088 <wait_for_flash_ready>
   1a0b2:	2300      	movs	r3, #0
   1a0b4:	f8c1 3504 	str.w	r3, [r1, #1284]	; 0x504
   1a0b8:	f3bf 8f6f 	isb	sy
   1a0bc:	f3bf 8f4f 	dsb	sy
   1a0c0:	bd08      	pop	{r3, pc}
   1a0c2:	bf00      	nop
   1a0c4:	4001e000 	.word	0x4001e000

0001a0c8 <nrf_nvmc_write_byte>:
   1a0c8:	b538      	push	{r3, r4, r5, lr}
   1a0ca:	f020 0503 	bic.w	r5, r0, #3
   1a0ce:	00c0      	lsls	r0, r0, #3
   1a0d0:	f000 0018 	and.w	r0, r0, #24
   1a0d4:	23ff      	movs	r3, #255	; 0xff
   1a0d6:	fa03 f200 	lsl.w	r2, r3, r0
   1a0da:	682b      	ldr	r3, [r5, #0]
   1a0dc:	4c0b      	ldr	r4, [pc, #44]	; (1a10c <nrf_nvmc_write_byte+0x44>)
   1a0de:	ea23 0302 	bic.w	r3, r3, r2
   1a0e2:	2201      	movs	r2, #1
   1a0e4:	f8c4 2504 	str.w	r2, [r4, #1284]	; 0x504
   1a0e8:	f3bf 8f6f 	isb	sy
   1a0ec:	f3bf 8f4f 	dsb	sy
   1a0f0:	fa01 f000 	lsl.w	r0, r1, r0
   1a0f4:	4418      	add	r0, r3
   1a0f6:	6028      	str	r0, [r5, #0]
   1a0f8:	f7ff ffc6 	bl	1a088 <wait_for_flash_ready>
   1a0fc:	2300      	movs	r3, #0
   1a0fe:	f8c4 3504 	str.w	r3, [r4, #1284]	; 0x504
   1a102:	f3bf 8f6f 	isb	sy
   1a106:	f3bf 8f4f 	dsb	sy
   1a10a:	bd38      	pop	{r3, r4, r5, pc}
   1a10c:	4001e000 	.word	0x4001e000

0001a110 <sd_flash_write>:
   1a110:	df29      	svc	41	; 0x29
   1a112:	4770      	bx	lr

0001a114 <sd_flash_page_erase>:
   1a114:	df28      	svc	40	; 0x28
   1a116:	4770      	bx	lr

0001a118 <sd_ble_gap_adv_set_configure>:
   1a118:	df72      	svc	114	; 0x72
   1a11a:	4770      	bx	lr

0001a11c <sd_ble_gap_adv_start>:
   1a11c:	df73      	svc	115	; 0x73
   1a11e:	4770      	bx	lr

0001a120 <sd_ble_gap_adv_stop>:
   1a120:	df74      	svc	116	; 0x74
   1a122:	4770      	bx	lr

0001a124 <sd_ble_gap_tx_power_set>:
   1a124:	df77      	svc	119	; 0x77
   1a126:	4770      	bx	lr

0001a128 <nrf_delay_ms.part.0>:
   1a128:	b538      	push	{r3, r4, r5, lr}
   1a12a:	4d05      	ldr	r5, [pc, #20]	; (1a140 <nrf_delay_ms.part.0+0x18>)
   1a12c:	4604      	mov	r4, r0
   1a12e:	f045 0501 	orr.w	r5, r5, #1
   1a132:	f44f 407a 	mov.w	r0, #64000	; 0xfa00
   1a136:	47a8      	blx	r5
   1a138:	3c01      	subs	r4, #1
   1a13a:	d1fa      	bne.n	1a132 <nrf_delay_ms.part.0+0xa>
   1a13c:	bd38      	pop	{r3, r4, r5, pc}
   1a13e:	bf00      	nop
   1a140:	0001d6c0 	.word	0x0001d6c0

0001a144 <nrf_delay_ms>:
   1a144:	b108      	cbz	r0, 1a14a <nrf_delay_ms+0x6>
   1a146:	f7ff bfef 	b.w	1a128 <nrf_delay_ms.part.0>
   1a14a:	4770      	bx	lr

0001a14c <BL651tempBoard::init()>:
   1a14c:	f04f 43a0 	mov.w	r3, #1342177280	; 0x50000000
   1a150:	2180      	movs	r1, #128	; 0x80
   1a152:	f8c3 150c 	str.w	r1, [r3, #1292]	; 0x50c
   1a156:	2201      	movs	r2, #1
   1a158:	f44f 7180 	mov.w	r1, #256	; 0x100
   1a15c:	f8c3 271c 	str.w	r2, [r3, #1820]	; 0x71c
   1a160:	f8c3 150c 	str.w	r1, [r3, #1292]	; 0x50c
   1a164:	f8c3 2720 	str.w	r2, [r3, #1824]	; 0x720
   1a168:	220c      	movs	r2, #12
   1a16a:	f8c3 276c 	str.w	r2, [r3, #1900]	; 0x76c
   1a16e:	4770      	bx	lr

0001a170 <BL651tempBoard::alive()>:
   1a170:	b508      	push	{r3, lr}
   1a172:	f04f 43a0 	mov.w	r3, #1342177280	; 0x50000000
   1a176:	f8d3 2720 	ldr.w	r2, [r3, #1824]	; 0x720
   1a17a:	07d1      	lsls	r1, r2, #31
   1a17c:	d520      	bpl.n	1a1c0 <BL651tempBoard::alive()+0x50>
   1a17e:	f8d3 2504 	ldr.w	r2, [r3, #1284]	; 0x504
   1a182:	f412 7f80 	tst.w	r2, #256	; 0x100
   1a186:	f44f 7280 	mov.w	r2, #256	; 0x100
   1a18a:	bf14      	ite	ne
   1a18c:	f8c3 250c 	strne.w	r2, [r3, #1292]	; 0x50c
   1a190:	f8c3 2508 	streq.w	r2, [r3, #1288]	; 0x508
   1a194:	2019      	movs	r0, #25
   1a196:	f7ff ffc7 	bl	1a128 <nrf_delay_ms.part.0>
   1a19a:	f04f 43a0 	mov.w	r3, #1342177280	; 0x50000000
   1a19e:	2019      	movs	r0, #25
   1a1a0:	f8d3 2504 	ldr.w	r2, [r3, #1284]	; 0x504
   1a1a4:	f412 7f80 	tst.w	r2, #256	; 0x100
   1a1a8:	f44f 7280 	mov.w	r2, #256	; 0x100
   1a1ac:	bf14      	ite	ne
   1a1ae:	f8c3 250c 	strne.w	r2, [r3, #1292]	; 0x50c
   1a1b2:	f8c3 2508 	streq.w	r2, [r3, #1288]	; 0x508
   1a1b6:	f7ff ffb7 	bl	1a128 <nrf_delay_ms.part.0>
   1a1ba:	20c8      	movs	r0, #200	; 0xc8
   1a1bc:	f7ff ffb4 	bl	1a128 <nrf_delay_ms.part.0>
   1a1c0:	f04f 43a0 	mov.w	r3, #1342177280	; 0x50000000
   1a1c4:	f8d3 271c 	ldr.w	r2, [r3, #1820]	; 0x71c
   1a1c8:	07d2      	lsls	r2, r2, #31
   1a1ca:	d522      	bpl.n	1a212 <BL651tempBoard::alive()+0xa2>
   1a1cc:	f8d3 2504 	ldr.w	r2, [r3, #1284]	; 0x504
   1a1d0:	f012 0f80 	tst.w	r2, #128	; 0x80
   1a1d4:	f04f 0280 	mov.w	r2, #128	; 0x80
   1a1d8:	bf14      	ite	ne
   1a1da:	f8c3 250c 	strne.w	r2, [r3, #1292]	; 0x50c
   1a1de:	f8c3 2508 	streq.w	r2, [r3, #1288]	; 0x508
   1a1e2:	2019      	movs	r0, #25
   1a1e4:	f7ff ffa0 	bl	1a128 <nrf_delay_ms.part.0>
   1a1e8:	f04f 43a0 	mov.w	r3, #1342177280	; 0x50000000
   1a1ec:	2019      	movs	r0, #25
   1a1ee:	f8d3 2504 	ldr.w	r2, [r3, #1284]	; 0x504
   1a1f2:	f012 0f80 	tst.w	r2, #128	; 0x80
   1a1f6:	f04f 0280 	mov.w	r2, #128	; 0x80
   1a1fa:	bf14      	ite	ne
   1a1fc:	f8c3 250c 	strne.w	r2, [r3, #1292]	; 0x50c
   1a200:	f8c3 2508 	streq.w	r2, [r3, #1288]	; 0x508
   1a204:	f7ff ff90 	bl	1a128 <nrf_delay_ms.part.0>
   1a208:	e8bd 4008 	ldmia.w	sp!, {r3, lr}
   1a20c:	20c8      	movs	r0, #200	; 0xc8
   1a20e:	f7ff bf8b 	b.w	1a128 <nrf_delay_ms.part.0>
   1a212:	bd08      	pop	{r3, pc}

0001a214 <BL651tempBoard::error(unsigned short)>:
   1a214:	e92d 43f8 	stmdb	sp!, {r3, r4, r5, r6, r7, r8, r9, lr}
   1a218:	4680      	mov	r8, r0
   1a21a:	260c      	movs	r6, #12
   1a21c:	2301      	movs	r3, #1
   1a21e:	f04f 44a0 	mov.w	r4, #1342177280	; 0x50000000
   1a222:	fa48 f506 	asr.w	r5, r8, r6
   1a226:	f015 050f 	ands.w	r5, r5, #15
   1a22a:	d105      	bne.n	1a238 <BL651tempBoard::error(unsigned short)+0x24>
   1a22c:	b34b      	cbz	r3, 1a282 <BL651tempBoard::error(unsigned short)+0x6e>
   1a22e:	3e04      	subs	r6, #4
   1a230:	1d32      	adds	r2, r6, #4
   1a232:	d1f6      	bne.n	1a222 <BL651tempBoard::error(unsigned short)+0xe>
   1a234:	e8bd 83f8 	ldmia.w	sp!, {r3, r4, r5, r6, r7, r8, r9, pc}
   1a238:	f8d4 371c 	ldr.w	r3, [r4, #1820]	; 0x71c
   1a23c:	07da      	lsls	r2, r3, #31
   1a23e:	d540      	bpl.n	1a2c2 <BL651tempBoard::error(unsigned short)+0xae>
   1a240:	b2ad      	uxth	r5, r5
   1a242:	f64f 79ff 	movw	r9, #65535	; 0xffff
   1a246:	2780      	movs	r7, #128	; 0x80
   1a248:	3d01      	subs	r5, #1
   1a24a:	b2ad      	uxth	r5, r5
   1a24c:	454d      	cmp	r5, r9
   1a24e:	d038      	beq.n	1a2c2 <BL651tempBoard::error(unsigned short)+0xae>
   1a250:	f8d4 3504 	ldr.w	r3, [r4, #1284]	; 0x504
   1a254:	061b      	lsls	r3, r3, #24
   1a256:	bf4c      	ite	mi
   1a258:	f8c4 750c 	strmi.w	r7, [r4, #1292]	; 0x50c
   1a25c:	f8c4 7508 	strpl.w	r7, [r4, #1288]	; 0x508
   1a260:	f44f 70fa 	mov.w	r0, #500	; 0x1f4
   1a264:	f7ff ff60 	bl	1a128 <nrf_delay_ms.part.0>
   1a268:	f8d4 3504 	ldr.w	r3, [r4, #1284]	; 0x504
   1a26c:	0618      	lsls	r0, r3, #24
   1a26e:	bf4c      	ite	mi
   1a270:	f8c4 750c 	strmi.w	r7, [r4, #1292]	; 0x50c
   1a274:	f8c4 7508 	strpl.w	r7, [r4, #1288]	; 0x508
   1a278:	f44f 70fa 	mov.w	r0, #500	; 0x1f4
   1a27c:	f7ff ff54 	bl	1a128 <nrf_delay_ms.part.0>
   1a280:	e7e2      	b.n	1a248 <BL651tempBoard::error(unsigned short)+0x34>
   1a282:	f8d4 3720 	ldr.w	r3, [r4, #1824]	; 0x720
   1a286:	07d9      	lsls	r1, r3, #31
   1a288:	d51b      	bpl.n	1a2c2 <BL651tempBoard::error(unsigned short)+0xae>
   1a28a:	f8d4 3504 	ldr.w	r3, [r4, #1284]	; 0x504
   1a28e:	f413 7f80 	tst.w	r3, #256	; 0x100
   1a292:	f44f 7380 	mov.w	r3, #256	; 0x100
   1a296:	bf14      	ite	ne
   1a298:	f8c4 350c 	strne.w	r3, [r4, #1292]	; 0x50c
   1a29c:	f8c4 3508 	streq.w	r3, [r4, #1288]	; 0x508
   1a2a0:	2032      	movs	r0, #50	; 0x32
   1a2a2:	f7ff ff41 	bl	1a128 <nrf_delay_ms.part.0>
   1a2a6:	f8d4 3504 	ldr.w	r3, [r4, #1284]	; 0x504
   1a2aa:	f413 7f80 	tst.w	r3, #256	; 0x100
   1a2ae:	f44f 7380 	mov.w	r3, #256	; 0x100
   1a2b2:	bf14      	ite	ne
   1a2b4:	f8c4 350c 	strne.w	r3, [r4, #1292]	; 0x50c
   1a2b8:	f8c4 3508 	streq.w	r3, [r4, #1288]	; 0x508
   1a2bc:	2032      	movs	r0, #50	; 0x32
   1a2be:	f7ff ff33 	bl	1a128 <nrf_delay_ms.part.0>
   1a2c2:	f44f 70fa 	mov.w	r0, #500	; 0x1f4
   1a2c6:	f7ff ff2f 	bl	1a128 <nrf_delay_ms.part.0>
   1a2ca:	2300      	movs	r3, #0
   1a2cc:	e7af      	b.n	1a22e <BL651tempBoard::error(unsigned short)+0x1a>

0001a2ce <BL651tempBoard::caution(unsigned short)>:
   1a2ce:	b510      	push	{r4, lr}
   1a2d0:	f04f 43a0 	mov.w	r3, #1342177280	; 0x50000000
   1a2d4:	4604      	mov	r4, r0
   1a2d6:	f8d3 271c 	ldr.w	r2, [r3, #1820]	; 0x71c
   1a2da:	07d2      	lsls	r2, r2, #31
   1a2dc:	d51e      	bpl.n	1a31c <BL651tempBoard::caution(unsigned short)+0x4e>
   1a2de:	f8d3 2504 	ldr.w	r2, [r3, #1284]	; 0x504
   1a2e2:	f012 0f80 	tst.w	r2, #128	; 0x80
   1a2e6:	f04f 0280 	mov.w	r2, #128	; 0x80
   1a2ea:	bf14      	ite	ne
   1a2ec:	f8c3 250c 	strne.w	r2, [r3, #1292]	; 0x50c
   1a2f0:	f8c3 2508 	streq.w	r2, [r3, #1288]	; 0x508
   1a2f4:	f7ff ff26 	bl	1a144 <nrf_delay_ms>
   1a2f8:	f04f 43a0 	mov.w	r3, #1342177280	; 0x50000000
   1a2fc:	4620      	mov	r0, r4
   1a2fe:	f8d3 2504 	ldr.w	r2, [r3, #1284]	; 0x504
   1a302:	f012 0f80 	tst.w	r2, #128	; 0x80
   1a306:	f04f 0280 	mov.w	r2, #128	; 0x80
   1a30a:	bf14      	ite	ne
   1a30c:	f8c3 250c 	strne.w	r2, [r3, #1292]	; 0x50c
   1a310:	f8c3 2508 	streq.w	r2, [r3, #1288]	; 0x508
   1a314:	e8bd 4010 	ldmia.w	sp!, {r4, lr}
   1a318:	f7ff bf14 	b.w	1a144 <nrf_delay_ms>
   1a31c:	bd10      	pop	{r4, pc}

0001a31e <Ble::eventHandler(ble_evt_t const*, void*)>:
   1a31e:	b508      	push	{r3, lr}
   1a320:	2005      	movs	r0, #5
   1a322:	f7ff ffd4 	bl	1a2ce <BL651tempBoard::caution(unsigned short)>
   1a326:	bd08      	pop	{r3, pc}

0001a328 <Errors::check(unsigned short, bool)>:
   1a328:	b538      	push	{r3, r4, r5, lr}
   1a32a:	460d      	mov	r5, r1
   1a32c:	4604      	mov	r4, r0
   1a32e:	b308      	cbz	r0, 1a374 <Errors::check(unsigned short, bool)+0x4c>
   1a330:	f7ff ff70 	bl	1a214 <BL651tempBoard::error(unsigned short)>
   1a334:	f640 30b8 	movw	r0, #3000	; 0xbb8
   1a338:	f7ff fef6 	bl	1a128 <nrf_delay_ms.part.0>
   1a33c:	4620      	mov	r0, r4
   1a33e:	f7ff ff69 	bl	1a214 <BL651tempBoard::error(unsigned short)>
   1a342:	f640 30b8 	movw	r0, #3000	; 0xbb8
   1a346:	f7ff feef 	bl	1a128 <nrf_delay_ms.part.0>
   1a34a:	4620      	mov	r0, r4
   1a34c:	f7ff ff62 	bl	1a214 <BL651tempBoard::error(unsigned short)>
   1a350:	f640 30b8 	movw	r0, #3000	; 0xbb8
   1a354:	f7ff fee8 	bl	1a128 <nrf_delay_ms.part.0>
   1a358:	b165      	cbz	r5, 1a374 <Errors::check(unsigned short, bool)+0x4c>
   1a35a:	f3bf 8f4f 	dsb	sy
   1a35e:	4906      	ldr	r1, [pc, #24]	; (1a378 <Errors::check(unsigned short, bool)+0x50>)
   1a360:	4b06      	ldr	r3, [pc, #24]	; (1a37c <Errors::check(unsigned short, bool)+0x54>)
   1a362:	68ca      	ldr	r2, [r1, #12]
   1a364:	f402 62e0 	and.w	r2, r2, #1792	; 0x700
   1a368:	4313      	orrs	r3, r2
   1a36a:	60cb      	str	r3, [r1, #12]
   1a36c:	f3bf 8f4f 	dsb	sy
   1a370:	bf00      	nop
   1a372:	e7fd      	b.n	1a370 <Errors::check(unsigned short, bool)+0x48>
   1a374:	bd38      	pop	{r3, r4, r5, pc}
   1a376:	bf00      	nop
   1a378:	e000ed00 	.word	0xe000ed00
   1a37c:	05fa0004 	.word	0x05fa0004

0001a380 <Saadc::isBusy()>:
   1a380:	4b01      	ldr	r3, [pc, #4]	; (1a388 <Saadc::isBusy()+0x8>)
   1a382:	f8d3 0400 	ldr.w	r0, [r3, #1024]	; 0x400
   1a386:	4770      	bx	lr
   1a388:	40007000 	.word	0x40007000

0001a38c <Saadc::enable()>:
   1a38c:	4b02      	ldr	r3, [pc, #8]	; (1a398 <Saadc::enable()+0xc>)
   1a38e:	2201      	movs	r2, #1
   1a390:	f8c3 2500 	str.w	r2, [r3, #1280]	; 0x500
   1a394:	4770      	bx	lr
   1a396:	bf00      	nop
   1a398:	40007000 	.word	0x40007000

0001a39c <Saadc::disable()>:
   1a39c:	4b02      	ldr	r3, [pc, #8]	; (1a3a8 <Saadc::disable()+0xc>)
   1a39e:	2200      	movs	r2, #0
   1a3a0:	f8c3 2500 	str.w	r2, [r3, #1280]	; 0x500
   1a3a4:	4770      	bx	lr
   1a3a6:	bf00      	nop
   1a3a8:	40007000 	.word	0x40007000

0001a3ac <Saadc::clearStarted()>:
   1a3ac:	4b02      	ldr	r3, [pc, #8]	; (1a3b8 <Saadc::clearStarted()+0xc>)
   1a3ae:	2200      	movs	r2, #0
   1a3b0:	f8c3 2100 	str.w	r2, [r3, #256]	; 0x100
   1a3b4:	4770      	bx	lr
   1a3b6:	bf00      	nop
   1a3b8:	40007000 	.word	0x40007000

0001a3bc <Saadc::clearBufferFull()>:
   1a3bc:	4b02      	ldr	r3, [pc, #8]	; (1a3c8 <Saadc::clearBufferFull()+0xc>)
   1a3be:	2200      	movs	r2, #0
   1a3c0:	f8c3 2104 	str.w	r2, [r3, #260]	; 0x104
   1a3c4:	4770      	bx	lr
   1a3c6:	bf00      	nop
   1a3c8:	40007000 	.word	0x40007000

0001a3cc <Saadc::clearConversion()>:
   1a3cc:	4b02      	ldr	r3, [pc, #8]	; (1a3d8 <Saadc::clearConversion()+0xc>)
   1a3ce:	2200      	movs	r2, #0
   1a3d0:	f8c3 2108 	str.w	r2, [r3, #264]	; 0x108
   1a3d4:	4770      	bx	lr
   1a3d6:	bf00      	nop
   1a3d8:	40007000 	.word	0x40007000

0001a3dc <Saadc::clearResult()>:
   1a3dc:	4b02      	ldr	r3, [pc, #8]	; (1a3e8 <Saadc::clearResult()+0xc>)
   1a3de:	2200      	movs	r2, #0
   1a3e0:	f8c3 210c 	str.w	r2, [r3, #268]	; 0x10c
   1a3e4:	4770      	bx	lr
   1a3e6:	bf00      	nop
   1a3e8:	40007000 	.word	0x40007000

0001a3ec <Saadc::clearCalibrated()>:
   1a3ec:	4b02      	ldr	r3, [pc, #8]	; (1a3f8 <Saadc::clearCalibrated()+0xc>)
   1a3ee:	2200      	movs	r2, #0
   1a3f0:	f8c3 2110 	str.w	r2, [r3, #272]	; 0x110
   1a3f4:	4770      	bx	lr
   1a3f6:	bf00      	nop
   1a3f8:	40007000 	.word	0x40007000

0001a3fc <Saadc::clearStopped()>:
   1a3fc:	4b02      	ldr	r3, [pc, #8]	; (1a408 <Saadc::clearStopped()+0xc>)
   1a3fe:	2200      	movs	r2, #0
   1a400:	f8c3 2114 	str.w	r2, [r3, #276]	; 0x114
   1a404:	4770      	bx	lr
   1a406:	bf00      	nop
   1a408:	40007000 	.word	0x40007000

0001a40c <Saadc::clearEvents()>:
   1a40c:	b508      	push	{r3, lr}
   1a40e:	f7ff ffcd 	bl	1a3ac <Saadc::clearStarted()>
   1a412:	f7ff ffd3 	bl	1a3bc <Saadc::clearBufferFull()>
   1a416:	f7ff ffd9 	bl	1a3cc <Saadc::clearConversion()>
   1a41a:	f7ff ffdf 	bl	1a3dc <Saadc::clearResult()>
   1a41e:	f7ff ffed 	bl	1a3fc <Saadc::clearStopped()>
   1a422:	bd08      	pop	{r3, pc}

0001a424 <Saadc::isResult()>:
   1a424:	4b01      	ldr	r3, [pc, #4]	; (1a42c <Saadc::isResult()+0x8>)
   1a426:	f8d3 010c 	ldr.w	r0, [r3, #268]	; 0x10c
   1a42a:	4770      	bx	lr
   1a42c:	40007000 	.word	0x40007000

0001a430 <Saadc::isCalibrated()>:
   1a430:	4b01      	ldr	r3, [pc, #4]	; (1a438 <Saadc::isCalibrated()+0x8>)
   1a432:	f8d3 0110 	ldr.w	r0, [r3, #272]	; 0x110
   1a436:	4770      	bx	lr
   1a438:	40007000 	.word	0x40007000

0001a43c <Saadc::start()>:
   1a43c:	b508      	push	{r3, lr}
   1a43e:	f7ff ffa5 	bl	1a38c <Saadc::enable()>
   1a442:	4b02      	ldr	r3, [pc, #8]	; (1a44c <Saadc::start()+0x10>)
   1a444:	2201      	movs	r2, #1
   1a446:	601a      	str	r2, [r3, #0]
   1a448:	bd08      	pop	{r3, pc}
   1a44a:	bf00      	nop
   1a44c:	40007000 	.word	0x40007000

0001a450 <Saadc::sample()>:
   1a450:	4b01      	ldr	r3, [pc, #4]	; (1a458 <Saadc::sample()+0x8>)
   1a452:	2201      	movs	r2, #1
   1a454:	605a      	str	r2, [r3, #4]
   1a456:	4770      	bx	lr
   1a458:	40007000 	.word	0x40007000

0001a45c <Saadc::calibrate()>:
   1a45c:	b508      	push	{r3, lr}
   1a45e:	f7ff ff95 	bl	1a38c <Saadc::enable()>
   1a462:	4b05      	ldr	r3, [pc, #20]	; (1a478 <Saadc::calibrate()+0x1c>)
   1a464:	2201      	movs	r2, #1
   1a466:	60da      	str	r2, [r3, #12]
   1a468:	f7ff ffe2 	bl	1a430 <Saadc::isCalibrated()>
   1a46c:	2800      	cmp	r0, #0
   1a46e:	d0fb      	beq.n	1a468 <Saadc::calibrate()+0xc>
   1a470:	f7ff ffbc 	bl	1a3ec <Saadc::clearCalibrated()>
   1a474:	bd08      	pop	{r3, pc}
   1a476:	bf00      	nop
   1a478:	40007000 	.word	0x40007000

0001a47c <Saadc::channelSetup(Saadc::CH, unsigned long, Saadc::PSEL, Saadc::PSEL)>:
   1a47c:	b570      	push	{r4, r5, r6, lr}
   1a47e:	ea52 0403 	orrs.w	r4, r2, r3
   1a482:	d005      	beq.n	1a490 <Saadc::channelSetup(Saadc::CH, unsigned long, Saadc::PSEL, Saadc::PSEL)+0x14>
   1a484:	4d08      	ldr	r5, [pc, #32]	; (1a4a8 <Saadc::channelSetup(Saadc::CH, unsigned long, Saadc::PSEL, Saadc::PSEL)+0x2c>)
   1a486:	2401      	movs	r4, #1
   1a488:	782e      	ldrb	r6, [r5, #0]
   1a48a:	4084      	lsls	r4, r0
   1a48c:	4334      	orrs	r4, r6
   1a48e:	702c      	strb	r4, [r5, #0]
   1a490:	0100      	lsls	r0, r0, #4
   1a492:	f100 4480 	add.w	r4, r0, #1073741824	; 0x40000000
   1a496:	f504 44e0 	add.w	r4, r4, #28672	; 0x7000
   1a49a:	f8c4 2510 	str.w	r2, [r4, #1296]	; 0x510
   1a49e:	f8c4 3514 	str.w	r3, [r4, #1300]	; 0x514
   1a4a2:	f8c4 1518 	str.w	r1, [r4, #1304]	; 0x518
   1a4a6:	bd70      	pop	{r4, r5, r6, pc}
   1a4a8:	200013a7 	.word	0x200013a7

0001a4ac <Saadc::channelRelease(Saadc::CH)>:
   1a4ac:	4909      	ldr	r1, [pc, #36]	; (1a4d4 <Saadc::channelRelease(Saadc::CH)+0x28>)
   1a4ae:	2301      	movs	r3, #1
   1a4b0:	fa03 f200 	lsl.w	r2, r3, r0
   1a4b4:	780b      	ldrb	r3, [r1, #0]
   1a4b6:	0100      	lsls	r0, r0, #4
   1a4b8:	f100 4080 	add.w	r0, r0, #1073741824	; 0x40000000
   1a4bc:	ea23 0302 	bic.w	r3, r3, r2
   1a4c0:	f500 40e0 	add.w	r0, r0, #28672	; 0x7000
   1a4c4:	700b      	strb	r3, [r1, #0]
   1a4c6:	2300      	movs	r3, #0
   1a4c8:	f8c0 3510 	str.w	r3, [r0, #1296]	; 0x510
   1a4cc:	f8c0 3514 	str.w	r3, [r0, #1300]	; 0x514
   1a4d0:	4770      	bx	lr
   1a4d2:	bf00      	nop
   1a4d4:	200013a7 	.word	0x200013a7

0001a4d8 <Saadc::channelOnly(Saadc::CH)>:
   1a4d8:	b538      	push	{r3, r4, r5, lr}
   1a4da:	4605      	mov	r5, r0
   1a4dc:	2400      	movs	r4, #0
   1a4de:	42a5      	cmp	r5, r4
   1a4e0:	d002      	beq.n	1a4e8 <Saadc::channelOnly(Saadc::CH)+0x10>
   1a4e2:	b2e0      	uxtb	r0, r4
   1a4e4:	f7ff ffe2 	bl	1a4ac <Saadc::channelRelease(Saadc::CH)>
   1a4e8:	3401      	adds	r4, #1
   1a4ea:	2c08      	cmp	r4, #8
   1a4ec:	d1f7      	bne.n	1a4de <Saadc::channelOnly(Saadc::CH)+0x6>
   1a4ee:	bd38      	pop	{r3, r4, r5, pc}

0001a4f0 <Saadc::resolution(Saadc::RES)>:
   1a4f0:	4b01      	ldr	r3, [pc, #4]	; (1a4f8 <Saadc::resolution(Saadc::RES)+0x8>)
   1a4f2:	f8c3 05f0 	str.w	r0, [r3, #1520]	; 0x5f0
   1a4f6:	4770      	bx	lr
   1a4f8:	40007000 	.word	0x40007000

0001a4fc <Saadc::resolution()>:
   1a4fc:	4b02      	ldr	r3, [pc, #8]	; (1a508 <Saadc::resolution()+0xc>)
   1a4fe:	f8d3 05f0 	ldr.w	r0, [r3, #1520]	; 0x5f0
   1a502:	b2c0      	uxtb	r0, r0
   1a504:	4770      	bx	lr
   1a506:	bf00      	nop
   1a508:	40007000 	.word	0x40007000

0001a50c <Saadc::overSample(Saadc::OVERSAMP)>:
   1a50c:	4b01      	ldr	r3, [pc, #4]	; (1a514 <Saadc::overSample(Saadc::OVERSAMP)+0x8>)
   1a50e:	f8c3 05f4 	str.w	r0, [r3, #1524]	; 0x5f4
   1a512:	4770      	bx	lr
   1a514:	40007000 	.word	0x40007000

0001a518 <Saadc::overSample()>:
   1a518:	4b02      	ldr	r3, [pc, #8]	; (1a524 <Saadc::overSample()+0xc>)
   1a51a:	f8d3 05f4 	ldr.w	r0, [r3, #1524]	; 0x5f4
   1a51e:	b2c0      	uxtb	r0, r0
   1a520:	4770      	bx	lr
   1a522:	bf00      	nop
   1a524:	40007000 	.word	0x40007000

0001a528 <Saadc::bufferAddr(unsigned long)>:
   1a528:	4b01      	ldr	r3, [pc, #4]	; (1a530 <Saadc::bufferAddr(unsigned long)+0x8>)
   1a52a:	f8c3 062c 	str.w	r0, [r3, #1580]	; 0x62c
   1a52e:	4770      	bx	lr
   1a530:	40007000 	.word	0x40007000

0001a534 <Saadc::bufferSize(unsigned short)>:
   1a534:	4b01      	ldr	r3, [pc, #4]	; (1a53c <Saadc::bufferSize(unsigned short)+0x8>)
   1a536:	f8c3 0630 	str.w	r0, [r3, #1584]	; 0x630
   1a53a:	4770      	bx	lr
   1a53c:	40007000 	.word	0x40007000

0001a540 <Saadc::bufferSet(unsigned long, unsigned short)>:
   1a540:	b510      	push	{r4, lr}
   1a542:	460c      	mov	r4, r1
   1a544:	f7ff fff0 	bl	1a528 <Saadc::bufferAddr(unsigned long)>
   1a548:	4620      	mov	r0, r4
   1a54a:	f7ff fff3 	bl	1a534 <Saadc::bufferSize(unsigned short)>
   1a54e:	bd10      	pop	{r4, pc}

0001a550 <SaadcChan::setConfig(short&)>:
   1a550:	b538      	push	{r3, r4, r5, lr}
   1a552:	4604      	mov	r4, r0
   1a554:	f7ff ff14 	bl	1a380 <Saadc::isBusy()>
   1a558:	b9a8      	cbnz	r0, 1a586 <SaadcChan::setConfig(short&)+0x36>
   1a55a:	4b0c      	ldr	r3, [pc, #48]	; (1a58c <SaadcChan::setConfig(short&)+0x3c>)
   1a55c:	781a      	ldrb	r2, [r3, #0]
   1a55e:	4b0c      	ldr	r3, [pc, #48]	; (1a590 <SaadcChan::setConfig(short&)+0x40>)
   1a560:	781b      	ldrb	r3, [r3, #0]
   1a562:	ea52 0003 	orrs.w	r0, r2, r3
   1a566:	d00d      	beq.n	1a584 <SaadcChan::setConfig(short&)+0x34>
   1a568:	4d0a      	ldr	r5, [pc, #40]	; (1a594 <SaadcChan::setConfig(short&)+0x44>)
   1a56a:	490b      	ldr	r1, [pc, #44]	; (1a598 <SaadcChan::setConfig(short&)+0x48>)
   1a56c:	7828      	ldrb	r0, [r5, #0]
   1a56e:	6809      	ldr	r1, [r1, #0]
   1a570:	f7ff ff84 	bl	1a47c <Saadc::channelSetup(Saadc::CH, unsigned long, Saadc::PSEL, Saadc::PSEL)>
   1a574:	2101      	movs	r1, #1
   1a576:	4620      	mov	r0, r4
   1a578:	f7ff ffe2 	bl	1a540 <Saadc::bufferSet(unsigned long, unsigned short)>
   1a57c:	7828      	ldrb	r0, [r5, #0]
   1a57e:	f7ff ffab 	bl	1a4d8 <Saadc::channelOnly(Saadc::CH)>
   1a582:	2001      	movs	r0, #1
   1a584:	bd38      	pop	{r3, r4, r5, pc}
   1a586:	2000      	movs	r0, #0
   1a588:	e7fc      	b.n	1a584 <SaadcChan::setConfig(short&)+0x34>
   1a58a:	bf00      	nop
   1a58c:	200013a5 	.word	0x200013a5
   1a590:	200013a4 	.word	0x200013a4
   1a594:	200013a6 	.word	0x200013a6
   1a598:	200013a0 	.word	0x200013a0

0001a59c <SaadcChan::result1()>:
   1a59c:	b508      	push	{r3, lr}
   1a59e:	f7ff ff1d 	bl	1a3dc <Saadc::clearResult()>
   1a5a2:	f7ff ff3f 	bl	1a424 <Saadc::isResult()>
   1a5a6:	b910      	cbnz	r0, 1a5ae <SaadcChan::result1()+0x12>
   1a5a8:	f7ff ff52 	bl	1a450 <Saadc::sample()>
   1a5ac:	e7f9      	b.n	1a5a2 <SaadcChan::result1()+0x6>
   1a5ae:	bd08      	pop	{r3, pc}

0001a5b0 <SaadcChan::read(short&, Saadc::RES, Saadc::OVERSAMP)>:
   1a5b0:	e92d 41f0 	stmdb	sp!, {r4, r5, r6, r7, r8, lr}
   1a5b4:	4688      	mov	r8, r1
   1a5b6:	4617      	mov	r7, r2
   1a5b8:	f7ff ffca 	bl	1a550 <SaadcChan::setConfig(short&)>
   1a5bc:	4604      	mov	r4, r0
   1a5be:	b1e8      	cbz	r0, 1a5fc <SaadcChan::read(short&, Saadc::RES, Saadc::OVERSAMP)+0x4c>
   1a5c0:	f7ff ff9c 	bl	1a4fc <Saadc::resolution()>
   1a5c4:	4606      	mov	r6, r0
   1a5c6:	f7ff ffa7 	bl	1a518 <Saadc::overSample()>
   1a5ca:	4605      	mov	r5, r0
   1a5cc:	4640      	mov	r0, r8
   1a5ce:	f7ff ff8f 	bl	1a4f0 <Saadc::resolution(Saadc::RES)>
   1a5d2:	4638      	mov	r0, r7
   1a5d4:	f7ff ff9a 	bl	1a50c <Saadc::overSample(Saadc::OVERSAMP)>
   1a5d8:	f7ff ff30 	bl	1a43c <Saadc::start()>
   1a5dc:	f7ff ffde 	bl	1a59c <SaadcChan::result1()>
   1a5e0:	4630      	mov	r0, r6
   1a5e2:	f7ff ff85 	bl	1a4f0 <Saadc::resolution(Saadc::RES)>
   1a5e6:	4628      	mov	r0, r5
   1a5e8:	f7ff ff90 	bl	1a50c <Saadc::overSample(Saadc::OVERSAMP)>
   1a5ec:	f7ff fed6 	bl	1a39c <Saadc::disable()>
   1a5f0:	f7ff ff0c 	bl	1a40c <Saadc::clearEvents()>
   1a5f4:	4b03      	ldr	r3, [pc, #12]	; (1a604 <SaadcChan::read(short&, Saadc::RES, Saadc::OVERSAMP)+0x54>)
   1a5f6:	7818      	ldrb	r0, [r3, #0]
   1a5f8:	f7ff ff58 	bl	1a4ac <Saadc::channelRelease(Saadc::CH)>
   1a5fc:	4620      	mov	r0, r4
   1a5fe:	e8bd 81f0 	ldmia.w	sp!, {r4, r5, r6, r7, r8, pc}
   1a602:	bf00      	nop
   1a604:	200013a6 	.word	0x200013a6

0001a608 <Battery::update()>:
   1a608:	b573      	push	{r0, r1, r4, r5, r6, lr}
   1a60a:	4c18      	ldr	r4, [pc, #96]	; (1a66c <Battery::update()+0x64>)
   1a60c:	4d18      	ldr	r5, [pc, #96]	; (1a670 <Battery::update()+0x68>)
   1a60e:	7826      	ldrb	r6, [r4, #0]
   1a610:	b9d6      	cbnz	r6, 1a648 <Battery::update()+0x40>
   1a612:	f7ff ff23 	bl	1a45c <Saadc::calibrate()>
   1a616:	2203      	movs	r2, #3
   1a618:	2101      	movs	r1, #1
   1a61a:	f10d 0006 	add.w	r0, sp, #6
   1a61e:	f8ad 6006 	strh.w	r6, [sp, #6]
   1a622:	f7ff ffc5 	bl	1a5b0 <SaadcChan::read(short&, Saadc::RES, Saadc::OVERSAMP)>
   1a626:	f8bd 3006 	ldrh.w	r3, [sp, #6]
   1a62a:	f44f 6261 	mov.w	r2, #3600	; 0xe10
   1a62e:	fb13 f302 	smulbb	r3, r3, r2
   1a632:	2b00      	cmp	r3, #0
   1a634:	bfb8      	it	lt
   1a636:	f203 33ff 	addwlt	r3, r3, #1023	; 0x3ff
   1a63a:	f343 238f 	sbfx	r3, r3, #10, #16
   1a63e:	f5b3 7ffa 	cmp.w	r3, #500	; 0x1f4
   1a642:	da0c      	bge.n	1a65e <Battery::update()+0x56>
   1a644:	2300      	movs	r3, #0
   1a646:	802b      	strh	r3, [r5, #0]
   1a648:	7823      	ldrb	r3, [r4, #0]
   1a64a:	f9b5 0000 	ldrsh.w	r0, [r5]
   1a64e:	3301      	adds	r3, #1
   1a650:	b2db      	uxtb	r3, r3
   1a652:	2b3b      	cmp	r3, #59	; 0x3b
   1a654:	bf88      	it	hi
   1a656:	2300      	movhi	r3, #0
   1a658:	7023      	strb	r3, [r4, #0]
   1a65a:	b002      	add	sp, #8
   1a65c:	bd70      	pop	{r4, r5, r6, pc}
   1a65e:	f5b3 6f61 	cmp.w	r3, #3600	; 0xe10
   1a662:	bfc8      	it	gt
   1a664:	f242 730f 	movwgt	r3, #9999	; 0x270f
   1a668:	e7ed      	b.n	1a646 <Battery::update()+0x3e>
   1a66a:	bf00      	nop
   1a66c:	2000139a 	.word	0x2000139a
   1a670:	2000139c 	.word	0x2000139c

0001a674 <Battery::read()>:
   1a674:	b508      	push	{r3, lr}
   1a676:	f7ff ffc7 	bl	1a608 <Battery::update()>
   1a67a:	bd08      	pop	{r3, pc}

0001a67c <Battery::isOk()>:
   1a67c:	4b04      	ldr	r3, [pc, #16]	; (1a690 <Battery::isOk()+0x14>)
   1a67e:	f9b3 0000 	ldrsh.w	r0, [r3]
   1a682:	f640 0334 	movw	r3, #2100	; 0x834
   1a686:	4298      	cmp	r0, r3
   1a688:	bfd4      	ite	le
   1a68a:	2000      	movle	r0, #0
   1a68c:	2001      	movgt	r0, #1
   1a68e:	4770      	bx	lr
   1a690:	2000139c 	.word	0x2000139c

0001a694 <Flags01::make(unsigned char*, unsigned char)>:
   1a694:	2302      	movs	r3, #2
   1a696:	7003      	strb	r3, [r0, #0]
   1a698:	2301      	movs	r3, #1
   1a69a:	7043      	strb	r3, [r0, #1]
   1a69c:	7081      	strb	r1, [r0, #2]
   1a69e:	2003      	movs	r0, #3
   1a6a0:	4770      	bx	lr

0001a6a2 <CompleteName09::make(unsigned char*, char const*, unsigned char)>:
   1a6a2:	b5f8      	push	{r3, r4, r5, r6, r7, lr}
   1a6a4:	4605      	mov	r5, r0
   1a6a6:	4608      	mov	r0, r1
   1a6a8:	4617      	mov	r7, r2
   1a6aa:	460e      	mov	r6, r1
   1a6ac:	f001 fa78 	bl	1bba0 <strlen>
   1a6b0:	b2c4      	uxtb	r4, r0
   1a6b2:	42bc      	cmp	r4, r7
   1a6b4:	bf28      	it	cs
   1a6b6:	463c      	movcs	r4, r7
   1a6b8:	1c63      	adds	r3, r4, #1
   1a6ba:	702b      	strb	r3, [r5, #0]
   1a6bc:	2309      	movs	r3, #9
   1a6be:	706b      	strb	r3, [r5, #1]
   1a6c0:	4622      	mov	r2, r4
   1a6c2:	4631      	mov	r1, r6
   1a6c4:	1ca8      	adds	r0, r5, #2
   1a6c6:	f001 fa19 	bl	1bafc <memcpy>
   1a6ca:	1ca0      	adds	r0, r4, #2
   1a6cc:	bdf8      	pop	{r3, r4, r5, r6, r7, pc}

0001a6ce <UUID07::u16toBcd(unsigned short)>:
   1a6ce:	220a      	movs	r2, #10
   1a6d0:	f44f 717a 	mov.w	r1, #1000	; 0x3e8
   1a6d4:	fbb0 f1f1 	udiv	r1, r0, r1
   1a6d8:	fbb1 f3f2 	udiv	r3, r1, r2
   1a6dc:	fb02 1313 	mls	r3, r2, r3, r1
   1a6e0:	b299      	uxth	r1, r3
   1a6e2:	b510      	push	{r4, lr}
   1a6e4:	2364      	movs	r3, #100	; 0x64
   1a6e6:	fbb0 f4f3 	udiv	r4, r0, r3
   1a6ea:	fbb4 f3f2 	udiv	r3, r4, r2
   1a6ee:	fb02 4313 	mls	r3, r2, r3, r4
   1a6f2:	b29b      	uxth	r3, r3
   1a6f4:	021b      	lsls	r3, r3, #8
   1a6f6:	ea43 3301 	orr.w	r3, r3, r1, lsl #12
   1a6fa:	fbb0 f1f2 	udiv	r1, r0, r2
   1a6fe:	fb02 0011 	mls	r0, r2, r1, r0
   1a702:	b280      	uxth	r0, r0
   1a704:	4303      	orrs	r3, r0
   1a706:	fbb1 f0f2 	udiv	r0, r1, r2
   1a70a:	fb02 1010 	mls	r0, r2, r0, r1
   1a70e:	b280      	uxth	r0, r0
   1a710:	ea43 1000 	orr.w	r0, r3, r0, lsl #4
   1a714:	bd10      	pop	{r4, pc}

0001a716 <UUID07::makeBCD(unsigned char*, unsigned short const (&) [8])>:
   1a716:	b5f8      	push	{r3, r4, r5, r6, r7, lr}
   1a718:	2311      	movs	r3, #17
   1a71a:	7003      	strb	r3, [r0, #0]
   1a71c:	2307      	movs	r3, #7
   1a71e:	460e      	mov	r6, r1
   1a720:	7043      	strb	r3, [r0, #1]
   1a722:	1d04      	adds	r4, r0, #4
   1a724:	2500      	movs	r5, #0
   1a726:	f836 7015 	ldrh.w	r7, [r6, r5, lsl #1]
   1a72a:	4638      	mov	r0, r7
   1a72c:	f7ff ffcf 	bl	1a6ce <UUID07::u16toBcd(unsigned short)>
   1a730:	b280      	uxth	r0, r0
   1a732:	2d07      	cmp	r5, #7
   1a734:	bf08      	it	eq
   1a736:	4638      	moveq	r0, r7
   1a738:	3501      	adds	r5, #1
   1a73a:	f804 0c02 	strb.w	r0, [r4, #-2]
   1a73e:	2d08      	cmp	r5, #8
   1a740:	ea4f 2020 	mov.w	r0, r0, asr #8
   1a744:	f804 0c01 	strb.w	r0, [r4, #-1]
   1a748:	f104 0402 	add.w	r4, r4, #2
   1a74c:	d1eb      	bne.n	1a726 <UUID07::makeBCD(unsigned char*, unsigned short const (&) [8])+0x10>
   1a74e:	2012      	movs	r0, #18
   1a750:	bdf8      	pop	{r3, r4, r5, r6, r7, pc}

0001a752 <MyTemperatureAD<TemperatureTmp117<(unsigned char)5> >::makeValidLetter(char)>:
   1a752:	f1a0 0341 	sub.w	r3, r0, #65	; 0x41
   1a756:	2b19      	cmp	r3, #25
   1a758:	bf88      	it	hi
   1a75a:	2054      	movhi	r0, #84	; 0x54
   1a75c:	4770      	bx	lr

0001a75e <MyTemperatureAD<TemperatureTmp117<(unsigned char)5> >::getNameFlash()>:
   1a75e:	f44f 333c 	mov.w	r3, #192512	; 0x2f000
   1a762:	7818      	ldrb	r0, [r3, #0]
   1a764:	4770      	bx	lr

0001a766 <MyTemperatureAD<TemperatureTmp117<(unsigned char)5> >::sdFlashWrite(char)>:
   1a766:	b513      	push	{r0, r1, r4, lr}
   1a768:	4604      	mov	r4, r0
   1a76a:	202f      	movs	r0, #47	; 0x2f
   1a76c:	f7ff fcd2 	bl	1a114 <sd_flash_page_erase>
   1a770:	2101      	movs	r1, #1
   1a772:	b280      	uxth	r0, r0
   1a774:	f7ff fdd8 	bl	1a328 <Errors::check(unsigned short, bool)>
   1a778:	f44f 707a 	mov.w	r0, #1000	; 0x3e8
   1a77c:	f7ff fcd4 	bl	1a128 <nrf_delay_ms.part.0>
   1a780:	f44f 333c 	mov.w	r3, #192512	; 0x2f000
   1a784:	781b      	ldrb	r3, [r3, #0]
   1a786:	2bff      	cmp	r3, #255	; 0xff
   1a788:	d003      	beq.n	1a792 <MyTemperatureAD<TemperatureTmp117<(unsigned char)5> >::sdFlashWrite(char)+0x2c>
   1a78a:	2101      	movs	r1, #1
   1a78c:	2003      	movs	r0, #3
   1a78e:	f7ff fdcb 	bl	1a328 <Errors::check(unsigned short, bool)>
   1a792:	2201      	movs	r2, #1
   1a794:	a901      	add	r1, sp, #4
   1a796:	f44f 303c 	mov.w	r0, #192512	; 0x2f000
   1a79a:	9401      	str	r4, [sp, #4]
   1a79c:	f7ff fcb8 	bl	1a110 <sd_flash_write>
   1a7a0:	2101      	movs	r1, #1
   1a7a2:	b280      	uxth	r0, r0
   1a7a4:	f7ff fdc0 	bl	1a328 <Errors::check(unsigned short, bool)>
   1a7a8:	f44f 707a 	mov.w	r0, #1000	; 0x3e8
   1a7ac:	f7ff fcbc 	bl	1a128 <nrf_delay_ms.part.0>
   1a7b0:	f44f 333c 	mov.w	r3, #192512	; 0x2f000
   1a7b4:	781b      	ldrb	r3, [r3, #0]
   1a7b6:	42a3      	cmp	r3, r4
   1a7b8:	d003      	beq.n	1a7c2 <MyTemperatureAD<TemperatureTmp117<(unsigned char)5> >::sdFlashWrite(char)+0x5c>
   1a7ba:	2101      	movs	r1, #1
   1a7bc:	2003      	movs	r0, #3
   1a7be:	f7ff fdb3 	bl	1a328 <Errors::check(unsigned short, bool)>
   1a7c2:	b002      	add	sp, #8
   1a7c4:	bd10      	pop	{r4, pc}

0001a7c6 <MyTemperatureAD<TemperatureTmp117<(unsigned char)5> >::flashWrite(char)>:
   1a7c6:	b510      	push	{r4, lr}
   1a7c8:	4604      	mov	r4, r0
   1a7ca:	f001 f895 	bl	1b8f8 <nrf_sdh_is_enabled>
   1a7ce:	b118      	cbz	r0, 1a7d8 <MyTemperatureAD<TemperatureTmp117<(unsigned char)5> >::flashWrite(char)+0x12>
   1a7d0:	4620      	mov	r0, r4
   1a7d2:	f7ff ffc8 	bl	1a766 <MyTemperatureAD<TemperatureTmp117<(unsigned char)5> >::sdFlashWrite(char)>
   1a7d6:	bd10      	pop	{r4, pc}
   1a7d8:	f44f 303c 	mov.w	r0, #192512	; 0x2f000
   1a7dc:	f7ff fc5c 	bl	1a098 <nrf_nvmc_page_erase>
   1a7e0:	4621      	mov	r1, r4
   1a7e2:	f44f 303c 	mov.w	r0, #192512	; 0x2f000
   1a7e6:	e8bd 4010 	ldmia.w	sp!, {r4, lr}
   1a7ea:	f7ff bc6d 	b.w	1a0c8 <nrf_nvmc_write_byte>

0001a7ee <MyTemperatureAD<TemperatureTmp117<(unsigned char)5> >::setNameFlash(char)>:
   1a7ee:	b538      	push	{r3, r4, r5, lr}
   1a7f0:	4605      	mov	r5, r0
   1a7f2:	f7ff ffae 	bl	1a752 <MyTemperatureAD<TemperatureTmp117<(unsigned char)5> >::makeValidLetter(char)>
   1a7f6:	42a8      	cmp	r0, r5
   1a7f8:	4604      	mov	r4, r0
   1a7fa:	d106      	bne.n	1a80a <MyTemperatureAD<TemperatureTmp117<(unsigned char)5> >::setNameFlash(char)+0x1c>
   1a7fc:	f7ff ffaf 	bl	1a75e <MyTemperatureAD<TemperatureTmp117<(unsigned char)5> >::getNameFlash()>
   1a800:	42a0      	cmp	r0, r4
   1a802:	d002      	beq.n	1a80a <MyTemperatureAD<TemperatureTmp117<(unsigned char)5> >::setNameFlash(char)+0x1c>
   1a804:	4620      	mov	r0, r4
   1a806:	f7ff ffde 	bl	1a7c6 <MyTemperatureAD<TemperatureTmp117<(unsigned char)5> >::flashWrite(char)>
   1a80a:	bd38      	pop	{r3, r4, r5, pc}

0001a80c <MyTemperatureAD<TemperatureTmp117<(unsigned char)5> >::setName(char)>:
   1a80c:	b508      	push	{r3, lr}
   1a80e:	f7ff ffa0 	bl	1a752 <MyTemperatureAD<TemperatureTmp117<(unsigned char)5> >::makeValidLetter(char)>
   1a812:	4b01      	ldr	r3, [pc, #4]	; (1a818 <MyTemperatureAD<TemperatureTmp117<(unsigned char)5> >::setName(char)+0xc>)
   1a814:	7018      	strb	r0, [r3, #0]
   1a816:	bd08      	pop	{r3, pc}
   1a818:	2000137d 	.word	0x2000137d

0001a81c <MyTemperatureAD<TemperatureTmp117<(unsigned char)5> >::init()>:
   1a81c:	e92d 41f0 	stmdb	sp!, {r4, r5, r6, r7, r8, lr}
   1a820:	f04f 44a0 	mov.w	r4, #1342177280	; 0x50000000
   1a824:	f8d4 3720 	ldr.w	r3, [r4, #1824]	; 0x720
   1a828:	07d8      	lsls	r0, r3, #31
   1a82a:	d51c      	bpl.n	1a866 <MyTemperatureAD<TemperatureTmp117<(unsigned char)5> >::init()+0x4a>
   1a82c:	2506      	movs	r5, #6
   1a82e:	f44f 7680 	mov.w	r6, #256	; 0x100
   1a832:	3d01      	subs	r5, #1
   1a834:	b2ad      	uxth	r5, r5
   1a836:	b1b5      	cbz	r5, 1a866 <MyTemperatureAD<TemperatureTmp117<(unsigned char)5> >::init()+0x4a>
   1a838:	f8d4 3504 	ldr.w	r3, [r4, #1284]	; 0x504
   1a83c:	05d9      	lsls	r1, r3, #23
   1a83e:	bf4c      	ite	mi
   1a840:	f8c4 650c 	strmi.w	r6, [r4, #1292]	; 0x50c
   1a844:	f8c4 6508 	strpl.w	r6, [r4, #1288]	; 0x508
   1a848:	2032      	movs	r0, #50	; 0x32
   1a84a:	f7ff fc6d 	bl	1a128 <nrf_delay_ms.part.0>
   1a84e:	f8d4 3504 	ldr.w	r3, [r4, #1284]	; 0x504
   1a852:	05da      	lsls	r2, r3, #23
   1a854:	bf4c      	ite	mi
   1a856:	f8c4 650c 	strmi.w	r6, [r4, #1292]	; 0x50c
   1a85a:	f8c4 6508 	strpl.w	r6, [r4, #1288]	; 0x508
   1a85e:	2032      	movs	r0, #50	; 0x32
   1a860:	f7ff fc62 	bl	1a128 <nrf_delay_ms.part.0>
   1a864:	e7e5      	b.n	1a832 <MyTemperatureAD<TemperatureTmp117<(unsigned char)5> >::init()+0x16>
   1a866:	2600      	movs	r6, #0
   1a868:	2540      	movs	r5, #64	; 0x40
   1a86a:	f04f 44a0 	mov.w	r4, #1342177280	; 0x50000000
   1a86e:	f04f 0880 	mov.w	r8, #128	; 0x80
   1a872:	f8d4 3510 	ldr.w	r3, [r4, #1296]	; 0x510
   1a876:	011b      	lsls	r3, r3, #4
   1a878:	d559      	bpl.n	1a92e <MyTemperatureAD<TemperatureTmp117<(unsigned char)5> >::init()+0x112>
   1a87a:	3601      	adds	r6, #1
   1a87c:	2032      	movs	r0, #50	; 0x32
   1a87e:	f7ff fc53 	bl	1a128 <nrf_delay_ms.part.0>
   1a882:	2ec7      	cmp	r6, #199	; 0xc7
   1a884:	ddf5      	ble.n	1a872 <MyTemperatureAD<TemperatureTmp117<(unsigned char)5> >::init()+0x56>
   1a886:	2d40      	cmp	r5, #64	; 0x40
   1a888:	f000 808d 	beq.w	1a9a6 <MyTemperatureAD<TemperatureTmp117<(unsigned char)5> >::init()+0x18a>
   1a88c:	4628      	mov	r0, r5
   1a88e:	f7ff ffae 	bl	1a7ee <MyTemperatureAD<TemperatureTmp117<(unsigned char)5> >::setNameFlash(char)>
   1a892:	f8d4 3720 	ldr.w	r3, [r4, #1824]	; 0x720
   1a896:	07d8      	lsls	r0, r3, #31
   1a898:	d541      	bpl.n	1a91e <MyTemperatureAD<TemperatureTmp117<(unsigned char)5> >::init()+0x102>
   1a89a:	f8d4 3504 	ldr.w	r3, [r4, #1284]	; 0x504
   1a89e:	f413 7f80 	tst.w	r3, #256	; 0x100
   1a8a2:	f44f 7380 	mov.w	r3, #256	; 0x100
   1a8a6:	bf0c      	ite	eq
   1a8a8:	f8c4 3508 	streq.w	r3, [r4, #1288]	; 0x508
   1a8ac:	f8c4 350c 	strne.w	r3, [r4, #1292]	; 0x50c
   1a8b0:	20fa      	movs	r0, #250	; 0xfa
   1a8b2:	f7ff fc39 	bl	1a128 <nrf_delay_ms.part.0>
   1a8b6:	f04f 43a0 	mov.w	r3, #1342177280	; 0x50000000
   1a8ba:	20fa      	movs	r0, #250	; 0xfa
   1a8bc:	f8d3 2504 	ldr.w	r2, [r3, #1284]	; 0x504
   1a8c0:	f412 7f80 	tst.w	r2, #256	; 0x100
   1a8c4:	f44f 7280 	mov.w	r2, #256	; 0x100
   1a8c8:	bf0c      	ite	eq
   1a8ca:	f8c3 2508 	streq.w	r2, [r3, #1288]	; 0x508
   1a8ce:	f8c3 250c 	strne.w	r2, [r3, #1292]	; 0x50c
   1a8d2:	f7ff fc29 	bl	1a128 <nrf_delay_ms.part.0>
   1a8d6:	f04f 43a0 	mov.w	r3, #1342177280	; 0x50000000
   1a8da:	20fa      	movs	r0, #250	; 0xfa
   1a8dc:	f8d3 2504 	ldr.w	r2, [r3, #1284]	; 0x504
   1a8e0:	f412 7f80 	tst.w	r2, #256	; 0x100
   1a8e4:	f44f 7280 	mov.w	r2, #256	; 0x100
   1a8e8:	bf0c      	ite	eq
   1a8ea:	f8c3 2508 	streq.w	r2, [r3, #1288]	; 0x508
   1a8ee:	f8c3 250c 	strne.w	r2, [r3, #1292]	; 0x50c
   1a8f2:	f7ff fc19 	bl	1a128 <nrf_delay_ms.part.0>
   1a8f6:	f04f 43a0 	mov.w	r3, #1342177280	; 0x50000000
   1a8fa:	20fa      	movs	r0, #250	; 0xfa
   1a8fc:	f8d3 2504 	ldr.w	r2, [r3, #1284]	; 0x504
   1a900:	f412 7f80 	tst.w	r2, #256	; 0x100
   1a904:	f44f 7280 	mov.w	r2, #256	; 0x100
   1a908:	bf0c      	ite	eq
   1a90a:	f8c3 2508 	streq.w	r2, [r3, #1288]	; 0x508
   1a90e:	f8c3 250c 	strne.w	r2, [r3, #1292]	; 0x50c
   1a912:	f7ff fc09 	bl	1a128 <nrf_delay_ms.part.0>
   1a916:	f44f 707a 	mov.w	r0, #1000	; 0x3e8
   1a91a:	f7ff fc05 	bl	1a128 <nrf_delay_ms.part.0>
   1a91e:	f7ff ff1e 	bl	1a75e <MyTemperatureAD<TemperatureTmp117<(unsigned char)5> >::getNameFlash()>
   1a922:	f7ff ff73 	bl	1a80c <MyTemperatureAD<TemperatureTmp117<(unsigned char)5> >::setName(char)>
   1a926:	e8bd 81f0 	ldmia.w	sp!, {r4, r5, r6, r7, r8, pc}
   1a92a:	2600      	movs	r6, #0
   1a92c:	e7a1      	b.n	1a872 <MyTemperatureAD<TemperatureTmp117<(unsigned char)5> >::init()+0x56>
   1a92e:	f8d4 371c 	ldr.w	r3, [r4, #1820]	; 0x71c
   1a932:	07df      	lsls	r7, r3, #31
   1a934:	d516      	bpl.n	1a964 <MyTemperatureAD<TemperatureTmp117<(unsigned char)5> >::init()+0x148>
   1a936:	f8d4 3504 	ldr.w	r3, [r4, #1284]	; 0x504
   1a93a:	061e      	lsls	r6, r3, #24
   1a93c:	f04f 0005 	mov.w	r0, #5
   1a940:	bf4c      	ite	mi
   1a942:	f8c4 850c 	strmi.w	r8, [r4, #1292]	; 0x50c
   1a946:	f8c4 8508 	strpl.w	r8, [r4, #1288]	; 0x508
   1a94a:	f7ff fbed 	bl	1a128 <nrf_delay_ms.part.0>
   1a94e:	f8d4 3504 	ldr.w	r3, [r4, #1284]	; 0x504
   1a952:	0618      	lsls	r0, r3, #24
   1a954:	bf4c      	ite	mi
   1a956:	f8c4 850c 	strmi.w	r8, [r4, #1292]	; 0x50c
   1a95a:	f8c4 8508 	strpl.w	r8, [r4, #1288]	; 0x508
   1a95e:	2005      	movs	r0, #5
   1a960:	f7ff fbe2 	bl	1a128 <nrf_delay_ms.part.0>
   1a964:	3501      	adds	r5, #1
   1a966:	b2ed      	uxtb	r5, r5
   1a968:	f8d4 376c 	ldr.w	r3, [r4, #1900]	; 0x76c
   1a96c:	2d5b      	cmp	r5, #91	; 0x5b
   1a96e:	bf28      	it	cs
   1a970:	2541      	movcs	r5, #65	; 0x41
   1a972:	07d9      	lsls	r1, r3, #31
   1a974:	d4d9      	bmi.n	1a92a <MyTemperatureAD<TemperatureTmp117<(unsigned char)5> >::init()+0x10e>
   1a976:	f8d4 376c 	ldr.w	r3, [r4, #1900]	; 0x76c
   1a97a:	079a      	lsls	r2, r3, #30
   1a97c:	d4d5      	bmi.n	1a92a <MyTemperatureAD<TemperatureTmp117<(unsigned char)5> >::init()+0x10e>
   1a97e:	f640 37b9 	movw	r7, #3001	; 0xbb9
   1a982:	2664      	movs	r6, #100	; 0x64
   1a984:	e001      	b.n	1a98a <MyTemperatureAD<TemperatureTmp117<(unsigned char)5> >::init()+0x16e>
   1a986:	3e01      	subs	r6, #1
   1a988:	b2b6      	uxth	r6, r6
   1a98a:	2001      	movs	r0, #1
   1a98c:	f7ff fbcc 	bl	1a128 <nrf_delay_ms.part.0>
   1a990:	2e00      	cmp	r6, #0
   1a992:	d0ca      	beq.n	1a92a <MyTemperatureAD<TemperatureTmp117<(unsigned char)5> >::init()+0x10e>
   1a994:	3f01      	subs	r7, #1
   1a996:	b2bf      	uxth	r7, r7
   1a998:	2f00      	cmp	r7, #0
   1a99a:	d0c6      	beq.n	1a92a <MyTemperatureAD<TemperatureTmp117<(unsigned char)5> >::init()+0x10e>
   1a99c:	f8d4 3510 	ldr.w	r3, [r4, #1296]	; 0x510
   1a9a0:	011b      	lsls	r3, r3, #4
   1a9a2:	d4f0      	bmi.n	1a986 <MyTemperatureAD<TemperatureTmp117<(unsigned char)5> >::init()+0x16a>
   1a9a4:	e7ed      	b.n	1a982 <MyTemperatureAD<TemperatureTmp117<(unsigned char)5> >::init()+0x166>
   1a9a6:	f8d4 3720 	ldr.w	r3, [r4, #1824]	; 0x720
   1a9aa:	07d9      	lsls	r1, r3, #31
   1a9ac:	d5b7      	bpl.n	1a91e <MyTemperatureAD<TemperatureTmp117<(unsigned char)5> >::init()+0x102>
   1a9ae:	2506      	movs	r5, #6
   1a9b0:	f04f 44a0 	mov.w	r4, #1342177280	; 0x50000000
   1a9b4:	f44f 7680 	mov.w	r6, #256	; 0x100
   1a9b8:	3d01      	subs	r5, #1
   1a9ba:	b2ad      	uxth	r5, r5
   1a9bc:	2d00      	cmp	r5, #0
   1a9be:	d0aa      	beq.n	1a916 <MyTemperatureAD<TemperatureTmp117<(unsigned char)5> >::init()+0xfa>
   1a9c0:	f8d4 3504 	ldr.w	r3, [r4, #1284]	; 0x504
   1a9c4:	05da      	lsls	r2, r3, #23
   1a9c6:	bf4c      	ite	mi
   1a9c8:	f8c4 650c 	strmi.w	r6, [r4, #1292]	; 0x50c
   1a9cc:	f8c4 6508 	strpl.w	r6, [r4, #1288]	; 0x508
   1a9d0:	2032      	movs	r0, #50	; 0x32
   1a9d2:	f7ff fba9 	bl	1a128 <nrf_delay_ms.part.0>
   1a9d6:	f8d4 3504 	ldr.w	r3, [r4, #1284]	; 0x504
   1a9da:	05db      	lsls	r3, r3, #23
   1a9dc:	bf4c      	ite	mi
   1a9de:	f8c4 650c 	strmi.w	r6, [r4, #1292]	; 0x50c
   1a9e2:	f8c4 6508 	strpl.w	r6, [r4, #1288]	; 0x508
   1a9e6:	2032      	movs	r0, #50	; 0x32
   1a9e8:	f7ff fb9e 	bl	1a128 <nrf_delay_ms.part.0>
   1a9ec:	e7e4      	b.n	1a9b8 <MyTemperatureAD<TemperatureTmp117<(unsigned char)5> >::init()+0x19c>
	...

0001a9f0 <Advertising<MyTemperatureAD<TemperatureTmp117<(unsigned char)5> >, (unsigned short)3000, &(advInitCB())>::stop()>:
   1a9f0:	b510      	push	{r4, lr}
   1a9f2:	4c07      	ldr	r4, [pc, #28]	; (1aa10 <Advertising<MyTemperatureAD<TemperatureTmp117<(unsigned char)5> >, (unsigned short)3000, &(advInitCB())>::stop()+0x20>)
   1a9f4:	7823      	ldrb	r3, [r4, #0]
   1a9f6:	b14b      	cbz	r3, 1aa0c <Advertising<MyTemperatureAD<TemperatureTmp117<(unsigned char)5> >, (unsigned short)3000, &(advInitCB())>::stop()+0x1c>
   1a9f8:	4b06      	ldr	r3, [pc, #24]	; (1aa14 <Advertising<MyTemperatureAD<TemperatureTmp117<(unsigned char)5> >, (unsigned short)3000, &(advInitCB())>::stop()+0x24>)
   1a9fa:	7818      	ldrb	r0, [r3, #0]
   1a9fc:	f7ff fb90 	bl	1a120 <sd_ble_gap_adv_stop>
   1aa00:	2101      	movs	r1, #1
   1aa02:	b280      	uxth	r0, r0
   1aa04:	f7ff fc90 	bl	1a328 <Errors::check(unsigned short, bool)>
   1aa08:	2300      	movs	r3, #0
   1aa0a:	7023      	strb	r3, [r4, #0]
   1aa0c:	bd10      	pop	{r4, pc}
   1aa0e:	bf00      	nop
   1aa10:	20001341 	.word	0x20001341
   1aa14:	20001140 	.word	0x20001140

0001aa18 <MyTemperatureAD<TemperatureTmp117<(unsigned char)5> >::uuidId(unsigned short)>:
   1aa18:	4b01      	ldr	r3, [pc, #4]	; (1aa20 <MyTemperatureAD<TemperatureTmp117<(unsigned char)5> >::uuidId(unsigned short)+0x8>)
   1aa1a:	81d8      	strh	r0, [r3, #14]
   1aa1c:	4770      	bx	lr
   1aa1e:	bf00      	nop
   1aa20:	2000137e 	.word	0x2000137e

0001aa24 <MyTemperatureAD<TemperatureTmp117<(unsigned char)5> >::uuidCountInc()>:
   1aa24:	4b05      	ldr	r3, [pc, #20]	; (1aa3c <MyTemperatureAD<TemperatureTmp117<(unsigned char)5> >::uuidCountInc()+0x18>)
   1aa26:	899a      	ldrh	r2, [r3, #12]
   1aa28:	3201      	adds	r2, #1
   1aa2a:	b292      	uxth	r2, r2
   1aa2c:	f242 710f 	movw	r1, #9999	; 0x270f
   1aa30:	428a      	cmp	r2, r1
   1aa32:	bf88      	it	hi
   1aa34:	2200      	movhi	r2, #0
   1aa36:	819a      	strh	r2, [r3, #12]
   1aa38:	8998      	ldrh	r0, [r3, #12]
   1aa3a:	4770      	bx	lr
   1aa3c:	2000137e 	.word	0x2000137e

0001aa40 <Temperature<(unsigned char)5>::histSize()>:
   1aa40:	2005      	movs	r0, #5
   1aa42:	4770      	bx	lr

0001aa44 <MyTemperatureAD<TemperatureTmp117<(unsigned char)5> >::uuidTempShift()>:
   1aa44:	4b04      	ldr	r3, [pc, #16]	; (1aa58 <MyTemperatureAD<TemperatureTmp117<(unsigned char)5> >::uuidTempShift()+0x14>)
   1aa46:	885a      	ldrh	r2, [r3, #2]
   1aa48:	801a      	strh	r2, [r3, #0]
   1aa4a:	889a      	ldrh	r2, [r3, #4]
   1aa4c:	805a      	strh	r2, [r3, #2]
   1aa4e:	88da      	ldrh	r2, [r3, #6]
   1aa50:	809a      	strh	r2, [r3, #4]
   1aa52:	891a      	ldrh	r2, [r3, #8]
   1aa54:	80da      	strh	r2, [r3, #6]
   1aa56:	4770      	bx	lr
   1aa58:	2000137e 	.word	0x2000137e

0001aa5c <Twim<1073754112ul, (GPIO::PIN)13, (GPIO::PIN)15, (GPIO::PIN)17>::init(unsigned char, Twim<1073754112ul, (GPIO::PIN)13, (GPIO::PIN)15, (GPIO::PIN)17>::FREQ)>:
   1aa5c:	4b10      	ldr	r3, [pc, #64]	; (1aaa0 <Twim<1073754112ul, (GPIO::PIN)13, (GPIO::PIN)15, (GPIO::PIN)17>::init(unsigned char, Twim<1073754112ul, (GPIO::PIN)13, (GPIO::PIN)15, (GPIO::PIN)17>::FREQ)+0x44>)
   1aa5e:	f04f 42a0 	mov.w	r2, #1342177280	; 0x50000000
   1aa62:	f8c3 0588 	str.w	r0, [r3, #1416]	; 0x588
   1aa66:	f8c3 1524 	str.w	r1, [r3, #1316]	; 0x524
   1aa6a:	f240 610c 	movw	r1, #1548	; 0x60c
   1aa6e:	f8c2 1734 	str.w	r1, [r2, #1844]	; 0x734
   1aa72:	f8c2 173c 	str.w	r1, [r2, #1852]	; 0x73c
   1aa76:	210d      	movs	r1, #13
   1aa78:	f8c3 150c 	str.w	r1, [r3, #1292]	; 0x50c
   1aa7c:	210f      	movs	r1, #15
   1aa7e:	f8c3 1508 	str.w	r1, [r3, #1288]	; 0x508
   1aa82:	f240 2001 	movw	r0, #513	; 0x201
   1aa86:	f44f 3100 	mov.w	r1, #131072	; 0x20000
   1aa8a:	f8c2 150c 	str.w	r1, [r2, #1292]	; 0x50c
   1aa8e:	f8c2 0744 	str.w	r0, [r2, #1860]	; 0x744
   1aa92:	f8c2 1508 	str.w	r1, [r2, #1288]	; 0x508
   1aa96:	2206      	movs	r2, #6
   1aa98:	f8c3 2500 	str.w	r2, [r3, #1280]	; 0x500
   1aa9c:	4770      	bx	lr
   1aa9e:	bf00      	nop
   1aaa0:	40003000 	.word	0x40003000

0001aaa4 <Tmp117<Twim<1073754112ul, (GPIO::PIN)13, (GPIO::PIN)15, (GPIO::PIN)17>, (unsigned char)72>::init()>:
   1aaa4:	b508      	push	{r3, lr}
   1aaa6:	f04f 61c8 	mov.w	r1, #104857600	; 0x6400000
   1aaaa:	2048      	movs	r0, #72	; 0x48
   1aaac:	f7ff ffd6 	bl	1aa5c <Twim<1073754112ul, (GPIO::PIN)13, (GPIO::PIN)15, (GPIO::PIN)17>::init(unsigned char, Twim<1073754112ul, (GPIO::PIN)13, (GPIO::PIN)15, (GPIO::PIN)17>::FREQ)>
   1aab0:	2002      	movs	r0, #2
   1aab2:	f7ff fb39 	bl	1a128 <nrf_delay_ms.part.0>
   1aab6:	4b02      	ldr	r3, [pc, #8]	; (1aac0 <Tmp117<Twim<1073754112ul, (GPIO::PIN)13, (GPIO::PIN)15, (GPIO::PIN)17>, (unsigned char)72>::init()+0x1c>)
   1aab8:	2201      	movs	r2, #1
   1aaba:	701a      	strb	r2, [r3, #0]
   1aabc:	bd08      	pop	{r3, pc}
   1aabe:	bf00      	nop
   1aac0:	2000138e 	.word	0x2000138e

0001aac4 <auto Twim<1073754112ul, (GPIO::PIN)13, (GPIO::PIN)15, (GPIO::PIN)17>::xfer<1u, 2u>(unsigned char (&) [1u], unsigned char (&) [2u])>:
   1aac4:	4b1b      	ldr	r3, [pc, #108]	; (1ab34 <auto Twim<1073754112ul, (GPIO::PIN)13, (GPIO::PIN)15, (GPIO::PIN)17>::xfer<1u, 2u>(unsigned char (&) [1u], unsigned char (&) [2u])+0x70>)
   1aac6:	2202      	movs	r2, #2
   1aac8:	f8c3 0544 	str.w	r0, [r3, #1348]	; 0x544
   1aacc:	2001      	movs	r0, #1
   1aace:	f8c3 0548 	str.w	r0, [r3, #1352]	; 0x548
   1aad2:	f8c3 1534 	str.w	r1, [r3, #1332]	; 0x534
   1aad6:	f8c3 2538 	str.w	r2, [r3, #1336]	; 0x538
   1aada:	2107      	movs	r1, #7
   1aadc:	2200      	movs	r2, #0
   1aade:	f8c3 2104 	str.w	r2, [r3, #260]	; 0x104
   1aae2:	f8c3 14c4 	str.w	r1, [r3, #1220]	; 0x4c4
   1aae6:	f8c3 2124 	str.w	r2, [r3, #292]	; 0x124
   1aaea:	f8c3 2148 	str.w	r2, [r3, #328]	; 0x148
   1aaee:	f8c3 214c 	str.w	r2, [r3, #332]	; 0x14c
   1aaf2:	f8c3 2150 	str.w	r2, [r3, #336]	; 0x150
   1aaf6:	f8c3 215c 	str.w	r2, [r3, #348]	; 0x15c
   1aafa:	f8c3 2160 	str.w	r2, [r3, #352]	; 0x160
   1aafe:	f44f 5284 	mov.w	r2, #4224	; 0x1080
   1ab02:	f8c3 2200 	str.w	r2, [r3, #512]	; 0x200
   1ab06:	6098      	str	r0, [r3, #8]
   1ab08:	f8d3 0124 	ldr.w	r0, [r3, #292]	; 0x124
   1ab0c:	b118      	cbz	r0, 1ab16 <auto Twim<1073754112ul, (GPIO::PIN)13, (GPIO::PIN)15, (GPIO::PIN)17>::xfer<1u, 2u>(unsigned char (&) [1u], unsigned char (&) [2u])+0x52>
   1ab0e:	2201      	movs	r2, #1
   1ab10:	615a      	str	r2, [r3, #20]
   1ab12:	2000      	movs	r0, #0
   1ab14:	4770      	bx	lr
   1ab16:	f8d3 2104 	ldr.w	r2, [r3, #260]	; 0x104
   1ab1a:	2a00      	cmp	r2, #0
   1ab1c:	d0f4      	beq.n	1ab08 <auto Twim<1073754112ul, (GPIO::PIN)13, (GPIO::PIN)15, (GPIO::PIN)17>::xfer<1u, 2u>(unsigned char (&) [1u], unsigned char (&) [2u])+0x44>
   1ab1e:	f8d3 254c 	ldr.w	r2, [r3, #1356]	; 0x54c
   1ab22:	2a01      	cmp	r2, #1
   1ab24:	d104      	bne.n	1ab30 <auto Twim<1073754112ul, (GPIO::PIN)13, (GPIO::PIN)15, (GPIO::PIN)17>::xfer<1u, 2u>(unsigned char (&) [1u], unsigned char (&) [2u])+0x6c>
   1ab26:	f8d3 053c 	ldr.w	r0, [r3, #1340]	; 0x53c
   1ab2a:	1e83      	subs	r3, r0, #2
   1ab2c:	4258      	negs	r0, r3
   1ab2e:	4158      	adcs	r0, r3
   1ab30:	4770      	bx	lr
   1ab32:	bf00      	nop
   1ab34:	40003000 	.word	0x40003000

0001ab38 <Temperature<(unsigned char)5>::addHistory(short)>:
   1ab38:	b510      	push	{r4, lr}
   1ab3a:	4b10      	ldr	r3, [pc, #64]	; (1ab7c <Temperature<(unsigned char)5>::addHistory(short)+0x44>)
   1ab3c:	4910      	ldr	r1, [pc, #64]	; (1ab80 <Temperature<(unsigned char)5>::addHistory(short)+0x48>)
   1ab3e:	781a      	ldrb	r2, [r3, #0]
   1ab40:	b93a      	cbnz	r2, 1ab52 <Temperature<(unsigned char)5>::addHistory(short)+0x1a>
   1ab42:	2205      	movs	r2, #5
   1ab44:	460c      	mov	r4, r1
   1ab46:	3a01      	subs	r2, #1
   1ab48:	f824 0b02 	strh.w	r0, [r4], #2
   1ab4c:	d1fb      	bne.n	1ab46 <Temperature<(unsigned char)5>::addHistory(short)+0xe>
   1ab4e:	2201      	movs	r2, #1
   1ab50:	701a      	strb	r2, [r3, #0]
   1ab52:	4a0c      	ldr	r2, [pc, #48]	; (1ab84 <Temperature<(unsigned char)5>::addHistory(short)+0x4c>)
   1ab54:	4b0c      	ldr	r3, [pc, #48]	; (1ab88 <Temperature<(unsigned char)5>::addHistory(short)+0x50>)
   1ab56:	7814      	ldrb	r4, [r2, #0]
   1ab58:	f5b0 6fe1 	cmp.w	r0, #1800	; 0x708
   1ab5c:	bfa8      	it	ge
   1ab5e:	f44f 60e1 	movge.w	r0, #1800	; 0x708
   1ab62:	4298      	cmp	r0, r3
   1ab64:	bfb8      	it	lt
   1ab66:	4618      	movlt	r0, r3
   1ab68:	1c63      	adds	r3, r4, #1
   1ab6a:	b2db      	uxtb	r3, r3
   1ab6c:	2b04      	cmp	r3, #4
   1ab6e:	7013      	strb	r3, [r2, #0]
   1ab70:	f821 0014 	strh.w	r0, [r1, r4, lsl #1]
   1ab74:	bf84      	itt	hi
   1ab76:	2300      	movhi	r3, #0
   1ab78:	7013      	strbhi	r3, [r2, #0]
   1ab7a:	bd10      	pop	{r4, pc}
   1ab7c:	20001315 	.word	0x20001315
   1ab80:	20001390 	.word	0x20001390
   1ab84:	20001314 	.word	0x20001314
   1ab88:	fffffe70 	.word	0xfffffe70

0001ab8c <Temperature<(unsigned char)5>::average()>:
   1ab8c:	4906      	ldr	r1, [pc, #24]	; (1aba8 <Temperature<(unsigned char)5>::average()+0x1c>)
   1ab8e:	2205      	movs	r2, #5
   1ab90:	2300      	movs	r3, #0
   1ab92:	f831 0b02 	ldrh.w	r0, [r1], #2
   1ab96:	3a01      	subs	r2, #1
   1ab98:	4403      	add	r3, r0
   1ab9a:	b21b      	sxth	r3, r3
   1ab9c:	d1f9      	bne.n	1ab92 <Temperature<(unsigned char)5>::average()+0x6>
   1ab9e:	2005      	movs	r0, #5
   1aba0:	fb93 f0f0 	sdiv	r0, r3, r0
   1aba4:	4770      	bx	lr
   1aba6:	bf00      	nop
   1aba8:	20001390 	.word	0x20001390

0001abac <MyTemperatureAD<TemperatureTmp117<(unsigned char)5> >::uuidTempLatest(unsigned short)>:
   1abac:	4b01      	ldr	r3, [pc, #4]	; (1abb4 <MyTemperatureAD<TemperatureTmp117<(unsigned char)5> >::uuidTempLatest(unsigned short)+0x8>)
   1abae:	8118      	strh	r0, [r3, #8]
   1abb0:	4770      	bx	lr
   1abb2:	bf00      	nop
   1abb4:	2000137e 	.word	0x2000137e

0001abb8 <MyTemperatureAD<TemperatureTmp117<(unsigned char)5> >::getName()>:
   1abb8:	4b01      	ldr	r3, [pc, #4]	; (1abc0 <MyTemperatureAD<TemperatureTmp117<(unsigned char)5> >::getName()+0x8>)
   1abba:	7818      	ldrb	r0, [r3, #0]
   1abbc:	4770      	bx	lr
   1abbe:	bf00      	nop
   1abc0:	2000137d 	.word	0x2000137d

0001abc4 <Advertising<MyTemperatureAD<TemperatureTmp117<(unsigned char)5> >, (unsigned short)3000, &(advInitCB())>::power(unsigned char)>:
   1abc4:	b508      	push	{r3, lr}
   1abc6:	2809      	cmp	r0, #9
   1abc8:	bf28      	it	cs
   1abca:	2009      	movcs	r0, #9
   1abcc:	4b05      	ldr	r3, [pc, #20]	; (1abe4 <Advertising<MyTemperatureAD<TemperatureTmp117<(unsigned char)5> >, (unsigned short)3000, &(advInitCB())>::power(unsigned char)+0x20>)
   1abce:	561a      	ldrsb	r2, [r3, r0]
   1abd0:	4b05      	ldr	r3, [pc, #20]	; (1abe8 <Advertising<MyTemperatureAD<TemperatureTmp117<(unsigned char)5> >, (unsigned short)3000, &(advInitCB())>::power(unsigned char)+0x24>)
   1abd2:	2001      	movs	r0, #1
   1abd4:	7819      	ldrb	r1, [r3, #0]
   1abd6:	f7ff faa5 	bl	1a124 <sd_ble_gap_tx_power_set>
   1abda:	2101      	movs	r1, #1
   1abdc:	b280      	uxth	r0, r0
   1abde:	f7ff fba3 	bl	1a328 <Errors::check(unsigned short, bool)>
   1abe2:	bd08      	pop	{r3, pc}
   1abe4:	0001d6aa 	.word	0x0001d6aa
   1abe8:	20001140 	.word	0x20001140

0001abec <Advertising<MyTemperatureAD<TemperatureTmp117<(unsigned char)5> >, (unsigned short)3000, &(advInitCB())>::start()>:
   1abec:	b570      	push	{r4, r5, r6, lr}
   1abee:	4c24      	ldr	r4, [pc, #144]	; (1ac80 <Advertising<MyTemperatureAD<TemperatureTmp117<(unsigned char)5> >, (unsigned short)3000, &(advInitCB())>::start()+0x94>)
   1abf0:	7826      	ldrb	r6, [r4, #0]
   1abf2:	2e00      	cmp	r6, #0
   1abf4:	d143      	bne.n	1ac7e <Advertising<MyTemperatureAD<TemperatureTmp117<(unsigned char)5> >, (unsigned short)3000, &(advInitCB())>::start()+0x92>
   1abf6:	4d23      	ldr	r5, [pc, #140]	; (1ac84 <Advertising<MyTemperatureAD<TemperatureTmp117<(unsigned char)5> >, (unsigned short)3000, &(advInitCB())>::start()+0x98>)
   1abf8:	4a23      	ldr	r2, [pc, #140]	; (1ac88 <Advertising<MyTemperatureAD<TemperatureTmp117<(unsigned char)5> >, (unsigned short)3000, &(advInitCB())>::start()+0x9c>)
   1abfa:	4924      	ldr	r1, [pc, #144]	; (1ac8c <Advertising<MyTemperatureAD<TemperatureTmp117<(unsigned char)5> >, (unsigned short)3000, &(advInitCB())>::start()+0xa0>)
   1abfc:	4628      	mov	r0, r5
   1abfe:	f7ff fa8b 	bl	1a118 <sd_ble_gap_adv_set_configure>
   1ac02:	2101      	movs	r1, #1
   1ac04:	b280      	uxth	r0, r0
   1ac06:	f7ff fb8f 	bl	1a328 <Errors::check(unsigned short, bool)>
   1ac0a:	4631      	mov	r1, r6
   1ac0c:	7828      	ldrb	r0, [r5, #0]
   1ac0e:	f7ff fa85 	bl	1a11c <sd_ble_gap_adv_start>
   1ac12:	2101      	movs	r1, #1
   1ac14:	b280      	uxth	r0, r0
   1ac16:	f7ff fb87 	bl	1a328 <Errors::check(unsigned short, bool)>
   1ac1a:	2301      	movs	r3, #1
   1ac1c:	7023      	strb	r3, [r4, #0]
   1ac1e:	4b1c      	ldr	r3, [pc, #112]	; (1ac90 <Advertising<MyTemperatureAD<TemperatureTmp117<(unsigned char)5> >, (unsigned short)3000, &(advInitCB())>::start()+0xa4>)
   1ac20:	7818      	ldrb	r0, [r3, #0]
   1ac22:	f7ff ffcf 	bl	1abc4 <Advertising<MyTemperatureAD<TemperatureTmp117<(unsigned char)5> >, (unsigned short)3000, &(advInitCB())>::power(unsigned char)>
   1ac26:	f7ff fd29 	bl	1a67c <Battery::isOk()>
   1ac2a:	b328      	cbz	r0, 1ac78 <Advertising<MyTemperatureAD<TemperatureTmp117<(unsigned char)5> >, (unsigned short)3000, &(advInitCB())>::start()+0x8c>
   1ac2c:	f04f 43a0 	mov.w	r3, #1342177280	; 0x50000000
   1ac30:	f8d3 2720 	ldr.w	r2, [r3, #1824]	; 0x720
   1ac34:	07d2      	lsls	r2, r2, #31
   1ac36:	d522      	bpl.n	1ac7e <Advertising<MyTemperatureAD<TemperatureTmp117<(unsigned char)5> >, (unsigned short)3000, &(advInitCB())>::start()+0x92>
   1ac38:	f8d3 2504 	ldr.w	r2, [r3, #1284]	; 0x504
   1ac3c:	f412 7f80 	tst.w	r2, #256	; 0x100
   1ac40:	f44f 7280 	mov.w	r2, #256	; 0x100
   1ac44:	bf14      	ite	ne
   1ac46:	f8c3 250c 	strne.w	r2, [r3, #1292]	; 0x50c
   1ac4a:	f8c3 2508 	streq.w	r2, [r3, #1288]	; 0x508
   1ac4e:	2001      	movs	r0, #1
   1ac50:	f7ff fa78 	bl	1a144 <nrf_delay_ms>
   1ac54:	f04f 43a0 	mov.w	r3, #1342177280	; 0x50000000
   1ac58:	2001      	movs	r0, #1
   1ac5a:	f8d3 2504 	ldr.w	r2, [r3, #1284]	; 0x504
   1ac5e:	f412 7f80 	tst.w	r2, #256	; 0x100
   1ac62:	f44f 7280 	mov.w	r2, #256	; 0x100
   1ac66:	bf14      	ite	ne
   1ac68:	f8c3 250c 	strne.w	r2, [r3, #1292]	; 0x50c
   1ac6c:	f8c3 2508 	streq.w	r2, [r3, #1288]	; 0x508
   1ac70:	e8bd 4070 	ldmia.w	sp!, {r4, r5, r6, lr}
   1ac74:	f7ff ba66 	b.w	1a144 <nrf_delay_ms>
   1ac78:	2005      	movs	r0, #5
   1ac7a:	f7ff fb28 	bl	1a2ce <BL651tempBoard::caution(unsigned short)>
   1ac7e:	bd70      	pop	{r4, r5, r6, pc}
   1ac80:	20001341 	.word	0x20001341
   1ac84:	20001140 	.word	0x20001140
   1ac88:	20001364 	.word	0x20001364
   1ac8c:	20001130 	.word	0x20001130
   1ac90:	2000137c 	.word	0x2000137c

0001ac94 <int Markup<DevRtt<0> >(DevRtt<0>, char const*)>:
   1ac94:	e92d 4ff8 	stmdb	sp!, {r3, r4, r5, r6, r7, r8, r9, sl, fp, lr}
   1ac98:	f8df 80e0 	ldr.w	r8, [pc, #224]	; 1ad7c <int Markup<DevRtt<0> >(DevRtt<0>, char const*)+0xe8>
   1ac9c:	f8df 90e0 	ldr.w	r9, [pc, #224]	; 1ad80 <int Markup<DevRtt<0> >(DevRtt<0>, char const*)+0xec>
   1aca0:	f8df a0e0 	ldr.w	sl, [pc, #224]	; 1ad84 <int Markup<DevRtt<0> >(DevRtt<0>, char const*)+0xf0>
   1aca4:	460c      	mov	r4, r1
   1aca6:	460d      	mov	r5, r1
   1aca8:	2600      	movs	r6, #0
   1acaa:	7823      	ldrb	r3, [r4, #0]
   1acac:	2b00      	cmp	r3, #0
   1acae:	d048      	beq.n	1ad42 <int Markup<DevRtt<0> >(DevRtt<0>, char const*)+0xae>
   1acb0:	2b7b      	cmp	r3, #123	; 0x7b
   1acb2:	f104 0701 	add.w	r7, r4, #1
   1acb6:	d112      	bne.n	1acde <int Markup<DevRtt<0> >(DevRtt<0>, char const*)+0x4a>
   1acb8:	1b62      	subs	r2, r4, r5
   1acba:	d004      	beq.n	1acc6 <int Markup<DevRtt<0> >(DevRtt<0>, char const*)+0x32>
   1acbc:	4629      	mov	r1, r5
   1acbe:	2000      	movs	r0, #0
   1acc0:	f000 fd64 	bl	1b78c <SEGGER_RTT_Write>
   1acc4:	4406      	add	r6, r0
   1acc6:	f894 b001 	ldrb.w	fp, [r4, #1]
   1acca:	f1bb 0f7b 	cmp.w	fp, #123	; 0x7b
   1acce:	d108      	bne.n	1ace2 <int Markup<DevRtt<0> >(DevRtt<0>, char const*)+0x4e>
   1acd0:	4639      	mov	r1, r7
   1acd2:	2201      	movs	r2, #1
   1acd4:	2000      	movs	r0, #0
   1acd6:	f000 fd59 	bl	1b78c <SEGGER_RTT_Write>
   1acda:	1ca7      	adds	r7, r4, #2
   1acdc:	4406      	add	r6, r0
   1acde:	463c      	mov	r4, r7
   1ace0:	e7e3      	b.n	1acaa <int Markup<DevRtt<0> >(DevRtt<0>, char const*)+0x16>
   1ace2:	f00b 03fb 	and.w	r3, fp, #251	; 0xfb
   1ace6:	2b42      	cmp	r3, #66	; 0x42
   1ace8:	bf08      	it	eq
   1acea:	1ca7      	addeq	r7, r4, #2
   1acec:	463d      	mov	r5, r7
   1acee:	2300      	movs	r3, #0
   1acf0:	462c      	mov	r4, r5
   1acf2:	f815 2b01 	ldrb.w	r2, [r5], #1
   1acf6:	b31a      	cbz	r2, 1ad40 <int Markup<DevRtt<0> >(DevRtt<0>, char const*)+0xac>
   1acf8:	2a7d      	cmp	r2, #125	; 0x7d
   1acfa:	462f      	mov	r7, r5
   1acfc:	d02b      	beq.n	1ad56 <int Markup<DevRtt<0> >(DevRtt<0>, char const*)+0xc2>
   1acfe:	eb03 1343 	add.w	r3, r3, r3, lsl #5
   1ad02:	fa12 f383 	uxtah	r3, r2, r3
   1ad06:	b29b      	uxth	r3, r3
   1ad08:	e7f2      	b.n	1acf0 <int Markup<DevRtt<0> >(DevRtt<0>, char const*)+0x5c>
   1ad0a:	2202      	movs	r2, #2
   1ad0c:	4649      	mov	r1, r9
   1ad0e:	2000      	movs	r0, #0
   1ad10:	f000 fd3c 	bl	1b78c <SEGGER_RTT_Write>
   1ad14:	f1bb 0f46 	cmp.w	fp, #70	; 0x46
   1ad18:	4406      	add	r6, r0
   1ad1a:	d10b      	bne.n	1ad34 <int Markup<DevRtt<0> >(DevRtt<0>, char const*)+0xa0>
   1ad1c:	4915      	ldr	r1, [pc, #84]	; (1ad74 <int Markup<DevRtt<0> >(DevRtt<0>, char const*)+0xe0>)
   1ad1e:	2205      	movs	r2, #5
   1ad20:	2000      	movs	r0, #0
   1ad22:	f000 fd33 	bl	1b78c <SEGGER_RTT_Write>
   1ad26:	4406      	add	r6, r0
   1ad28:	6861      	ldr	r1, [r4, #4]
   1ad2a:	2000      	movs	r0, #0
   1ad2c:	f000 fd4e 	bl	1b7cc <SEGGER_RTT_WriteString>
   1ad30:	4406      	add	r6, r0
   1ad32:	e7d4      	b.n	1acde <int Markup<DevRtt<0> >(DevRtt<0>, char const*)+0x4a>
   1ad34:	f1bb 0f42 	cmp.w	fp, #66	; 0x42
   1ad38:	d1f6      	bne.n	1ad28 <int Markup<DevRtt<0> >(DevRtt<0>, char const*)+0x94>
   1ad3a:	2205      	movs	r2, #5
   1ad3c:	4651      	mov	r1, sl
   1ad3e:	e7ef      	b.n	1ad20 <int Markup<DevRtt<0> >(DevRtt<0>, char const*)+0x8c>
   1ad40:	4625      	mov	r5, r4
   1ad42:	1b62      	subs	r2, r4, r5
   1ad44:	d004      	beq.n	1ad50 <int Markup<DevRtt<0> >(DevRtt<0>, char const*)+0xbc>
   1ad46:	4629      	mov	r1, r5
   1ad48:	2000      	movs	r0, #0
   1ad4a:	f000 fd1f 	bl	1b78c <SEGGER_RTT_Write>
   1ad4e:	4406      	add	r6, r0
   1ad50:	4630      	mov	r0, r6
   1ad52:	e8bd 8ff8 	ldmia.w	sp!, {r3, r4, r5, r6, r7, r8, r9, sl, fp, pc}
   1ad56:	f898 2000 	ldrb.w	r2, [r8]
   1ad5a:	2a00      	cmp	r2, #0
   1ad5c:	d0bf      	beq.n	1acde <int Markup<DevRtt<0> >(DevRtt<0>, char const*)+0x4a>
   1ad5e:	4c06      	ldr	r4, [pc, #24]	; (1ad78 <int Markup<DevRtt<0> >(DevRtt<0>, char const*)+0xe4>)
   1ad60:	2210      	movs	r2, #16
   1ad62:	8821      	ldrh	r1, [r4, #0]
   1ad64:	4299      	cmp	r1, r3
   1ad66:	d0d0      	beq.n	1ad0a <int Markup<DevRtt<0> >(DevRtt<0>, char const*)+0x76>
   1ad68:	3a01      	subs	r2, #1
   1ad6a:	f104 0408 	add.w	r4, r4, #8
   1ad6e:	d1f8      	bne.n	1ad62 <int Markup<DevRtt<0> >(DevRtt<0>, char const*)+0xce>
   1ad70:	e7b5      	b.n	1acde <int Markup<DevRtt<0> >(DevRtt<0>, char const*)+0x4a>
   1ad72:	bf00      	nop
   1ad74:	0001d447 	.word	0x0001d447
   1ad78:	0001d6c8 	.word	0x0001d6c8
   1ad7c:	20001141 	.word	0x20001141
   1ad80:	0001d444 	.word	0x0001d444
   1ad84:	0001d44d 	.word	0x0001d44d

0001ad88 <int Print<DevRtt<0>, unsigned char, unsigned char>(DevRtt<0>, char const*, unsigned char, unsigned char) [clone .isra.0]>:
   1ad88:	b510      	push	{r4, lr}
   1ad8a:	f5ad 7d02 	sub.w	sp, sp, #520	; 0x208
   1ad8e:	460b      	mov	r3, r1
   1ad90:	9200      	str	r2, [sp, #0]
   1ad92:	f44f 7100 	mov.w	r1, #512	; 0x200
   1ad96:	4602      	mov	r2, r0
   1ad98:	a802      	add	r0, sp, #8
   1ad9a:	f000 fec5 	bl	1bb28 <sniprintf>
   1ad9e:	b150      	cbz	r0, 1adb6 <int Print<DevRtt<0>, unsigned char, unsigned char>(DevRtt<0>, char const*, unsigned char, unsigned char) [clone .isra.0]+0x2e>
   1ada0:	f5b0 7f00 	cmp.w	r0, #512	; 0x200
   1ada4:	db02      	blt.n	1adac <int Print<DevRtt<0>, unsigned char, unsigned char>(DevRtt<0>, char const*, unsigned char, unsigned char) [clone .isra.0]+0x24>
   1ada6:	4c0a      	ldr	r4, [pc, #40]	; (1add0 <int Print<DevRtt<0>, unsigned char, unsigned char>(DevRtt<0>, char const*, unsigned char, unsigned char) [clone .isra.0]+0x48>)
   1ada8:	7823      	ldrb	r3, [r4, #0]
   1adaa:	b93b      	cbnz	r3, 1adbc <int Print<DevRtt<0>, unsigned char, unsigned char>(DevRtt<0>, char const*, unsigned char, unsigned char) [clone .isra.0]+0x34>
   1adac:	a902      	add	r1, sp, #8
   1adae:	f04f 0000 	mov.w	r0, #0
   1adb2:	f7ff ff6f 	bl	1ac94 <int Markup<DevRtt<0> >(DevRtt<0>, char const*)>
   1adb6:	f50d 7d02 	add.w	sp, sp, #520	; 0x208
   1adba:	bd10      	pop	{r4, pc}
   1adbc:	2300      	movs	r3, #0
   1adbe:	a902      	add	r1, sp, #8
   1adc0:	f04f 0000 	mov.w	r0, #0
   1adc4:	7023      	strb	r3, [r4, #0]
   1adc6:	f7ff ff65 	bl	1ac94 <int Markup<DevRtt<0> >(DevRtt<0>, char const*)>
   1adca:	2301      	movs	r3, #1
   1adcc:	7023      	strb	r3, [r4, #0]
   1adce:	e7f2      	b.n	1adb6 <int Print<DevRtt<0>, unsigned char, unsigned char>(DevRtt<0>, char const*, unsigned char, unsigned char) [clone .isra.0]+0x2e>
   1add0:	20001141 	.word	0x20001141

0001add4 <int Print<DevRtt<0>, unsigned long, unsigned long, char const*, int, char const*>(DevRtt<0>, char const*, unsigned long, unsigned long, char const*, int, char const*)>:
   1add4:	b510      	push	{r4, lr}
   1add6:	f5ad 7d04 	sub.w	sp, sp, #528	; 0x210
   1adda:	9888      	ldr	r0, [sp, #544]	; 0x220
   1addc:	9003      	str	r0, [sp, #12]
   1adde:	9887      	ldr	r0, [sp, #540]	; 0x21c
   1ade0:	9002      	str	r0, [sp, #8]
   1ade2:	9886      	ldr	r0, [sp, #536]	; 0x218
   1ade4:	e9cd 3000 	strd	r3, r0, [sp]
   1ade8:	4613      	mov	r3, r2
   1adea:	a804      	add	r0, sp, #16
   1adec:	460a      	mov	r2, r1
   1adee:	f44f 7100 	mov.w	r1, #512	; 0x200
   1adf2:	f000 fe99 	bl	1bb28 <sniprintf>
   1adf6:	b150      	cbz	r0, 1ae0e <int Print<DevRtt<0>, unsigned long, unsigned long, char const*, int, char const*>(DevRtt<0>, char const*, unsigned long, unsigned long, char const*, int, char const*)+0x3a>
   1adf8:	f5b0 7f00 	cmp.w	r0, #512	; 0x200
   1adfc:	db02      	blt.n	1ae04 <int Print<DevRtt<0>, unsigned long, unsigned long, char const*, int, char const*>(DevRtt<0>, char const*, unsigned long, unsigned long, char const*, int, char const*)+0x30>
   1adfe:	4c0a      	ldr	r4, [pc, #40]	; (1ae28 <int Print<DevRtt<0>, unsigned long, unsigned long, char const*, int, char const*>(DevRtt<0>, char const*, unsigned long, unsigned long, char const*, int, char const*)+0x54>)
   1ae00:	7823      	ldrb	r3, [r4, #0]
   1ae02:	b93b      	cbnz	r3, 1ae14 <int Print<DevRtt<0>, unsigned long, unsigned long, char const*, int, char const*>(DevRtt<0>, char const*, unsigned long, unsigned long, char const*, int, char const*)+0x40>
   1ae04:	a904      	add	r1, sp, #16
   1ae06:	f04f 0000 	mov.w	r0, #0
   1ae0a:	f7ff ff43 	bl	1ac94 <int Markup<DevRtt<0> >(DevRtt<0>, char const*)>
   1ae0e:	f50d 7d04 	add.w	sp, sp, #528	; 0x210
   1ae12:	bd10      	pop	{r4, pc}
   1ae14:	2300      	movs	r3, #0
   1ae16:	a904      	add	r1, sp, #16
   1ae18:	f04f 0000 	mov.w	r0, #0
   1ae1c:	7023      	strb	r3, [r4, #0]
   1ae1e:	f7ff ff39 	bl	1ac94 <int Markup<DevRtt<0> >(DevRtt<0>, char const*)>
   1ae22:	2301      	movs	r3, #1
   1ae24:	7023      	strb	r3, [r4, #0]
   1ae26:	e7f2      	b.n	1ae0e <int Print<DevRtt<0>, unsigned long, unsigned long, char const*, int, char const*>(DevRtt<0>, char const*, unsigned long, unsigned long, char const*, int, char const*)+0x3a>
   1ae28:	20001141 	.word	0x20001141

0001ae2c <int Print<DevRtt<0>>(DevRtt<0>, char const*) [clone .isra.0]>:
   1ae2c:	b510      	push	{r4, lr}
   1ae2e:	f5ad 7d00 	sub.w	sp, sp, #512	; 0x200
   1ae32:	4602      	mov	r2, r0
   1ae34:	f44f 7100 	mov.w	r1, #512	; 0x200
   1ae38:	4668      	mov	r0, sp
   1ae3a:	f000 fe75 	bl	1bb28 <sniprintf>
   1ae3e:	b150      	cbz	r0, 1ae56 <int Print<DevRtt<0>>(DevRtt<0>, char const*) [clone .isra.0]+0x2a>
   1ae40:	f5b0 7f00 	cmp.w	r0, #512	; 0x200
   1ae44:	db02      	blt.n	1ae4c <int Print<DevRtt<0>>(DevRtt<0>, char const*) [clone .isra.0]+0x20>
   1ae46:	4c0a      	ldr	r4, [pc, #40]	; (1ae70 <int Print<DevRtt<0>>(DevRtt<0>, char const*) [clone .isra.0]+0x44>)
   1ae48:	7823      	ldrb	r3, [r4, #0]
   1ae4a:	b93b      	cbnz	r3, 1ae5c <int Print<DevRtt<0>>(DevRtt<0>, char const*) [clone .isra.0]+0x30>
   1ae4c:	4669      	mov	r1, sp
   1ae4e:	f04f 0000 	mov.w	r0, #0
   1ae52:	f7ff ff1f 	bl	1ac94 <int Markup<DevRtt<0> >(DevRtt<0>, char const*)>
   1ae56:	f50d 7d00 	add.w	sp, sp, #512	; 0x200
   1ae5a:	bd10      	pop	{r4, pc}
   1ae5c:	2300      	movs	r3, #0
   1ae5e:	4669      	mov	r1, sp
   1ae60:	f04f 0000 	mov.w	r0, #0
   1ae64:	7023      	strb	r3, [r4, #0]
   1ae66:	f7ff ff15 	bl	1ac94 <int Markup<DevRtt<0> >(DevRtt<0>, char const*)>
   1ae6a:	2301      	movs	r3, #1
   1ae6c:	7023      	strb	r3, [r4, #0]
   1ae6e:	e7f2      	b.n	1ae56 <int Print<DevRtt<0>>(DevRtt<0>, char const*) [clone .isra.0]+0x2a>
   1ae70:	20001141 	.word	0x20001141

0001ae74 <int Print<DevRtt<0>, unsigned short>(DevRtt<0>, char const*, unsigned short) [clone .isra.0] [clone .constprop.0]>:
   1ae74:	b510      	push	{r4, lr}
   1ae76:	f5ad 7d00 	sub.w	sp, sp, #512	; 0x200
   1ae7a:	4603      	mov	r3, r0
   1ae7c:	4a0f      	ldr	r2, [pc, #60]	; (1aebc <int Print<DevRtt<0>, unsigned short>(DevRtt<0>, char const*, unsigned short) [clone .isra.0] [clone .constprop.0]+0x48>)
   1ae7e:	f44f 7100 	mov.w	r1, #512	; 0x200
   1ae82:	4668      	mov	r0, sp
   1ae84:	f000 fe50 	bl	1bb28 <sniprintf>
   1ae88:	b150      	cbz	r0, 1aea0 <int Print<DevRtt<0>, unsigned short>(DevRtt<0>, char const*, unsigned short) [clone .isra.0] [clone .constprop.0]+0x2c>
   1ae8a:	f5b0 7f00 	cmp.w	r0, #512	; 0x200
   1ae8e:	db02      	blt.n	1ae96 <int Print<DevRtt<0>, unsigned short>(DevRtt<0>, char const*, unsigned short) [clone .isra.0] [clone .constprop.0]+0x22>
   1ae90:	4c0b      	ldr	r4, [pc, #44]	; (1aec0 <int Print<DevRtt<0>, unsigned short>(DevRtt<0>, char const*, unsigned short) [clone .isra.0] [clone .constprop.0]+0x4c>)
   1ae92:	7823      	ldrb	r3, [r4, #0]
   1ae94:	b93b      	cbnz	r3, 1aea6 <int Print<DevRtt<0>, unsigned short>(DevRtt<0>, char const*, unsigned short) [clone .isra.0] [clone .constprop.0]+0x32>
   1ae96:	4669      	mov	r1, sp
   1ae98:	f04f 0000 	mov.w	r0, #0
   1ae9c:	f7ff fefa 	bl	1ac94 <int Markup<DevRtt<0> >(DevRtt<0>, char const*)>
   1aea0:	f50d 7d00 	add.w	sp, sp, #512	; 0x200
   1aea4:	bd10      	pop	{r4, pc}
   1aea6:	2300      	movs	r3, #0
   1aea8:	4669      	mov	r1, sp
   1aeaa:	f04f 0000 	mov.w	r0, #0
   1aeae:	7023      	strb	r3, [r4, #0]
   1aeb0:	f7ff fef0 	bl	1ac94 <int Markup<DevRtt<0> >(DevRtt<0>, char const*)>
   1aeb4:	2301      	movs	r3, #1
   1aeb6:	7023      	strb	r3, [r4, #0]
   1aeb8:	e7f2      	b.n	1aea0 <int Print<DevRtt<0>, unsigned short>(DevRtt<0>, char const*, unsigned short) [clone .isra.0] [clone .constprop.0]+0x2c>
   1aeba:	bf00      	nop
   1aebc:	0001d453 	.word	0x0001d453
   1aec0:	20001141 	.word	0x20001141

0001aec4 <int Print<DevRtt<0>, unsigned char, char const*>(DevRtt<0>, char const*, unsigned char, char const*) [clone .isra.0] [clone .constprop.0]>:
   1aec4:	b510      	push	{r4, lr}
   1aec6:	f5ad 7d02 	sub.w	sp, sp, #520	; 0x208
   1aeca:	4603      	mov	r3, r0
   1aecc:	9100      	str	r1, [sp, #0]
   1aece:	4a0f      	ldr	r2, [pc, #60]	; (1af0c <int Print<DevRtt<0>, unsigned char, char const*>(DevRtt<0>, char const*, unsigned char, char const*) [clone .isra.0] [clone .constprop.0]+0x48>)
   1aed0:	f44f 7100 	mov.w	r1, #512	; 0x200
   1aed4:	a802      	add	r0, sp, #8
   1aed6:	f000 fe27 	bl	1bb28 <sniprintf>
   1aeda:	b150      	cbz	r0, 1aef2 <int Print<DevRtt<0>, unsigned char, char const*>(DevRtt<0>, char const*, unsigned char, char const*) [clone .isra.0] [clone .constprop.0]+0x2e>
   1aedc:	f5b0 7f00 	cmp.w	r0, #512	; 0x200
   1aee0:	db02      	blt.n	1aee8 <int Print<DevRtt<0>, unsigned char, char const*>(DevRtt<0>, char const*, unsigned char, char const*) [clone .isra.0] [clone .constprop.0]+0x24>
   1aee2:	4c0b      	ldr	r4, [pc, #44]	; (1af10 <int Print<DevRtt<0>, unsigned char, char const*>(DevRtt<0>, char const*, unsigned char, char const*) [clone .isra.0] [clone .constprop.0]+0x4c>)
   1aee4:	7823      	ldrb	r3, [r4, #0]
   1aee6:	b93b      	cbnz	r3, 1aef8 <int Print<DevRtt<0>, unsigned char, char const*>(DevRtt<0>, char const*, unsigned char, char const*) [clone .isra.0] [clone .constprop.0]+0x34>
   1aee8:	a902      	add	r1, sp, #8
   1aeea:	f04f 0000 	mov.w	r0, #0
   1aeee:	f7ff fed1 	bl	1ac94 <int Markup<DevRtt<0> >(DevRtt<0>, char const*)>
   1aef2:	f50d 7d02 	add.w	sp, sp, #520	; 0x208
   1aef6:	bd10      	pop	{r4, pc}
   1aef8:	2300      	movs	r3, #0
   1aefa:	a902      	add	r1, sp, #8
   1aefc:	f04f 0000 	mov.w	r0, #0
   1af00:	7023      	strb	r3, [r4, #0]
   1af02:	f7ff fec7 	bl	1ac94 <int Markup<DevRtt<0> >(DevRtt<0>, char const*)>
   1af06:	2301      	movs	r3, #1
   1af08:	7023      	strb	r3, [r4, #0]
   1af0a:	e7f2      	b.n	1aef2 <int Print<DevRtt<0>, unsigned char, char const*>(DevRtt<0>, char const*, unsigned char, char const*) [clone .isra.0] [clone .constprop.0]+0x2e>
   1af0c:	0001d45d 	.word	0x0001d45d
   1af10:	20001141 	.word	0x20001141

0001af14 <int Print<DevRtt<0>, short>(DevRtt<0>, char const*, short) [clone .isra.0] [clone .constprop.0]>:
   1af14:	b510      	push	{r4, lr}
   1af16:	f5ad 7d00 	sub.w	sp, sp, #512	; 0x200
   1af1a:	4603      	mov	r3, r0
   1af1c:	4a0f      	ldr	r2, [pc, #60]	; (1af5c <int Print<DevRtt<0>, short>(DevRtt<0>, char const*, short) [clone .isra.0] [clone .constprop.0]+0x48>)
   1af1e:	f44f 7100 	mov.w	r1, #512	; 0x200
   1af22:	4668      	mov	r0, sp
   1af24:	f000 fe00 	bl	1bb28 <sniprintf>
   1af28:	b150      	cbz	r0, 1af40 <int Print<DevRtt<0>, short>(DevRtt<0>, char const*, short) [clone .isra.0] [clone .constprop.0]+0x2c>
   1af2a:	f5b0 7f00 	cmp.w	r0, #512	; 0x200
   1af2e:	db02      	blt.n	1af36 <int Print<DevRtt<0>, short>(DevRtt<0>, char const*, short) [clone .isra.0] [clone .constprop.0]+0x22>
   1af30:	4c0b      	ldr	r4, [pc, #44]	; (1af60 <int Print<DevRtt<0>, short>(DevRtt<0>, char const*, short) [clone .isra.0] [clone .constprop.0]+0x4c>)
   1af32:	7823      	ldrb	r3, [r4, #0]
   1af34:	b93b      	cbnz	r3, 1af46 <int Print<DevRtt<0>, short>(DevRtt<0>, char const*, short) [clone .isra.0] [clone .constprop.0]+0x32>
   1af36:	4669      	mov	r1, sp
   1af38:	f04f 0000 	mov.w	r0, #0
   1af3c:	f7ff feaa 	bl	1ac94 <int Markup<DevRtt<0> >(DevRtt<0>, char const*)>
   1af40:	f50d 7d00 	add.w	sp, sp, #512	; 0x200
   1af44:	bd10      	pop	{r4, pc}
   1af46:	2300      	movs	r3, #0
   1af48:	4669      	mov	r1, sp
   1af4a:	f04f 0000 	mov.w	r0, #0
   1af4e:	7023      	strb	r3, [r4, #0]
   1af50:	f7ff fea0 	bl	1ac94 <int Markup<DevRtt<0> >(DevRtt<0>, char const*)>
   1af54:	2301      	movs	r3, #1
   1af56:	7023      	strb	r3, [r4, #0]
   1af58:	e7f2      	b.n	1af40 <int Print<DevRtt<0>, short>(DevRtt<0>, char const*, short) [clone .isra.0] [clone .constprop.0]+0x2c>
   1af5a:	bf00      	nop
   1af5c:	0001d453 	.word	0x0001d453
   1af60:	20001141 	.word	0x20001141

0001af64 <auto Tmp117<Twim<1073754112ul, (GPIO::PIN)13, (GPIO::PIN)15, (GPIO::PIN)17>, (unsigned char)72>::read<short>(unsigned char, short&)>:
   1af64:	b570      	push	{r4, r5, r6, lr}
   1af66:	4b1f      	ldr	r3, [pc, #124]	; (1afe4 <auto Tmp117<Twim<1073754112ul, (GPIO::PIN)13, (GPIO::PIN)15, (GPIO::PIN)17>, (unsigned char)72>::read<short>(unsigned char, short&)+0x80>)
   1af68:	781b      	ldrb	r3, [r3, #0]
   1af6a:	b086      	sub	sp, #24
   1af6c:	4606      	mov	r6, r0
   1af6e:	460d      	mov	r5, r1
   1af70:	b90b      	cbnz	r3, 1af76 <auto Tmp117<Twim<1073754112ul, (GPIO::PIN)13, (GPIO::PIN)15, (GPIO::PIN)17>, (unsigned char)72>::read<short>(unsigned char, short&)+0x12>
   1af72:	f7ff fd97 	bl	1aaa4 <Tmp117<Twim<1073754112ul, (GPIO::PIN)13, (GPIO::PIN)15, (GPIO::PIN)17>, (unsigned char)72>::init()>
   1af76:	2300      	movs	r3, #0
   1af78:	a905      	add	r1, sp, #20
   1af7a:	a804      	add	r0, sp, #16
   1af7c:	f8ad 3014 	strh.w	r3, [sp, #20]
   1af80:	f88d 6010 	strb.w	r6, [sp, #16]
   1af84:	f7ff fd9e 	bl	1aac4 <auto Twim<1073754112ul, (GPIO::PIN)13, (GPIO::PIN)15, (GPIO::PIN)17>::xfer<1u, 2u>(unsigned char (&) [1u], unsigned char (&) [2u])>
   1af88:	4604      	mov	r4, r0
   1af8a:	b130      	cbz	r0, 1af9a <auto Tmp117<Twim<1073754112ul, (GPIO::PIN)13, (GPIO::PIN)15, (GPIO::PIN)17>, (unsigned char)72>::read<short>(unsigned char, short&)+0x36>
   1af8c:	f89d 2014 	ldrb.w	r2, [sp, #20]
   1af90:	f89d 3015 	ldrb.w	r3, [sp, #21]
   1af94:	ea43 2302 	orr.w	r3, r3, r2, lsl #8
   1af98:	802b      	strh	r3, [r5, #0]
   1af9a:	f7fe fabd 	bl	19518 <app_timer_cnt_get>
   1af9e:	4a12      	ldr	r2, [pc, #72]	; (1afe8 <auto Tmp117<Twim<1073754112ul, (GPIO::PIN)13, (GPIO::PIN)15, (GPIO::PIN)17>, (unsigned char)72>::read<short>(unsigned char, short&)+0x84>)
   1afa0:	9202      	str	r2, [sp, #8]
   1afa2:	223b      	movs	r2, #59	; 0x3b
   1afa4:	9201      	str	r2, [sp, #4]
   1afa6:	4a11      	ldr	r2, [pc, #68]	; (1afec <auto Tmp117<Twim<1073754112ul, (GPIO::PIN)13, (GPIO::PIN)15, (GPIO::PIN)17>, (unsigned char)72>::read<short>(unsigned char, short&)+0x88>)
   1afa8:	9200      	str	r2, [sp, #0]
   1afaa:	f3c0 030d 	ubfx	r3, r0, #0, #14
   1afae:	223d      	movs	r2, #61	; 0x3d
   1afb0:	4353      	muls	r3, r2
   1afb2:	490f      	ldr	r1, [pc, #60]	; (1aff0 <auto Tmp117<Twim<1073754112ul, (GPIO::PIN)13, (GPIO::PIN)15, (GPIO::PIN)17>, (unsigned char)72>::read<short>(unsigned char, short&)+0x8c>)
   1afb4:	0b82      	lsrs	r2, r0, #14
   1afb6:	f04f 0000 	mov.w	r0, #0
   1afba:	f7ff ff0b 	bl	1add4 <int Print<DevRtt<0>, unsigned long, unsigned long, char const*, int, char const*>(DevRtt<0>, char const*, unsigned long, unsigned long, char const*, int, char const*)>
   1afbe:	490d      	ldr	r1, [pc, #52]	; (1aff4 <auto Tmp117<Twim<1073754112ul, (GPIO::PIN)13, (GPIO::PIN)15, (GPIO::PIN)17>, (unsigned char)72>::read<short>(unsigned char, short&)+0x90>)
   1afc0:	4b0d      	ldr	r3, [pc, #52]	; (1aff8 <auto Tmp117<Twim<1073754112ul, (GPIO::PIN)13, (GPIO::PIN)15, (GPIO::PIN)17>, (unsigned char)72>::read<short>(unsigned char, short&)+0x94>)
   1afc2:	4630      	mov	r0, r6
   1afc4:	2c00      	cmp	r4, #0
   1afc6:	bf08      	it	eq
   1afc8:	4619      	moveq	r1, r3
   1afca:	f7ff ff7b 	bl	1aec4 <int Print<DevRtt<0>, unsigned char, char const*>(DevRtt<0>, char const*, unsigned char, char const*) [clone .isra.0] [clone .constprop.0]>
   1afce:	b11c      	cbz	r4, 1afd8 <auto Tmp117<Twim<1073754112ul, (GPIO::PIN)13, (GPIO::PIN)15, (GPIO::PIN)17>, (unsigned char)72>::read<short>(unsigned char, short&)+0x74>
   1afd0:	f9b5 0000 	ldrsh.w	r0, [r5]
   1afd4:	f7ff ff9e 	bl	1af14 <int Print<DevRtt<0>, short>(DevRtt<0>, char const*, short) [clone .isra.0] [clone .constprop.0]>
   1afd8:	4808      	ldr	r0, [pc, #32]	; (1affc <auto Tmp117<Twim<1073754112ul, (GPIO::PIN)13, (GPIO::PIN)15, (GPIO::PIN)17>, (unsigned char)72>::read<short>(unsigned char, short&)+0x98>)
   1afda:	f7ff ff27 	bl	1ae2c <int Print<DevRtt<0>>(DevRtt<0>, char const*) [clone .isra.0]>
   1afde:	4620      	mov	r0, r4
   1afe0:	b006      	add	sp, #24
   1afe2:	bd70      	pop	{r4, r5, r6, pc}
   1afe4:	2000138e 	.word	0x2000138e
   1afe8:	0001d4a1 	.word	0x0001d4a1
   1afec:	0001d4a6 	.word	0x0001d4a6
   1aff0:	0001d478 	.word	0x0001d478
   1aff4:	0001d628 	.word	0x0001d628
   1aff8:	0001d46f 	.word	0x0001d46f
   1affc:	0001d627 	.word	0x0001d627

0001b000 <int Print<DevRtt<0>, short, short>(DevRtt<0>, char const*, short, short) [clone .isra.0] [clone .constprop.0]>:
   1b000:	b510      	push	{r4, lr}
   1b002:	f5ad 7d02 	sub.w	sp, sp, #520	; 0x208
   1b006:	4603      	mov	r3, r0
   1b008:	9100      	str	r1, [sp, #0]
   1b00a:	4a0f      	ldr	r2, [pc, #60]	; (1b048 <int Print<DevRtt<0>, short, short>(DevRtt<0>, char const*, short, short) [clone .isra.0] [clone .constprop.0]+0x48>)
   1b00c:	f44f 7100 	mov.w	r1, #512	; 0x200
   1b010:	a802      	add	r0, sp, #8
   1b012:	f000 fd89 	bl	1bb28 <sniprintf>
   1b016:	b150      	cbz	r0, 1b02e <int Print<DevRtt<0>, short, short>(DevRtt<0>, char const*, short, short) [clone .isra.0] [clone .constprop.0]+0x2e>
   1b018:	f5b0 7f00 	cmp.w	r0, #512	; 0x200
   1b01c:	db02      	blt.n	1b024 <int Print<DevRtt<0>, short, short>(DevRtt<0>, char const*, short, short) [clone .isra.0] [clone .constprop.0]+0x24>
   1b01e:	4c0b      	ldr	r4, [pc, #44]	; (1b04c <int Print<DevRtt<0>, short, short>(DevRtt<0>, char const*, short, short) [clone .isra.0] [clone .constprop.0]+0x4c>)
   1b020:	7823      	ldrb	r3, [r4, #0]
   1b022:	b93b      	cbnz	r3, 1b034 <int Print<DevRtt<0>, short, short>(DevRtt<0>, char const*, short, short) [clone .isra.0] [clone .constprop.0]+0x34>
   1b024:	a902      	add	r1, sp, #8
   1b026:	f04f 0000 	mov.w	r0, #0
   1b02a:	f7ff fe33 	bl	1ac94 <int Markup<DevRtt<0> >(DevRtt<0>, char const*)>
   1b02e:	f50d 7d02 	add.w	sp, sp, #520	; 0x208
   1b032:	bd10      	pop	{r4, pc}
   1b034:	2300      	movs	r3, #0
   1b036:	a902      	add	r1, sp, #8
   1b038:	f04f 0000 	mov.w	r0, #0
   1b03c:	7023      	strb	r3, [r4, #0]
   1b03e:	f7ff fe29 	bl	1ac94 <int Markup<DevRtt<0> >(DevRtt<0>, char const*)>
   1b042:	2301      	movs	r3, #1
   1b044:	7023      	strb	r3, [r4, #0]
   1b046:	e7f2      	b.n	1b02e <int Print<DevRtt<0>, short, short>(DevRtt<0>, char const*, short, short) [clone .isra.0] [clone .constprop.0]+0x2e>
   1b048:	0001d4b4 	.word	0x0001d4b4
   1b04c:	20001141 	.word	0x20001141

0001b050 <int Print<DevRtt<0>, unsigned char, unsigned char*>(DevRtt<0>, char const*, unsigned char, unsigned char*) [clone .isra.0] [clone .constprop.0]>:
   1b050:	b510      	push	{r4, lr}
   1b052:	f5ad 7d02 	sub.w	sp, sp, #520	; 0x208
   1b056:	4603      	mov	r3, r0
   1b058:	9100      	str	r1, [sp, #0]
   1b05a:	4a0f      	ldr	r2, [pc, #60]	; (1b098 <int Print<DevRtt<0>, unsigned char, unsigned char*>(DevRtt<0>, char const*, unsigned char, unsigned char*) [clone .isra.0] [clone .constprop.0]+0x48>)
   1b05c:	f44f 7100 	mov.w	r1, #512	; 0x200
   1b060:	a802      	add	r0, sp, #8
   1b062:	f000 fd61 	bl	1bb28 <sniprintf>
   1b066:	b150      	cbz	r0, 1b07e <int Print<DevRtt<0>, unsigned char, unsigned char*>(DevRtt<0>, char const*, unsigned char, unsigned char*) [clone .isra.0] [clone .constprop.0]+0x2e>
   1b068:	f5b0 7f00 	cmp.w	r0, #512	; 0x200
   1b06c:	db02      	blt.n	1b074 <int Print<DevRtt<0>, unsigned char, unsigned char*>(DevRtt<0>, char const*, unsigned char, unsigned char*) [clone .isra.0] [clone .constprop.0]+0x24>
   1b06e:	4c0b      	ldr	r4, [pc, #44]	; (1b09c <int Print<DevRtt<0>, unsigned char, unsigned char*>(DevRtt<0>, char const*, unsigned char, unsigned char*) [clone .isra.0] [clone .constprop.0]+0x4c>)
   1b070:	7823      	ldrb	r3, [r4, #0]
   1b072:	b93b      	cbnz	r3, 1b084 <int Print<DevRtt<0>, unsigned char, unsigned char*>(DevRtt<0>, char const*, unsigned char, unsigned char*) [clone .isra.0] [clone .constprop.0]+0x34>
   1b074:	a902      	add	r1, sp, #8
   1b076:	f04f 0000 	mov.w	r0, #0
   1b07a:	f7ff fe0b 	bl	1ac94 <int Markup<DevRtt<0> >(DevRtt<0>, char const*)>
   1b07e:	f50d 7d02 	add.w	sp, sp, #520	; 0x208
   1b082:	bd10      	pop	{r4, pc}
   1b084:	2300      	movs	r3, #0
   1b086:	a902      	add	r1, sp, #8
   1b088:	f04f 0000 	mov.w	r0, #0
   1b08c:	7023      	strb	r3, [r4, #0]
   1b08e:	f7ff fe01 	bl	1ac94 <int Markup<DevRtt<0> >(DevRtt<0>, char const*)>
   1b092:	2301      	movs	r3, #1
   1b094:	7023      	strb	r3, [r4, #0]
   1b096:	e7f2      	b.n	1b07e <int Print<DevRtt<0>, unsigned char, unsigned char*>(DevRtt<0>, char const*, unsigned char, unsigned char*) [clone .isra.0] [clone .constprop.0]+0x2e>
   1b098:	0001d4cd 	.word	0x0001d4cd
   1b09c:	20001141 	.word	0x20001141

0001b0a0 <int Print<DevRtt<0>, unsigned char>(DevRtt<0>, char const*, unsigned char) [clone .isra.0] [clone .constprop.0]>:
   1b0a0:	b510      	push	{r4, lr}
   1b0a2:	f5ad 7d00 	sub.w	sp, sp, #512	; 0x200
   1b0a6:	4603      	mov	r3, r0
   1b0a8:	4a0f      	ldr	r2, [pc, #60]	; (1b0e8 <int Print<DevRtt<0>, unsigned char>(DevRtt<0>, char const*, unsigned char) [clone .isra.0] [clone .constprop.0]+0x48>)
   1b0aa:	f44f 7100 	mov.w	r1, #512	; 0x200
   1b0ae:	4668      	mov	r0, sp
   1b0b0:	f000 fd3a 	bl	1bb28 <sniprintf>
   1b0b4:	b150      	cbz	r0, 1b0cc <int Print<DevRtt<0>, unsigned char>(DevRtt<0>, char const*, unsigned char) [clone .isra.0] [clone .constprop.0]+0x2c>
   1b0b6:	f5b0 7f00 	cmp.w	r0, #512	; 0x200
   1b0ba:	db02      	blt.n	1b0c2 <int Print<DevRtt<0>, unsigned char>(DevRtt<0>, char const*, unsigned char) [clone .isra.0] [clone .constprop.0]+0x22>
   1b0bc:	4c0b      	ldr	r4, [pc, #44]	; (1b0ec <int Print<DevRtt<0>, unsigned char>(DevRtt<0>, char const*, unsigned char) [clone .isra.0] [clone .constprop.0]+0x4c>)
   1b0be:	7823      	ldrb	r3, [r4, #0]
   1b0c0:	b93b      	cbnz	r3, 1b0d2 <int Print<DevRtt<0>, unsigned char>(DevRtt<0>, char const*, unsigned char) [clone .isra.0] [clone .constprop.0]+0x32>
   1b0c2:	4669      	mov	r1, sp
   1b0c4:	f04f 0000 	mov.w	r0, #0
   1b0c8:	f7ff fde4 	bl	1ac94 <int Markup<DevRtt<0> >(DevRtt<0>, char const*)>
   1b0cc:	f50d 7d00 	add.w	sp, sp, #512	; 0x200
   1b0d0:	bd10      	pop	{r4, pc}
   1b0d2:	2300      	movs	r3, #0
   1b0d4:	4669      	mov	r1, sp
   1b0d6:	f04f 0000 	mov.w	r0, #0
   1b0da:	7023      	strb	r3, [r4, #0]
   1b0dc:	f7ff fdda 	bl	1ac94 <int Markup<DevRtt<0> >(DevRtt<0>, char const*)>
   1b0e0:	2301      	movs	r3, #1
   1b0e2:	7023      	strb	r3, [r4, #0]
   1b0e4:	e7f2      	b.n	1b0cc <int Print<DevRtt<0>, unsigned char>(DevRtt<0>, char const*, unsigned char) [clone .isra.0] [clone .constprop.0]+0x2c>
   1b0e6:	bf00      	nop
   1b0e8:	0001d585 	.word	0x0001d585
   1b0ec:	20001141 	.word	0x20001141

0001b0f0 <auto Tmp117<Twim<1073754112ul, (GPIO::PIN)13, (GPIO::PIN)15, (GPIO::PIN)17>, (unsigned char)72>::read<unsigned short>(unsigned char, unsigned short&)>:
   1b0f0:	b570      	push	{r4, r5, r6, lr}
   1b0f2:	4b1f      	ldr	r3, [pc, #124]	; (1b170 <auto Tmp117<Twim<1073754112ul, (GPIO::PIN)13, (GPIO::PIN)15, (GPIO::PIN)17>, (unsigned char)72>::read<unsigned short>(unsigned char, unsigned short&)+0x80>)
   1b0f4:	781b      	ldrb	r3, [r3, #0]
   1b0f6:	b086      	sub	sp, #24
   1b0f8:	4606      	mov	r6, r0
   1b0fa:	460d      	mov	r5, r1
   1b0fc:	b90b      	cbnz	r3, 1b102 <auto Tmp117<Twim<1073754112ul, (GPIO::PIN)13, (GPIO::PIN)15, (GPIO::PIN)17>, (unsigned char)72>::read<unsigned short>(unsigned char, unsigned short&)+0x12>
   1b0fe:	f7ff fcd1 	bl	1aaa4 <Tmp117<Twim<1073754112ul, (GPIO::PIN)13, (GPIO::PIN)15, (GPIO::PIN)17>, (unsigned char)72>::init()>
   1b102:	2300      	movs	r3, #0
   1b104:	a905      	add	r1, sp, #20
   1b106:	a804      	add	r0, sp, #16
   1b108:	f8ad 3014 	strh.w	r3, [sp, #20]
   1b10c:	f88d 6010 	strb.w	r6, [sp, #16]
   1b110:	f7ff fcd8 	bl	1aac4 <auto Twim<1073754112ul, (GPIO::PIN)13, (GPIO::PIN)15, (GPIO::PIN)17>::xfer<1u, 2u>(unsigned char (&) [1u], unsigned char (&) [2u])>
   1b114:	4604      	mov	r4, r0
   1b116:	b130      	cbz	r0, 1b126 <auto Tmp117<Twim<1073754112ul, (GPIO::PIN)13, (GPIO::PIN)15, (GPIO::PIN)17>, (unsigned char)72>::read<unsigned short>(unsigned char, unsigned short&)+0x36>
   1b118:	f89d 2014 	ldrb.w	r2, [sp, #20]
   1b11c:	f89d 3015 	ldrb.w	r3, [sp, #21]
   1b120:	ea43 2302 	orr.w	r3, r3, r2, lsl #8
   1b124:	802b      	strh	r3, [r5, #0]
   1b126:	f7fe f9f7 	bl	19518 <app_timer_cnt_get>
   1b12a:	4a12      	ldr	r2, [pc, #72]	; (1b174 <auto Tmp117<Twim<1073754112ul, (GPIO::PIN)13, (GPIO::PIN)15, (GPIO::PIN)17>, (unsigned char)72>::read<unsigned short>(unsigned char, unsigned short&)+0x84>)
   1b12c:	9202      	str	r2, [sp, #8]
   1b12e:	223b      	movs	r2, #59	; 0x3b
   1b130:	9201      	str	r2, [sp, #4]
   1b132:	4a11      	ldr	r2, [pc, #68]	; (1b178 <auto Tmp117<Twim<1073754112ul, (GPIO::PIN)13, (GPIO::PIN)15, (GPIO::PIN)17>, (unsigned char)72>::read<unsigned short>(unsigned char, unsigned short&)+0x88>)
   1b134:	9200      	str	r2, [sp, #0]
   1b136:	f3c0 030d 	ubfx	r3, r0, #0, #14
   1b13a:	223d      	movs	r2, #61	; 0x3d
   1b13c:	4353      	muls	r3, r2
   1b13e:	490f      	ldr	r1, [pc, #60]	; (1b17c <auto Tmp117<Twim<1073754112ul, (GPIO::PIN)13, (GPIO::PIN)15, (GPIO::PIN)17>, (unsigned char)72>::read<unsigned short>(unsigned char, unsigned short&)+0x8c>)
   1b140:	0b82      	lsrs	r2, r0, #14
   1b142:	f04f 0000 	mov.w	r0, #0
   1b146:	f7ff fe45 	bl	1add4 <int Print<DevRtt<0>, unsigned long, unsigned long, char const*, int, char const*>(DevRtt<0>, char const*, unsigned long, unsigned long, char const*, int, char const*)>
   1b14a:	490d      	ldr	r1, [pc, #52]	; (1b180 <auto Tmp117<Twim<1073754112ul, (GPIO::PIN)13, (GPIO::PIN)15, (GPIO::PIN)17>, (unsigned char)72>::read<unsigned short>(unsigned char, unsigned short&)+0x90>)
   1b14c:	4b0d      	ldr	r3, [pc, #52]	; (1b184 <auto Tmp117<Twim<1073754112ul, (GPIO::PIN)13, (GPIO::PIN)15, (GPIO::PIN)17>, (unsigned char)72>::read<unsigned short>(unsigned char, unsigned short&)+0x94>)
   1b14e:	4630      	mov	r0, r6
   1b150:	2c00      	cmp	r4, #0
   1b152:	bf08      	it	eq
   1b154:	4619      	moveq	r1, r3
   1b156:	f7ff feb5 	bl	1aec4 <int Print<DevRtt<0>, unsigned char, char const*>(DevRtt<0>, char const*, unsigned char, char const*) [clone .isra.0] [clone .constprop.0]>
   1b15a:	b114      	cbz	r4, 1b162 <auto Tmp117<Twim<1073754112ul, (GPIO::PIN)13, (GPIO::PIN)15, (GPIO::PIN)17>, (unsigned char)72>::read<unsigned short>(unsigned char, unsigned short&)+0x72>
   1b15c:	8828      	ldrh	r0, [r5, #0]
   1b15e:	f7ff fe89 	bl	1ae74 <int Print<DevRtt<0>, unsigned short>(DevRtt<0>, char const*, unsigned short) [clone .isra.0] [clone .constprop.0]>
   1b162:	4809      	ldr	r0, [pc, #36]	; (1b188 <auto Tmp117<Twim<1073754112ul, (GPIO::PIN)13, (GPIO::PIN)15, (GPIO::PIN)17>, (unsigned char)72>::read<unsigned short>(unsigned char, unsigned short&)+0x98>)
   1b164:	f7ff fe62 	bl	1ae2c <int Print<DevRtt<0>>(DevRtt<0>, char const*) [clone .isra.0]>
   1b168:	4620      	mov	r0, r4
   1b16a:	b006      	add	sp, #24
   1b16c:	bd70      	pop	{r4, r5, r6, pc}
   1b16e:	bf00      	nop
   1b170:	2000138e 	.word	0x2000138e
   1b174:	0001d4a1 	.word	0x0001d4a1
   1b178:	0001d4a6 	.word	0x0001d4a6
   1b17c:	0001d478 	.word	0x0001d478
   1b180:	0001d628 	.word	0x0001d628
   1b184:	0001d46f 	.word	0x0001d46f
   1b188:	0001d627 	.word	0x0001d627

0001b18c <TemperatureTmp117<(unsigned char)5>::read()>:
   1b18c:	b570      	push	{r4, r5, r6, lr}
   1b18e:	b086      	sub	sp, #24
   1b190:	f44f 4300 	mov.w	r3, #32768	; 0x8000
   1b194:	f8ad 3014 	strh.w	r3, [sp, #20]
   1b198:	f7ff fc84 	bl	1aaa4 <Tmp117<Twim<1073754112ul, (GPIO::PIN)13, (GPIO::PIN)15, (GPIO::PIN)17>, (unsigned char)72>::init()>
   1b19c:	2082      	movs	r0, #130	; 0x82
   1b19e:	4c2d      	ldr	r4, [pc, #180]	; (1b254 <TemperatureTmp117<(unsigned char)5>::read()+0xc8>)
   1b1a0:	f7fe ffc2 	bl	1a128 <nrf_delay_ms.part.0>
   1b1a4:	250b      	movs	r5, #11
   1b1a6:	2600      	movs	r6, #0
   1b1a8:	f044 0401 	orr.w	r4, r4, #1
   1b1ac:	f10d 0116 	add.w	r1, sp, #22
   1b1b0:	2001      	movs	r0, #1
   1b1b2:	f8ad 6016 	strh.w	r6, [sp, #22]
   1b1b6:	f7ff ff9b 	bl	1b0f0 <auto Tmp117<Twim<1073754112ul, (GPIO::PIN)13, (GPIO::PIN)15, (GPIO::PIN)17>, (unsigned char)72>::read<unsigned short>(unsigned char, unsigned short&)>
   1b1ba:	b118      	cbz	r0, 1b1c4 <TemperatureTmp117<(unsigned char)5>::read()+0x38>
   1b1bc:	f8bd 3016 	ldrh.w	r3, [sp, #22]
   1b1c0:	049b      	lsls	r3, r3, #18
   1b1c2:	d405      	bmi.n	1b1d0 <TemperatureTmp117<(unsigned char)5>::read()+0x44>
   1b1c4:	3d01      	subs	r5, #1
   1b1c6:	d003      	beq.n	1b1d0 <TemperatureTmp117<(unsigned char)5>::read()+0x44>
   1b1c8:	f44f 40fa 	mov.w	r0, #32000	; 0x7d00
   1b1cc:	47a0      	blx	r4
   1b1ce:	e7ed      	b.n	1b1ac <TemperatureTmp117<(unsigned char)5>::read()+0x20>
   1b1d0:	a905      	add	r1, sp, #20
   1b1d2:	2000      	movs	r0, #0
   1b1d4:	f7ff fec6 	bl	1af64 <auto Tmp117<Twim<1073754112ul, (GPIO::PIN)13, (GPIO::PIN)15, (GPIO::PIN)17>, (unsigned char)72>::read<short>(unsigned char, short&)>
   1b1d8:	4b1f      	ldr	r3, [pc, #124]	; (1b258 <TemperatureTmp117<(unsigned char)5>::read()+0xcc>)
   1b1da:	2200      	movs	r2, #0
   1b1dc:	f8c3 2500 	str.w	r2, [r3, #1280]	; 0x500
   1b1e0:	f04f 43a0 	mov.w	r3, #1342177280	; 0x50000000
   1b1e4:	f44f 3100 	mov.w	r1, #131072	; 0x20000
   1b1e8:	f8c3 150c 	str.w	r1, [r3, #1292]	; 0x50c
   1b1ec:	2102      	movs	r1, #2
   1b1ee:	f8c3 1734 	str.w	r1, [r3, #1844]	; 0x734
   1b1f2:	f8c3 173c 	str.w	r1, [r3, #1852]	; 0x73c
   1b1f6:	4b19      	ldr	r3, [pc, #100]	; (1b25c <TemperatureTmp117<(unsigned char)5>::read()+0xd0>)
   1b1f8:	701a      	strb	r2, [r3, #0]
   1b1fa:	f7fe f98d 	bl	19518 <app_timer_cnt_get>
   1b1fe:	4a18      	ldr	r2, [pc, #96]	; (1b260 <TemperatureTmp117<(unsigned char)5>::read()+0xd4>)
   1b200:	9202      	str	r2, [sp, #8]
   1b202:	226c      	movs	r2, #108	; 0x6c
   1b204:	9201      	str	r2, [sp, #4]
   1b206:	4a17      	ldr	r2, [pc, #92]	; (1b264 <TemperatureTmp117<(unsigned char)5>::read()+0xd8>)
   1b208:	9200      	str	r2, [sp, #0]
   1b20a:	f3c0 030d 	ubfx	r3, r0, #0, #14
   1b20e:	223d      	movs	r2, #61	; 0x3d
   1b210:	4353      	muls	r3, r2
   1b212:	4915      	ldr	r1, [pc, #84]	; (1b268 <TemperatureTmp117<(unsigned char)5>::read()+0xdc>)
   1b214:	0b82      	lsrs	r2, r0, #14
   1b216:	f04f 0000 	mov.w	r0, #0
   1b21a:	f7ff fddb 	bl	1add4 <int Print<DevRtt<0>, unsigned long, unsigned long, char const*, int, char const*>(DevRtt<0>, char const*, unsigned long, unsigned long, char const*, int, char const*)>
   1b21e:	f9bd 0014 	ldrsh.w	r0, [sp, #20]
   1b222:	f510 4f00 	cmn.w	r0, #32768	; 0x8000
   1b226:	d106      	bne.n	1b236 <TemperatureTmp117<(unsigned char)5>::read()+0xaa>
   1b228:	4810      	ldr	r0, [pc, #64]	; (1b26c <TemperatureTmp117<(unsigned char)5>::read()+0xe0>)
   1b22a:	4c11      	ldr	r4, [pc, #68]	; (1b270 <TemperatureTmp117<(unsigned char)5>::read()+0xe4>)
   1b22c:	f7ff fdfe 	bl	1ae2c <int Print<DevRtt<0>>(DevRtt<0>, char const*) [clone .isra.0]>
   1b230:	4620      	mov	r0, r4
   1b232:	b006      	add	sp, #24
   1b234:	bd70      	pop	{r4, r5, r6, pc}
   1b236:	eb00 00c0 	add.w	r0, r0, r0, lsl #3
   1b23a:	1180      	asrs	r0, r0, #6
   1b23c:	f500 70a0 	add.w	r0, r0, #320	; 0x140
   1b240:	f7ff fc7a 	bl	1ab38 <Temperature<(unsigned char)5>::addHistory(short)>
   1b244:	4604      	mov	r4, r0
   1b246:	4601      	mov	r1, r0
   1b248:	f9bd 0014 	ldrsh.w	r0, [sp, #20]
   1b24c:	f7ff fed8 	bl	1b000 <int Print<DevRtt<0>, short, short>(DevRtt<0>, char const*, short, short) [clone .isra.0] [clone .constprop.0]>
   1b250:	e7ee      	b.n	1b230 <TemperatureTmp117<(unsigned char)5>::read()+0xa4>
   1b252:	bf00      	nop
   1b254:	0001d6c0 	.word	0x0001d6c0
   1b258:	40003000 	.word	0x40003000
   1b25c:	2000138e 	.word	0x2000138e
   1b260:	0001d4a1 	.word	0x0001d4a1
   1b264:	0001d4d3 	.word	0x0001d4d3
   1b268:	0001d478 	.word	0x0001d478
   1b26c:	0001d4e6 	.word	0x0001d4e6
   1b270:	fffffc19 	.word	0xfffffc19

0001b274 <MyTemperatureAD<TemperatureTmp117<(unsigned char)5> >::update(unsigned char (&) [31])>:
   1b274:	b57f      	push	{r0, r1, r2, r3, r4, r5, r6, lr}
   1b276:	4606      	mov	r6, r0
   1b278:	f64d 609f 	movw	r0, #56991	; 0xde9f
   1b27c:	f7ff fbcc 	bl	1aa18 <MyTemperatureAD<TemperatureTmp117<(unsigned char)5> >::uuidId(unsigned short)>
   1b280:	f7ff fbd0 	bl	1aa24 <MyTemperatureAD<TemperatureTmp117<(unsigned char)5> >::uuidCountInc()>
   1b284:	4604      	mov	r4, r0
   1b286:	f7ff fbdb 	bl	1aa40 <Temperature<(unsigned char)5>::histSize()>
   1b28a:	fbb4 f3f0 	udiv	r3, r4, r0
   1b28e:	fb03 4010 	mls	r0, r3, r0, r4
   1b292:	b908      	cbnz	r0, 1b298 <MyTemperatureAD<TemperatureTmp117<(unsigned char)5> >::update(unsigned char (&) [31])+0x24>
   1b294:	f7ff fbd6 	bl	1aa44 <MyTemperatureAD<TemperatureTmp117<(unsigned char)5> >::uuidTempShift()>
   1b298:	f7ff f9ec 	bl	1a674 <Battery::read()>
   1b29c:	4b24      	ldr	r3, [pc, #144]	; (1b330 <MyTemperatureAD<TemperatureTmp117<(unsigned char)5> >::update(unsigned char (&) [31])+0xbc>)
   1b29e:	8158      	strh	r0, [r3, #10]
   1b2a0:	f7ff ff74 	bl	1b18c <TemperatureTmp117<(unsigned char)5>::read()>
   1b2a4:	4604      	mov	r4, r0
   1b2a6:	f7ff fc71 	bl	1ab8c <Temperature<(unsigned char)5>::average()>
   1b2aa:	0403      	lsls	r3, r0, #16
   1b2ac:	bf41      	itttt	mi
   1b2ae:	4243      	negmi	r3, r0
   1b2b0:	ea6f 43c3 	mvnmi.w	r3, r3, lsl #19
   1b2b4:	ea6f 43d3 	mvnmi.w	r3, r3, lsr #19
   1b2b8:	b298      	uxthmi	r0, r3
   1b2ba:	bf58      	it	pl
   1b2bc:	b280      	uxthpl	r0, r0
   1b2be:	f7ff fc75 	bl	1abac <MyTemperatureAD<TemperatureTmp117<(unsigned char)5> >::uuidTempLatest(unsigned short)>
   1b2c2:	2c00      	cmp	r4, #0
   1b2c4:	bfb8      	it	lt
   1b2c6:	4262      	neglt	r2, r4
   1b2c8:	f04f 030a 	mov.w	r3, #10
   1b2cc:	bfb5      	itete	lt
   1b2ce:	fbb2 f5f3 	udivlt	r5, r2, r3
   1b2d2:	fb94 f5f3 	sdivge	r5, r4, r3
   1b2d6:	fb03 2515 	mlslt	r5, r3, r5, r2
   1b2da:	fb03 4515 	mlsge	r5, r3, r5, r4
   1b2de:	f7ff fc6b 	bl	1abb8 <MyTemperatureAD<TemperatureTmp117<(unsigned char)5> >::getName()>
   1b2e2:	b2ed      	uxtb	r5, r5
   1b2e4:	4603      	mov	r3, r0
   1b2e6:	200a      	movs	r0, #10
   1b2e8:	fb94 f4f0 	sdiv	r4, r4, r0
   1b2ec:	b224      	sxth	r4, r4
   1b2ee:	4a11      	ldr	r2, [pc, #68]	; (1b334 <MyTemperatureAD<TemperatureTmp117<(unsigned char)5> >::update(unsigned char (&) [31])+0xc0>)
   1b2f0:	9400      	str	r4, [sp, #0]
   1b2f2:	9501      	str	r5, [sp, #4]
   1b2f4:	2107      	movs	r1, #7
   1b2f6:	a802      	add	r0, sp, #8
   1b2f8:	f000 fc16 	bl	1bb28 <sniprintf>
   1b2fc:	2104      	movs	r1, #4
   1b2fe:	4630      	mov	r0, r6
   1b300:	f7ff f9c8 	bl	1a694 <Flags01::make(unsigned char*, unsigned char)>
   1b304:	2208      	movs	r2, #8
   1b306:	eb0d 0102 	add.w	r1, sp, r2
   1b30a:	b2c4      	uxtb	r4, r0
   1b30c:	fa56 f080 	uxtab	r0, r6, r0
   1b310:	f7ff f9c7 	bl	1a6a2 <CompleteName09::make(unsigned char*, char const*, unsigned char)>
   1b314:	4420      	add	r0, r4
   1b316:	4906      	ldr	r1, [pc, #24]	; (1b330 <MyTemperatureAD<TemperatureTmp117<(unsigned char)5> >::update(unsigned char (&) [31])+0xbc>)
   1b318:	b2c4      	uxtb	r4, r0
   1b31a:	fa56 f080 	uxtab	r0, r6, r0
   1b31e:	f7ff f9fa 	bl	1a716 <UUID07::makeBCD(unsigned char*, unsigned short const (&) [8])>
   1b322:	4404      	add	r4, r0
   1b324:	b2e4      	uxtb	r4, r4
   1b326:	2300      	movs	r3, #0
   1b328:	5533      	strb	r3, [r6, r4]
   1b32a:	b004      	add	sp, #16
   1b32c:	bd70      	pop	{r4, r5, r6, pc}
   1b32e:	bf00      	nop
   1b330:	2000137e 	.word	0x2000137e
   1b334:	0001d518 	.word	0x0001d518

0001b338 <Advertising<MyTemperatureAD<TemperatureTmp117<(unsigned char)5> >, (unsigned short)3000, &(advInitCB())>::update(void*)>:
   1b338:	e92d 4ff0 	stmdb	sp!, {r4, r5, r6, r7, r8, r9, sl, fp, lr}
   1b33c:	b085      	sub	sp, #20
   1b33e:	f7ff fb57 	bl	1a9f0 <Advertising<MyTemperatureAD<TemperatureTmp117<(unsigned char)5> >, (unsigned short)3000, &(advInitCB())>::stop()>
   1b342:	482f      	ldr	r0, [pc, #188]	; (1b400 <Advertising<MyTemperatureAD<TemperatureTmp117<(unsigned char)5> >, (unsigned short)3000, &(advInitCB())>::update(void*)+0xc8>)
   1b344:	4e2e      	ldr	r6, [pc, #184]	; (1b400 <Advertising<MyTemperatureAD<TemperatureTmp117<(unsigned char)5> >, (unsigned short)3000, &(advInitCB())>::update(void*)+0xc8>)
   1b346:	f8df 80d0 	ldr.w	r8, [pc, #208]	; 1b418 <Advertising<MyTemperatureAD<TemperatureTmp117<(unsigned char)5> >, (unsigned short)3000, &(advInitCB())>::update(void*)+0xe0>
   1b34a:	f8df 90d0 	ldr.w	r9, [pc, #208]	; 1b41c <Advertising<MyTemperatureAD<TemperatureTmp117<(unsigned char)5> >, (unsigned short)3000, &(advInitCB())>::update(void*)+0xe4>
   1b34e:	f7ff ff91 	bl	1b274 <MyTemperatureAD<TemperatureTmp117<(unsigned char)5> >::update(unsigned char (&) [31])>
   1b352:	f7fe f8e1 	bl	19518 <app_timer_cnt_get>
   1b356:	4a2b      	ldr	r2, [pc, #172]	; (1b404 <Advertising<MyTemperatureAD<TemperatureTmp117<(unsigned char)5> >, (unsigned short)3000, &(advInitCB())>::update(void*)+0xcc>)
   1b358:	9202      	str	r2, [sp, #8]
   1b35a:	f240 124d 	movw	r2, #333	; 0x14d
   1b35e:	9201      	str	r2, [sp, #4]
   1b360:	4a29      	ldr	r2, [pc, #164]	; (1b408 <Advertising<MyTemperatureAD<TemperatureTmp117<(unsigned char)5> >, (unsigned short)3000, &(advInitCB())>::update(void*)+0xd0>)
   1b362:	9200      	str	r2, [sp, #0]
   1b364:	f3c0 030d 	ubfx	r3, r0, #0, #14
   1b368:	223d      	movs	r2, #61	; 0x3d
   1b36a:	4353      	muls	r3, r2
   1b36c:	4927      	ldr	r1, [pc, #156]	; (1b40c <Advertising<MyTemperatureAD<TemperatureTmp117<(unsigned char)5> >, (unsigned short)3000, &(advInitCB())>::update(void*)+0xd4>)
   1b36e:	0b82      	lsrs	r2, r0, #14
   1b370:	f04f 0000 	mov.w	r0, #0
   1b374:	f7ff fd2e 	bl	1add4 <int Print<DevRtt<0>, unsigned long, unsigned long, char const*, int, char const*>(DevRtt<0>, char const*, unsigned long, unsigned long, char const*, int, char const*)>
   1b378:	4825      	ldr	r0, [pc, #148]	; (1b410 <Advertising<MyTemperatureAD<TemperatureTmp117<(unsigned char)5> >, (unsigned short)3000, &(advInitCB())>::update(void*)+0xd8>)
   1b37a:	f7ff fd57 	bl	1ae2c <int Print<DevRtt<0>>(DevRtt<0>, char const*) [clone .isra.0]>
   1b37e:	2400      	movs	r4, #0
   1b380:	5d31      	ldrb	r1, [r6, r4]
   1b382:	b3a9      	cbz	r1, 1b3f0 <Advertising<MyTemperatureAD<TemperatureTmp117<(unsigned char)5> >, (unsigned short)3000, &(advInitCB())>::update(void*)+0xb8>
   1b384:	1933      	adds	r3, r6, r4
   1b386:	f101 3aff 	add.w	sl, r1, #4294967295	; 0xffffffff
   1b38a:	f893 b001 	ldrb.w	fp, [r3, #1]
   1b38e:	4640      	mov	r0, r8
   1b390:	465a      	mov	r2, fp
   1b392:	f7ff fcf9 	bl	1ad88 <int Print<DevRtt<0>, unsigned char, unsigned char>(DevRtt<0>, char const*, unsigned char, unsigned char) [clone .isra.0]>
   1b396:	1ca5      	adds	r5, r4, #2
   1b398:	fa5f fa8a 	uxtb.w	sl, sl
   1b39c:	f1bb 0f09 	cmp.w	fp, #9
   1b3a0:	eb05 070a 	add.w	r7, r5, sl
   1b3a4:	d108      	bne.n	1b3b8 <Advertising<MyTemperatureAD<TemperatureTmp117<(unsigned char)5> >, (unsigned short)3000, &(advInitCB())>::update(void*)+0x80>
   1b3a6:	1971      	adds	r1, r6, r5
   1b3a8:	4650      	mov	r0, sl
   1b3aa:	f7ff fe51 	bl	1b050 <int Print<DevRtt<0>, unsigned char, unsigned char*>(DevRtt<0>, char const*, unsigned char, unsigned char*) [clone .isra.0] [clone .constprop.0]>
   1b3ae:	4819      	ldr	r0, [pc, #100]	; (1b414 <Advertising<MyTemperatureAD<TemperatureTmp117<(unsigned char)5> >, (unsigned short)3000, &(advInitCB())>::update(void*)+0xdc>)
   1b3b0:	f7ff fd3c 	bl	1ae2c <int Print<DevRtt<0>>(DevRtt<0>, char const*) [clone .isra.0]>
   1b3b4:	463c      	mov	r4, r7
   1b3b6:	e7e3      	b.n	1b380 <Advertising<MyTemperatureAD<TemperatureTmp117<(unsigned char)5> >, (unsigned short)3000, &(advInitCB())>::update(void*)+0x48>
   1b3b8:	f1bb 0f07 	cmp.w	fp, #7
   1b3bc:	d009      	beq.n	1b3d2 <Advertising<MyTemperatureAD<TemperatureTmp117<(unsigned char)5> >, (unsigned short)3000, &(advInitCB())>::update(void*)+0x9a>
   1b3be:	4435      	add	r5, r6
   1b3c0:	2400      	movs	r4, #0
   1b3c2:	4554      	cmp	r4, sl
   1b3c4:	daf3      	bge.n	1b3ae <Advertising<MyTemperatureAD<TemperatureTmp117<(unsigned char)5> >, (unsigned short)3000, &(advInitCB())>::update(void*)+0x76>
   1b3c6:	f815 0b01 	ldrb.w	r0, [r5], #1
   1b3ca:	f7ff fe69 	bl	1b0a0 <int Print<DevRtt<0>, unsigned char>(DevRtt<0>, char const*, unsigned char) [clone .isra.0] [clone .constprop.0]>
   1b3ce:	3401      	adds	r4, #1
   1b3d0:	e7f7      	b.n	1b3c2 <Advertising<MyTemperatureAD<TemperatureTmp117<(unsigned char)5> >, (unsigned short)3000, &(advInitCB())>::update(void*)+0x8a>
   1b3d2:	4454      	add	r4, sl
   1b3d4:	f10a 35ff 	add.w	r5, sl, #4294967295	; 0xffffffff
   1b3d8:	4434      	add	r4, r6
   1b3da:	2d00      	cmp	r5, #0
   1b3dc:	f1a4 0402 	sub.w	r4, r4, #2
   1b3e0:	dbe5      	blt.n	1b3ae <Advertising<MyTemperatureAD<TemperatureTmp117<(unsigned char)5> >, (unsigned short)3000, &(advInitCB())>::update(void*)+0x76>
   1b3e2:	78a2      	ldrb	r2, [r4, #2]
   1b3e4:	78e1      	ldrb	r1, [r4, #3]
   1b3e6:	4648      	mov	r0, r9
   1b3e8:	f7ff fcce 	bl	1ad88 <int Print<DevRtt<0>, unsigned char, unsigned char>(DevRtt<0>, char const*, unsigned char, unsigned char) [clone .isra.0]>
   1b3ec:	3d02      	subs	r5, #2
   1b3ee:	e7f4      	b.n	1b3da <Advertising<MyTemperatureAD<TemperatureTmp117<(unsigned char)5> >, (unsigned short)3000, &(advInitCB())>::update(void*)+0xa2>
   1b3f0:	4808      	ldr	r0, [pc, #32]	; (1b414 <Advertising<MyTemperatureAD<TemperatureTmp117<(unsigned char)5> >, (unsigned short)3000, &(advInitCB())>::update(void*)+0xdc>)
   1b3f2:	f7ff fd1b 	bl	1ae2c <int Print<DevRtt<0>>(DevRtt<0>, char const*) [clone .isra.0]>
   1b3f6:	f7ff fbf9 	bl	1abec <Advertising<MyTemperatureAD<TemperatureTmp117<(unsigned char)5> >, (unsigned short)3000, &(advInitCB())>::start()>
   1b3fa:	b005      	add	sp, #20
   1b3fc:	e8bd 8ff0 	ldmia.w	sp!, {r4, r5, r6, r7, r8, r9, sl, fp, pc}
   1b400:	20001342 	.word	0x20001342
   1b404:	0001d521 	.word	0x0001d521
   1b408:	0001d528 	.word	0x0001d528
   1b40c:	0001d478 	.word	0x0001d478
   1b410:	0001d53b 	.word	0x0001d53b
   1b414:	0001d627 	.word	0x0001d627
   1b418:	0001d562 	.word	0x0001d562
   1b41c:	0001d581 	.word	0x0001d581

0001b420 <Advertising<MyTemperatureAD<TemperatureTmp117<(unsigned char)5> >, (unsigned short)3000, &(advInitCB())>::init()>:
   1b420:	b510      	push	{r4, lr}
   1b422:	4c15      	ldr	r4, [pc, #84]	; (1b478 <Advertising<MyTemperatureAD<TemperatureTmp117<(unsigned char)5> >, (unsigned short)3000, &(advInitCB())>::init()+0x58>)
   1b424:	f7ff f9fa 	bl	1a81c <MyTemperatureAD<TemperatureTmp117<(unsigned char)5> >::init()>
   1b428:	2305      	movs	r3, #5
   1b42a:	7023      	strb	r3, [r4, #0]
   1b42c:	4b13      	ldr	r3, [pc, #76]	; (1b47c <Advertising<MyTemperatureAD<TemperatureTmp117<(unsigned char)5> >, (unsigned short)3000, &(advInitCB())>::init()+0x5c>)
   1b42e:	e9d3 0100 	ldrd	r0, r1, [r3]
   1b432:	f001 f81b 	bl	1c46c <__aeabi_d2uiz>
   1b436:	60a0      	str	r0, [r4, #8]
   1b438:	4c11      	ldr	r4, [pc, #68]	; (1b480 <Advertising<MyTemperatureAD<TemperatureTmp117<(unsigned char)5> >, (unsigned short)3000, &(advInitCB())>::init()+0x60>)
   1b43a:	2000      	movs	r0, #0
   1b43c:	f7ff ff7c 	bl	1b338 <Advertising<MyTemperatureAD<TemperatureTmp117<(unsigned char)5> >, (unsigned short)3000, &(advInitCB())>::update(void*)>
   1b440:	7823      	ldrb	r3, [r4, #0]
   1b442:	b91b      	cbnz	r3, 1b44c <Advertising<MyTemperatureAD<TemperatureTmp117<(unsigned char)5> >, (unsigned short)3000, &(advInitCB())>::init()+0x2c>
   1b444:	f7fe f812 	bl	1946c <app_timer_init>
   1b448:	2301      	movs	r3, #1
   1b44a:	7023      	strb	r3, [r4, #0]
   1b44c:	4a0d      	ldr	r2, [pc, #52]	; (1b484 <Advertising<MyTemperatureAD<TemperatureTmp117<(unsigned char)5> >, (unsigned short)3000, &(advInitCB())>::init()+0x64>)
   1b44e:	480e      	ldr	r0, [pc, #56]	; (1b488 <Advertising<MyTemperatureAD<TemperatureTmp117<(unsigned char)5> >, (unsigned short)3000, &(advInitCB())>::init()+0x68>)
   1b450:	2101      	movs	r1, #1
   1b452:	f7fe f83d 	bl	194d0 <app_timer_create>
   1b456:	2101      	movs	r1, #1
   1b458:	b280      	uxth	r0, r0
   1b45a:	f7fe ff65 	bl	1a328 <Errors::check(unsigned short, bool)>
   1b45e:	4b0b      	ldr	r3, [pc, #44]	; (1b48c <Advertising<MyTemperatureAD<TemperatureTmp117<(unsigned char)5> >, (unsigned short)3000, &(advInitCB())>::init()+0x6c>)
   1b460:	2200      	movs	r2, #0
   1b462:	6a18      	ldr	r0, [r3, #32]
   1b464:	f44f 2170 	mov.w	r1, #983040	; 0xf0000
   1b468:	f7fe f83d 	bl	194e6 <app_timer_start>
   1b46c:	2101      	movs	r1, #1
   1b46e:	b280      	uxth	r0, r0
   1b470:	f7fe ff5a 	bl	1a328 <Errors::check(unsigned short, bool)>
   1b474:	bd10      	pop	{r4, pc}
   1b476:	bf00      	nop
   1b478:	20001364 	.word	0x20001364
   1b47c:	20001128 	.word	0x20001128
   1b480:	20001340 	.word	0x20001340
   1b484:	0001b339 	.word	0x0001b339
   1b488:	20001338 	.word	0x20001338
   1b48c:	20001318 	.word	0x20001318

0001b490 <main>:
   1b490:	b570      	push	{r4, r5, r6, lr}
   1b492:	4828      	ldr	r0, [pc, #160]	; (1b534 <main+0xa4>)
   1b494:	4e28      	ldr	r6, [pc, #160]	; (1b538 <main+0xa8>)
   1b496:	b086      	sub	sp, #24
   1b498:	f7ff fcc8 	bl	1ae2c <int Print<DevRtt<0>>(DevRtt<0>, char const*) [clone .isra.0]>
   1b49c:	4827      	ldr	r0, [pc, #156]	; (1b53c <main+0xac>)
   1b49e:	f7ff fcc5 	bl	1ae2c <int Print<DevRtt<0>>(DevRtt<0>, char const*) [clone .isra.0]>
   1b4a2:	f7fe fe53 	bl	1a14c <BL651tempBoard::init()>
   1b4a6:	f7fe fe63 	bl	1a170 <BL651tempBoard::alive()>
   1b4aa:	4825      	ldr	r0, [pc, #148]	; (1b540 <main+0xb0>)
   1b4ac:	f7ff fcbe 	bl	1ae2c <int Print<DevRtt<0>>(DevRtt<0>, char const*) [clone .isra.0]>
   1b4b0:	f7fe fafa 	bl	19aa8 <nrf_pwr_mgmt_init>
   1b4b4:	2101      	movs	r1, #1
   1b4b6:	b280      	uxth	r0, r0
   1b4b8:	f7fe ff36 	bl	1a328 <Errors::check(unsigned short, bool)>
   1b4bc:	f04f 4380 	mov.w	r3, #1073741824	; 0x40000000
   1b4c0:	2401      	movs	r4, #1
   1b4c2:	f8c3 4578 	str.w	r4, [r3, #1400]	; 0x578
   1b4c6:	2500      	movs	r5, #0
   1b4c8:	481e      	ldr	r0, [pc, #120]	; (1b544 <main+0xb4>)
   1b4ca:	f7ff fcaf 	bl	1ae2c <int Print<DevRtt<0>>(DevRtt<0>, char const*) [clone .isra.0]>
   1b4ce:	9505      	str	r5, [sp, #20]
   1b4d0:	f000 f9d4 	bl	1b87c <nrf_sdh_enable_request>
   1b4d4:	4621      	mov	r1, r4
   1b4d6:	b280      	uxth	r0, r0
   1b4d8:	f7fe ff26 	bl	1a328 <Errors::check(unsigned short, bool)>
   1b4dc:	a905      	add	r1, sp, #20
   1b4de:	4628      	mov	r0, r5
   1b4e0:	f000 fa54 	bl	1b98c <nrf_sdh_ble_default_cfg_set>
   1b4e4:	4621      	mov	r1, r4
   1b4e6:	b280      	uxth	r0, r0
   1b4e8:	f7fe ff1e 	bl	1a328 <Errors::check(unsigned short, bool)>
   1b4ec:	a805      	add	r0, sp, #20
   1b4ee:	f000 faa3 	bl	1ba38 <nrf_sdh_ble_enable>
   1b4f2:	4621      	mov	r1, r4
   1b4f4:	b280      	uxth	r0, r0
   1b4f6:	f7fe ff17 	bl	1a328 <Errors::check(unsigned short, bool)>
   1b4fa:	4813      	ldr	r0, [pc, #76]	; (1b548 <main+0xb8>)
   1b4fc:	4d13      	ldr	r5, [pc, #76]	; (1b54c <main+0xbc>)
   1b4fe:	4c14      	ldr	r4, [pc, #80]	; (1b550 <main+0xc0>)
   1b500:	f7ff fc94 	bl	1ae2c <int Print<DevRtt<0>>(DevRtt<0>, char const*) [clone .isra.0]>
   1b504:	f7ff ff8c 	bl	1b420 <Advertising<MyTemperatureAD<TemperatureTmp117<(unsigned char)5> >, (unsigned short)3000, &(advInitCB())>::init()>
   1b508:	f7fe f806 	bl	19518 <app_timer_cnt_get>
   1b50c:	2263      	movs	r2, #99	; 0x63
   1b50e:	e9cd 5200 	strd	r5, r2, [sp]
   1b512:	f3c0 030d 	ubfx	r3, r0, #0, #14
   1b516:	223d      	movs	r2, #61	; 0x3d
   1b518:	4353      	muls	r3, r2
   1b51a:	4621      	mov	r1, r4
   1b51c:	0b82      	lsrs	r2, r0, #14
   1b51e:	9602      	str	r6, [sp, #8]
   1b520:	f04f 0000 	mov.w	r0, #0
   1b524:	f7ff fc56 	bl	1add4 <int Print<DevRtt<0>, unsigned long, unsigned long, char const*, int, char const*>(DevRtt<0>, char const*, unsigned long, unsigned long, char const*, int, char const*)>
   1b528:	480a      	ldr	r0, [pc, #40]	; (1b554 <main+0xc4>)
   1b52a:	f7ff fc7f 	bl	1ae2c <int Print<DevRtt<0>>(DevRtt<0>, char const*) [clone .isra.0]>
   1b52e:	f7fe fad1 	bl	19ad4 <nrf_pwr_mgmt_run>
   1b532:	e7e9      	b.n	1b508 <main+0x78>
   1b534:	0001d58b 	.word	0x0001d58b
   1b538:	0001d5f6 	.word	0x0001d5f6
   1b53c:	0001d5af 	.word	0x0001d5af
   1b540:	0001d5c0 	.word	0x0001d5c0
   1b544:	0001d5d8 	.word	0x0001d5d8
   1b548:	0001d5e7 	.word	0x0001d5e7
   1b54c:	0001d5fb 	.word	0x0001d5fb
   1b550:	0001d478 	.word	0x0001d478
   1b554:	0001d607 	.word	0x0001d607

0001b558 <_GLOBAL__sub_I_main>:
   1b558:	4b22      	ldr	r3, [pc, #136]	; (1b5e4 <_GLOBAL__sub_I_main+0x8c>)
   1b55a:	681a      	ldr	r2, [r3, #0]
   1b55c:	07d1      	lsls	r1, r2, #31
   1b55e:	bf5c      	itt	pl
   1b560:	2201      	movpl	r2, #1
   1b562:	601a      	strpl	r2, [r3, #0]
   1b564:	4b20      	ldr	r3, [pc, #128]	; (1b5e8 <_GLOBAL__sub_I_main+0x90>)
   1b566:	681a      	ldr	r2, [r3, #0]
   1b568:	07d2      	lsls	r2, r2, #31
   1b56a:	bf5c      	itt	pl
   1b56c:	2201      	movpl	r2, #1
   1b56e:	601a      	strpl	r2, [r3, #0]
   1b570:	4b1e      	ldr	r3, [pc, #120]	; (1b5ec <_GLOBAL__sub_I_main+0x94>)
   1b572:	681a      	ldr	r2, [r3, #0]
   1b574:	07d0      	lsls	r0, r2, #31
   1b576:	bf5c      	itt	pl
   1b578:	2201      	movpl	r2, #1
   1b57a:	601a      	strpl	r2, [r3, #0]
   1b57c:	4b1c      	ldr	r3, [pc, #112]	; (1b5f0 <_GLOBAL__sub_I_main+0x98>)
   1b57e:	681a      	ldr	r2, [r3, #0]
   1b580:	07d1      	lsls	r1, r2, #31
   1b582:	bf5c      	itt	pl
   1b584:	2201      	movpl	r2, #1
   1b586:	601a      	strpl	r2, [r3, #0]
   1b588:	4b1a      	ldr	r3, [pc, #104]	; (1b5f4 <_GLOBAL__sub_I_main+0x9c>)
   1b58a:	681a      	ldr	r2, [r3, #0]
   1b58c:	07d2      	lsls	r2, r2, #31
   1b58e:	bf5c      	itt	pl
   1b590:	2201      	movpl	r2, #1
   1b592:	601a      	strpl	r2, [r3, #0]
   1b594:	4b18      	ldr	r3, [pc, #96]	; (1b5f8 <_GLOBAL__sub_I_main+0xa0>)
   1b596:	681a      	ldr	r2, [r3, #0]
   1b598:	07d0      	lsls	r0, r2, #31
   1b59a:	bf5c      	itt	pl
   1b59c:	2201      	movpl	r2, #1
   1b59e:	601a      	strpl	r2, [r3, #0]
   1b5a0:	4a16      	ldr	r2, [pc, #88]	; (1b5fc <_GLOBAL__sub_I_main+0xa4>)
   1b5a2:	6813      	ldr	r3, [r2, #0]
   1b5a4:	f013 0301 	ands.w	r3, r3, #1
   1b5a8:	d10c      	bne.n	1b5c4 <_GLOBAL__sub_I_main+0x6c>
   1b5aa:	2101      	movs	r1, #1
   1b5ac:	6011      	str	r1, [r2, #0]
   1b5ae:	4a14      	ldr	r2, [pc, #80]	; (1b600 <_GLOBAL__sub_I_main+0xa8>)
   1b5b0:	7013      	strb	r3, [r2, #0]
   1b5b2:	4a14      	ldr	r2, [pc, #80]	; (1b604 <_GLOBAL__sub_I_main+0xac>)
   1b5b4:	2109      	movs	r1, #9
   1b5b6:	7011      	strb	r1, [r2, #0]
   1b5b8:	4a13      	ldr	r2, [pc, #76]	; (1b608 <_GLOBAL__sub_I_main+0xb0>)
   1b5ba:	7013      	strb	r3, [r2, #0]
   1b5bc:	4b13      	ldr	r3, [pc, #76]	; (1b60c <_GLOBAL__sub_I_main+0xb4>)
   1b5be:	f44f 3200 	mov.w	r2, #131072	; 0x20000
   1b5c2:	601a      	str	r2, [r3, #0]
   1b5c4:	4b12      	ldr	r3, [pc, #72]	; (1b610 <_GLOBAL__sub_I_main+0xb8>)
   1b5c6:	681a      	ldr	r2, [r3, #0]
   1b5c8:	07d1      	lsls	r1, r2, #31
   1b5ca:	bf5f      	itttt	pl
   1b5cc:	2201      	movpl	r2, #1
   1b5ce:	601a      	strpl	r2, [r3, #0]
   1b5d0:	4b10      	ldrpl	r3, [pc, #64]	; (1b614 <_GLOBAL__sub_I_main+0xbc>)
   1b5d2:	621b      	strpl	r3, [r3, #32]
   1b5d4:	4b10      	ldr	r3, [pc, #64]	; (1b618 <_GLOBAL__sub_I_main+0xc0>)
   1b5d6:	681a      	ldr	r2, [r3, #0]
   1b5d8:	07d2      	lsls	r2, r2, #31
   1b5da:	bf5c      	itt	pl
   1b5dc:	2201      	movpl	r2, #1
   1b5de:	601a      	strpl	r2, [r3, #0]
   1b5e0:	4770      	bx	lr
   1b5e2:	bf00      	nop
   1b5e4:	20001310 	.word	0x20001310
   1b5e8:	2000130c 	.word	0x2000130c
   1b5ec:	20001308 	.word	0x20001308
   1b5f0:	20001304 	.word	0x20001304
   1b5f4:	20001300 	.word	0x20001300
   1b5f8:	200012fc 	.word	0x200012fc
   1b5fc:	200012f8 	.word	0x200012f8
   1b600:	200013a6 	.word	0x200013a6
   1b604:	200013a5 	.word	0x200013a5
   1b608:	200013a4 	.word	0x200013a4
   1b60c:	200013a0 	.word	0x200013a0
   1b610:	200012f4 	.word	0x200012f4
   1b614:	20001318 	.word	0x20001318
   1b618:	200012f0 	.word	0x200012f0

0001b61c <_GetAvailWriteSpace>:
   1b61c:	6903      	ldr	r3, [r0, #16]
   1b61e:	68c1      	ldr	r1, [r0, #12]
   1b620:	428b      	cmp	r3, r1
   1b622:	bf9d      	ittte	ls
   1b624:	6882      	ldrls	r2, [r0, #8]
   1b626:	18d2      	addls	r2, r2, r3
   1b628:	f102 32ff 	addls.w	r2, r2, #4294967295	; 0xffffffff
   1b62c:	f103 33ff 	addhi.w	r3, r3, #4294967295	; 0xffffffff
   1b630:	bf94      	ite	ls
   1b632:	1a50      	subls	r0, r2, r1
   1b634:	1a58      	subhi	r0, r3, r1
   1b636:	4770      	bx	lr

0001b638 <_WriteNoCheck>:
   1b638:	e92d 43f8 	stmdb	sp!, {r3, r4, r5, r6, r7, r8, r9, lr}
   1b63c:	e9d0 9402 	ldrd	r9, r4, [r0, #8]
   1b640:	4605      	mov	r5, r0
   1b642:	eba9 0804 	sub.w	r8, r9, r4
   1b646:	6840      	ldr	r0, [r0, #4]
   1b648:	4590      	cmp	r8, r2
   1b64a:	4420      	add	r0, r4
   1b64c:	460f      	mov	r7, r1
   1b64e:	4414      	add	r4, r2
   1b650:	d904      	bls.n	1b65c <_WriteNoCheck+0x24>
   1b652:	f000 fa53 	bl	1bafc <memcpy>
   1b656:	60ec      	str	r4, [r5, #12]
   1b658:	e8bd 83f8 	ldmia.w	sp!, {r3, r4, r5, r6, r7, r8, r9, pc}
   1b65c:	4642      	mov	r2, r8
   1b65e:	eba4 0409 	sub.w	r4, r4, r9
   1b662:	f000 fa4b 	bl	1bafc <memcpy>
   1b666:	6868      	ldr	r0, [r5, #4]
   1b668:	4622      	mov	r2, r4
   1b66a:	eb07 0108 	add.w	r1, r7, r8
   1b66e:	e7f0      	b.n	1b652 <_WriteNoCheck+0x1a>

0001b670 <_WriteBlocking>:
   1b670:	e92d 43f8 	stmdb	sp!, {r3, r4, r5, r6, r7, r8, r9, lr}
   1b674:	68c5      	ldr	r5, [r0, #12]
   1b676:	4606      	mov	r6, r0
   1b678:	4689      	mov	r9, r1
   1b67a:	4617      	mov	r7, r2
   1b67c:	f04f 0800 	mov.w	r8, #0
   1b680:	6934      	ldr	r4, [r6, #16]
   1b682:	68b3      	ldr	r3, [r6, #8]
   1b684:	6870      	ldr	r0, [r6, #4]
   1b686:	42a5      	cmp	r5, r4
   1b688:	bf28      	it	cs
   1b68a:	18e4      	addcs	r4, r4, r3
   1b68c:	3c01      	subs	r4, #1
   1b68e:	1b62      	subs	r2, r4, r5
   1b690:	1b5c      	subs	r4, r3, r5
   1b692:	42bc      	cmp	r4, r7
   1b694:	bf28      	it	cs
   1b696:	463c      	movcs	r4, r7
   1b698:	4294      	cmp	r4, r2
   1b69a:	bf28      	it	cs
   1b69c:	4614      	movcs	r4, r2
   1b69e:	4649      	mov	r1, r9
   1b6a0:	4428      	add	r0, r5
   1b6a2:	4622      	mov	r2, r4
   1b6a4:	f000 fa2a 	bl	1bafc <memcpy>
   1b6a8:	68b3      	ldr	r3, [r6, #8]
   1b6aa:	4425      	add	r5, r4
   1b6ac:	42ab      	cmp	r3, r5
   1b6ae:	bf08      	it	eq
   1b6b0:	2500      	moveq	r5, #0
   1b6b2:	1b3f      	subs	r7, r7, r4
   1b6b4:	44a0      	add	r8, r4
   1b6b6:	44a1      	add	r9, r4
   1b6b8:	60f5      	str	r5, [r6, #12]
   1b6ba:	d1e1      	bne.n	1b680 <_WriteBlocking+0x10>
   1b6bc:	4640      	mov	r0, r8
   1b6be:	e8bd 83f8 	ldmia.w	sp!, {r3, r4, r5, r6, r7, r8, r9, pc}
	...

0001b6c4 <_DoInit>:
   1b6c4:	b510      	push	{r4, lr}
   1b6c6:	4c11      	ldr	r4, [pc, #68]	; (1b70c <_DoInit+0x48>)
   1b6c8:	4911      	ldr	r1, [pc, #68]	; (1b710 <_DoInit+0x4c>)
   1b6ca:	4a12      	ldr	r2, [pc, #72]	; (1b714 <_DoInit+0x50>)
   1b6cc:	61a1      	str	r1, [r4, #24]
   1b6ce:	64a1      	str	r1, [r4, #72]	; 0x48
   1b6d0:	4911      	ldr	r1, [pc, #68]	; (1b718 <_DoInit+0x54>)
   1b6d2:	61e2      	str	r2, [r4, #28]
   1b6d4:	64e1      	str	r1, [r4, #76]	; 0x4c
   1b6d6:	f44f 7200 	mov.w	r2, #512	; 0x200
   1b6da:	2110      	movs	r1, #16
   1b6dc:	2302      	movs	r3, #2
   1b6de:	6222      	str	r2, [r4, #32]
   1b6e0:	6521      	str	r1, [r4, #80]	; 0x50
   1b6e2:	2200      	movs	r2, #0
   1b6e4:	490d      	ldr	r1, [pc, #52]	; (1b71c <_DoInit+0x58>)
   1b6e6:	62a2      	str	r2, [r4, #40]	; 0x28
   1b6e8:	1de0      	adds	r0, r4, #7
   1b6ea:	e9c4 3304 	strd	r3, r3, [r4, #16]
   1b6ee:	62e3      	str	r3, [r4, #44]	; 0x2c
   1b6f0:	65e3      	str	r3, [r4, #92]	; 0x5c
   1b6f2:	6262      	str	r2, [r4, #36]	; 0x24
   1b6f4:	65a2      	str	r2, [r4, #88]	; 0x58
   1b6f6:	6562      	str	r2, [r4, #84]	; 0x54
   1b6f8:	f000 fa4a 	bl	1bb90 <strcpy>
   1b6fc:	4908      	ldr	r1, [pc, #32]	; (1b720 <_DoInit+0x5c>)
   1b6fe:	4620      	mov	r0, r4
   1b700:	f000 fa46 	bl	1bb90 <strcpy>
   1b704:	2320      	movs	r3, #32
   1b706:	71a3      	strb	r3, [r4, #6]
   1b708:	bd10      	pop	{r4, pc}
   1b70a:	bf00      	nop
   1b70c:	200015d4 	.word	0x200015d4
   1b710:	0001d748 	.word	0x0001d748
   1b714:	200013b8 	.word	0x200013b8
   1b718:	200013a8 	.word	0x200013a8
   1b71c:	0001d751 	.word	0x0001d751
   1b720:	0001d755 	.word	0x0001d755

0001b724 <SEGGER_RTT_WriteNoLock>:
   1b724:	b5f8      	push	{r3, r4, r5, r6, r7, lr}
   1b726:	4c18      	ldr	r4, [pc, #96]	; (1b788 <SEGGER_RTT_WriteNoLock+0x64>)
   1b728:	2318      	movs	r3, #24
   1b72a:	fb00 3503 	mla	r5, r0, r3, r3
   1b72e:	fb03 4000 	mla	r0, r3, r0, r4
   1b732:	4425      	add	r5, r4
   1b734:	6ac4      	ldr	r4, [r0, #44]	; 0x2c
   1b736:	2c01      	cmp	r4, #1
   1b738:	460f      	mov	r7, r1
   1b73a:	4616      	mov	r6, r2
   1b73c:	d00f      	beq.n	1b75e <SEGGER_RTT_WriteNoLock+0x3a>
   1b73e:	2c02      	cmp	r4, #2
   1b740:	d01a      	beq.n	1b778 <SEGGER_RTT_WriteNoLock+0x54>
   1b742:	b9f4      	cbnz	r4, 1b782 <SEGGER_RTT_WriteNoLock+0x5e>
   1b744:	4628      	mov	r0, r5
   1b746:	f7ff ff69 	bl	1b61c <_GetAvailWriteSpace>
   1b74a:	4286      	cmp	r6, r0
   1b74c:	d805      	bhi.n	1b75a <SEGGER_RTT_WriteNoLock+0x36>
   1b74e:	4632      	mov	r2, r6
   1b750:	4639      	mov	r1, r7
   1b752:	4628      	mov	r0, r5
   1b754:	f7ff ff70 	bl	1b638 <_WriteNoCheck>
   1b758:	4634      	mov	r4, r6
   1b75a:	4620      	mov	r0, r4
   1b75c:	bdf8      	pop	{r3, r4, r5, r6, r7, pc}
   1b75e:	4628      	mov	r0, r5
   1b760:	f7ff ff5c 	bl	1b61c <_GetAvailWriteSpace>
   1b764:	4286      	cmp	r6, r0
   1b766:	4634      	mov	r4, r6
   1b768:	bf28      	it	cs
   1b76a:	4604      	movcs	r4, r0
   1b76c:	4622      	mov	r2, r4
   1b76e:	4639      	mov	r1, r7
   1b770:	4628      	mov	r0, r5
   1b772:	f7ff ff61 	bl	1b638 <_WriteNoCheck>
   1b776:	e7f0      	b.n	1b75a <SEGGER_RTT_WriteNoLock+0x36>
   1b778:	4628      	mov	r0, r5
   1b77a:	e8bd 40f8 	ldmia.w	sp!, {r3, r4, r5, r6, r7, lr}
   1b77e:	f7ff bf77 	b.w	1b670 <_WriteBlocking>
   1b782:	2400      	movs	r4, #0
   1b784:	e7e9      	b.n	1b75a <SEGGER_RTT_WriteNoLock+0x36>
   1b786:	bf00      	nop
   1b788:	200015d4 	.word	0x200015d4

0001b78c <SEGGER_RTT_Write>:
   1b78c:	b573      	push	{r0, r1, r4, r5, r6, lr}
   1b78e:	4b0e      	ldr	r3, [pc, #56]	; (1b7c8 <SEGGER_RTT_Write+0x3c>)
   1b790:	781b      	ldrb	r3, [r3, #0]
   1b792:	4604      	mov	r4, r0
   1b794:	460d      	mov	r5, r1
   1b796:	4616      	mov	r6, r2
   1b798:	b90b      	cbnz	r3, 1b79e <SEGGER_RTT_Write+0x12>
   1b79a:	f7ff ff93 	bl	1b6c4 <_DoInit>
   1b79e:	2300      	movs	r3, #0
   1b7a0:	f10d 0007 	add.w	r0, sp, #7
   1b7a4:	f88d 3007 	strb.w	r3, [sp, #7]
   1b7a8:	f7fd ff8a 	bl	196c0 <app_util_critical_region_enter>
   1b7ac:	4632      	mov	r2, r6
   1b7ae:	4629      	mov	r1, r5
   1b7b0:	4620      	mov	r0, r4
   1b7b2:	f7ff ffb7 	bl	1b724 <SEGGER_RTT_WriteNoLock>
   1b7b6:	4604      	mov	r4, r0
   1b7b8:	f89d 0007 	ldrb.w	r0, [sp, #7]
   1b7bc:	f7fd ffa4 	bl	19708 <app_util_critical_region_exit>
   1b7c0:	4620      	mov	r0, r4
   1b7c2:	b002      	add	sp, #8
   1b7c4:	bd70      	pop	{r4, r5, r6, pc}
   1b7c6:	bf00      	nop
   1b7c8:	200015d4 	.word	0x200015d4

0001b7cc <SEGGER_RTT_WriteString>:
   1b7cc:	b538      	push	{r3, r4, r5, lr}
   1b7ce:	4605      	mov	r5, r0
   1b7d0:	4608      	mov	r0, r1
   1b7d2:	460c      	mov	r4, r1
   1b7d4:	f000 f9e4 	bl	1bba0 <strlen>
   1b7d8:	4621      	mov	r1, r4
   1b7da:	4602      	mov	r2, r0
   1b7dc:	4628      	mov	r0, r5
   1b7de:	e8bd 4038 	ldmia.w	sp!, {r3, r4, r5, lr}
   1b7e2:	f7ff bfd3 	b.w	1b78c <SEGGER_RTT_Write>

0001b7e6 <sd_softdevice_enable>:
   1b7e6:	df10      	svc	16
   1b7e8:	4770      	bx	lr
	...

0001b7ec <sdh_request_observer_notify>:
   1b7ec:	b513      	push	{r0, r1, r4, lr}
   1b7ee:	4604      	mov	r4, r0
   1b7f0:	4909      	ldr	r1, [pc, #36]	; (1b818 <sdh_request_observer_notify+0x2c>)
   1b7f2:	4668      	mov	r0, sp
   1b7f4:	f7fe f97a 	bl	19aec <nrf_section_iter_init>
   1b7f8:	9801      	ldr	r0, [sp, #4]
   1b7fa:	b908      	cbnz	r0, 1b800 <sdh_request_observer_notify+0x14>
   1b7fc:	b002      	add	sp, #8
   1b7fe:	bd10      	pop	{r4, pc}
   1b800:	e9d0 3100 	ldrd	r3, r1, [r0]
   1b804:	4620      	mov	r0, r4
   1b806:	4798      	blx	r3
   1b808:	b118      	cbz	r0, 1b812 <sdh_request_observer_notify+0x26>
   1b80a:	4668      	mov	r0, sp
   1b80c:	f7fe f977 	bl	19afe <nrf_section_iter_next>
   1b810:	e7f2      	b.n	1b7f8 <sdh_request_observer_notify+0xc>
   1b812:	2011      	movs	r0, #17
   1b814:	e7f2      	b.n	1b7fc <sdh_request_observer_notify+0x10>
   1b816:	bf00      	nop
   1b818:	0001d760 	.word	0x0001d760

0001b81c <sdh_state_observer_notify>:
   1b81c:	b513      	push	{r0, r1, r4, lr}
   1b81e:	4604      	mov	r4, r0
   1b820:	4907      	ldr	r1, [pc, #28]	; (1b840 <sdh_state_observer_notify+0x24>)
   1b822:	4668      	mov	r0, sp
   1b824:	f7fe f962 	bl	19aec <nrf_section_iter_init>
   1b828:	9b01      	ldr	r3, [sp, #4]
   1b82a:	b90b      	cbnz	r3, 1b830 <sdh_state_observer_notify+0x14>
   1b82c:	b002      	add	sp, #8
   1b82e:	bd10      	pop	{r4, pc}
   1b830:	4620      	mov	r0, r4
   1b832:	e9d3 2100 	ldrd	r2, r1, [r3]
   1b836:	4790      	blx	r2
   1b838:	4668      	mov	r0, sp
   1b83a:	f7fe f960 	bl	19afe <nrf_section_iter_next>
   1b83e:	e7f3      	b.n	1b828 <sdh_state_observer_notify+0xc>
   1b840:	0001d778 	.word	0x0001d778

0001b844 <softdevices_evt_irq_enable>:
   1b844:	490b      	ldr	r1, [pc, #44]	; (1b874 <softdevices_evt_irq_enable+0x30>)
   1b846:	f891 3316 	ldrb.w	r3, [r1, #790]	; 0x316
   1b84a:	095a      	lsrs	r2, r3, #5
   1b84c:	23ec      	movs	r3, #236	; 0xec
   1b84e:	4113      	asrs	r3, r2
   1b850:	07db      	lsls	r3, r3, #31
   1b852:	d506      	bpl.n	1b862 <softdevices_evt_irq_enable+0x1e>
   1b854:	4b08      	ldr	r3, [pc, #32]	; (1b878 <softdevices_evt_irq_enable+0x34>)
   1b856:	689a      	ldr	r2, [r3, #8]
   1b858:	b93a      	cbnz	r2, 1b86a <softdevices_evt_irq_enable+0x26>
   1b85a:	f44f 0380 	mov.w	r3, #4194304	; 0x400000
   1b85e:	600b      	str	r3, [r1, #0]
   1b860:	4770      	bx	lr
   1b862:	f242 0002 	movw	r0, #8194	; 0x2002
   1b866:	f7fd bd5d 	b.w	19324 <app_error_handler_bare>
   1b86a:	681a      	ldr	r2, [r3, #0]
   1b86c:	f442 0280 	orr.w	r2, r2, #4194304	; 0x400000
   1b870:	601a      	str	r2, [r3, #0]
   1b872:	4770      	bx	lr
   1b874:	e000e100 	.word	0xe000e100
   1b878:	200015c8 	.word	0x200015c8

0001b87c <nrf_sdh_enable_request>:
   1b87c:	b5f7      	push	{r0, r1, r2, r4, r5, r6, r7, lr}
   1b87e:	4f19      	ldr	r7, [pc, #100]	; (1b8e4 <nrf_sdh_enable_request+0x68>)
   1b880:	783c      	ldrb	r4, [r7, #0]
   1b882:	bb64      	cbnz	r4, 1b8de <nrf_sdh_enable_request+0x62>
   1b884:	4e18      	ldr	r6, [pc, #96]	; (1b8e8 <nrf_sdh_enable_request+0x6c>)
   1b886:	2501      	movs	r5, #1
   1b888:	4620      	mov	r0, r4
   1b88a:	7035      	strb	r5, [r6, #0]
   1b88c:	f7ff ffae 	bl	1b7ec <sdh_request_observer_notify>
   1b890:	2811      	cmp	r0, #17
   1b892:	d021      	beq.n	1b8d8 <nrf_sdh_enable_request+0x5c>
   1b894:	4620      	mov	r0, r4
   1b896:	f7ff ffc1 	bl	1b81c <sdh_state_observer_notify>
   1b89a:	4b14      	ldr	r3, [pc, #80]	; (1b8ec <nrf_sdh_enable_request+0x70>)
   1b89c:	f88d 4003 	strb.w	r4, [sp, #3]
   1b8a0:	6818      	ldr	r0, [r3, #0]
   1b8a2:	9001      	str	r0, [sp, #4]
   1b8a4:	f10d 0003 	add.w	r0, sp, #3
   1b8a8:	f7fd ff0a 	bl	196c0 <app_util_critical_region_enter>
   1b8ac:	4910      	ldr	r1, [pc, #64]	; (1b8f0 <nrf_sdh_enable_request+0x74>)
   1b8ae:	a801      	add	r0, sp, #4
   1b8b0:	f7ff ff99 	bl	1b7e6 <sd_softdevice_enable>
   1b8b4:	4604      	mov	r4, r0
   1b8b6:	fab0 f080 	clz	r0, r0
   1b8ba:	0940      	lsrs	r0, r0, #5
   1b8bc:	7038      	strb	r0, [r7, #0]
   1b8be:	f89d 0003 	ldrb.w	r0, [sp, #3]
   1b8c2:	f7fd ff21 	bl	19708 <app_util_critical_region_exit>
   1b8c6:	b93c      	cbnz	r4, 1b8d8 <nrf_sdh_enable_request+0x5c>
   1b8c8:	4b0a      	ldr	r3, [pc, #40]	; (1b8f4 <nrf_sdh_enable_request+0x78>)
   1b8ca:	7034      	strb	r4, [r6, #0]
   1b8cc:	701c      	strb	r4, [r3, #0]
   1b8ce:	f7ff ffb9 	bl	1b844 <softdevices_evt_irq_enable>
   1b8d2:	4628      	mov	r0, r5
   1b8d4:	f7ff ffa2 	bl	1b81c <sdh_state_observer_notify>
   1b8d8:	4620      	mov	r0, r4
   1b8da:	b003      	add	sp, #12
   1b8dc:	bdf0      	pop	{r4, r5, r6, r7, pc}
   1b8de:	2408      	movs	r4, #8
   1b8e0:	e7fa      	b.n	1b8d8 <nrf_sdh_enable_request+0x5c>
   1b8e2:	bf00      	nop
   1b8e4:	200015b9 	.word	0x200015b9
   1b8e8:	200015b8 	.word	0x200015b8
   1b8ec:	0001d75c 	.word	0x0001d75c
   1b8f0:	00019341 	.word	0x00019341
   1b8f4:	200015ba 	.word	0x200015ba

0001b8f8 <nrf_sdh_is_enabled>:
   1b8f8:	4b01      	ldr	r3, [pc, #4]	; (1b900 <nrf_sdh_is_enabled+0x8>)
   1b8fa:	7818      	ldrb	r0, [r3, #0]
   1b8fc:	4770      	bx	lr
   1b8fe:	bf00      	nop
   1b900:	200015b9 	.word	0x200015b9

0001b904 <nrf_sdh_evts_poll>:
   1b904:	b507      	push	{r0, r1, r2, lr}
   1b906:	4908      	ldr	r1, [pc, #32]	; (1b928 <nrf_sdh_evts_poll+0x24>)
   1b908:	4668      	mov	r0, sp
   1b90a:	f7fe f8ef 	bl	19aec <nrf_section_iter_init>
   1b90e:	9b01      	ldr	r3, [sp, #4]
   1b910:	b913      	cbnz	r3, 1b918 <nrf_sdh_evts_poll+0x14>
   1b912:	b003      	add	sp, #12
   1b914:	f85d fb04 	ldr.w	pc, [sp], #4
   1b918:	e9d3 2000 	ldrd	r2, r0, [r3]
   1b91c:	4790      	blx	r2
   1b91e:	4668      	mov	r0, sp
   1b920:	f7fe f8ed 	bl	19afe <nrf_section_iter_next>
   1b924:	e7f3      	b.n	1b90e <nrf_sdh_evts_poll+0xa>
   1b926:	bf00      	nop
   1b928:	0001d76c 	.word	0x0001d76c

0001b92c <SWI2_IRQHandler>:
   1b92c:	f7ff bfea 	b.w	1b904 <nrf_sdh_evts_poll>

0001b930 <sd_ble_enable>:
   1b930:	df60      	svc	96	; 0x60
   1b932:	4770      	bx	lr

0001b934 <sd_ble_cfg_set>:
   1b934:	df69      	svc	105	; 0x69
   1b936:	4770      	bx	lr

0001b938 <sd_ble_evt_get>:
   1b938:	df61      	svc	97	; 0x61
   1b93a:	4770      	bx	lr

0001b93c <nrf_sdh_ble_evts_poll>:
   1b93c:	b530      	push	{r4, r5, lr}
   1b93e:	4b11      	ldr	r3, [pc, #68]	; (1b984 <nrf_sdh_ble_evts_poll+0x48>)
   1b940:	781b      	ldrb	r3, [r3, #0]
   1b942:	b091      	sub	sp, #68	; 0x44
   1b944:	b1e3      	cbz	r3, 1b980 <nrf_sdh_ble_evts_poll+0x44>
   1b946:	4d10      	ldr	r5, [pc, #64]	; (1b988 <nrf_sdh_ble_evts_poll+0x4c>)
   1b948:	2434      	movs	r4, #52	; 0x34
   1b94a:	f10d 0102 	add.w	r1, sp, #2
   1b94e:	a803      	add	r0, sp, #12
   1b950:	f8ad 4002 	strh.w	r4, [sp, #2]
   1b954:	f7ff fff0 	bl	1b938 <sd_ble_evt_get>
   1b958:	b970      	cbnz	r0, 1b978 <nrf_sdh_ble_evts_poll+0x3c>
   1b95a:	4629      	mov	r1, r5
   1b95c:	a801      	add	r0, sp, #4
   1b95e:	f7fe f8c5 	bl	19aec <nrf_section_iter_init>
   1b962:	9b02      	ldr	r3, [sp, #8]
   1b964:	2b00      	cmp	r3, #0
   1b966:	d0f0      	beq.n	1b94a <nrf_sdh_ble_evts_poll+0xe>
   1b968:	a803      	add	r0, sp, #12
   1b96a:	e9d3 2100 	ldrd	r2, r1, [r3]
   1b96e:	4790      	blx	r2
   1b970:	a801      	add	r0, sp, #4
   1b972:	f7fe f8c4 	bl	19afe <nrf_section_iter_next>
   1b976:	e7f4      	b.n	1b962 <nrf_sdh_ble_evts_poll+0x26>
   1b978:	2805      	cmp	r0, #5
   1b97a:	d001      	beq.n	1b980 <nrf_sdh_ble_evts_poll+0x44>
   1b97c:	f7fd fcd2 	bl	19324 <app_error_handler_bare>
   1b980:	b011      	add	sp, #68	; 0x44
   1b982:	bd30      	pop	{r4, r5, pc}
   1b984:	200015bb 	.word	0x200015bb
   1b988:	0001d784 	.word	0x0001d784

0001b98c <nrf_sdh_ble_default_cfg_set>:
   1b98c:	b57f      	push	{r0, r1, r2, r3, r4, r5, r6, lr}
   1b98e:	4604      	mov	r4, r0
   1b990:	460d      	mov	r5, r1
   1b992:	2900      	cmp	r1, #0
   1b994:	d04b      	beq.n	1ba2e <nrf_sdh_ble_default_cfg_set+0xa2>
   1b996:	4b27      	ldr	r3, [pc, #156]	; (1ba34 <nrf_sdh_ble_default_cfg_set+0xa8>)
   1b998:	600b      	str	r3, [r1, #0]
   1b99a:	220c      	movs	r2, #12
   1b99c:	2100      	movs	r1, #0
   1b99e:	a801      	add	r0, sp, #4
   1b9a0:	f000 f8ba 	bl	1bb18 <memset>
   1b9a4:	2601      	movs	r6, #1
   1b9a6:	2306      	movs	r3, #6
   1b9a8:	682a      	ldr	r2, [r5, #0]
   1b9aa:	f8ad 3008 	strh.w	r3, [sp, #8]
   1b9ae:	a901      	add	r1, sp, #4
   1b9b0:	2020      	movs	r0, #32
   1b9b2:	f88d 4004 	strb.w	r4, [sp, #4]
   1b9b6:	f88d 6006 	strb.w	r6, [sp, #6]
   1b9ba:	f7ff ffbb 	bl	1b934 <sd_ble_cfg_set>
   1b9be:	220c      	movs	r2, #12
   1b9c0:	2100      	movs	r1, #0
   1b9c2:	a801      	add	r0, sp, #4
   1b9c4:	2400      	movs	r4, #0
   1b9c6:	f000 f8a7 	bl	1bb18 <memset>
   1b9ca:	682a      	ldr	r2, [r5, #0]
   1b9cc:	f88d 4005 	strb.w	r4, [sp, #5]
   1b9d0:	a901      	add	r1, sp, #4
   1b9d2:	2040      	movs	r0, #64	; 0x40
   1b9d4:	f7ff ffae 	bl	1b934 <sd_ble_cfg_set>
   1b9d8:	220c      	movs	r2, #12
   1b9da:	4621      	mov	r1, r4
   1b9dc:	a801      	add	r0, sp, #4
   1b9de:	f000 f89b 	bl	1bb18 <memset>
   1b9e2:	682a      	ldr	r2, [r5, #0]
   1b9e4:	f88d 4004 	strb.w	r4, [sp, #4]
   1b9e8:	a901      	add	r1, sp, #4
   1b9ea:	4630      	mov	r0, r6
   1b9ec:	f7ff ffa2 	bl	1b934 <sd_ble_cfg_set>
   1b9f0:	220c      	movs	r2, #12
   1b9f2:	4621      	mov	r1, r4
   1b9f4:	a801      	add	r0, sp, #4
   1b9f6:	f000 f88f 	bl	1bb18 <memset>
   1b9fa:	23f8      	movs	r3, #248	; 0xf8
   1b9fc:	682a      	ldr	r2, [r5, #0]
   1b9fe:	9301      	str	r3, [sp, #4]
   1ba00:	a901      	add	r1, sp, #4
   1ba02:	20a1      	movs	r0, #161	; 0xa1
   1ba04:	f7ff ff96 	bl	1b934 <sd_ble_cfg_set>
   1ba08:	220c      	movs	r2, #12
   1ba0a:	4621      	mov	r1, r4
   1ba0c:	a801      	add	r0, sp, #4
   1ba0e:	f000 f883 	bl	1bb18 <memset>
   1ba12:	f89d 3004 	ldrb.w	r3, [sp, #4]
   1ba16:	682a      	ldr	r2, [r5, #0]
   1ba18:	f364 0300 	bfi	r3, r4, #0, #1
   1ba1c:	a901      	add	r1, sp, #4
   1ba1e:	20a0      	movs	r0, #160	; 0xa0
   1ba20:	f88d 3004 	strb.w	r3, [sp, #4]
   1ba24:	f7ff ff86 	bl	1b934 <sd_ble_cfg_set>
   1ba28:	4620      	mov	r0, r4
   1ba2a:	b004      	add	sp, #16
   1ba2c:	bd70      	pop	{r4, r5, r6, pc}
   1ba2e:	200e      	movs	r0, #14
   1ba30:	e7fb      	b.n	1ba2a <nrf_sdh_ble_default_cfg_set+0x9e>
   1ba32:	bf00      	nop
   1ba34:	20001118 	.word	0x20001118

0001ba38 <nrf_sdh_ble_enable>:
   1ba38:	b508      	push	{r3, lr}
   1ba3a:	f7ff ff79 	bl	1b930 <sd_ble_enable>
   1ba3e:	b910      	cbnz	r0, 1ba46 <nrf_sdh_ble_enable+0xe>
   1ba40:	4b01      	ldr	r3, [pc, #4]	; (1ba48 <nrf_sdh_ble_enable+0x10>)
   1ba42:	2201      	movs	r2, #1
   1ba44:	701a      	strb	r2, [r3, #0]
   1ba46:	bd08      	pop	{r3, pc}
   1ba48:	200015bb 	.word	0x200015bb

0001ba4c <sd_evt_get>:
   1ba4c:	df4b      	svc	75	; 0x4b
   1ba4e:	4770      	bx	lr

0001ba50 <nrf_sdh_soc_evts_poll>:
   1ba50:	b51f      	push	{r0, r1, r2, r3, r4, lr}
   1ba52:	4c0d      	ldr	r4, [pc, #52]	; (1ba88 <nrf_sdh_soc_evts_poll+0x38>)
   1ba54:	a801      	add	r0, sp, #4
   1ba56:	f7ff fff9 	bl	1ba4c <sd_evt_get>
   1ba5a:	b970      	cbnz	r0, 1ba7a <nrf_sdh_soc_evts_poll+0x2a>
   1ba5c:	4621      	mov	r1, r4
   1ba5e:	a802      	add	r0, sp, #8
   1ba60:	f7fe f844 	bl	19aec <nrf_section_iter_init>
   1ba64:	9b03      	ldr	r3, [sp, #12]
   1ba66:	2b00      	cmp	r3, #0
   1ba68:	d0f4      	beq.n	1ba54 <nrf_sdh_soc_evts_poll+0x4>
   1ba6a:	9801      	ldr	r0, [sp, #4]
   1ba6c:	e9d3 2100 	ldrd	r2, r1, [r3]
   1ba70:	4790      	blx	r2
   1ba72:	a802      	add	r0, sp, #8
   1ba74:	f7fe f843 	bl	19afe <nrf_section_iter_next>
   1ba78:	e7f4      	b.n	1ba64 <nrf_sdh_soc_evts_poll+0x14>
   1ba7a:	2805      	cmp	r0, #5
   1ba7c:	d001      	beq.n	1ba82 <nrf_sdh_soc_evts_poll+0x32>
   1ba7e:	f7fd fc51 	bl	19324 <app_error_handler_bare>
   1ba82:	b004      	add	sp, #16
   1ba84:	bd10      	pop	{r4, pc}
   1ba86:	bf00      	nop
   1ba88:	0001d790 	.word	0x0001d790

0001ba8c <exit>:
   1ba8c:	b508      	push	{r3, lr}
   1ba8e:	4b07      	ldr	r3, [pc, #28]	; (1baac <exit+0x20>)
   1ba90:	4604      	mov	r4, r0
   1ba92:	b113      	cbz	r3, 1ba9a <exit+0xe>
   1ba94:	2100      	movs	r1, #0
   1ba96:	f3af 8000 	nop.w
   1ba9a:	4b05      	ldr	r3, [pc, #20]	; (1bab0 <exit+0x24>)
   1ba9c:	6818      	ldr	r0, [r3, #0]
   1ba9e:	6a83      	ldr	r3, [r0, #40]	; 0x28
   1baa0:	b103      	cbz	r3, 1baa4 <exit+0x18>
   1baa2:	4798      	blx	r3
   1baa4:	4620      	mov	r0, r4
   1baa6:	f000 fcdf 	bl	1c468 <_exit>
   1baaa:	bf00      	nop
   1baac:	00000000 	.word	0x00000000
   1bab0:	0001d79c 	.word	0x0001d79c

0001bab4 <__libc_init_array>:
   1bab4:	b570      	push	{r4, r5, r6, lr}
   1bab6:	4d0d      	ldr	r5, [pc, #52]	; (1baec <__libc_init_array+0x38>)
   1bab8:	4c0d      	ldr	r4, [pc, #52]	; (1baf0 <__libc_init_array+0x3c>)
   1baba:	1b64      	subs	r4, r4, r5
   1babc:	10a4      	asrs	r4, r4, #2
   1babe:	2600      	movs	r6, #0
   1bac0:	42a6      	cmp	r6, r4
   1bac2:	d109      	bne.n	1bad8 <__libc_init_array+0x24>
   1bac4:	4d0b      	ldr	r5, [pc, #44]	; (1baf4 <__libc_init_array+0x40>)
   1bac6:	4c0c      	ldr	r4, [pc, #48]	; (1baf8 <__libc_init_array+0x44>)
   1bac8:	f001 fc9e 	bl	1d408 <_init>
   1bacc:	1b64      	subs	r4, r4, r5
   1bace:	10a4      	asrs	r4, r4, #2
   1bad0:	2600      	movs	r6, #0
   1bad2:	42a6      	cmp	r6, r4
   1bad4:	d105      	bne.n	1bae2 <__libc_init_array+0x2e>
   1bad6:	bd70      	pop	{r4, r5, r6, pc}
   1bad8:	f855 3b04 	ldr.w	r3, [r5], #4
   1badc:	4798      	blx	r3
   1bade:	3601      	adds	r6, #1
   1bae0:	e7ee      	b.n	1bac0 <__libc_init_array+0xc>
   1bae2:	f855 3b04 	ldr.w	r3, [r5], #4
   1bae6:	4798      	blx	r3
   1bae8:	3601      	adds	r6, #1
   1baea:	e7f2      	b.n	1bad2 <__libc_init_array+0x1e>
   1baec:	200011a8 	.word	0x200011a8
   1baf0:	200011a8 	.word	0x200011a8
   1baf4:	200011a8 	.word	0x200011a8
   1baf8:	200011b0 	.word	0x200011b0

0001bafc <memcpy>:
   1bafc:	440a      	add	r2, r1
   1bafe:	4291      	cmp	r1, r2
   1bb00:	f100 33ff 	add.w	r3, r0, #4294967295	; 0xffffffff
   1bb04:	d100      	bne.n	1bb08 <memcpy+0xc>
   1bb06:	4770      	bx	lr
   1bb08:	b510      	push	{r4, lr}
   1bb0a:	f811 4b01 	ldrb.w	r4, [r1], #1
   1bb0e:	f803 4f01 	strb.w	r4, [r3, #1]!
   1bb12:	4291      	cmp	r1, r2
   1bb14:	d1f9      	bne.n	1bb0a <memcpy+0xe>
   1bb16:	bd10      	pop	{r4, pc}

0001bb18 <memset>:
   1bb18:	4402      	add	r2, r0
   1bb1a:	4603      	mov	r3, r0
   1bb1c:	4293      	cmp	r3, r2
   1bb1e:	d100      	bne.n	1bb22 <memset+0xa>
   1bb20:	4770      	bx	lr
   1bb22:	f803 1b01 	strb.w	r1, [r3], #1
   1bb26:	e7f9      	b.n	1bb1c <memset+0x4>

0001bb28 <sniprintf>:
   1bb28:	b40c      	push	{r2, r3}
   1bb2a:	b530      	push	{r4, r5, lr}
   1bb2c:	4b17      	ldr	r3, [pc, #92]	; (1bb8c <sniprintf+0x64>)
   1bb2e:	1e0c      	subs	r4, r1, #0
   1bb30:	681d      	ldr	r5, [r3, #0]
   1bb32:	b09d      	sub	sp, #116	; 0x74
   1bb34:	da08      	bge.n	1bb48 <sniprintf+0x20>
   1bb36:	238b      	movs	r3, #139	; 0x8b
   1bb38:	602b      	str	r3, [r5, #0]
   1bb3a:	f04f 30ff 	mov.w	r0, #4294967295	; 0xffffffff
   1bb3e:	b01d      	add	sp, #116	; 0x74
   1bb40:	e8bd 4030 	ldmia.w	sp!, {r4, r5, lr}
   1bb44:	b002      	add	sp, #8
   1bb46:	4770      	bx	lr
   1bb48:	f44f 7302 	mov.w	r3, #520	; 0x208
   1bb4c:	f8ad 3014 	strh.w	r3, [sp, #20]
   1bb50:	bf14      	ite	ne
   1bb52:	f104 33ff 	addne.w	r3, r4, #4294967295	; 0xffffffff
   1bb56:	4623      	moveq	r3, r4
   1bb58:	9304      	str	r3, [sp, #16]
   1bb5a:	9307      	str	r3, [sp, #28]
   1bb5c:	f64f 73ff 	movw	r3, #65535	; 0xffff
   1bb60:	9002      	str	r0, [sp, #8]
   1bb62:	9006      	str	r0, [sp, #24]
   1bb64:	f8ad 3016 	strh.w	r3, [sp, #22]
   1bb68:	9a20      	ldr	r2, [sp, #128]	; 0x80
   1bb6a:	ab21      	add	r3, sp, #132	; 0x84
   1bb6c:	a902      	add	r1, sp, #8
   1bb6e:	4628      	mov	r0, r5
   1bb70:	9301      	str	r3, [sp, #4]
   1bb72:	f000 f879 	bl	1bc68 <_svfiprintf_r>
   1bb76:	1c43      	adds	r3, r0, #1
   1bb78:	bfbc      	itt	lt
   1bb7a:	238b      	movlt	r3, #139	; 0x8b
   1bb7c:	602b      	strlt	r3, [r5, #0]
   1bb7e:	2c00      	cmp	r4, #0
   1bb80:	d0dd      	beq.n	1bb3e <sniprintf+0x16>
   1bb82:	9b02      	ldr	r3, [sp, #8]
   1bb84:	2200      	movs	r2, #0
   1bb86:	701a      	strb	r2, [r3, #0]
   1bb88:	e7d9      	b.n	1bb3e <sniprintf+0x16>
   1bb8a:	bf00      	nop
   1bb8c:	20001144 	.word	0x20001144

0001bb90 <strcpy>:
   1bb90:	4603      	mov	r3, r0
   1bb92:	f811 2b01 	ldrb.w	r2, [r1], #1
   1bb96:	f803 2b01 	strb.w	r2, [r3], #1
   1bb9a:	2a00      	cmp	r2, #0
   1bb9c:	d1f9      	bne.n	1bb92 <strcpy+0x2>
   1bb9e:	4770      	bx	lr

0001bba0 <strlen>:
   1bba0:	4603      	mov	r3, r0
   1bba2:	f813 2b01 	ldrb.w	r2, [r3], #1
   1bba6:	2a00      	cmp	r2, #0
   1bba8:	d1fb      	bne.n	1bba2 <strlen+0x2>
   1bbaa:	1a18      	subs	r0, r3, r0
   1bbac:	3801      	subs	r0, #1
   1bbae:	4770      	bx	lr

0001bbb0 <__ssputs_r>:
   1bbb0:	e92d 47f0 	stmdb	sp!, {r4, r5, r6, r7, r8, r9, sl, lr}
   1bbb4:	688e      	ldr	r6, [r1, #8]
   1bbb6:	429e      	cmp	r6, r3
   1bbb8:	4682      	mov	sl, r0
   1bbba:	460c      	mov	r4, r1
   1bbbc:	4690      	mov	r8, r2
   1bbbe:	461f      	mov	r7, r3
   1bbc0:	d838      	bhi.n	1bc34 <__ssputs_r+0x84>
   1bbc2:	898a      	ldrh	r2, [r1, #12]
   1bbc4:	f412 6f90 	tst.w	r2, #1152	; 0x480
   1bbc8:	d032      	beq.n	1bc30 <__ssputs_r+0x80>
   1bbca:	6825      	ldr	r5, [r4, #0]
   1bbcc:	6909      	ldr	r1, [r1, #16]
   1bbce:	eba5 0901 	sub.w	r9, r5, r1
   1bbd2:	6965      	ldr	r5, [r4, #20]
   1bbd4:	eb05 0545 	add.w	r5, r5, r5, lsl #1
   1bbd8:	eb05 75d5 	add.w	r5, r5, r5, lsr #31
   1bbdc:	3301      	adds	r3, #1
   1bbde:	444b      	add	r3, r9
   1bbe0:	106d      	asrs	r5, r5, #1
   1bbe2:	429d      	cmp	r5, r3
   1bbe4:	bf38      	it	cc
   1bbe6:	461d      	movcc	r5, r3
   1bbe8:	0553      	lsls	r3, r2, #21
   1bbea:	d531      	bpl.n	1bc50 <__ssputs_r+0xa0>
   1bbec:	4629      	mov	r1, r5
   1bbee:	f000 fb87 	bl	1c300 <_malloc_r>
   1bbf2:	4606      	mov	r6, r0
   1bbf4:	b950      	cbnz	r0, 1bc0c <__ssputs_r+0x5c>
   1bbf6:	230c      	movs	r3, #12
   1bbf8:	f8ca 3000 	str.w	r3, [sl]
   1bbfc:	89a3      	ldrh	r3, [r4, #12]
   1bbfe:	f043 0340 	orr.w	r3, r3, #64	; 0x40
   1bc02:	81a3      	strh	r3, [r4, #12]
   1bc04:	f04f 30ff 	mov.w	r0, #4294967295	; 0xffffffff
   1bc08:	e8bd 87f0 	ldmia.w	sp!, {r4, r5, r6, r7, r8, r9, sl, pc}
   1bc0c:	6921      	ldr	r1, [r4, #16]
   1bc0e:	464a      	mov	r2, r9
   1bc10:	f7ff ff74 	bl	1bafc <memcpy>
   1bc14:	89a3      	ldrh	r3, [r4, #12]
   1bc16:	f423 6390 	bic.w	r3, r3, #1152	; 0x480
   1bc1a:	f043 0380 	orr.w	r3, r3, #128	; 0x80
   1bc1e:	81a3      	strh	r3, [r4, #12]
   1bc20:	6126      	str	r6, [r4, #16]
   1bc22:	6165      	str	r5, [r4, #20]
   1bc24:	444e      	add	r6, r9
   1bc26:	eba5 0509 	sub.w	r5, r5, r9
   1bc2a:	6026      	str	r6, [r4, #0]
   1bc2c:	60a5      	str	r5, [r4, #8]
   1bc2e:	463e      	mov	r6, r7
   1bc30:	42be      	cmp	r6, r7
   1bc32:	d900      	bls.n	1bc36 <__ssputs_r+0x86>
   1bc34:	463e      	mov	r6, r7
   1bc36:	4632      	mov	r2, r6
   1bc38:	6820      	ldr	r0, [r4, #0]
   1bc3a:	4641      	mov	r1, r8
   1bc3c:	f000 faf8 	bl	1c230 <memmove>
   1bc40:	68a3      	ldr	r3, [r4, #8]
   1bc42:	6822      	ldr	r2, [r4, #0]
   1bc44:	1b9b      	subs	r3, r3, r6
   1bc46:	4432      	add	r2, r6
   1bc48:	60a3      	str	r3, [r4, #8]
   1bc4a:	6022      	str	r2, [r4, #0]
   1bc4c:	2000      	movs	r0, #0
   1bc4e:	e7db      	b.n	1bc08 <__ssputs_r+0x58>
   1bc50:	462a      	mov	r2, r5
   1bc52:	f000 fbaf 	bl	1c3b4 <_realloc_r>
   1bc56:	4606      	mov	r6, r0
   1bc58:	2800      	cmp	r0, #0
   1bc5a:	d1e1      	bne.n	1bc20 <__ssputs_r+0x70>
   1bc5c:	6921      	ldr	r1, [r4, #16]
   1bc5e:	4650      	mov	r0, sl
   1bc60:	f000 fb00 	bl	1c264 <_free_r>
   1bc64:	e7c7      	b.n	1bbf6 <__ssputs_r+0x46>
	...

0001bc68 <_svfiprintf_r>:
   1bc68:	e92d 4ff0 	stmdb	sp!, {r4, r5, r6, r7, r8, r9, sl, fp, lr}
   1bc6c:	4698      	mov	r8, r3
   1bc6e:	898b      	ldrh	r3, [r1, #12]
   1bc70:	061b      	lsls	r3, r3, #24
   1bc72:	b09d      	sub	sp, #116	; 0x74
   1bc74:	4607      	mov	r7, r0
   1bc76:	460d      	mov	r5, r1
   1bc78:	4614      	mov	r4, r2
   1bc7a:	d50e      	bpl.n	1bc9a <_svfiprintf_r+0x32>
   1bc7c:	690b      	ldr	r3, [r1, #16]
   1bc7e:	b963      	cbnz	r3, 1bc9a <_svfiprintf_r+0x32>
   1bc80:	2140      	movs	r1, #64	; 0x40
   1bc82:	f000 fb3d 	bl	1c300 <_malloc_r>
   1bc86:	6028      	str	r0, [r5, #0]
   1bc88:	6128      	str	r0, [r5, #16]
   1bc8a:	b920      	cbnz	r0, 1bc96 <_svfiprintf_r+0x2e>
   1bc8c:	230c      	movs	r3, #12
   1bc8e:	603b      	str	r3, [r7, #0]
   1bc90:	f04f 30ff 	mov.w	r0, #4294967295	; 0xffffffff
   1bc94:	e0d1      	b.n	1be3a <_svfiprintf_r+0x1d2>
   1bc96:	2340      	movs	r3, #64	; 0x40
   1bc98:	616b      	str	r3, [r5, #20]
   1bc9a:	2300      	movs	r3, #0
   1bc9c:	9309      	str	r3, [sp, #36]	; 0x24
   1bc9e:	2320      	movs	r3, #32
   1bca0:	f88d 3029 	strb.w	r3, [sp, #41]	; 0x29
   1bca4:	f8cd 800c 	str.w	r8, [sp, #12]
   1bca8:	2330      	movs	r3, #48	; 0x30
   1bcaa:	f8df 81a8 	ldr.w	r8, [pc, #424]	; 1be54 <_svfiprintf_r+0x1ec>
   1bcae:	f88d 302a 	strb.w	r3, [sp, #42]	; 0x2a
   1bcb2:	f04f 0901 	mov.w	r9, #1
   1bcb6:	4623      	mov	r3, r4
   1bcb8:	469a      	mov	sl, r3
   1bcba:	f813 2b01 	ldrb.w	r2, [r3], #1
   1bcbe:	b10a      	cbz	r2, 1bcc4 <_svfiprintf_r+0x5c>
   1bcc0:	2a25      	cmp	r2, #37	; 0x25
   1bcc2:	d1f9      	bne.n	1bcb8 <_svfiprintf_r+0x50>
   1bcc4:	ebba 0b04 	subs.w	fp, sl, r4
   1bcc8:	d00b      	beq.n	1bce2 <_svfiprintf_r+0x7a>
   1bcca:	465b      	mov	r3, fp
   1bccc:	4622      	mov	r2, r4
   1bcce:	4629      	mov	r1, r5
   1bcd0:	4638      	mov	r0, r7
   1bcd2:	f7ff ff6d 	bl	1bbb0 <__ssputs_r>
   1bcd6:	3001      	adds	r0, #1
   1bcd8:	f000 80aa 	beq.w	1be30 <_svfiprintf_r+0x1c8>
   1bcdc:	9a09      	ldr	r2, [sp, #36]	; 0x24
   1bcde:	445a      	add	r2, fp
   1bce0:	9209      	str	r2, [sp, #36]	; 0x24
   1bce2:	f89a 3000 	ldrb.w	r3, [sl]
   1bce6:	2b00      	cmp	r3, #0
   1bce8:	f000 80a2 	beq.w	1be30 <_svfiprintf_r+0x1c8>
   1bcec:	2300      	movs	r3, #0
   1bcee:	f04f 32ff 	mov.w	r2, #4294967295	; 0xffffffff
   1bcf2:	e9cd 2305 	strd	r2, r3, [sp, #20]
   1bcf6:	f10a 0a01 	add.w	sl, sl, #1
   1bcfa:	9304      	str	r3, [sp, #16]
   1bcfc:	9307      	str	r3, [sp, #28]
   1bcfe:	f88d 3053 	strb.w	r3, [sp, #83]	; 0x53
   1bd02:	931a      	str	r3, [sp, #104]	; 0x68
   1bd04:	4654      	mov	r4, sl
   1bd06:	2205      	movs	r2, #5
   1bd08:	f814 1b01 	ldrb.w	r1, [r4], #1
   1bd0c:	4851      	ldr	r0, [pc, #324]	; (1be54 <_svfiprintf_r+0x1ec>)
   1bd0e:	f000 fa3f 	bl	1c190 <memchr>
   1bd12:	9a04      	ldr	r2, [sp, #16]
   1bd14:	b9d8      	cbnz	r0, 1bd4e <_svfiprintf_r+0xe6>
   1bd16:	06d0      	lsls	r0, r2, #27
   1bd18:	bf44      	itt	mi
   1bd1a:	2320      	movmi	r3, #32
   1bd1c:	f88d 3053 	strbmi.w	r3, [sp, #83]	; 0x53
   1bd20:	0711      	lsls	r1, r2, #28
   1bd22:	bf44      	itt	mi
   1bd24:	232b      	movmi	r3, #43	; 0x2b
   1bd26:	f88d 3053 	strbmi.w	r3, [sp, #83]	; 0x53
   1bd2a:	f89a 3000 	ldrb.w	r3, [sl]
   1bd2e:	2b2a      	cmp	r3, #42	; 0x2a
   1bd30:	d015      	beq.n	1bd5e <_svfiprintf_r+0xf6>
   1bd32:	9a07      	ldr	r2, [sp, #28]
   1bd34:	4654      	mov	r4, sl
   1bd36:	2000      	movs	r0, #0
   1bd38:	f04f 0c0a 	mov.w	ip, #10
   1bd3c:	4621      	mov	r1, r4
   1bd3e:	f811 3b01 	ldrb.w	r3, [r1], #1
   1bd42:	3b30      	subs	r3, #48	; 0x30
   1bd44:	2b09      	cmp	r3, #9
   1bd46:	d94e      	bls.n	1bde6 <_svfiprintf_r+0x17e>
   1bd48:	b1b0      	cbz	r0, 1bd78 <_svfiprintf_r+0x110>
   1bd4a:	9207      	str	r2, [sp, #28]
   1bd4c:	e014      	b.n	1bd78 <_svfiprintf_r+0x110>
   1bd4e:	eba0 0308 	sub.w	r3, r0, r8
   1bd52:	fa09 f303 	lsl.w	r3, r9, r3
   1bd56:	4313      	orrs	r3, r2
   1bd58:	9304      	str	r3, [sp, #16]
   1bd5a:	46a2      	mov	sl, r4
   1bd5c:	e7d2      	b.n	1bd04 <_svfiprintf_r+0x9c>
   1bd5e:	9b03      	ldr	r3, [sp, #12]
   1bd60:	1d19      	adds	r1, r3, #4
   1bd62:	681b      	ldr	r3, [r3, #0]
   1bd64:	9103      	str	r1, [sp, #12]
   1bd66:	2b00      	cmp	r3, #0
   1bd68:	bfbb      	ittet	lt
   1bd6a:	425b      	neglt	r3, r3
   1bd6c:	f042 0202 	orrlt.w	r2, r2, #2
   1bd70:	9307      	strge	r3, [sp, #28]
   1bd72:	9307      	strlt	r3, [sp, #28]
   1bd74:	bfb8      	it	lt
   1bd76:	9204      	strlt	r2, [sp, #16]
   1bd78:	7823      	ldrb	r3, [r4, #0]
   1bd7a:	2b2e      	cmp	r3, #46	; 0x2e
   1bd7c:	d10c      	bne.n	1bd98 <_svfiprintf_r+0x130>
   1bd7e:	7863      	ldrb	r3, [r4, #1]
   1bd80:	2b2a      	cmp	r3, #42	; 0x2a
   1bd82:	d135      	bne.n	1bdf0 <_svfiprintf_r+0x188>
   1bd84:	9b03      	ldr	r3, [sp, #12]
   1bd86:	1d1a      	adds	r2, r3, #4
   1bd88:	681b      	ldr	r3, [r3, #0]
   1bd8a:	9203      	str	r2, [sp, #12]
   1bd8c:	2b00      	cmp	r3, #0
   1bd8e:	bfb8      	it	lt
   1bd90:	f04f 33ff 	movlt.w	r3, #4294967295	; 0xffffffff
   1bd94:	3402      	adds	r4, #2
   1bd96:	9305      	str	r3, [sp, #20]
   1bd98:	f8df a0c8 	ldr.w	sl, [pc, #200]	; 1be64 <_svfiprintf_r+0x1fc>
   1bd9c:	7821      	ldrb	r1, [r4, #0]
   1bd9e:	2203      	movs	r2, #3
   1bda0:	4650      	mov	r0, sl
   1bda2:	f000 f9f5 	bl	1c190 <memchr>
   1bda6:	b140      	cbz	r0, 1bdba <_svfiprintf_r+0x152>
   1bda8:	2340      	movs	r3, #64	; 0x40
   1bdaa:	eba0 000a 	sub.w	r0, r0, sl
   1bdae:	fa03 f000 	lsl.w	r0, r3, r0
   1bdb2:	9b04      	ldr	r3, [sp, #16]
   1bdb4:	4303      	orrs	r3, r0
   1bdb6:	3401      	adds	r4, #1
   1bdb8:	9304      	str	r3, [sp, #16]
   1bdba:	f814 1b01 	ldrb.w	r1, [r4], #1
   1bdbe:	4826      	ldr	r0, [pc, #152]	; (1be58 <_svfiprintf_r+0x1f0>)
   1bdc0:	f88d 1028 	strb.w	r1, [sp, #40]	; 0x28
   1bdc4:	2206      	movs	r2, #6
   1bdc6:	f000 f9e3 	bl	1c190 <memchr>
   1bdca:	2800      	cmp	r0, #0
   1bdcc:	d038      	beq.n	1be40 <_svfiprintf_r+0x1d8>
   1bdce:	4b23      	ldr	r3, [pc, #140]	; (1be5c <_svfiprintf_r+0x1f4>)
   1bdd0:	bb1b      	cbnz	r3, 1be1a <_svfiprintf_r+0x1b2>
   1bdd2:	9b03      	ldr	r3, [sp, #12]
   1bdd4:	3307      	adds	r3, #7
   1bdd6:	f023 0307 	bic.w	r3, r3, #7
   1bdda:	3308      	adds	r3, #8
   1bddc:	9303      	str	r3, [sp, #12]
   1bdde:	9b09      	ldr	r3, [sp, #36]	; 0x24
   1bde0:	4433      	add	r3, r6
   1bde2:	9309      	str	r3, [sp, #36]	; 0x24
   1bde4:	e767      	b.n	1bcb6 <_svfiprintf_r+0x4e>
   1bde6:	fb0c 3202 	mla	r2, ip, r2, r3
   1bdea:	460c      	mov	r4, r1
   1bdec:	2001      	movs	r0, #1
   1bdee:	e7a5      	b.n	1bd3c <_svfiprintf_r+0xd4>
   1bdf0:	2300      	movs	r3, #0
   1bdf2:	3401      	adds	r4, #1
   1bdf4:	9305      	str	r3, [sp, #20]
   1bdf6:	4619      	mov	r1, r3
   1bdf8:	f04f 0c0a 	mov.w	ip, #10
   1bdfc:	4620      	mov	r0, r4
   1bdfe:	f810 2b01 	ldrb.w	r2, [r0], #1
   1be02:	3a30      	subs	r2, #48	; 0x30
   1be04:	2a09      	cmp	r2, #9
   1be06:	d903      	bls.n	1be10 <_svfiprintf_r+0x1a8>
   1be08:	2b00      	cmp	r3, #0
   1be0a:	d0c5      	beq.n	1bd98 <_svfiprintf_r+0x130>
   1be0c:	9105      	str	r1, [sp, #20]
   1be0e:	e7c3      	b.n	1bd98 <_svfiprintf_r+0x130>
   1be10:	fb0c 2101 	mla	r1, ip, r1, r2
   1be14:	4604      	mov	r4, r0
   1be16:	2301      	movs	r3, #1
   1be18:	e7f0      	b.n	1bdfc <_svfiprintf_r+0x194>
   1be1a:	ab03      	add	r3, sp, #12
   1be1c:	9300      	str	r3, [sp, #0]
   1be1e:	462a      	mov	r2, r5
   1be20:	4b0f      	ldr	r3, [pc, #60]	; (1be60 <_svfiprintf_r+0x1f8>)
   1be22:	a904      	add	r1, sp, #16
   1be24:	4638      	mov	r0, r7
   1be26:	f3af 8000 	nop.w
   1be2a:	1c42      	adds	r2, r0, #1
   1be2c:	4606      	mov	r6, r0
   1be2e:	d1d6      	bne.n	1bdde <_svfiprintf_r+0x176>
   1be30:	89ab      	ldrh	r3, [r5, #12]
   1be32:	065b      	lsls	r3, r3, #25
   1be34:	f53f af2c 	bmi.w	1bc90 <_svfiprintf_r+0x28>
   1be38:	9809      	ldr	r0, [sp, #36]	; 0x24
   1be3a:	b01d      	add	sp, #116	; 0x74
   1be3c:	e8bd 8ff0 	ldmia.w	sp!, {r4, r5, r6, r7, r8, r9, sl, fp, pc}
   1be40:	ab03      	add	r3, sp, #12
   1be42:	9300      	str	r3, [sp, #0]
   1be44:	462a      	mov	r2, r5
   1be46:	4b06      	ldr	r3, [pc, #24]	; (1be60 <_svfiprintf_r+0x1f8>)
   1be48:	a904      	add	r1, sp, #16
   1be4a:	4638      	mov	r0, r7
   1be4c:	f000 f87a 	bl	1bf44 <_printf_i>
   1be50:	e7eb      	b.n	1be2a <_svfiprintf_r+0x1c2>
   1be52:	bf00      	nop
   1be54:	0001d7a0 	.word	0x0001d7a0
   1be58:	0001d7aa 	.word	0x0001d7aa
   1be5c:	00000000 	.word	0x00000000
   1be60:	0001bbb1 	.word	0x0001bbb1
   1be64:	0001d7a6 	.word	0x0001d7a6

0001be68 <_printf_common>:
   1be68:	e92d 47f0 	stmdb	sp!, {r4, r5, r6, r7, r8, r9, sl, lr}
   1be6c:	4616      	mov	r6, r2
   1be6e:	4699      	mov	r9, r3
   1be70:	688a      	ldr	r2, [r1, #8]
   1be72:	690b      	ldr	r3, [r1, #16]
   1be74:	f8dd 8020 	ldr.w	r8, [sp, #32]
   1be78:	4293      	cmp	r3, r2
   1be7a:	bfb8      	it	lt
   1be7c:	4613      	movlt	r3, r2
   1be7e:	6033      	str	r3, [r6, #0]
   1be80:	f891 2043 	ldrb.w	r2, [r1, #67]	; 0x43
   1be84:	4607      	mov	r7, r0
   1be86:	460c      	mov	r4, r1
   1be88:	b10a      	cbz	r2, 1be8e <_printf_common+0x26>
   1be8a:	3301      	adds	r3, #1
   1be8c:	6033      	str	r3, [r6, #0]
   1be8e:	6823      	ldr	r3, [r4, #0]
   1be90:	0699      	lsls	r1, r3, #26
   1be92:	bf42      	ittt	mi
   1be94:	6833      	ldrmi	r3, [r6, #0]
   1be96:	3302      	addmi	r3, #2
   1be98:	6033      	strmi	r3, [r6, #0]
   1be9a:	6825      	ldr	r5, [r4, #0]
   1be9c:	f015 0506 	ands.w	r5, r5, #6
   1bea0:	d106      	bne.n	1beb0 <_printf_common+0x48>
   1bea2:	f104 0a19 	add.w	sl, r4, #25
   1bea6:	68e3      	ldr	r3, [r4, #12]
   1bea8:	6832      	ldr	r2, [r6, #0]
   1beaa:	1a9b      	subs	r3, r3, r2
   1beac:	42ab      	cmp	r3, r5
   1beae:	dc26      	bgt.n	1befe <_printf_common+0x96>
   1beb0:	f894 2043 	ldrb.w	r2, [r4, #67]	; 0x43
   1beb4:	1e13      	subs	r3, r2, #0
   1beb6:	6822      	ldr	r2, [r4, #0]
   1beb8:	bf18      	it	ne
   1beba:	2301      	movne	r3, #1
   1bebc:	0692      	lsls	r2, r2, #26
   1bebe:	d42b      	bmi.n	1bf18 <_printf_common+0xb0>
   1bec0:	f104 0243 	add.w	r2, r4, #67	; 0x43
   1bec4:	4649      	mov	r1, r9
   1bec6:	4638      	mov	r0, r7
   1bec8:	47c0      	blx	r8
   1beca:	3001      	adds	r0, #1
   1becc:	d01e      	beq.n	1bf0c <_printf_common+0xa4>
   1bece:	6823      	ldr	r3, [r4, #0]
   1bed0:	68e5      	ldr	r5, [r4, #12]
   1bed2:	6832      	ldr	r2, [r6, #0]
   1bed4:	f003 0306 	and.w	r3, r3, #6
   1bed8:	2b04      	cmp	r3, #4
   1beda:	bf08      	it	eq
   1bedc:	1aad      	subeq	r5, r5, r2
   1bede:	68a3      	ldr	r3, [r4, #8]
   1bee0:	6922      	ldr	r2, [r4, #16]
   1bee2:	bf0c      	ite	eq
   1bee4:	ea25 75e5 	biceq.w	r5, r5, r5, asr #31
   1bee8:	2500      	movne	r5, #0
   1beea:	4293      	cmp	r3, r2
   1beec:	bfc4      	itt	gt
   1beee:	1a9b      	subgt	r3, r3, r2
   1bef0:	18ed      	addgt	r5, r5, r3
   1bef2:	2600      	movs	r6, #0
   1bef4:	341a      	adds	r4, #26
   1bef6:	42b5      	cmp	r5, r6
   1bef8:	d11a      	bne.n	1bf30 <_printf_common+0xc8>
   1befa:	2000      	movs	r0, #0
   1befc:	e008      	b.n	1bf10 <_printf_common+0xa8>
   1befe:	2301      	movs	r3, #1
   1bf00:	4652      	mov	r2, sl
   1bf02:	4649      	mov	r1, r9
   1bf04:	4638      	mov	r0, r7
   1bf06:	47c0      	blx	r8
   1bf08:	3001      	adds	r0, #1
   1bf0a:	d103      	bne.n	1bf14 <_printf_common+0xac>
   1bf0c:	f04f 30ff 	mov.w	r0, #4294967295	; 0xffffffff
   1bf10:	e8bd 87f0 	ldmia.w	sp!, {r4, r5, r6, r7, r8, r9, sl, pc}
   1bf14:	3501      	adds	r5, #1
   1bf16:	e7c6      	b.n	1bea6 <_printf_common+0x3e>
   1bf18:	18e1      	adds	r1, r4, r3
   1bf1a:	1c5a      	adds	r2, r3, #1
   1bf1c:	2030      	movs	r0, #48	; 0x30
   1bf1e:	f881 0043 	strb.w	r0, [r1, #67]	; 0x43
   1bf22:	4422      	add	r2, r4
   1bf24:	f894 1045 	ldrb.w	r1, [r4, #69]	; 0x45
   1bf28:	f882 1043 	strb.w	r1, [r2, #67]	; 0x43
   1bf2c:	3302      	adds	r3, #2
   1bf2e:	e7c7      	b.n	1bec0 <_printf_common+0x58>
   1bf30:	2301      	movs	r3, #1
   1bf32:	4622      	mov	r2, r4
   1bf34:	4649      	mov	r1, r9
   1bf36:	4638      	mov	r0, r7
   1bf38:	47c0      	blx	r8
   1bf3a:	3001      	adds	r0, #1
   1bf3c:	d0e6      	beq.n	1bf0c <_printf_common+0xa4>
   1bf3e:	3601      	adds	r6, #1
   1bf40:	e7d9      	b.n	1bef6 <_printf_common+0x8e>
	...

0001bf44 <_printf_i>:
   1bf44:	e92d 47ff 	stmdb	sp!, {r0, r1, r2, r3, r4, r5, r6, r7, r8, r9, sl, lr}
   1bf48:	460c      	mov	r4, r1
   1bf4a:	4691      	mov	r9, r2
   1bf4c:	7e27      	ldrb	r7, [r4, #24]
   1bf4e:	990c      	ldr	r1, [sp, #48]	; 0x30
   1bf50:	2f78      	cmp	r7, #120	; 0x78
   1bf52:	4680      	mov	r8, r0
   1bf54:	469a      	mov	sl, r3
   1bf56:	f104 0243 	add.w	r2, r4, #67	; 0x43
   1bf5a:	d807      	bhi.n	1bf6c <_printf_i+0x28>
   1bf5c:	2f62      	cmp	r7, #98	; 0x62
   1bf5e:	d80a      	bhi.n	1bf76 <_printf_i+0x32>
   1bf60:	2f00      	cmp	r7, #0
   1bf62:	f000 80d8 	beq.w	1c116 <_printf_i+0x1d2>
   1bf66:	2f58      	cmp	r7, #88	; 0x58
   1bf68:	f000 80a3 	beq.w	1c0b2 <_printf_i+0x16e>
   1bf6c:	f104 0642 	add.w	r6, r4, #66	; 0x42
   1bf70:	f884 7042 	strb.w	r7, [r4, #66]	; 0x42
   1bf74:	e03a      	b.n	1bfec <_printf_i+0xa8>
   1bf76:	f1a7 0363 	sub.w	r3, r7, #99	; 0x63
   1bf7a:	2b15      	cmp	r3, #21
   1bf7c:	d8f6      	bhi.n	1bf6c <_printf_i+0x28>
   1bf7e:	a001      	add	r0, pc, #4	; (adr r0, 1bf84 <_printf_i+0x40>)
   1bf80:	f850 f023 	ldr.w	pc, [r0, r3, lsl #2]
   1bf84:	0001bfdd 	.word	0x0001bfdd
   1bf88:	0001bff1 	.word	0x0001bff1
   1bf8c:	0001bf6d 	.word	0x0001bf6d
   1bf90:	0001bf6d 	.word	0x0001bf6d
   1bf94:	0001bf6d 	.word	0x0001bf6d
   1bf98:	0001bf6d 	.word	0x0001bf6d
   1bf9c:	0001bff1 	.word	0x0001bff1
   1bfa0:	0001bf6d 	.word	0x0001bf6d
   1bfa4:	0001bf6d 	.word	0x0001bf6d
   1bfa8:	0001bf6d 	.word	0x0001bf6d
   1bfac:	0001bf6d 	.word	0x0001bf6d
   1bfb0:	0001c0fd 	.word	0x0001c0fd
   1bfb4:	0001c021 	.word	0x0001c021
   1bfb8:	0001c0df 	.word	0x0001c0df
   1bfbc:	0001bf6d 	.word	0x0001bf6d
   1bfc0:	0001bf6d 	.word	0x0001bf6d
   1bfc4:	0001c11f 	.word	0x0001c11f
   1bfc8:	0001bf6d 	.word	0x0001bf6d
   1bfcc:	0001c021 	.word	0x0001c021
   1bfd0:	0001bf6d 	.word	0x0001bf6d
   1bfd4:	0001bf6d 	.word	0x0001bf6d
   1bfd8:	0001c0e7 	.word	0x0001c0e7
   1bfdc:	680b      	ldr	r3, [r1, #0]
   1bfde:	1d1a      	adds	r2, r3, #4
   1bfe0:	681b      	ldr	r3, [r3, #0]
   1bfe2:	600a      	str	r2, [r1, #0]
   1bfe4:	f104 0642 	add.w	r6, r4, #66	; 0x42
   1bfe8:	f884 3042 	strb.w	r3, [r4, #66]	; 0x42
   1bfec:	2301      	movs	r3, #1
   1bfee:	e0a3      	b.n	1c138 <_printf_i+0x1f4>
   1bff0:	6825      	ldr	r5, [r4, #0]
   1bff2:	6808      	ldr	r0, [r1, #0]
   1bff4:	062e      	lsls	r6, r5, #24
   1bff6:	f100 0304 	add.w	r3, r0, #4
   1bffa:	d50a      	bpl.n	1c012 <_printf_i+0xce>
   1bffc:	6805      	ldr	r5, [r0, #0]
   1bffe:	600b      	str	r3, [r1, #0]
   1c000:	2d00      	cmp	r5, #0
   1c002:	da03      	bge.n	1c00c <_printf_i+0xc8>
   1c004:	232d      	movs	r3, #45	; 0x2d
   1c006:	426d      	negs	r5, r5
   1c008:	f884 3043 	strb.w	r3, [r4, #67]	; 0x43
   1c00c:	485e      	ldr	r0, [pc, #376]	; (1c188 <_printf_i+0x244>)
   1c00e:	230a      	movs	r3, #10
   1c010:	e019      	b.n	1c046 <_printf_i+0x102>
   1c012:	f015 0f40 	tst.w	r5, #64	; 0x40
   1c016:	6805      	ldr	r5, [r0, #0]
   1c018:	600b      	str	r3, [r1, #0]
   1c01a:	bf18      	it	ne
   1c01c:	b22d      	sxthne	r5, r5
   1c01e:	e7ef      	b.n	1c000 <_printf_i+0xbc>
   1c020:	680b      	ldr	r3, [r1, #0]
   1c022:	6825      	ldr	r5, [r4, #0]
   1c024:	1d18      	adds	r0, r3, #4
   1c026:	6008      	str	r0, [r1, #0]
   1c028:	0628      	lsls	r0, r5, #24
   1c02a:	d501      	bpl.n	1c030 <_printf_i+0xec>
   1c02c:	681d      	ldr	r5, [r3, #0]
   1c02e:	e002      	b.n	1c036 <_printf_i+0xf2>
   1c030:	0669      	lsls	r1, r5, #25
   1c032:	d5fb      	bpl.n	1c02c <_printf_i+0xe8>
   1c034:	881d      	ldrh	r5, [r3, #0]
   1c036:	4854      	ldr	r0, [pc, #336]	; (1c188 <_printf_i+0x244>)
   1c038:	2f6f      	cmp	r7, #111	; 0x6f
   1c03a:	bf0c      	ite	eq
   1c03c:	2308      	moveq	r3, #8
   1c03e:	230a      	movne	r3, #10
   1c040:	2100      	movs	r1, #0
   1c042:	f884 1043 	strb.w	r1, [r4, #67]	; 0x43
   1c046:	6866      	ldr	r6, [r4, #4]
   1c048:	60a6      	str	r6, [r4, #8]
   1c04a:	2e00      	cmp	r6, #0
   1c04c:	bfa2      	ittt	ge
   1c04e:	6821      	ldrge	r1, [r4, #0]
   1c050:	f021 0104 	bicge.w	r1, r1, #4
   1c054:	6021      	strge	r1, [r4, #0]
   1c056:	b90d      	cbnz	r5, 1c05c <_printf_i+0x118>
   1c058:	2e00      	cmp	r6, #0
   1c05a:	d04d      	beq.n	1c0f8 <_printf_i+0x1b4>
   1c05c:	4616      	mov	r6, r2
   1c05e:	fbb5 f1f3 	udiv	r1, r5, r3
   1c062:	fb03 5711 	mls	r7, r3, r1, r5
   1c066:	5dc7      	ldrb	r7, [r0, r7]
   1c068:	f806 7d01 	strb.w	r7, [r6, #-1]!
   1c06c:	462f      	mov	r7, r5
   1c06e:	42bb      	cmp	r3, r7
   1c070:	460d      	mov	r5, r1
   1c072:	d9f4      	bls.n	1c05e <_printf_i+0x11a>
   1c074:	2b08      	cmp	r3, #8
   1c076:	d10b      	bne.n	1c090 <_printf_i+0x14c>
   1c078:	6823      	ldr	r3, [r4, #0]
   1c07a:	07df      	lsls	r7, r3, #31
   1c07c:	d508      	bpl.n	1c090 <_printf_i+0x14c>
   1c07e:	6923      	ldr	r3, [r4, #16]
   1c080:	6861      	ldr	r1, [r4, #4]
   1c082:	4299      	cmp	r1, r3
   1c084:	bfde      	ittt	le
   1c086:	2330      	movle	r3, #48	; 0x30
   1c088:	f806 3c01 	strble.w	r3, [r6, #-1]
   1c08c:	f106 36ff 	addle.w	r6, r6, #4294967295	; 0xffffffff
   1c090:	1b92      	subs	r2, r2, r6
   1c092:	6122      	str	r2, [r4, #16]
   1c094:	f8cd a000 	str.w	sl, [sp]
   1c098:	464b      	mov	r3, r9
   1c09a:	aa03      	add	r2, sp, #12
   1c09c:	4621      	mov	r1, r4
   1c09e:	4640      	mov	r0, r8
   1c0a0:	f7ff fee2 	bl	1be68 <_printf_common>
   1c0a4:	3001      	adds	r0, #1
   1c0a6:	d14c      	bne.n	1c142 <_printf_i+0x1fe>
   1c0a8:	f04f 30ff 	mov.w	r0, #4294967295	; 0xffffffff
   1c0ac:	b004      	add	sp, #16
   1c0ae:	e8bd 87f0 	ldmia.w	sp!, {r4, r5, r6, r7, r8, r9, sl, pc}
   1c0b2:	4835      	ldr	r0, [pc, #212]	; (1c188 <_printf_i+0x244>)
   1c0b4:	f884 7045 	strb.w	r7, [r4, #69]	; 0x45
   1c0b8:	6823      	ldr	r3, [r4, #0]
   1c0ba:	680e      	ldr	r6, [r1, #0]
   1c0bc:	061f      	lsls	r7, r3, #24
   1c0be:	f856 5b04 	ldr.w	r5, [r6], #4
   1c0c2:	600e      	str	r6, [r1, #0]
   1c0c4:	d514      	bpl.n	1c0f0 <_printf_i+0x1ac>
   1c0c6:	07d9      	lsls	r1, r3, #31
   1c0c8:	bf44      	itt	mi
   1c0ca:	f043 0320 	orrmi.w	r3, r3, #32
   1c0ce:	6023      	strmi	r3, [r4, #0]
   1c0d0:	b91d      	cbnz	r5, 1c0da <_printf_i+0x196>
   1c0d2:	6823      	ldr	r3, [r4, #0]
   1c0d4:	f023 0320 	bic.w	r3, r3, #32
   1c0d8:	6023      	str	r3, [r4, #0]
   1c0da:	2310      	movs	r3, #16
   1c0dc:	e7b0      	b.n	1c040 <_printf_i+0xfc>
   1c0de:	6823      	ldr	r3, [r4, #0]
   1c0e0:	f043 0320 	orr.w	r3, r3, #32
   1c0e4:	6023      	str	r3, [r4, #0]
   1c0e6:	2378      	movs	r3, #120	; 0x78
   1c0e8:	4828      	ldr	r0, [pc, #160]	; (1c18c <_printf_i+0x248>)
   1c0ea:	f884 3045 	strb.w	r3, [r4, #69]	; 0x45
   1c0ee:	e7e3      	b.n	1c0b8 <_printf_i+0x174>
   1c0f0:	065e      	lsls	r6, r3, #25
   1c0f2:	bf48      	it	mi
   1c0f4:	b2ad      	uxthmi	r5, r5
   1c0f6:	e7e6      	b.n	1c0c6 <_printf_i+0x182>
   1c0f8:	4616      	mov	r6, r2
   1c0fa:	e7bb      	b.n	1c074 <_printf_i+0x130>
   1c0fc:	680b      	ldr	r3, [r1, #0]
   1c0fe:	6826      	ldr	r6, [r4, #0]
   1c100:	6960      	ldr	r0, [r4, #20]
   1c102:	1d1d      	adds	r5, r3, #4
   1c104:	600d      	str	r5, [r1, #0]
   1c106:	0635      	lsls	r5, r6, #24
   1c108:	681b      	ldr	r3, [r3, #0]
   1c10a:	d501      	bpl.n	1c110 <_printf_i+0x1cc>
   1c10c:	6018      	str	r0, [r3, #0]
   1c10e:	e002      	b.n	1c116 <_printf_i+0x1d2>
   1c110:	0671      	lsls	r1, r6, #25
   1c112:	d5fb      	bpl.n	1c10c <_printf_i+0x1c8>
   1c114:	8018      	strh	r0, [r3, #0]
   1c116:	2300      	movs	r3, #0
   1c118:	6123      	str	r3, [r4, #16]
   1c11a:	4616      	mov	r6, r2
   1c11c:	e7ba      	b.n	1c094 <_printf_i+0x150>
   1c11e:	680b      	ldr	r3, [r1, #0]
   1c120:	1d1a      	adds	r2, r3, #4
   1c122:	600a      	str	r2, [r1, #0]
   1c124:	681e      	ldr	r6, [r3, #0]
   1c126:	6862      	ldr	r2, [r4, #4]
   1c128:	2100      	movs	r1, #0
   1c12a:	4630      	mov	r0, r6
   1c12c:	f000 f830 	bl	1c190 <memchr>
   1c130:	b108      	cbz	r0, 1c136 <_printf_i+0x1f2>
   1c132:	1b80      	subs	r0, r0, r6
   1c134:	6060      	str	r0, [r4, #4]
   1c136:	6863      	ldr	r3, [r4, #4]
   1c138:	6123      	str	r3, [r4, #16]
   1c13a:	2300      	movs	r3, #0
   1c13c:	f884 3043 	strb.w	r3, [r4, #67]	; 0x43
   1c140:	e7a8      	b.n	1c094 <_printf_i+0x150>
   1c142:	6923      	ldr	r3, [r4, #16]
   1c144:	4632      	mov	r2, r6
   1c146:	4649      	mov	r1, r9
   1c148:	4640      	mov	r0, r8
   1c14a:	47d0      	blx	sl
   1c14c:	3001      	adds	r0, #1
   1c14e:	d0ab      	beq.n	1c0a8 <_printf_i+0x164>
   1c150:	6823      	ldr	r3, [r4, #0]
   1c152:	079b      	lsls	r3, r3, #30
   1c154:	d413      	bmi.n	1c17e <_printf_i+0x23a>
   1c156:	68e0      	ldr	r0, [r4, #12]
   1c158:	9b03      	ldr	r3, [sp, #12]
   1c15a:	4298      	cmp	r0, r3
   1c15c:	bfb8      	it	lt
   1c15e:	4618      	movlt	r0, r3
   1c160:	e7a4      	b.n	1c0ac <_printf_i+0x168>
   1c162:	2301      	movs	r3, #1
   1c164:	4632      	mov	r2, r6
   1c166:	4649      	mov	r1, r9
   1c168:	4640      	mov	r0, r8
   1c16a:	47d0      	blx	sl
   1c16c:	3001      	adds	r0, #1
   1c16e:	d09b      	beq.n	1c0a8 <_printf_i+0x164>
   1c170:	3501      	adds	r5, #1
   1c172:	68e3      	ldr	r3, [r4, #12]
   1c174:	9903      	ldr	r1, [sp, #12]
   1c176:	1a5b      	subs	r3, r3, r1
   1c178:	42ab      	cmp	r3, r5
   1c17a:	dcf2      	bgt.n	1c162 <_printf_i+0x21e>
   1c17c:	e7eb      	b.n	1c156 <_printf_i+0x212>
   1c17e:	2500      	movs	r5, #0
   1c180:	f104 0619 	add.w	r6, r4, #25
   1c184:	e7f5      	b.n	1c172 <_printf_i+0x22e>
   1c186:	bf00      	nop
   1c188:	0001d7b1 	.word	0x0001d7b1
   1c18c:	0001d7c2 	.word	0x0001d7c2

0001c190 <memchr>:
   1c190:	f001 01ff 	and.w	r1, r1, #255	; 0xff
   1c194:	2a10      	cmp	r2, #16
   1c196:	db2b      	blt.n	1c1f0 <memchr+0x60>
   1c198:	f010 0f07 	tst.w	r0, #7
   1c19c:	d008      	beq.n	1c1b0 <memchr+0x20>
   1c19e:	f810 3b01 	ldrb.w	r3, [r0], #1
   1c1a2:	3a01      	subs	r2, #1
   1c1a4:	428b      	cmp	r3, r1
   1c1a6:	d02d      	beq.n	1c204 <memchr+0x74>
   1c1a8:	f010 0f07 	tst.w	r0, #7
   1c1ac:	b342      	cbz	r2, 1c200 <memchr+0x70>
   1c1ae:	d1f6      	bne.n	1c19e <memchr+0xe>
   1c1b0:	b4f0      	push	{r4, r5, r6, r7}
   1c1b2:	ea41 2101 	orr.w	r1, r1, r1, lsl #8
   1c1b6:	ea41 4101 	orr.w	r1, r1, r1, lsl #16
   1c1ba:	f022 0407 	bic.w	r4, r2, #7
   1c1be:	f07f 0700 	mvns.w	r7, #0
   1c1c2:	2300      	movs	r3, #0
   1c1c4:	e8f0 5602 	ldrd	r5, r6, [r0], #8
   1c1c8:	3c08      	subs	r4, #8
   1c1ca:	ea85 0501 	eor.w	r5, r5, r1
   1c1ce:	ea86 0601 	eor.w	r6, r6, r1
   1c1d2:	fa85 f547 	uadd8	r5, r5, r7
   1c1d6:	faa3 f587 	sel	r5, r3, r7
   1c1da:	fa86 f647 	uadd8	r6, r6, r7
   1c1de:	faa5 f687 	sel	r6, r5, r7
   1c1e2:	b98e      	cbnz	r6, 1c208 <memchr+0x78>
   1c1e4:	d1ee      	bne.n	1c1c4 <memchr+0x34>
   1c1e6:	bcf0      	pop	{r4, r5, r6, r7}
   1c1e8:	f001 01ff 	and.w	r1, r1, #255	; 0xff
   1c1ec:	f002 0207 	and.w	r2, r2, #7
   1c1f0:	b132      	cbz	r2, 1c200 <memchr+0x70>
   1c1f2:	f810 3b01 	ldrb.w	r3, [r0], #1
   1c1f6:	3a01      	subs	r2, #1
   1c1f8:	ea83 0301 	eor.w	r3, r3, r1
   1c1fc:	b113      	cbz	r3, 1c204 <memchr+0x74>
   1c1fe:	d1f8      	bne.n	1c1f2 <memchr+0x62>
   1c200:	2000      	movs	r0, #0
   1c202:	4770      	bx	lr
   1c204:	3801      	subs	r0, #1
   1c206:	4770      	bx	lr
   1c208:	2d00      	cmp	r5, #0
   1c20a:	bf06      	itte	eq
   1c20c:	4635      	moveq	r5, r6
   1c20e:	3803      	subeq	r0, #3
   1c210:	3807      	subne	r0, #7
   1c212:	f015 0f01 	tst.w	r5, #1
   1c216:	d107      	bne.n	1c228 <memchr+0x98>
   1c218:	3001      	adds	r0, #1
   1c21a:	f415 7f80 	tst.w	r5, #256	; 0x100
   1c21e:	bf02      	ittt	eq
   1c220:	3001      	addeq	r0, #1
   1c222:	f415 3fc0 	tsteq.w	r5, #98304	; 0x18000
   1c226:	3001      	addeq	r0, #1
   1c228:	bcf0      	pop	{r4, r5, r6, r7}
   1c22a:	3801      	subs	r0, #1
   1c22c:	4770      	bx	lr
   1c22e:	bf00      	nop

0001c230 <memmove>:
   1c230:	4288      	cmp	r0, r1
   1c232:	b510      	push	{r4, lr}
   1c234:	eb01 0402 	add.w	r4, r1, r2
   1c238:	d902      	bls.n	1c240 <memmove+0x10>
   1c23a:	4284      	cmp	r4, r0
   1c23c:	4623      	mov	r3, r4
   1c23e:	d807      	bhi.n	1c250 <memmove+0x20>
   1c240:	1e43      	subs	r3, r0, #1
   1c242:	42a1      	cmp	r1, r4
   1c244:	d008      	beq.n	1c258 <memmove+0x28>
   1c246:	f811 2b01 	ldrb.w	r2, [r1], #1
   1c24a:	f803 2f01 	strb.w	r2, [r3, #1]!
   1c24e:	e7f8      	b.n	1c242 <memmove+0x12>
   1c250:	4402      	add	r2, r0
   1c252:	4601      	mov	r1, r0
   1c254:	428a      	cmp	r2, r1
   1c256:	d100      	bne.n	1c25a <memmove+0x2a>
   1c258:	bd10      	pop	{r4, pc}
   1c25a:	f813 4d01 	ldrb.w	r4, [r3, #-1]!
   1c25e:	f802 4d01 	strb.w	r4, [r2, #-1]!
   1c262:	e7f7      	b.n	1c254 <memmove+0x24>

0001c264 <_free_r>:
   1c264:	b538      	push	{r3, r4, r5, lr}
   1c266:	4605      	mov	r5, r0
   1c268:	2900      	cmp	r1, #0
   1c26a:	d045      	beq.n	1c2f8 <_free_r+0x94>
   1c26c:	f851 3c04 	ldr.w	r3, [r1, #-4]
   1c270:	1f0c      	subs	r4, r1, #4
   1c272:	2b00      	cmp	r3, #0
   1c274:	bfb8      	it	lt
   1c276:	18e4      	addlt	r4, r4, r3
   1c278:	f000 f8d2 	bl	1c420 <__malloc_lock>
   1c27c:	4a1f      	ldr	r2, [pc, #124]	; (1c2fc <_free_r+0x98>)
   1c27e:	6813      	ldr	r3, [r2, #0]
   1c280:	4610      	mov	r0, r2
   1c282:	b933      	cbnz	r3, 1c292 <_free_r+0x2e>
   1c284:	6063      	str	r3, [r4, #4]
   1c286:	6014      	str	r4, [r2, #0]
   1c288:	4628      	mov	r0, r5
   1c28a:	e8bd 4038 	ldmia.w	sp!, {r3, r4, r5, lr}
   1c28e:	f000 b8cd 	b.w	1c42c <__malloc_unlock>
   1c292:	42a3      	cmp	r3, r4
   1c294:	d90b      	bls.n	1c2ae <_free_r+0x4a>
   1c296:	6821      	ldr	r1, [r4, #0]
   1c298:	1862      	adds	r2, r4, r1
   1c29a:	4293      	cmp	r3, r2
   1c29c:	bf04      	itt	eq
   1c29e:	681a      	ldreq	r2, [r3, #0]
   1c2a0:	685b      	ldreq	r3, [r3, #4]
   1c2a2:	6063      	str	r3, [r4, #4]
   1c2a4:	bf04      	itt	eq
   1c2a6:	1852      	addeq	r2, r2, r1
   1c2a8:	6022      	streq	r2, [r4, #0]
   1c2aa:	6004      	str	r4, [r0, #0]
   1c2ac:	e7ec      	b.n	1c288 <_free_r+0x24>
   1c2ae:	461a      	mov	r2, r3
   1c2b0:	685b      	ldr	r3, [r3, #4]
   1c2b2:	b10b      	cbz	r3, 1c2b8 <_free_r+0x54>
   1c2b4:	42a3      	cmp	r3, r4
   1c2b6:	d9fa      	bls.n	1c2ae <_free_r+0x4a>
   1c2b8:	6811      	ldr	r1, [r2, #0]
   1c2ba:	1850      	adds	r0, r2, r1
   1c2bc:	42a0      	cmp	r0, r4
   1c2be:	d10b      	bne.n	1c2d8 <_free_r+0x74>
   1c2c0:	6820      	ldr	r0, [r4, #0]
   1c2c2:	4401      	add	r1, r0
   1c2c4:	1850      	adds	r0, r2, r1
   1c2c6:	4283      	cmp	r3, r0
   1c2c8:	6011      	str	r1, [r2, #0]
   1c2ca:	d1dd      	bne.n	1c288 <_free_r+0x24>
   1c2cc:	6818      	ldr	r0, [r3, #0]
   1c2ce:	685b      	ldr	r3, [r3, #4]
   1c2d0:	6053      	str	r3, [r2, #4]
   1c2d2:	4401      	add	r1, r0
   1c2d4:	6011      	str	r1, [r2, #0]
   1c2d6:	e7d7      	b.n	1c288 <_free_r+0x24>
   1c2d8:	d902      	bls.n	1c2e0 <_free_r+0x7c>
   1c2da:	230c      	movs	r3, #12
   1c2dc:	602b      	str	r3, [r5, #0]
   1c2de:	e7d3      	b.n	1c288 <_free_r+0x24>
   1c2e0:	6820      	ldr	r0, [r4, #0]
   1c2e2:	1821      	adds	r1, r4, r0
   1c2e4:	428b      	cmp	r3, r1
   1c2e6:	bf04      	itt	eq
   1c2e8:	6819      	ldreq	r1, [r3, #0]
   1c2ea:	685b      	ldreq	r3, [r3, #4]
   1c2ec:	6063      	str	r3, [r4, #4]
   1c2ee:	bf04      	itt	eq
   1c2f0:	1809      	addeq	r1, r1, r0
   1c2f2:	6021      	streq	r1, [r4, #0]
   1c2f4:	6054      	str	r4, [r2, #4]
   1c2f6:	e7c7      	b.n	1c288 <_free_r+0x24>
   1c2f8:	bd38      	pop	{r3, r4, r5, pc}
   1c2fa:	bf00      	nop
   1c2fc:	200015bc 	.word	0x200015bc

0001c300 <_malloc_r>:
   1c300:	b5f8      	push	{r3, r4, r5, r6, r7, lr}
   1c302:	1ccd      	adds	r5, r1, #3
   1c304:	f025 0503 	bic.w	r5, r5, #3
   1c308:	3508      	adds	r5, #8
   1c30a:	2d0c      	cmp	r5, #12
   1c30c:	bf38      	it	cc
   1c30e:	250c      	movcc	r5, #12
   1c310:	2d00      	cmp	r5, #0
   1c312:	4606      	mov	r6, r0
   1c314:	db01      	blt.n	1c31a <_malloc_r+0x1a>
   1c316:	42a9      	cmp	r1, r5
   1c318:	d903      	bls.n	1c322 <_malloc_r+0x22>
   1c31a:	230c      	movs	r3, #12
   1c31c:	6033      	str	r3, [r6, #0]
   1c31e:	2000      	movs	r0, #0
   1c320:	bdf8      	pop	{r3, r4, r5, r6, r7, pc}
   1c322:	f000 f87d 	bl	1c420 <__malloc_lock>
   1c326:	4921      	ldr	r1, [pc, #132]	; (1c3ac <_malloc_r+0xac>)
   1c328:	680a      	ldr	r2, [r1, #0]
   1c32a:	4614      	mov	r4, r2
   1c32c:	b99c      	cbnz	r4, 1c356 <_malloc_r+0x56>
   1c32e:	4f20      	ldr	r7, [pc, #128]	; (1c3b0 <_malloc_r+0xb0>)
   1c330:	683b      	ldr	r3, [r7, #0]
   1c332:	b923      	cbnz	r3, 1c33e <_malloc_r+0x3e>
   1c334:	4621      	mov	r1, r4
   1c336:	4630      	mov	r0, r6
   1c338:	f000 f862 	bl	1c400 <_sbrk_r>
   1c33c:	6038      	str	r0, [r7, #0]
   1c33e:	4629      	mov	r1, r5
   1c340:	4630      	mov	r0, r6
   1c342:	f000 f85d 	bl	1c400 <_sbrk_r>
   1c346:	1c43      	adds	r3, r0, #1
   1c348:	d123      	bne.n	1c392 <_malloc_r+0x92>
   1c34a:	230c      	movs	r3, #12
   1c34c:	6033      	str	r3, [r6, #0]
   1c34e:	4630      	mov	r0, r6
   1c350:	f000 f86c 	bl	1c42c <__malloc_unlock>
   1c354:	e7e3      	b.n	1c31e <_malloc_r+0x1e>
   1c356:	6823      	ldr	r3, [r4, #0]
   1c358:	1b5b      	subs	r3, r3, r5
   1c35a:	d417      	bmi.n	1c38c <_malloc_r+0x8c>
   1c35c:	2b0b      	cmp	r3, #11
   1c35e:	d903      	bls.n	1c368 <_malloc_r+0x68>
   1c360:	6023      	str	r3, [r4, #0]
   1c362:	441c      	add	r4, r3
   1c364:	6025      	str	r5, [r4, #0]
   1c366:	e004      	b.n	1c372 <_malloc_r+0x72>
   1c368:	6863      	ldr	r3, [r4, #4]
   1c36a:	42a2      	cmp	r2, r4
   1c36c:	bf0c      	ite	eq
   1c36e:	600b      	streq	r3, [r1, #0]
   1c370:	6053      	strne	r3, [r2, #4]
   1c372:	4630      	mov	r0, r6
   1c374:	f000 f85a 	bl	1c42c <__malloc_unlock>
   1c378:	f104 000b 	add.w	r0, r4, #11
   1c37c:	1d23      	adds	r3, r4, #4
   1c37e:	f020 0007 	bic.w	r0, r0, #7
   1c382:	1ac2      	subs	r2, r0, r3
   1c384:	d0cc      	beq.n	1c320 <_malloc_r+0x20>
   1c386:	1a1b      	subs	r3, r3, r0
   1c388:	50a3      	str	r3, [r4, r2]
   1c38a:	e7c9      	b.n	1c320 <_malloc_r+0x20>
   1c38c:	4622      	mov	r2, r4
   1c38e:	6864      	ldr	r4, [r4, #4]
   1c390:	e7cc      	b.n	1c32c <_malloc_r+0x2c>
   1c392:	1cc4      	adds	r4, r0, #3
   1c394:	f024 0403 	bic.w	r4, r4, #3
   1c398:	42a0      	cmp	r0, r4
   1c39a:	d0e3      	beq.n	1c364 <_malloc_r+0x64>
   1c39c:	1a21      	subs	r1, r4, r0
   1c39e:	4630      	mov	r0, r6
   1c3a0:	f000 f82e 	bl	1c400 <_sbrk_r>
   1c3a4:	3001      	adds	r0, #1
   1c3a6:	d1dd      	bne.n	1c364 <_malloc_r+0x64>
   1c3a8:	e7cf      	b.n	1c34a <_malloc_r+0x4a>
   1c3aa:	bf00      	nop
   1c3ac:	200015bc 	.word	0x200015bc
   1c3b0:	200015c0 	.word	0x200015c0

0001c3b4 <_realloc_r>:
   1c3b4:	b5f8      	push	{r3, r4, r5, r6, r7, lr}
   1c3b6:	4607      	mov	r7, r0
   1c3b8:	4614      	mov	r4, r2
   1c3ba:	460e      	mov	r6, r1
   1c3bc:	b921      	cbnz	r1, 1c3c8 <_realloc_r+0x14>
   1c3be:	e8bd 40f8 	ldmia.w	sp!, {r3, r4, r5, r6, r7, lr}
   1c3c2:	4611      	mov	r1, r2
   1c3c4:	f7ff bf9c 	b.w	1c300 <_malloc_r>
   1c3c8:	b922      	cbnz	r2, 1c3d4 <_realloc_r+0x20>
   1c3ca:	f7ff ff4b 	bl	1c264 <_free_r>
   1c3ce:	4625      	mov	r5, r4
   1c3d0:	4628      	mov	r0, r5
   1c3d2:	bdf8      	pop	{r3, r4, r5, r6, r7, pc}
   1c3d4:	f000 f830 	bl	1c438 <_malloc_usable_size_r>
   1c3d8:	42a0      	cmp	r0, r4
   1c3da:	d20f      	bcs.n	1c3fc <_realloc_r+0x48>
   1c3dc:	4621      	mov	r1, r4
   1c3de:	4638      	mov	r0, r7
   1c3e0:	f7ff ff8e 	bl	1c300 <_malloc_r>
   1c3e4:	4605      	mov	r5, r0
   1c3e6:	2800      	cmp	r0, #0
   1c3e8:	d0f2      	beq.n	1c3d0 <_realloc_r+0x1c>
   1c3ea:	4631      	mov	r1, r6
   1c3ec:	4622      	mov	r2, r4
   1c3ee:	f7ff fb85 	bl	1bafc <memcpy>
   1c3f2:	4631      	mov	r1, r6
   1c3f4:	4638      	mov	r0, r7
   1c3f6:	f7ff ff35 	bl	1c264 <_free_r>
   1c3fa:	e7e9      	b.n	1c3d0 <_realloc_r+0x1c>
   1c3fc:	4635      	mov	r5, r6
   1c3fe:	e7e7      	b.n	1c3d0 <_realloc_r+0x1c>

0001c400 <_sbrk_r>:
   1c400:	b538      	push	{r3, r4, r5, lr}
   1c402:	4d06      	ldr	r5, [pc, #24]	; (1c41c <_sbrk_r+0x1c>)
   1c404:	2300      	movs	r3, #0
   1c406:	4604      	mov	r4, r0
   1c408:	4608      	mov	r0, r1
   1c40a:	602b      	str	r3, [r5, #0]
   1c40c:	f000 f81e 	bl	1c44c <_sbrk>
   1c410:	1c43      	adds	r3, r0, #1
   1c412:	d102      	bne.n	1c41a <_sbrk_r+0x1a>
   1c414:	682b      	ldr	r3, [r5, #0]
   1c416:	b103      	cbz	r3, 1c41a <_sbrk_r+0x1a>
   1c418:	6023      	str	r3, [r4, #0]
   1c41a:	bd38      	pop	{r3, r4, r5, pc}
   1c41c:	2000164c 	.word	0x2000164c

0001c420 <__malloc_lock>:
   1c420:	4801      	ldr	r0, [pc, #4]	; (1c428 <__malloc_lock+0x8>)
   1c422:	f000 b811 	b.w	1c448 <__retarget_lock_acquire_recursive>
   1c426:	bf00      	nop
   1c428:	20001654 	.word	0x20001654

0001c42c <__malloc_unlock>:
   1c42c:	4801      	ldr	r0, [pc, #4]	; (1c434 <__malloc_unlock+0x8>)
   1c42e:	f000 b80c 	b.w	1c44a <__retarget_lock_release_recursive>
   1c432:	bf00      	nop
   1c434:	20001654 	.word	0x20001654

0001c438 <_malloc_usable_size_r>:
   1c438:	f851 3c04 	ldr.w	r3, [r1, #-4]
   1c43c:	1f18      	subs	r0, r3, #4
   1c43e:	2b00      	cmp	r3, #0
   1c440:	bfbc      	itt	lt
   1c442:	580b      	ldrlt	r3, [r1, r0]
   1c444:	18c0      	addlt	r0, r0, r3
   1c446:	4770      	bx	lr

0001c448 <__retarget_lock_acquire_recursive>:
   1c448:	4770      	bx	lr

0001c44a <__retarget_lock_release_recursive>:
   1c44a:	4770      	bx	lr

0001c44c <_sbrk>:
   1c44c:	4a04      	ldr	r2, [pc, #16]	; (1c460 <_sbrk+0x14>)
   1c44e:	4905      	ldr	r1, [pc, #20]	; (1c464 <_sbrk+0x18>)
   1c450:	6813      	ldr	r3, [r2, #0]
   1c452:	2b00      	cmp	r3, #0
   1c454:	bf08      	it	eq
   1c456:	460b      	moveq	r3, r1
   1c458:	4418      	add	r0, r3
   1c45a:	6010      	str	r0, [r2, #0]
   1c45c:	4618      	mov	r0, r3
   1c45e:	4770      	bx	lr
   1c460:	200015c4 	.word	0x200015c4
   1c464:	20001660 	.word	0x20001660

0001c468 <_exit>:
   1c468:	e7fe      	b.n	1c468 <_exit>
   1c46a:	bf00      	nop

0001c46c <__aeabi_d2uiz>:
   1c46c:	004a      	lsls	r2, r1, #1
   1c46e:	d211      	bcs.n	1c494 <__aeabi_d2uiz+0x28>
   1c470:	f512 1200 	adds.w	r2, r2, #2097152	; 0x200000
   1c474:	d211      	bcs.n	1c49a <__aeabi_d2uiz+0x2e>
   1c476:	d50d      	bpl.n	1c494 <__aeabi_d2uiz+0x28>
   1c478:	f46f 7378 	mvn.w	r3, #992	; 0x3e0
   1c47c:	ebb3 5262 	subs.w	r2, r3, r2, asr #21
   1c480:	d40e      	bmi.n	1c4a0 <__aeabi_d2uiz+0x34>
   1c482:	ea4f 23c1 	mov.w	r3, r1, lsl #11
   1c486:	f043 4300 	orr.w	r3, r3, #2147483648	; 0x80000000
   1c48a:	ea43 5350 	orr.w	r3, r3, r0, lsr #21
   1c48e:	fa23 f002 	lsr.w	r0, r3, r2
   1c492:	4770      	bx	lr
   1c494:	f04f 0000 	mov.w	r0, #0
   1c498:	4770      	bx	lr
   1c49a:	ea50 3001 	orrs.w	r0, r0, r1, lsl #12
   1c49e:	d102      	bne.n	1c4a6 <__aeabi_d2uiz+0x3a>
   1c4a0:	f04f 30ff 	mov.w	r0, #4294967295	; 0xffffffff
   1c4a4:	4770      	bx	lr
   1c4a6:	f04f 0000 	mov.w	r0, #0
   1c4aa:	4770      	bx	lr

0001c4ac <selfrel_offset31>:
   1c4ac:	6803      	ldr	r3, [r0, #0]
   1c4ae:	005a      	lsls	r2, r3, #1
   1c4b0:	bf4c      	ite	mi
   1c4b2:	f043 4300 	orrmi.w	r3, r3, #2147483648	; 0x80000000
   1c4b6:	f023 4300 	bicpl.w	r3, r3, #2147483648	; 0x80000000
   1c4ba:	4418      	add	r0, r3
   1c4bc:	4770      	bx	lr
   1c4be:	bf00      	nop

0001c4c0 <search_EIT_table>:
   1c4c0:	e92d 43f8 	stmdb	sp!, {r3, r4, r5, r6, r7, r8, r9, lr}
   1c4c4:	b329      	cbz	r1, 1c512 <search_EIT_table+0x52>
   1c4c6:	1e4f      	subs	r7, r1, #1
   1c4c8:	4604      	mov	r4, r0
   1c4ca:	4615      	mov	r5, r2
   1c4cc:	463e      	mov	r6, r7
   1c4ce:	f04f 0800 	mov.w	r8, #0
   1c4d2:	eb08 0106 	add.w	r1, r8, r6
   1c4d6:	eb01 71d1 	add.w	r1, r1, r1, lsr #31
   1c4da:	1049      	asrs	r1, r1, #1
   1c4dc:	eb04 09c1 	add.w	r9, r4, r1, lsl #3
   1c4e0:	4648      	mov	r0, r9
   1c4e2:	f7ff ffe3 	bl	1c4ac <selfrel_offset31>
   1c4e6:	4603      	mov	r3, r0
   1c4e8:	00c8      	lsls	r0, r1, #3
   1c4ea:	3008      	adds	r0, #8
   1c4ec:	428f      	cmp	r7, r1
   1c4ee:	4420      	add	r0, r4
   1c4f0:	d009      	beq.n	1c506 <search_EIT_table+0x46>
   1c4f2:	42ab      	cmp	r3, r5
   1c4f4:	d809      	bhi.n	1c50a <search_EIT_table+0x4a>
   1c4f6:	f7ff ffd9 	bl	1c4ac <selfrel_offset31>
   1c4fa:	3801      	subs	r0, #1
   1c4fc:	42a8      	cmp	r0, r5
   1c4fe:	d20a      	bcs.n	1c516 <search_EIT_table+0x56>
   1c500:	f101 0801 	add.w	r8, r1, #1
   1c504:	e7e5      	b.n	1c4d2 <search_EIT_table+0x12>
   1c506:	42ab      	cmp	r3, r5
   1c508:	d905      	bls.n	1c516 <search_EIT_table+0x56>
   1c50a:	4588      	cmp	r8, r1
   1c50c:	d001      	beq.n	1c512 <search_EIT_table+0x52>
   1c50e:	1e4e      	subs	r6, r1, #1
   1c510:	e7df      	b.n	1c4d2 <search_EIT_table+0x12>
   1c512:	f04f 0900 	mov.w	r9, #0
   1c516:	4648      	mov	r0, r9
   1c518:	e8bd 83f8 	ldmia.w	sp!, {r3, r4, r5, r6, r7, r8, r9, pc}

0001c51c <__gnu_unwind_get_pr_addr>:
   1c51c:	2801      	cmp	r0, #1
   1c51e:	d007      	beq.n	1c530 <__gnu_unwind_get_pr_addr+0x14>
   1c520:	2802      	cmp	r0, #2
   1c522:	d007      	beq.n	1c534 <__gnu_unwind_get_pr_addr+0x18>
   1c524:	4b04      	ldr	r3, [pc, #16]	; (1c538 <__gnu_unwind_get_pr_addr+0x1c>)
   1c526:	2800      	cmp	r0, #0
   1c528:	bf0c      	ite	eq
   1c52a:	4618      	moveq	r0, r3
   1c52c:	2000      	movne	r0, #0
   1c52e:	4770      	bx	lr
   1c530:	4802      	ldr	r0, [pc, #8]	; (1c53c <__gnu_unwind_get_pr_addr+0x20>)
   1c532:	4770      	bx	lr
   1c534:	4802      	ldr	r0, [pc, #8]	; (1c540 <__gnu_unwind_get_pr_addr+0x24>)
   1c536:	4770      	bx	lr
   1c538:	0001cbe1 	.word	0x0001cbe1
   1c53c:	0001cbe5 	.word	0x0001cbe5
   1c540:	0001cbe9 	.word	0x0001cbe9

0001c544 <get_eit_entry>:
   1c544:	b530      	push	{r4, r5, lr}
   1c546:	4b23      	ldr	r3, [pc, #140]	; (1c5d4 <get_eit_entry+0x90>)
   1c548:	b083      	sub	sp, #12
   1c54a:	4604      	mov	r4, r0
   1c54c:	1e8d      	subs	r5, r1, #2
   1c54e:	b33b      	cbz	r3, 1c5a0 <get_eit_entry+0x5c>
   1c550:	a901      	add	r1, sp, #4
   1c552:	4628      	mov	r0, r5
   1c554:	f3af 8000 	nop.w
   1c558:	b1e8      	cbz	r0, 1c596 <get_eit_entry+0x52>
   1c55a:	9901      	ldr	r1, [sp, #4]
   1c55c:	462a      	mov	r2, r5
   1c55e:	f7ff ffaf 	bl	1c4c0 <search_EIT_table>
   1c562:	4601      	mov	r1, r0
   1c564:	b1b8      	cbz	r0, 1c596 <get_eit_entry+0x52>
   1c566:	f7ff ffa1 	bl	1c4ac <selfrel_offset31>
   1c56a:	684b      	ldr	r3, [r1, #4]
   1c56c:	64a0      	str	r0, [r4, #72]	; 0x48
   1c56e:	2b01      	cmp	r3, #1
   1c570:	d02b      	beq.n	1c5ca <get_eit_entry+0x86>
   1c572:	2b00      	cmp	r3, #0
   1c574:	f101 0004 	add.w	r0, r1, #4
   1c578:	db23      	blt.n	1c5c2 <get_eit_entry+0x7e>
   1c57a:	f7ff ff97 	bl	1c4ac <selfrel_offset31>
   1c57e:	2300      	movs	r3, #0
   1c580:	e9c4 0313 	strd	r0, r3, [r4, #76]	; 0x4c
   1c584:	6803      	ldr	r3, [r0, #0]
   1c586:	2b00      	cmp	r3, #0
   1c588:	db10      	blt.n	1c5ac <get_eit_entry+0x68>
   1c58a:	f7ff ff8f 	bl	1c4ac <selfrel_offset31>
   1c58e:	6120      	str	r0, [r4, #16]
   1c590:	2000      	movs	r0, #0
   1c592:	b003      	add	sp, #12
   1c594:	bd30      	pop	{r4, r5, pc}
   1c596:	2300      	movs	r3, #0
   1c598:	2009      	movs	r0, #9
   1c59a:	6123      	str	r3, [r4, #16]
   1c59c:	b003      	add	sp, #12
   1c59e:	bd30      	pop	{r4, r5, pc}
   1c5a0:	490d      	ldr	r1, [pc, #52]	; (1c5d8 <get_eit_entry+0x94>)
   1c5a2:	480e      	ldr	r0, [pc, #56]	; (1c5dc <get_eit_entry+0x98>)
   1c5a4:	1a09      	subs	r1, r1, r0
   1c5a6:	10c9      	asrs	r1, r1, #3
   1c5a8:	9101      	str	r1, [sp, #4]
   1c5aa:	e7d7      	b.n	1c55c <get_eit_entry+0x18>
   1c5ac:	f3c3 6003 	ubfx	r0, r3, #24, #4
   1c5b0:	f7ff ffb4 	bl	1c51c <__gnu_unwind_get_pr_addr>
   1c5b4:	2800      	cmp	r0, #0
   1c5b6:	6120      	str	r0, [r4, #16]
   1c5b8:	bf14      	ite	ne
   1c5ba:	2000      	movne	r0, #0
   1c5bc:	2009      	moveq	r0, #9
   1c5be:	b003      	add	sp, #12
   1c5c0:	bd30      	pop	{r4, r5, pc}
   1c5c2:	2301      	movs	r3, #1
   1c5c4:	e9c4 0313 	strd	r0, r3, [r4, #76]	; 0x4c
   1c5c8:	e7dc      	b.n	1c584 <get_eit_entry+0x40>
   1c5ca:	2300      	movs	r3, #0
   1c5cc:	6123      	str	r3, [r4, #16]
   1c5ce:	2005      	movs	r0, #5
   1c5d0:	e7df      	b.n	1c592 <get_eit_entry+0x4e>
   1c5d2:	bf00      	nop
   1c5d4:	00000000 	.word	0x00000000
   1c5d8:	0001da10 	.word	0x0001da10
   1c5dc:	0001d848 	.word	0x0001d848

0001c5e0 <restore_non_core_regs>:
   1c5e0:	6803      	ldr	r3, [r0, #0]
   1c5e2:	07da      	lsls	r2, r3, #31
   1c5e4:	b510      	push	{r4, lr}
   1c5e6:	4604      	mov	r4, r0
   1c5e8:	d406      	bmi.n	1c5f8 <restore_non_core_regs+0x18>
   1c5ea:	079b      	lsls	r3, r3, #30
   1c5ec:	f100 0048 	add.w	r0, r0, #72	; 0x48
   1c5f0:	d509      	bpl.n	1c606 <restore_non_core_regs+0x26>
   1c5f2:	f000 fc4b 	bl	1ce8c <__gnu_Unwind_Restore_VFP_D>
   1c5f6:	6823      	ldr	r3, [r4, #0]
   1c5f8:	0759      	lsls	r1, r3, #29
   1c5fa:	d509      	bpl.n	1c610 <restore_non_core_regs+0x30>
   1c5fc:	071a      	lsls	r2, r3, #28
   1c5fe:	d50e      	bpl.n	1c61e <restore_non_core_regs+0x3e>
   1c600:	06db      	lsls	r3, r3, #27
   1c602:	d513      	bpl.n	1c62c <restore_non_core_regs+0x4c>
   1c604:	bd10      	pop	{r4, pc}
   1c606:	f000 fc39 	bl	1ce7c <__gnu_Unwind_Restore_VFP>
   1c60a:	6823      	ldr	r3, [r4, #0]
   1c60c:	0759      	lsls	r1, r3, #29
   1c60e:	d4f5      	bmi.n	1c5fc <restore_non_core_regs+0x1c>
   1c610:	f104 00d0 	add.w	r0, r4, #208	; 0xd0
   1c614:	f000 fc42 	bl	1ce9c <__gnu_Unwind_Restore_VFP_D_16_to_31>
   1c618:	6823      	ldr	r3, [r4, #0]
   1c61a:	071a      	lsls	r2, r3, #28
   1c61c:	d4f0      	bmi.n	1c600 <restore_non_core_regs+0x20>
   1c61e:	f504 70a8 	add.w	r0, r4, #336	; 0x150
   1c622:	f000 fc43 	bl	1ceac <__gnu_Unwind_Restore_WMMXD>
   1c626:	6823      	ldr	r3, [r4, #0]
   1c628:	06db      	lsls	r3, r3, #27
   1c62a:	d4eb      	bmi.n	1c604 <restore_non_core_regs+0x24>
   1c62c:	f504 70e8 	add.w	r0, r4, #464	; 0x1d0
   1c630:	e8bd 4010 	ldmia.w	sp!, {r4, lr}
   1c634:	f000 bc7e 	b.w	1cf34 <__gnu_Unwind_Restore_WMMXC>

0001c638 <_Unwind_decode_typeinfo_ptr.isra.0>:
   1c638:	4603      	mov	r3, r0
   1c63a:	6800      	ldr	r0, [r0, #0]
   1c63c:	b100      	cbz	r0, 1c640 <_Unwind_decode_typeinfo_ptr.isra.0+0x8>
   1c63e:	4418      	add	r0, r3
   1c640:	4770      	bx	lr
   1c642:	bf00      	nop

0001c644 <__gnu_unwind_24bit.isra.0>:
   1c644:	2009      	movs	r0, #9
   1c646:	4770      	bx	lr

0001c648 <_Unwind_DebugHook>:
   1c648:	4770      	bx	lr
   1c64a:	bf00      	nop

0001c64c <unwind_phase2>:
   1c64c:	b570      	push	{r4, r5, r6, lr}
   1c64e:	4604      	mov	r4, r0
   1c650:	460e      	mov	r6, r1
   1c652:	6c31      	ldr	r1, [r6, #64]	; 0x40
   1c654:	4620      	mov	r0, r4
   1c656:	f7ff ff75 	bl	1c544 <get_eit_entry>
   1c65a:	4605      	mov	r5, r0
   1c65c:	b988      	cbnz	r0, 1c682 <unwind_phase2+0x36>
   1c65e:	6c33      	ldr	r3, [r6, #64]	; 0x40
   1c660:	6163      	str	r3, [r4, #20]
   1c662:	4632      	mov	r2, r6
   1c664:	6923      	ldr	r3, [r4, #16]
   1c666:	4621      	mov	r1, r4
   1c668:	2001      	movs	r0, #1
   1c66a:	4798      	blx	r3
   1c66c:	2808      	cmp	r0, #8
   1c66e:	d0f0      	beq.n	1c652 <unwind_phase2+0x6>
   1c670:	2807      	cmp	r0, #7
   1c672:	d106      	bne.n	1c682 <unwind_phase2+0x36>
   1c674:	4628      	mov	r0, r5
   1c676:	6c31      	ldr	r1, [r6, #64]	; 0x40
   1c678:	f7ff ffe6 	bl	1c648 <_Unwind_DebugHook>
   1c67c:	1d30      	adds	r0, r6, #4
   1c67e:	f000 fbf1 	bl	1ce64 <__restore_core_regs>
   1c682:	f000 fe65 	bl	1d350 <abort>
   1c686:	bf00      	nop

0001c688 <unwind_phase2_forced>:
   1c688:	e92d 47f0 	stmdb	sp!, {r4, r5, r6, r7, r8, r9, sl, lr}
   1c68c:	1d0d      	adds	r5, r1, #4
   1c68e:	4606      	mov	r6, r0
   1c690:	4614      	mov	r4, r2
   1c692:	cd0f      	ldmia	r5!, {r0, r1, r2, r3}
   1c694:	f5ad 7d72 	sub.w	sp, sp, #968	; 0x3c8
   1c698:	f10d 0c0c 	add.w	ip, sp, #12
   1c69c:	e8ac 000f 	stmia.w	ip!, {r0, r1, r2, r3}
   1c6a0:	cd0f      	ldmia	r5!, {r0, r1, r2, r3}
   1c6a2:	e8ac 000f 	stmia.w	ip!, {r0, r1, r2, r3}
   1c6a6:	cd0f      	ldmia	r5!, {r0, r1, r2, r3}
   1c6a8:	e8ac 000f 	stmia.w	ip!, {r0, r1, r2, r3}
   1c6ac:	e895 000f 	ldmia.w	r5, {r0, r1, r2, r3}
   1c6b0:	ad02      	add	r5, sp, #8
   1c6b2:	68f7      	ldr	r7, [r6, #12]
   1c6b4:	f8d6 8018 	ldr.w	r8, [r6, #24]
   1c6b8:	e88c 000f 	stmia.w	ip, {r0, r1, r2, r3}
   1c6bc:	2300      	movs	r3, #0
   1c6be:	602b      	str	r3, [r5, #0]
   1c6c0:	e021      	b.n	1c706 <unwind_phase2_forced+0x7e>
   1c6c2:	6c2b      	ldr	r3, [r5, #64]	; 0x40
   1c6c4:	6173      	str	r3, [r6, #20]
   1c6c6:	f44f 72f0 	mov.w	r2, #480	; 0x1e0
   1c6ca:	4629      	mov	r1, r5
   1c6cc:	a87a      	add	r0, sp, #488	; 0x1e8
   1c6ce:	f7ff fa15 	bl	1bafc <memcpy>
   1c6d2:	6933      	ldr	r3, [r6, #16]
   1c6d4:	aa7a      	add	r2, sp, #488	; 0x1e8
   1c6d6:	4631      	mov	r1, r6
   1c6d8:	4650      	mov	r0, sl
   1c6da:	4798      	blx	r3
   1c6dc:	9b88      	ldr	r3, [sp, #544]	; 0x220
   1c6de:	e9cd 5800 	strd	r5, r8, [sp]
   1c6e2:	4621      	mov	r1, r4
   1c6e4:	646b      	str	r3, [r5, #68]	; 0x44
   1c6e6:	4681      	mov	r9, r0
   1c6e8:	4633      	mov	r3, r6
   1c6ea:	4632      	mov	r2, r6
   1c6ec:	2001      	movs	r0, #1
   1c6ee:	47b8      	blx	r7
   1c6f0:	4604      	mov	r4, r0
   1c6f2:	b9e8      	cbnz	r0, 1c730 <unwind_phase2_forced+0xa8>
   1c6f4:	f44f 72f0 	mov.w	r2, #480	; 0x1e0
   1c6f8:	a97a      	add	r1, sp, #488	; 0x1e8
   1c6fa:	4628      	mov	r0, r5
   1c6fc:	f7ff f9fe 	bl	1bafc <memcpy>
   1c700:	f1b9 0f08 	cmp.w	r9, #8
   1c704:	d11b      	bne.n	1c73e <unwind_phase2_forced+0xb6>
   1c706:	6c29      	ldr	r1, [r5, #64]	; 0x40
   1c708:	4630      	mov	r0, r6
   1c70a:	f7ff ff1b 	bl	1c544 <get_eit_entry>
   1c70e:	3409      	adds	r4, #9
   1c710:	fa5f fa84 	uxtb.w	sl, r4
   1c714:	4681      	mov	r9, r0
   1c716:	2800      	cmp	r0, #0
   1c718:	d0d3      	beq.n	1c6c2 <unwind_phase2_forced+0x3a>
   1c71a:	6bab      	ldr	r3, [r5, #56]	; 0x38
   1c71c:	f04a 0110 	orr.w	r1, sl, #16
   1c720:	e9cd 5800 	strd	r5, r8, [sp]
   1c724:	4632      	mov	r2, r6
   1c726:	646b      	str	r3, [r5, #68]	; 0x44
   1c728:	2001      	movs	r0, #1
   1c72a:	4633      	mov	r3, r6
   1c72c:	47b8      	blx	r7
   1c72e:	b108      	cbz	r0, 1c734 <unwind_phase2_forced+0xac>
   1c730:	f04f 0909 	mov.w	r9, #9
   1c734:	4648      	mov	r0, r9
   1c736:	f50d 7d72 	add.w	sp, sp, #968	; 0x3c8
   1c73a:	e8bd 87f0 	ldmia.w	sp!, {r4, r5, r6, r7, r8, r9, sl, pc}
   1c73e:	f1b9 0f07 	cmp.w	r9, #7
   1c742:	d1f5      	bne.n	1c730 <unwind_phase2_forced+0xa8>
   1c744:	4620      	mov	r0, r4
   1c746:	6c29      	ldr	r1, [r5, #64]	; 0x40
   1c748:	f7ff ff7e 	bl	1c648 <_Unwind_DebugHook>
   1c74c:	a803      	add	r0, sp, #12
   1c74e:	f000 fb89 	bl	1ce64 <__restore_core_regs>
   1c752:	bf00      	nop

0001c754 <_Unwind_GetCFA>:
   1c754:	6c40      	ldr	r0, [r0, #68]	; 0x44
   1c756:	4770      	bx	lr

0001c758 <__gnu_Unwind_RaiseException>:
   1c758:	b5f0      	push	{r4, r5, r6, r7, lr}
   1c75a:	6bcb      	ldr	r3, [r1, #60]	; 0x3c
   1c75c:	640b      	str	r3, [r1, #64]	; 0x40
   1c75e:	1d0e      	adds	r6, r1, #4
   1c760:	460f      	mov	r7, r1
   1c762:	4605      	mov	r5, r0
   1c764:	ce0f      	ldmia	r6!, {r0, r1, r2, r3}
   1c766:	b0f9      	sub	sp, #484	; 0x1e4
   1c768:	ac01      	add	r4, sp, #4
   1c76a:	c40f      	stmia	r4!, {r0, r1, r2, r3}
   1c76c:	ce0f      	ldmia	r6!, {r0, r1, r2, r3}
   1c76e:	c40f      	stmia	r4!, {r0, r1, r2, r3}
   1c770:	ce0f      	ldmia	r6!, {r0, r1, r2, r3}
   1c772:	c40f      	stmia	r4!, {r0, r1, r2, r3}
   1c774:	e896 000f 	ldmia.w	r6, {r0, r1, r2, r3}
   1c778:	f04f 36ff 	mov.w	r6, #4294967295	; 0xffffffff
   1c77c:	e884 000f 	stmia.w	r4, {r0, r1, r2, r3}
   1c780:	9600      	str	r6, [sp, #0]
   1c782:	e006      	b.n	1c792 <__gnu_Unwind_RaiseException+0x3a>
   1c784:	692b      	ldr	r3, [r5, #16]
   1c786:	466a      	mov	r2, sp
   1c788:	4629      	mov	r1, r5
   1c78a:	4798      	blx	r3
   1c78c:	2808      	cmp	r0, #8
   1c78e:	4604      	mov	r4, r0
   1c790:	d108      	bne.n	1c7a4 <__gnu_Unwind_RaiseException+0x4c>
   1c792:	9910      	ldr	r1, [sp, #64]	; 0x40
   1c794:	4628      	mov	r0, r5
   1c796:	f7ff fed5 	bl	1c544 <get_eit_entry>
   1c79a:	2800      	cmp	r0, #0
   1c79c:	d0f2      	beq.n	1c784 <__gnu_Unwind_RaiseException+0x2c>
   1c79e:	2009      	movs	r0, #9
   1c7a0:	b079      	add	sp, #484	; 0x1e4
   1c7a2:	bdf0      	pop	{r4, r5, r6, r7, pc}
   1c7a4:	4668      	mov	r0, sp
   1c7a6:	f7ff ff1b 	bl	1c5e0 <restore_non_core_regs>
   1c7aa:	2c06      	cmp	r4, #6
   1c7ac:	d1f7      	bne.n	1c79e <__gnu_Unwind_RaiseException+0x46>
   1c7ae:	4639      	mov	r1, r7
   1c7b0:	4628      	mov	r0, r5
   1c7b2:	f7ff ff4b 	bl	1c64c <unwind_phase2>
   1c7b6:	bf00      	nop

0001c7b8 <__gnu_Unwind_ForcedUnwind>:
   1c7b8:	b430      	push	{r4, r5}
   1c7ba:	6bdd      	ldr	r5, [r3, #60]	; 0x3c
   1c7bc:	60c1      	str	r1, [r0, #12]
   1c7be:	6182      	str	r2, [r0, #24]
   1c7c0:	4619      	mov	r1, r3
   1c7c2:	641d      	str	r5, [r3, #64]	; 0x40
   1c7c4:	2200      	movs	r2, #0
   1c7c6:	bc30      	pop	{r4, r5}
   1c7c8:	e75e      	b.n	1c688 <unwind_phase2_forced>
   1c7ca:	bf00      	nop

0001c7cc <__gnu_Unwind_Resume>:
   1c7cc:	b570      	push	{r4, r5, r6, lr}
   1c7ce:	68c6      	ldr	r6, [r0, #12]
   1c7d0:	6943      	ldr	r3, [r0, #20]
   1c7d2:	640b      	str	r3, [r1, #64]	; 0x40
   1c7d4:	b9ae      	cbnz	r6, 1c802 <__gnu_Unwind_Resume+0x36>
   1c7d6:	6903      	ldr	r3, [r0, #16]
   1c7d8:	460a      	mov	r2, r1
   1c7da:	4604      	mov	r4, r0
   1c7dc:	460d      	mov	r5, r1
   1c7de:	4601      	mov	r1, r0
   1c7e0:	2002      	movs	r0, #2
   1c7e2:	4798      	blx	r3
   1c7e4:	2807      	cmp	r0, #7
   1c7e6:	d005      	beq.n	1c7f4 <__gnu_Unwind_Resume+0x28>
   1c7e8:	2808      	cmp	r0, #8
   1c7ea:	d10f      	bne.n	1c80c <__gnu_Unwind_Resume+0x40>
   1c7ec:	4629      	mov	r1, r5
   1c7ee:	4620      	mov	r0, r4
   1c7f0:	f7ff ff2c 	bl	1c64c <unwind_phase2>
   1c7f4:	4630      	mov	r0, r6
   1c7f6:	6c29      	ldr	r1, [r5, #64]	; 0x40
   1c7f8:	f7ff ff26 	bl	1c648 <_Unwind_DebugHook>
   1c7fc:	1d28      	adds	r0, r5, #4
   1c7fe:	f000 fb31 	bl	1ce64 <__restore_core_regs>
   1c802:	2201      	movs	r2, #1
   1c804:	f7ff ff40 	bl	1c688 <unwind_phase2_forced>
   1c808:	f000 fda2 	bl	1d350 <abort>
   1c80c:	f000 fda0 	bl	1d350 <abort>

0001c810 <__gnu_Unwind_Resume_or_Rethrow>:
   1c810:	68c2      	ldr	r2, [r0, #12]
   1c812:	b11a      	cbz	r2, 1c81c <__gnu_Unwind_Resume_or_Rethrow+0xc>
   1c814:	6bca      	ldr	r2, [r1, #60]	; 0x3c
   1c816:	640a      	str	r2, [r1, #64]	; 0x40
   1c818:	2200      	movs	r2, #0
   1c81a:	e735      	b.n	1c688 <unwind_phase2_forced>
   1c81c:	e79c      	b.n	1c758 <__gnu_Unwind_RaiseException>
   1c81e:	bf00      	nop

0001c820 <_Unwind_Complete>:
   1c820:	4770      	bx	lr
   1c822:	bf00      	nop

0001c824 <_Unwind_DeleteException>:
   1c824:	6883      	ldr	r3, [r0, #8]
   1c826:	4601      	mov	r1, r0
   1c828:	b10b      	cbz	r3, 1c82e <_Unwind_DeleteException+0xa>
   1c82a:	2001      	movs	r0, #1
   1c82c:	4718      	bx	r3
   1c82e:	4770      	bx	lr

0001c830 <_Unwind_VRS_Get>:
   1c830:	2901      	cmp	r1, #1
   1c832:	d012      	beq.n	1c85a <_Unwind_VRS_Get+0x2a>
   1c834:	d809      	bhi.n	1c84a <_Unwind_VRS_Get+0x1a>
   1c836:	b973      	cbnz	r3, 1c856 <_Unwind_VRS_Get+0x26>
   1c838:	2a0f      	cmp	r2, #15
   1c83a:	d80c      	bhi.n	1c856 <_Unwind_VRS_Get+0x26>
   1c83c:	eb00 0282 	add.w	r2, r0, r2, lsl #2
   1c840:	4618      	mov	r0, r3
   1c842:	6853      	ldr	r3, [r2, #4]
   1c844:	9a00      	ldr	r2, [sp, #0]
   1c846:	6013      	str	r3, [r2, #0]
   1c848:	4770      	bx	lr
   1c84a:	3903      	subs	r1, #3
   1c84c:	2901      	cmp	r1, #1
   1c84e:	bf94      	ite	ls
   1c850:	2001      	movls	r0, #1
   1c852:	2002      	movhi	r0, #2
   1c854:	4770      	bx	lr
   1c856:	2002      	movs	r0, #2
   1c858:	4770      	bx	lr
   1c85a:	4608      	mov	r0, r1
   1c85c:	4770      	bx	lr
   1c85e:	bf00      	nop

0001c860 <_Unwind_GetGR>:
   1c860:	b510      	push	{r4, lr}
   1c862:	b084      	sub	sp, #16
   1c864:	2300      	movs	r3, #0
   1c866:	ac03      	add	r4, sp, #12
   1c868:	460a      	mov	r2, r1
   1c86a:	9400      	str	r4, [sp, #0]
   1c86c:	4619      	mov	r1, r3
   1c86e:	f7ff ffdf 	bl	1c830 <_Unwind_VRS_Get>
   1c872:	9803      	ldr	r0, [sp, #12]
   1c874:	b004      	add	sp, #16
   1c876:	bd10      	pop	{r4, pc}

0001c878 <_Unwind_VRS_Set>:
   1c878:	2901      	cmp	r1, #1
   1c87a:	d012      	beq.n	1c8a2 <_Unwind_VRS_Set+0x2a>
   1c87c:	d809      	bhi.n	1c892 <_Unwind_VRS_Set+0x1a>
   1c87e:	b973      	cbnz	r3, 1c89e <_Unwind_VRS_Set+0x26>
   1c880:	2a0f      	cmp	r2, #15
   1c882:	d80c      	bhi.n	1c89e <_Unwind_VRS_Set+0x26>
   1c884:	eb00 0082 	add.w	r0, r0, r2, lsl #2
   1c888:	9a00      	ldr	r2, [sp, #0]
   1c88a:	6812      	ldr	r2, [r2, #0]
   1c88c:	6042      	str	r2, [r0, #4]
   1c88e:	4618      	mov	r0, r3
   1c890:	4770      	bx	lr
   1c892:	3903      	subs	r1, #3
   1c894:	2901      	cmp	r1, #1
   1c896:	bf94      	ite	ls
   1c898:	2001      	movls	r0, #1
   1c89a:	2002      	movhi	r0, #2
   1c89c:	4770      	bx	lr
   1c89e:	2002      	movs	r0, #2
   1c8a0:	4770      	bx	lr
   1c8a2:	4608      	mov	r0, r1
   1c8a4:	4770      	bx	lr
   1c8a6:	bf00      	nop

0001c8a8 <_Unwind_SetGR>:
   1c8a8:	b510      	push	{r4, lr}
   1c8aa:	b084      	sub	sp, #16
   1c8ac:	2300      	movs	r3, #0
   1c8ae:	ac03      	add	r4, sp, #12
   1c8b0:	9203      	str	r2, [sp, #12]
   1c8b2:	9400      	str	r4, [sp, #0]
   1c8b4:	460a      	mov	r2, r1
   1c8b6:	4619      	mov	r1, r3
   1c8b8:	f7ff ffde 	bl	1c878 <_Unwind_VRS_Set>
   1c8bc:	b004      	add	sp, #16
   1c8be:	bd10      	pop	{r4, pc}

0001c8c0 <__gnu_Unwind_Backtrace>:
   1c8c0:	b5f0      	push	{r4, r5, r6, r7, lr}
   1c8c2:	6bd3      	ldr	r3, [r2, #60]	; 0x3c
   1c8c4:	6413      	str	r3, [r2, #64]	; 0x40
   1c8c6:	1d15      	adds	r5, r2, #4
   1c8c8:	468c      	mov	ip, r1
   1c8ca:	4606      	mov	r6, r0
   1c8cc:	cd0f      	ldmia	r5!, {r0, r1, r2, r3}
   1c8ce:	f5ad 7d0f 	sub.w	sp, sp, #572	; 0x23c
   1c8d2:	ac17      	add	r4, sp, #92	; 0x5c
   1c8d4:	c40f      	stmia	r4!, {r0, r1, r2, r3}
   1c8d6:	cd0f      	ldmia	r5!, {r0, r1, r2, r3}
   1c8d8:	c40f      	stmia	r4!, {r0, r1, r2, r3}
   1c8da:	cd0f      	ldmia	r5!, {r0, r1, r2, r3}
   1c8dc:	c40f      	stmia	r4!, {r0, r1, r2, r3}
   1c8de:	e895 000f 	ldmia.w	r5, {r0, r1, r2, r3}
   1c8e2:	f04f 37ff 	mov.w	r7, #4294967295	; 0xffffffff
   1c8e6:	e884 000f 	stmia.w	r4, {r0, r1, r2, r3}
   1c8ea:	4665      	mov	r5, ip
   1c8ec:	9716      	str	r7, [sp, #88]	; 0x58
   1c8ee:	e010      	b.n	1c912 <__gnu_Unwind_Backtrace+0x52>
   1c8f0:	f7ff ffda 	bl	1c8a8 <_Unwind_SetGR>
   1c8f4:	4629      	mov	r1, r5
   1c8f6:	a816      	add	r0, sp, #88	; 0x58
   1c8f8:	47b0      	blx	r6
   1c8fa:	4603      	mov	r3, r0
   1c8fc:	aa16      	add	r2, sp, #88	; 0x58
   1c8fe:	4669      	mov	r1, sp
   1c900:	2008      	movs	r0, #8
   1c902:	b983      	cbnz	r3, 1c926 <__gnu_Unwind_Backtrace+0x66>
   1c904:	9b04      	ldr	r3, [sp, #16]
   1c906:	4798      	blx	r3
   1c908:	2805      	cmp	r0, #5
   1c90a:	4604      	mov	r4, r0
   1c90c:	d00c      	beq.n	1c928 <__gnu_Unwind_Backtrace+0x68>
   1c90e:	2809      	cmp	r0, #9
   1c910:	d009      	beq.n	1c926 <__gnu_Unwind_Backtrace+0x66>
   1c912:	9926      	ldr	r1, [sp, #152]	; 0x98
   1c914:	4668      	mov	r0, sp
   1c916:	f7ff fe15 	bl	1c544 <get_eit_entry>
   1c91a:	4603      	mov	r3, r0
   1c91c:	466a      	mov	r2, sp
   1c91e:	210c      	movs	r1, #12
   1c920:	a816      	add	r0, sp, #88	; 0x58
   1c922:	2b00      	cmp	r3, #0
   1c924:	d0e4      	beq.n	1c8f0 <__gnu_Unwind_Backtrace+0x30>
   1c926:	2409      	movs	r4, #9
   1c928:	a816      	add	r0, sp, #88	; 0x58
   1c92a:	f7ff fe59 	bl	1c5e0 <restore_non_core_regs>
   1c92e:	4620      	mov	r0, r4
   1c930:	f50d 7d0f 	add.w	sp, sp, #572	; 0x23c
   1c934:	bdf0      	pop	{r4, r5, r6, r7, pc}
   1c936:	bf00      	nop

0001c938 <__gnu_unwind_pr_common>:
   1c938:	e92d 4ff0 	stmdb	sp!, {r4, r5, r6, r7, r8, r9, sl, fp, lr}
   1c93c:	6ccc      	ldr	r4, [r1, #76]	; 0x4c
   1c93e:	b089      	sub	sp, #36	; 0x24
   1c940:	460d      	mov	r5, r1
   1c942:	f854 1b04 	ldr.w	r1, [r4], #4
   1c946:	9406      	str	r4, [sp, #24]
   1c948:	4617      	mov	r7, r2
   1c94a:	f000 0803 	and.w	r8, r0, #3
   1c94e:	461e      	mov	r6, r3
   1c950:	2b00      	cmp	r3, #0
   1c952:	d079      	beq.n	1ca48 <__gnu_unwind_pr_common+0x110>
   1c954:	0c0b      	lsrs	r3, r1, #16
   1c956:	b2da      	uxtb	r2, r3
   1c958:	0409      	lsls	r1, r1, #16
   1c95a:	f88d 301d 	strb.w	r3, [sp, #29]
   1c95e:	2302      	movs	r3, #2
   1c960:	eb04 0482 	add.w	r4, r4, r2, lsl #2
   1c964:	9105      	str	r1, [sp, #20]
   1c966:	f88d 301c 	strb.w	r3, [sp, #28]
   1c96a:	6d2b      	ldr	r3, [r5, #80]	; 0x50
   1c96c:	f1b8 0f02 	cmp.w	r8, #2
   1c970:	bf08      	it	eq
   1c972:	6bac      	ldreq	r4, [r5, #56]	; 0x38
   1c974:	f013 0301 	ands.w	r3, r3, #1
   1c978:	d00c      	beq.n	1c994 <__gnu_unwind_pr_common+0x5c>
   1c97a:	4638      	mov	r0, r7
   1c97c:	a905      	add	r1, sp, #20
   1c97e:	f000 fb73 	bl	1d068 <__gnu_unwind_execute>
   1c982:	b918      	cbnz	r0, 1c98c <__gnu_unwind_pr_common+0x54>
   1c984:	2008      	movs	r0, #8
   1c986:	b009      	add	sp, #36	; 0x24
   1c988:	e8bd 8ff0 	ldmia.w	sp!, {r4, r5, r6, r7, r8, r9, sl, fp, pc}
   1c98c:	2009      	movs	r0, #9
   1c98e:	b009      	add	sp, #36	; 0x24
   1c990:	e8bd 8ff0 	ldmia.w	sp!, {r4, r5, r6, r7, r8, r9, sl, fp, pc}
   1c994:	f8d4 a000 	ldr.w	sl, [r4]
   1c998:	f1ba 0f00 	cmp.w	sl, #0
   1c99c:	d0ed      	beq.n	1c97a <__gnu_unwind_pr_common+0x42>
   1c99e:	9301      	str	r3, [sp, #4]
   1c9a0:	f000 0308 	and.w	r3, r0, #8
   1c9a4:	9302      	str	r3, [sp, #8]
   1c9a6:	2e02      	cmp	r6, #2
   1c9a8:	d04a      	beq.n	1ca40 <__gnu_unwind_pr_common+0x108>
   1c9aa:	f8b4 a000 	ldrh.w	sl, [r4]
   1c9ae:	f8b4 9002 	ldrh.w	r9, [r4, #2]
   1c9b2:	3404      	adds	r4, #4
   1c9b4:	6caa      	ldr	r2, [r5, #72]	; 0x48
   1c9b6:	f029 0b01 	bic.w	fp, r9, #1
   1c9ba:	210f      	movs	r1, #15
   1c9bc:	4638      	mov	r0, r7
   1c9be:	4493      	add	fp, r2
   1c9c0:	f7ff ff4e 	bl	1c860 <_Unwind_GetGR>
   1c9c4:	4583      	cmp	fp, r0
   1c9c6:	d839      	bhi.n	1ca3c <__gnu_unwind_pr_common+0x104>
   1c9c8:	f02a 0201 	bic.w	r2, sl, #1
   1c9cc:	445a      	add	r2, fp
   1c9ce:	4282      	cmp	r2, r0
   1c9d0:	bf94      	ite	ls
   1c9d2:	2000      	movls	r0, #0
   1c9d4:	2001      	movhi	r0, #1
   1c9d6:	ea4f 0349 	mov.w	r3, r9, lsl #1
   1c9da:	f003 0302 	and.w	r3, r3, #2
   1c9de:	f00a 0a01 	and.w	sl, sl, #1
   1c9e2:	ea43 030a 	orr.w	r3, r3, sl
   1c9e6:	2b01      	cmp	r3, #1
   1c9e8:	d049      	beq.n	1ca7e <__gnu_unwind_pr_common+0x146>
   1c9ea:	2b02      	cmp	r3, #2
   1c9ec:	d032      	beq.n	1ca54 <__gnu_unwind_pr_common+0x11c>
   1c9ee:	2b00      	cmp	r3, #0
   1c9f0:	d1cc      	bne.n	1c98c <__gnu_unwind_pr_common+0x54>
   1c9f2:	f1b8 0f00 	cmp.w	r8, #0
   1c9f6:	d002      	beq.n	1c9fe <__gnu_unwind_pr_common+0xc6>
   1c9f8:	2800      	cmp	r0, #0
   1c9fa:	f040 80cd 	bne.w	1cb98 <__gnu_unwind_pr_common+0x260>
   1c9fe:	3404      	adds	r4, #4
   1ca00:	f8d4 a000 	ldr.w	sl, [r4]
   1ca04:	f1ba 0f00 	cmp.w	sl, #0
   1ca08:	d1cd      	bne.n	1c9a6 <__gnu_unwind_pr_common+0x6e>
   1ca0a:	a905      	add	r1, sp, #20
   1ca0c:	4638      	mov	r0, r7
   1ca0e:	f000 fb2b 	bl	1d068 <__gnu_unwind_execute>
   1ca12:	2800      	cmp	r0, #0
   1ca14:	d1ba      	bne.n	1c98c <__gnu_unwind_pr_common+0x54>
   1ca16:	9b01      	ldr	r3, [sp, #4]
   1ca18:	2b00      	cmp	r3, #0
   1ca1a:	d0b3      	beq.n	1c984 <__gnu_unwind_pr_common+0x4c>
   1ca1c:	210f      	movs	r1, #15
   1ca1e:	4638      	mov	r0, r7
   1ca20:	f7ff ff1e 	bl	1c860 <_Unwind_GetGR>
   1ca24:	210e      	movs	r1, #14
   1ca26:	4602      	mov	r2, r0
   1ca28:	4638      	mov	r0, r7
   1ca2a:	f7ff ff3d 	bl	1c8a8 <_Unwind_SetGR>
   1ca2e:	4638      	mov	r0, r7
   1ca30:	4a6a      	ldr	r2, [pc, #424]	; (1cbdc <__gnu_unwind_pr_common+0x2a4>)
   1ca32:	210f      	movs	r1, #15
   1ca34:	f7ff ff38 	bl	1c8a8 <_Unwind_SetGR>
   1ca38:	2007      	movs	r0, #7
   1ca3a:	e7a8      	b.n	1c98e <__gnu_unwind_pr_common+0x56>
   1ca3c:	2000      	movs	r0, #0
   1ca3e:	e7ca      	b.n	1c9d6 <__gnu_unwind_pr_common+0x9e>
   1ca40:	f8d4 9004 	ldr.w	r9, [r4, #4]
   1ca44:	3408      	adds	r4, #8
   1ca46:	e7b5      	b.n	1c9b4 <__gnu_unwind_pr_common+0x7c>
   1ca48:	0209      	lsls	r1, r1, #8
   1ca4a:	2303      	movs	r3, #3
   1ca4c:	9105      	str	r1, [sp, #20]
   1ca4e:	f8ad 301c 	strh.w	r3, [sp, #28]
   1ca52:	e78a      	b.n	1c96a <__gnu_unwind_pr_common+0x32>
   1ca54:	6823      	ldr	r3, [r4, #0]
   1ca56:	f023 4b00 	bic.w	fp, r3, #2147483648	; 0x80000000
   1ca5a:	f1b8 0f00 	cmp.w	r8, #0
   1ca5e:	d145      	bne.n	1caec <__gnu_unwind_pr_common+0x1b4>
   1ca60:	b128      	cbz	r0, 1ca6e <__gnu_unwind_pr_common+0x136>
   1ca62:	9a02      	ldr	r2, [sp, #8]
   1ca64:	2a00      	cmp	r2, #0
   1ca66:	d05c      	beq.n	1cb22 <__gnu_unwind_pr_common+0x1ea>
   1ca68:	f1bb 0f00 	cmp.w	fp, #0
   1ca6c:	d074      	beq.n	1cb58 <__gnu_unwind_pr_common+0x220>
   1ca6e:	2b00      	cmp	r3, #0
   1ca70:	da00      	bge.n	1ca74 <__gnu_unwind_pr_common+0x13c>
   1ca72:	3404      	adds	r4, #4
   1ca74:	f10b 0b01 	add.w	fp, fp, #1
   1ca78:	eb04 048b 	add.w	r4, r4, fp, lsl #2
   1ca7c:	e7c0      	b.n	1ca00 <__gnu_unwind_pr_common+0xc8>
   1ca7e:	f1b8 0f00 	cmp.w	r8, #0
   1ca82:	d119      	bne.n	1cab8 <__gnu_unwind_pr_common+0x180>
   1ca84:	b1b0      	cbz	r0, 1cab4 <__gnu_unwind_pr_common+0x17c>
   1ca86:	e9d4 2300 	ldrd	r2, r3, [r4]
   1ca8a:	1c99      	adds	r1, r3, #2
   1ca8c:	ea4f 72d2 	mov.w	r2, r2, lsr #31
   1ca90:	f43f af7c 	beq.w	1c98c <__gnu_unwind_pr_common+0x54>
   1ca94:	f105 0158 	add.w	r1, r5, #88	; 0x58
   1ca98:	3301      	adds	r3, #1
   1ca9a:	9104      	str	r1, [sp, #16]
   1ca9c:	f000 8090 	beq.w	1cbc0 <__gnu_unwind_pr_common+0x288>
   1caa0:	1d20      	adds	r0, r4, #4
   1caa2:	f7ff fdc9 	bl	1c638 <_Unwind_decode_typeinfo_ptr.isra.0>
   1caa6:	ab04      	add	r3, sp, #16
   1caa8:	4601      	mov	r1, r0
   1caaa:	4628      	mov	r0, r5
   1caac:	f3af 8000 	nop.w
   1cab0:	2800      	cmp	r0, #0
   1cab2:	d15b      	bne.n	1cb6c <__gnu_unwind_pr_common+0x234>
   1cab4:	3408      	adds	r4, #8
   1cab6:	e7a3      	b.n	1ca00 <__gnu_unwind_pr_common+0xc8>
   1cab8:	210d      	movs	r1, #13
   1caba:	4638      	mov	r0, r7
   1cabc:	f8d5 9020 	ldr.w	r9, [r5, #32]
   1cac0:	f7ff fece 	bl	1c860 <_Unwind_GetGR>
   1cac4:	4581      	cmp	r9, r0
   1cac6:	d1f5      	bne.n	1cab4 <__gnu_unwind_pr_common+0x17c>
   1cac8:	6aab      	ldr	r3, [r5, #40]	; 0x28
   1caca:	429c      	cmp	r4, r3
   1cacc:	d1f2      	bne.n	1cab4 <__gnu_unwind_pr_common+0x17c>
   1cace:	4620      	mov	r0, r4
   1cad0:	f7ff fcec 	bl	1c4ac <selfrel_offset31>
   1cad4:	210f      	movs	r1, #15
   1cad6:	4602      	mov	r2, r0
   1cad8:	4638      	mov	r0, r7
   1cada:	f7ff fee5 	bl	1c8a8 <_Unwind_SetGR>
   1cade:	4638      	mov	r0, r7
   1cae0:	462a      	mov	r2, r5
   1cae2:	2100      	movs	r1, #0
   1cae4:	f7ff fee0 	bl	1c8a8 <_Unwind_SetGR>
   1cae8:	2007      	movs	r0, #7
   1caea:	e750      	b.n	1c98e <__gnu_unwind_pr_common+0x56>
   1caec:	210d      	movs	r1, #13
   1caee:	4638      	mov	r0, r7
   1caf0:	f8d5 9020 	ldr.w	r9, [r5, #32]
   1caf4:	f7ff feb4 	bl	1c860 <_Unwind_GetGR>
   1caf8:	4581      	cmp	r9, r0
   1cafa:	d001      	beq.n	1cb00 <__gnu_unwind_pr_common+0x1c8>
   1cafc:	6823      	ldr	r3, [r4, #0]
   1cafe:	e7b6      	b.n	1ca6e <__gnu_unwind_pr_common+0x136>
   1cb00:	6aab      	ldr	r3, [r5, #40]	; 0x28
   1cb02:	429c      	cmp	r4, r3
   1cb04:	d1fa      	bne.n	1cafc <__gnu_unwind_pr_common+0x1c4>
   1cb06:	2204      	movs	r2, #4
   1cb08:	2100      	movs	r1, #0
   1cb0a:	e9c5 120b 	strd	r1, r2, [r5, #44]	; 0x2c
   1cb0e:	18a3      	adds	r3, r4, r2
   1cb10:	f8c5 b028 	str.w	fp, [r5, #40]	; 0x28
   1cb14:	636b      	str	r3, [r5, #52]	; 0x34
   1cb16:	6823      	ldr	r3, [r4, #0]
   1cb18:	428b      	cmp	r3, r1
   1cb1a:	db59      	blt.n	1cbd0 <__gnu_unwind_pr_common+0x298>
   1cb1c:	2301      	movs	r3, #1
   1cb1e:	9301      	str	r3, [sp, #4]
   1cb20:	e7a8      	b.n	1ca74 <__gnu_unwind_pr_common+0x13c>
   1cb22:	f105 0358 	add.w	r3, r5, #88	; 0x58
   1cb26:	f8cd 800c 	str.w	r8, [sp, #12]
   1cb2a:	f104 0a04 	add.w	sl, r4, #4
   1cb2e:	46b0      	mov	r8, r6
   1cb30:	4691      	mov	r9, r2
   1cb32:	461e      	mov	r6, r3
   1cb34:	e00d      	b.n	1cb52 <__gnu_unwind_pr_common+0x21a>
   1cb36:	9604      	str	r6, [sp, #16]
   1cb38:	f7ff fd7e 	bl	1c638 <_Unwind_decode_typeinfo_ptr.isra.0>
   1cb3c:	ab04      	add	r3, sp, #16
   1cb3e:	4601      	mov	r1, r0
   1cb40:	2200      	movs	r2, #0
   1cb42:	4628      	mov	r0, r5
   1cb44:	f3af 8000 	nop.w
   1cb48:	f109 0901 	add.w	r9, r9, #1
   1cb4c:	f10a 0a04 	add.w	sl, sl, #4
   1cb50:	b9e8      	cbnz	r0, 1cb8e <__gnu_unwind_pr_common+0x256>
   1cb52:	45d9      	cmp	r9, fp
   1cb54:	4650      	mov	r0, sl
   1cb56:	d1ee      	bne.n	1cb36 <__gnu_unwind_pr_common+0x1fe>
   1cb58:	4638      	mov	r0, r7
   1cb5a:	210d      	movs	r1, #13
   1cb5c:	f7ff fe80 	bl	1c860 <_Unwind_GetGR>
   1cb60:	9b04      	ldr	r3, [sp, #16]
   1cb62:	6228      	str	r0, [r5, #32]
   1cb64:	e9c5 3409 	strd	r3, r4, [r5, #36]	; 0x24
   1cb68:	2006      	movs	r0, #6
   1cb6a:	e710      	b.n	1c98e <__gnu_unwind_pr_common+0x56>
   1cb6c:	4681      	mov	r9, r0
   1cb6e:	210d      	movs	r1, #13
   1cb70:	4638      	mov	r0, r7
   1cb72:	f7ff fe75 	bl	1c860 <_Unwind_GetGR>
   1cb76:	f1b9 0f02 	cmp.w	r9, #2
   1cb7a:	6228      	str	r0, [r5, #32]
   1cb7c:	d125      	bne.n	1cbca <__gnu_unwind_pr_common+0x292>
   1cb7e:	462b      	mov	r3, r5
   1cb80:	9a04      	ldr	r2, [sp, #16]
   1cb82:	f843 2f2c 	str.w	r2, [r3, #44]!
   1cb86:	626b      	str	r3, [r5, #36]	; 0x24
   1cb88:	62ac      	str	r4, [r5, #40]	; 0x28
   1cb8a:	2006      	movs	r0, #6
   1cb8c:	e6ff      	b.n	1c98e <__gnu_unwind_pr_common+0x56>
   1cb8e:	4646      	mov	r6, r8
   1cb90:	6823      	ldr	r3, [r4, #0]
   1cb92:	f8dd 800c 	ldr.w	r8, [sp, #12]
   1cb96:	e76a      	b.n	1ca6e <__gnu_unwind_pr_common+0x136>
   1cb98:	4620      	mov	r0, r4
   1cb9a:	f7ff fc87 	bl	1c4ac <selfrel_offset31>
   1cb9e:	3404      	adds	r4, #4
   1cba0:	4602      	mov	r2, r0
   1cba2:	63ac      	str	r4, [r5, #56]	; 0x38
   1cba4:	4628      	mov	r0, r5
   1cba6:	4614      	mov	r4, r2
   1cba8:	f3af 8000 	nop.w
   1cbac:	2800      	cmp	r0, #0
   1cbae:	f43f aeed 	beq.w	1c98c <__gnu_unwind_pr_common+0x54>
   1cbb2:	4638      	mov	r0, r7
   1cbb4:	4622      	mov	r2, r4
   1cbb6:	210f      	movs	r1, #15
   1cbb8:	f7ff fe76 	bl	1c8a8 <_Unwind_SetGR>
   1cbbc:	2007      	movs	r0, #7
   1cbbe:	e6e6      	b.n	1c98e <__gnu_unwind_pr_common+0x56>
   1cbc0:	4638      	mov	r0, r7
   1cbc2:	210d      	movs	r1, #13
   1cbc4:	f7ff fe4c 	bl	1c860 <_Unwind_GetGR>
   1cbc8:	6228      	str	r0, [r5, #32]
   1cbca:	9b04      	ldr	r3, [sp, #16]
   1cbcc:	626b      	str	r3, [r5, #36]	; 0x24
   1cbce:	e7db      	b.n	1cb88 <__gnu_unwind_pr_common+0x250>
   1cbd0:	f10b 0001 	add.w	r0, fp, #1
   1cbd4:	eb04 0080 	add.w	r0, r4, r0, lsl #2
   1cbd8:	e77a      	b.n	1cad0 <__gnu_unwind_pr_common+0x198>
   1cbda:	bf00      	nop
   1cbdc:	00000000 	.word	0x00000000

0001cbe0 <__aeabi_unwind_cpp_pr0>:
   1cbe0:	2300      	movs	r3, #0
   1cbe2:	e6a9      	b.n	1c938 <__gnu_unwind_pr_common>

0001cbe4 <__aeabi_unwind_cpp_pr1>:
   1cbe4:	2301      	movs	r3, #1
   1cbe6:	e6a7      	b.n	1c938 <__gnu_unwind_pr_common>

0001cbe8 <__aeabi_unwind_cpp_pr2>:
   1cbe8:	2302      	movs	r3, #2
   1cbea:	e6a5      	b.n	1c938 <__gnu_unwind_pr_common>

0001cbec <_Unwind_VRS_Pop>:
   1cbec:	e92d 43f0 	stmdb	sp!, {r4, r5, r6, r7, r8, r9, lr}
   1cbf0:	4606      	mov	r6, r0
   1cbf2:	b0c3      	sub	sp, #268	; 0x10c
   1cbf4:	4615      	mov	r5, r2
   1cbf6:	461c      	mov	r4, r3
   1cbf8:	2904      	cmp	r1, #4
   1cbfa:	f200 80b9 	bhi.w	1cd70 <_Unwind_VRS_Pop+0x184>
   1cbfe:	e8df f001 	tbb	[pc, r1]
   1cc02:	539a      	.short	0x539a
   1cc04:	29b7      	.short	0x29b7
   1cc06:	03          	.byte	0x03
   1cc07:	00          	.byte	0x00
   1cc08:	2c00      	cmp	r4, #0
   1cc0a:	f040 80b1 	bne.w	1cd70 <_Unwind_VRS_Pop+0x184>
   1cc0e:	2a10      	cmp	r2, #16
   1cc10:	f200 80ae 	bhi.w	1cd70 <_Unwind_VRS_Pop+0x184>
   1cc14:	6803      	ldr	r3, [r0, #0]
   1cc16:	06d8      	lsls	r0, r3, #27
   1cc18:	f100 80f3 	bmi.w	1ce02 <_Unwind_VRS_Pop+0x216>
   1cc1c:	af20      	add	r7, sp, #128	; 0x80
   1cc1e:	4638      	mov	r0, r7
   1cc20:	f000 f992 	bl	1cf48 <__gnu_Unwind_Save_WMMXC>
   1cc24:	6bb0      	ldr	r0, [r6, #56]	; 0x38
   1cc26:	2300      	movs	r3, #0
   1cc28:	2401      	movs	r4, #1
   1cc2a:	fa04 f203 	lsl.w	r2, r4, r3
   1cc2e:	422a      	tst	r2, r5
   1cc30:	4601      	mov	r1, r0
   1cc32:	d004      	beq.n	1cc3e <_Unwind_VRS_Pop+0x52>
   1cc34:	f851 2b04 	ldr.w	r2, [r1], #4
   1cc38:	f847 2023 	str.w	r2, [r7, r3, lsl #2]
   1cc3c:	4608      	mov	r0, r1
   1cc3e:	3301      	adds	r3, #1
   1cc40:	2b04      	cmp	r3, #4
   1cc42:	d1f2      	bne.n	1cc2a <_Unwind_VRS_Pop+0x3e>
   1cc44:	63b0      	str	r0, [r6, #56]	; 0x38
   1cc46:	4638      	mov	r0, r7
   1cc48:	f000 f974 	bl	1cf34 <__gnu_Unwind_Restore_WMMXC>
   1cc4c:	2000      	movs	r0, #0
   1cc4e:	b043      	add	sp, #268	; 0x10c
   1cc50:	e8bd 83f0 	ldmia.w	sp!, {r4, r5, r6, r7, r8, r9, pc}
   1cc54:	2c03      	cmp	r4, #3
   1cc56:	f040 808b 	bne.w	1cd70 <_Unwind_VRS_Pop+0x184>
   1cc5a:	b294      	uxth	r4, r2
   1cc5c:	eb04 4312 	add.w	r3, r4, r2, lsr #16
   1cc60:	2b10      	cmp	r3, #16
   1cc62:	ea4f 4512 	mov.w	r5, r2, lsr #16
   1cc66:	f200 8083 	bhi.w	1cd70 <_Unwind_VRS_Pop+0x184>
   1cc6a:	6803      	ldr	r3, [r0, #0]
   1cc6c:	071f      	lsls	r7, r3, #28
   1cc6e:	f100 80d0 	bmi.w	1ce12 <_Unwind_VRS_Pop+0x226>
   1cc72:	af20      	add	r7, sp, #128	; 0x80
   1cc74:	4638      	mov	r0, r7
   1cc76:	f000 f93b 	bl	1cef0 <__gnu_Unwind_Save_WMMXD>
   1cc7a:	eb07 01c5 	add.w	r1, r7, r5, lsl #3
   1cc7e:	6bb5      	ldr	r5, [r6, #56]	; 0x38
   1cc80:	b154      	cbz	r4, 1cc98 <_Unwind_VRS_Pop+0xac>
   1cc82:	460b      	mov	r3, r1
   1cc84:	1ae8      	subs	r0, r5, r3
   1cc86:	eb01 01c4 	add.w	r1, r1, r4, lsl #3
   1cc8a:	00e4      	lsls	r4, r4, #3
   1cc8c:	581a      	ldr	r2, [r3, r0]
   1cc8e:	f843 2b04 	str.w	r2, [r3], #4
   1cc92:	428b      	cmp	r3, r1
   1cc94:	d1fa      	bne.n	1cc8c <_Unwind_VRS_Pop+0xa0>
   1cc96:	4425      	add	r5, r4
   1cc98:	4638      	mov	r0, r7
   1cc9a:	63b5      	str	r5, [r6, #56]	; 0x38
   1cc9c:	f000 f906 	bl	1ceac <__gnu_Unwind_Restore_WMMXD>
   1cca0:	2000      	movs	r0, #0
   1cca2:	b043      	add	sp, #268	; 0x10c
   1cca4:	e8bd 83f0 	ldmia.w	sp!, {r4, r5, r6, r7, r8, r9, pc}
   1cca8:	2c01      	cmp	r4, #1
   1ccaa:	ea4f 4812 	mov.w	r8, r2, lsr #16
   1ccae:	b295      	uxth	r5, r2
   1ccb0:	d05a      	beq.n	1cd68 <_Unwind_VRS_Pop+0x17c>
   1ccb2:	2c05      	cmp	r4, #5
   1ccb4:	d15c      	bne.n	1cd70 <_Unwind_VRS_Pop+0x184>
   1ccb6:	eb08 0905 	add.w	r9, r8, r5
   1ccba:	f1b9 0f20 	cmp.w	r9, #32
   1ccbe:	d857      	bhi.n	1cd70 <_Unwind_VRS_Pop+0x184>
   1ccc0:	f1b8 0f0f 	cmp.w	r8, #15
   1ccc4:	d977      	bls.n	1cdb6 <_Unwind_VRS_Pop+0x1ca>
   1ccc6:	46a9      	mov	r9, r5
   1ccc8:	2d00      	cmp	r5, #0
   1ccca:	f040 8088 	bne.w	1cdde <_Unwind_VRS_Pop+0x1f2>
   1ccce:	6bb3      	ldr	r3, [r6, #56]	; 0x38
   1ccd0:	b36d      	cbz	r5, 1cd2e <_Unwind_VRS_Pop+0x142>
   1ccd2:	af20      	add	r7, sp, #128	; 0x80
   1ccd4:	f04f 0900 	mov.w	r9, #0
   1ccd8:	eb07 07c8 	add.w	r7, r7, r8, lsl #3
   1ccdc:	3f04      	subs	r7, #4
   1ccde:	eb03 05c5 	add.w	r5, r3, r5, lsl #3
   1cce2:	f853 1b04 	ldr.w	r1, [r3], #4
   1cce6:	f847 1f04 	str.w	r1, [r7, #4]!
   1ccea:	42ab      	cmp	r3, r5
   1ccec:	d1f9      	bne.n	1cce2 <_Unwind_VRS_Pop+0xf6>
   1ccee:	f1b9 0f00 	cmp.w	r9, #0
   1ccf2:	d00f      	beq.n	1cd14 <_Unwind_VRS_Pop+0x128>
   1ccf4:	466f      	mov	r7, sp
   1ccf6:	4641      	mov	r1, r8
   1ccf8:	2910      	cmp	r1, #16
   1ccfa:	bf38      	it	cc
   1ccfc:	2110      	movcc	r1, #16
   1ccfe:	eb07 01c1 	add.w	r1, r7, r1, lsl #3
   1cd02:	3984      	subs	r1, #132	; 0x84
   1cd04:	eb03 05c9 	add.w	r5, r3, r9, lsl #3
   1cd08:	f853 0b04 	ldr.w	r0, [r3], #4
   1cd0c:	f841 0f04 	str.w	r0, [r1, #4]!
   1cd10:	42ab      	cmp	r3, r5
   1cd12:	d1f9      	bne.n	1cd08 <_Unwind_VRS_Pop+0x11c>
   1cd14:	2c01      	cmp	r4, #1
   1cd16:	f000 8084 	beq.w	1ce22 <_Unwind_VRS_Pop+0x236>
   1cd1a:	f1b8 0f0f 	cmp.w	r8, #15
   1cd1e:	63b5      	str	r5, [r6, #56]	; 0x38
   1cd20:	d945      	bls.n	1cdae <_Unwind_VRS_Pop+0x1c2>
   1cd22:	f1b9 0f00 	cmp.w	r9, #0
   1cd26:	d002      	beq.n	1cd2e <_Unwind_VRS_Pop+0x142>
   1cd28:	4668      	mov	r0, sp
   1cd2a:	f000 f8b7 	bl	1ce9c <__gnu_Unwind_Restore_VFP_D_16_to_31>
   1cd2e:	2000      	movs	r0, #0
   1cd30:	b043      	add	sp, #268	; 0x10c
   1cd32:	e8bd 83f0 	ldmia.w	sp!, {r4, r5, r6, r7, r8, r9, pc}
   1cd36:	b9dc      	cbnz	r4, 1cd70 <_Unwind_VRS_Pop+0x184>
   1cd38:	6b87      	ldr	r7, [r0, #56]	; 0x38
   1cd3a:	4623      	mov	r3, r4
   1cd3c:	2001      	movs	r0, #1
   1cd3e:	b294      	uxth	r4, r2
   1cd40:	f106 0c04 	add.w	ip, r6, #4
   1cd44:	fa00 f203 	lsl.w	r2, r0, r3
   1cd48:	4222      	tst	r2, r4
   1cd4a:	4639      	mov	r1, r7
   1cd4c:	d004      	beq.n	1cd58 <_Unwind_VRS_Pop+0x16c>
   1cd4e:	f851 2b04 	ldr.w	r2, [r1], #4
   1cd52:	f84c 2023 	str.w	r2, [ip, r3, lsl #2]
   1cd56:	460f      	mov	r7, r1
   1cd58:	3301      	adds	r3, #1
   1cd5a:	2b10      	cmp	r3, #16
   1cd5c:	d1f2      	bne.n	1cd44 <_Unwind_VRS_Pop+0x158>
   1cd5e:	f415 5000 	ands.w	r0, r5, #8192	; 0x2000
   1cd62:	d1e4      	bne.n	1cd2e <_Unwind_VRS_Pop+0x142>
   1cd64:	63b7      	str	r7, [r6, #56]	; 0x38
   1cd66:	e004      	b.n	1cd72 <_Unwind_VRS_Pop+0x186>
   1cd68:	eb08 0305 	add.w	r3, r8, r5
   1cd6c:	2b10      	cmp	r3, #16
   1cd6e:	d903      	bls.n	1cd78 <_Unwind_VRS_Pop+0x18c>
   1cd70:	2002      	movs	r0, #2
   1cd72:	b043      	add	sp, #268	; 0x10c
   1cd74:	e8bd 83f0 	ldmia.w	sp!, {r4, r5, r6, r7, r8, r9, pc}
   1cd78:	f1b8 0f0f 	cmp.w	r8, #15
   1cd7c:	d8f8      	bhi.n	1cd70 <_Unwind_VRS_Pop+0x184>
   1cd7e:	6833      	ldr	r3, [r6, #0]
   1cd80:	07da      	lsls	r2, r3, #31
   1cd82:	d506      	bpl.n	1cd92 <_Unwind_VRS_Pop+0x1a6>
   1cd84:	4630      	mov	r0, r6
   1cd86:	f023 0303 	bic.w	r3, r3, #3
   1cd8a:	f840 3b48 	str.w	r3, [r0], #72
   1cd8e:	f000 f879 	bl	1ce84 <__gnu_Unwind_Save_VFP>
   1cd92:	af20      	add	r7, sp, #128	; 0x80
   1cd94:	4638      	mov	r0, r7
   1cd96:	f000 f875 	bl	1ce84 <__gnu_Unwind_Save_VFP>
   1cd9a:	6bb3      	ldr	r3, [r6, #56]	; 0x38
   1cd9c:	2d00      	cmp	r5, #0
   1cd9e:	d199      	bne.n	1ccd4 <_Unwind_VRS_Pop+0xe8>
   1cda0:	461d      	mov	r5, r3
   1cda2:	3504      	adds	r5, #4
   1cda4:	63b5      	str	r5, [r6, #56]	; 0x38
   1cda6:	4638      	mov	r0, r7
   1cda8:	f000 f868 	bl	1ce7c <__gnu_Unwind_Restore_VFP>
   1cdac:	e7bf      	b.n	1cd2e <_Unwind_VRS_Pop+0x142>
   1cdae:	a820      	add	r0, sp, #128	; 0x80
   1cdb0:	f000 f86c 	bl	1ce8c <__gnu_Unwind_Restore_VFP_D>
   1cdb4:	e7b5      	b.n	1cd22 <_Unwind_VRS_Pop+0x136>
   1cdb6:	f1b9 0f10 	cmp.w	r9, #16
   1cdba:	d940      	bls.n	1ce3e <_Unwind_VRS_Pop+0x252>
   1cdbc:	f1a9 0910 	sub.w	r9, r9, #16
   1cdc0:	6833      	ldr	r3, [r6, #0]
   1cdc2:	07d9      	lsls	r1, r3, #31
   1cdc4:	d508      	bpl.n	1cdd8 <_Unwind_VRS_Pop+0x1ec>
   1cdc6:	f023 0301 	bic.w	r3, r3, #1
   1cdca:	4630      	mov	r0, r6
   1cdcc:	f043 0302 	orr.w	r3, r3, #2
   1cdd0:	f840 3b48 	str.w	r3, [r0], #72
   1cdd4:	f000 f85e 	bl	1ce94 <__gnu_Unwind_Save_VFP_D>
   1cdd8:	f1b9 0f00 	cmp.w	r9, #0
   1cddc:	d032      	beq.n	1ce44 <_Unwind_VRS_Pop+0x258>
   1cdde:	6833      	ldr	r3, [r6, #0]
   1cde0:	075a      	lsls	r2, r3, #29
   1cde2:	d420      	bmi.n	1ce26 <_Unwind_VRS_Pop+0x23a>
   1cde4:	f1b8 0f0f 	cmp.w	r8, #15
   1cde8:	d925      	bls.n	1ce36 <_Unwind_VRS_Pop+0x24a>
   1cdea:	466f      	mov	r7, sp
   1cdec:	4638      	mov	r0, r7
   1cdee:	f1c8 0510 	rsb	r5, r8, #16
   1cdf2:	f000 f857 	bl	1cea4 <__gnu_Unwind_Save_VFP_D_16_to_31>
   1cdf6:	2d00      	cmp	r5, #0
   1cdf8:	6bb3      	ldr	r3, [r6, #56]	; 0x38
   1cdfa:	f77f af7c 	ble.w	1ccf6 <_Unwind_VRS_Pop+0x10a>
   1cdfe:	af20      	add	r7, sp, #128	; 0x80
   1ce00:	e76a      	b.n	1ccd8 <_Unwind_VRS_Pop+0xec>
   1ce02:	f023 0310 	bic.w	r3, r3, #16
   1ce06:	6033      	str	r3, [r6, #0]
   1ce08:	f506 70e8 	add.w	r0, r6, #464	; 0x1d0
   1ce0c:	f000 f89c 	bl	1cf48 <__gnu_Unwind_Save_WMMXC>
   1ce10:	e704      	b.n	1cc1c <_Unwind_VRS_Pop+0x30>
   1ce12:	f023 0308 	bic.w	r3, r3, #8
   1ce16:	6003      	str	r3, [r0, #0]
   1ce18:	f500 70a8 	add.w	r0, r0, #336	; 0x150
   1ce1c:	f000 f868 	bl	1cef0 <__gnu_Unwind_Save_WMMXD>
   1ce20:	e727      	b.n	1cc72 <_Unwind_VRS_Pop+0x86>
   1ce22:	af20      	add	r7, sp, #128	; 0x80
   1ce24:	e7bd      	b.n	1cda2 <_Unwind_VRS_Pop+0x1b6>
   1ce26:	4630      	mov	r0, r6
   1ce28:	f023 0304 	bic.w	r3, r3, #4
   1ce2c:	f840 3bd0 	str.w	r3, [r0], #208
   1ce30:	f000 f838 	bl	1cea4 <__gnu_Unwind_Save_VFP_D_16_to_31>
   1ce34:	e7d6      	b.n	1cde4 <_Unwind_VRS_Pop+0x1f8>
   1ce36:	a820      	add	r0, sp, #128	; 0x80
   1ce38:	f000 f82c 	bl	1ce94 <__gnu_Unwind_Save_VFP_D>
   1ce3c:	e7d5      	b.n	1cdea <_Unwind_VRS_Pop+0x1fe>
   1ce3e:	f04f 0900 	mov.w	r9, #0
   1ce42:	e7bd      	b.n	1cdc0 <_Unwind_VRS_Pop+0x1d4>
   1ce44:	f1b8 0f0f 	cmp.w	r8, #15
   1ce48:	f63f af41 	bhi.w	1ccce <_Unwind_VRS_Pop+0xe2>
   1ce4c:	af20      	add	r7, sp, #128	; 0x80
   1ce4e:	4638      	mov	r0, r7
   1ce50:	f000 f820 	bl	1ce94 <__gnu_Unwind_Save_VFP_D>
   1ce54:	6bb3      	ldr	r3, [r6, #56]	; 0x38
   1ce56:	2d00      	cmp	r5, #0
   1ce58:	f47f af3c 	bne.w	1ccd4 <_Unwind_VRS_Pop+0xe8>
   1ce5c:	4638      	mov	r0, r7
   1ce5e:	f000 f815 	bl	1ce8c <__gnu_Unwind_Restore_VFP_D>
   1ce62:	e764      	b.n	1cd2e <_Unwind_VRS_Pop+0x142>

0001ce64 <__restore_core_regs>:
   1ce64:	f100 0134 	add.w	r1, r0, #52	; 0x34
   1ce68:	e891 0038 	ldmia.w	r1, {r3, r4, r5}
   1ce6c:	469c      	mov	ip, r3
   1ce6e:	46a6      	mov	lr, r4
   1ce70:	f84c 5d04 	str.w	r5, [ip, #-4]!
   1ce74:	e890 0fff 	ldmia.w	r0, {r0, r1, r2, r3, r4, r5, r6, r7, r8, r9, sl, fp}
   1ce78:	46e5      	mov	sp, ip
   1ce7a:	bd00      	pop	{pc}

0001ce7c <__gnu_Unwind_Restore_VFP>:
   1ce7c:	ec90 0b21 	fldmiax	r0, {d0-d15}	;@ Deprecated
   1ce80:	4770      	bx	lr
   1ce82:	bf00      	nop

0001ce84 <__gnu_Unwind_Save_VFP>:
   1ce84:	ec80 0b21 	fstmiax	r0, {d0-d15}	;@ Deprecated
   1ce88:	4770      	bx	lr
   1ce8a:	bf00      	nop

0001ce8c <__gnu_Unwind_Restore_VFP_D>:
   1ce8c:	ec90 0b20 	vldmia	r0, {d0-d15}
   1ce90:	4770      	bx	lr
   1ce92:	bf00      	nop

0001ce94 <__gnu_Unwind_Save_VFP_D>:
   1ce94:	ec80 0b20 	vstmia	r0, {d0-d15}
   1ce98:	4770      	bx	lr
   1ce9a:	bf00      	nop

0001ce9c <__gnu_Unwind_Restore_VFP_D_16_to_31>:
   1ce9c:	ecd0 0b20 	vldmia	r0, {d16-d31}
   1cea0:	4770      	bx	lr
   1cea2:	bf00      	nop

0001cea4 <__gnu_Unwind_Save_VFP_D_16_to_31>:
   1cea4:	ecc0 0b20 	vstmia	r0, {d16-d31}
   1cea8:	4770      	bx	lr
   1ceaa:	bf00      	nop

0001ceac <__gnu_Unwind_Restore_WMMXD>:
   1ceac:	ecf0 0102 	ldfe	f0, [r0], #8
   1ceb0:	ecf0 1102 	ldfe	f1, [r0], #8
   1ceb4:	ecf0 2102 	ldfe	f2, [r0], #8
   1ceb8:	ecf0 3102 	ldfe	f3, [r0], #8
   1cebc:	ecf0 4102 	ldfe	f4, [r0], #8
   1cec0:	ecf0 5102 	ldfe	f5, [r0], #8
   1cec4:	ecf0 6102 	ldfe	f6, [r0], #8
   1cec8:	ecf0 7102 	ldfe	f7, [r0], #8
   1cecc:	ecf0 8102 	ldfp	f0, [r0], #8
   1ced0:	ecf0 9102 	ldfp	f1, [r0], #8
   1ced4:	ecf0 a102 	ldfp	f2, [r0], #8
   1ced8:	ecf0 b102 	ldfp	f3, [r0], #8
   1cedc:	ecf0 c102 	ldfp	f4, [r0], #8
   1cee0:	ecf0 d102 	ldfp	f5, [r0], #8
   1cee4:	ecf0 e102 	ldfp	f6, [r0], #8
   1cee8:	ecf0 f102 	ldfp	f7, [r0], #8
   1ceec:	4770      	bx	lr
   1ceee:	bf00      	nop

0001cef0 <__gnu_Unwind_Save_WMMXD>:
   1cef0:	ece0 0102 	stfe	f0, [r0], #8
   1cef4:	ece0 1102 	stfe	f1, [r0], #8
   1cef8:	ece0 2102 	stfe	f2, [r0], #8
   1cefc:	ece0 3102 	stfe	f3, [r0], #8
   1cf00:	ece0 4102 	stfe	f4, [r0], #8
   1cf04:	ece0 5102 	stfe	f5, [r0], #8
   1cf08:	ece0 6102 	stfe	f6, [r0], #8
   1cf0c:	ece0 7102 	stfe	f7, [r0], #8
   1cf10:	ece0 8102 	stfp	f0, [r0], #8
   1cf14:	ece0 9102 	stfp	f1, [r0], #8
   1cf18:	ece0 a102 	stfp	f2, [r0], #8
   1cf1c:	ece0 b102 	stfp	f3, [r0], #8
   1cf20:	ece0 c102 	stfp	f4, [r0], #8
   1cf24:	ece0 d102 	stfp	f5, [r0], #8
   1cf28:	ece0 e102 	stfp	f6, [r0], #8
   1cf2c:	ece0 f102 	stfp	f7, [r0], #8
   1cf30:	4770      	bx	lr
   1cf32:	bf00      	nop

0001cf34 <__gnu_Unwind_Restore_WMMXC>:
   1cf34:	fcb0 8101 	ldc2	1, cr8, [r0], #4
   1cf38:	fcb0 9101 	ldc2	1, cr9, [r0], #4
   1cf3c:	fcb0 a101 	ldc2	1, cr10, [r0], #4
   1cf40:	fcb0 b101 	ldc2	1, cr11, [r0], #4
   1cf44:	4770      	bx	lr
   1cf46:	bf00      	nop

0001cf48 <__gnu_Unwind_Save_WMMXC>:
   1cf48:	fca0 8101 	stc2	1, cr8, [r0], #4
   1cf4c:	fca0 9101 	stc2	1, cr9, [r0], #4
   1cf50:	fca0 a101 	stc2	1, cr10, [r0], #4
   1cf54:	fca0 b101 	stc2	1, cr11, [r0], #4
   1cf58:	4770      	bx	lr
   1cf5a:	bf00      	nop

0001cf5c <_Unwind_RaiseException>:
   1cf5c:	46ec      	mov	ip, sp
   1cf5e:	b500      	push	{lr}
   1cf60:	e92d 5000 	stmdb	sp!, {ip, lr}
   1cf64:	e92d 1fff 	stmdb	sp!, {r0, r1, r2, r3, r4, r5, r6, r7, r8, r9, sl, fp, ip}
   1cf68:	f04f 0300 	mov.w	r3, #0
   1cf6c:	e92d 000c 	stmdb	sp!, {r2, r3}
   1cf70:	a901      	add	r1, sp, #4
   1cf72:	f7ff fbf1 	bl	1c758 <__gnu_Unwind_RaiseException>
   1cf76:	f8dd e040 	ldr.w	lr, [sp, #64]	; 0x40
   1cf7a:	b012      	add	sp, #72	; 0x48
   1cf7c:	4770      	bx	lr
   1cf7e:	bf00      	nop

0001cf80 <_Unwind_Resume>:
   1cf80:	46ec      	mov	ip, sp
   1cf82:	b500      	push	{lr}
   1cf84:	e92d 5000 	stmdb	sp!, {ip, lr}
   1cf88:	e92d 1fff 	stmdb	sp!, {r0, r1, r2, r3, r4, r5, r6, r7, r8, r9, sl, fp, ip}
   1cf8c:	f04f 0300 	mov.w	r3, #0
   1cf90:	e92d 000c 	stmdb	sp!, {r2, r3}
   1cf94:	a901      	add	r1, sp, #4
   1cf96:	f7ff fc19 	bl	1c7cc <__gnu_Unwind_Resume>
   1cf9a:	f8dd e040 	ldr.w	lr, [sp, #64]	; 0x40
   1cf9e:	b012      	add	sp, #72	; 0x48
   1cfa0:	4770      	bx	lr
   1cfa2:	bf00      	nop

0001cfa4 <_Unwind_Resume_or_Rethrow>:
   1cfa4:	46ec      	mov	ip, sp
   1cfa6:	b500      	push	{lr}
   1cfa8:	e92d 5000 	stmdb	sp!, {ip, lr}
   1cfac:	e92d 1fff 	stmdb	sp!, {r0, r1, r2, r3, r4, r5, r6, r7, r8, r9, sl, fp, ip}
   1cfb0:	f04f 0300 	mov.w	r3, #0
   1cfb4:	e92d 000c 	stmdb	sp!, {r2, r3}
   1cfb8:	a901      	add	r1, sp, #4
   1cfba:	f7ff fc29 	bl	1c810 <__gnu_Unwind_Resume_or_Rethrow>
   1cfbe:	f8dd e040 	ldr.w	lr, [sp, #64]	; 0x40
   1cfc2:	b012      	add	sp, #72	; 0x48
   1cfc4:	4770      	bx	lr
   1cfc6:	bf00      	nop

0001cfc8 <_Unwind_ForcedUnwind>:
   1cfc8:	46ec      	mov	ip, sp
   1cfca:	b500      	push	{lr}
   1cfcc:	e92d 5000 	stmdb	sp!, {ip, lr}
   1cfd0:	e92d 1fff 	stmdb	sp!, {r0, r1, r2, r3, r4, r5, r6, r7, r8, r9, sl, fp, ip}
   1cfd4:	f04f 0300 	mov.w	r3, #0
   1cfd8:	e92d 000c 	stmdb	sp!, {r2, r3}
   1cfdc:	ab01      	add	r3, sp, #4
   1cfde:	f7ff fbeb 	bl	1c7b8 <__gnu_Unwind_ForcedUnwind>
   1cfe2:	f8dd e040 	ldr.w	lr, [sp, #64]	; 0x40
   1cfe6:	b012      	add	sp, #72	; 0x48
   1cfe8:	4770      	bx	lr
   1cfea:	bf00      	nop

0001cfec <_Unwind_Backtrace>:
   1cfec:	46ec      	mov	ip, sp
   1cfee:	b500      	push	{lr}
   1cff0:	e92d 5000 	stmdb	sp!, {ip, lr}
   1cff4:	e92d 1fff 	stmdb	sp!, {r0, r1, r2, r3, r4, r5, r6, r7, r8, r9, sl, fp, ip}
   1cff8:	f04f 0300 	mov.w	r3, #0
   1cffc:	e92d 000c 	stmdb	sp!, {r2, r3}
   1d000:	aa01      	add	r2, sp, #4
   1d002:	f7ff fc5d 	bl	1c8c0 <__gnu_Unwind_Backtrace>
   1d006:	f8dd e040 	ldr.w	lr, [sp, #64]	; 0x40
   1d00a:	b012      	add	sp, #72	; 0x48
   1d00c:	4770      	bx	lr
   1d00e:	bf00      	nop

0001d010 <next_unwind_byte>:
   1d010:	7a02      	ldrb	r2, [r0, #8]
   1d012:	b97a      	cbnz	r2, 1d034 <next_unwind_byte+0x24>
   1d014:	7a43      	ldrb	r3, [r0, #9]
   1d016:	b1a3      	cbz	r3, 1d042 <next_unwind_byte+0x32>
   1d018:	6842      	ldr	r2, [r0, #4]
   1d01a:	3b01      	subs	r3, #1
   1d01c:	b410      	push	{r4}
   1d01e:	7243      	strb	r3, [r0, #9]
   1d020:	6813      	ldr	r3, [r2, #0]
   1d022:	2103      	movs	r1, #3
   1d024:	1d14      	adds	r4, r2, #4
   1d026:	7201      	strb	r1, [r0, #8]
   1d028:	021a      	lsls	r2, r3, #8
   1d02a:	6044      	str	r4, [r0, #4]
   1d02c:	6002      	str	r2, [r0, #0]
   1d02e:	bc10      	pop	{r4}
   1d030:	0e18      	lsrs	r0, r3, #24
   1d032:	4770      	bx	lr
   1d034:	6803      	ldr	r3, [r0, #0]
   1d036:	3a01      	subs	r2, #1
   1d038:	7202      	strb	r2, [r0, #8]
   1d03a:	021a      	lsls	r2, r3, #8
   1d03c:	6002      	str	r2, [r0, #0]
   1d03e:	0e18      	lsrs	r0, r3, #24
   1d040:	4770      	bx	lr
   1d042:	20b0      	movs	r0, #176	; 0xb0
   1d044:	4770      	bx	lr
   1d046:	bf00      	nop

0001d048 <_Unwind_GetGR.constprop.0>:
   1d048:	b500      	push	{lr}
   1d04a:	b085      	sub	sp, #20
   1d04c:	aa03      	add	r2, sp, #12
   1d04e:	2300      	movs	r3, #0
   1d050:	9200      	str	r2, [sp, #0]
   1d052:	4619      	mov	r1, r3
   1d054:	220c      	movs	r2, #12
   1d056:	f7ff fbeb 	bl	1c830 <_Unwind_VRS_Get>
   1d05a:	9803      	ldr	r0, [sp, #12]
   1d05c:	b005      	add	sp, #20
   1d05e:	f85d fb04 	ldr.w	pc, [sp], #4
   1d062:	bf00      	nop

0001d064 <unwind_UCB_from_context>:
   1d064:	e7f0      	b.n	1d048 <_Unwind_GetGR.constprop.0>
   1d066:	bf00      	nop

0001d068 <__gnu_unwind_execute>:
   1d068:	e92d 43f0 	stmdb	sp!, {r4, r5, r6, r7, r8, r9, lr}
   1d06c:	4605      	mov	r5, r0
   1d06e:	b085      	sub	sp, #20
   1d070:	460e      	mov	r6, r1
   1d072:	f04f 0800 	mov.w	r8, #0
   1d076:	4630      	mov	r0, r6
   1d078:	f7ff ffca 	bl	1d010 <next_unwind_byte>
   1d07c:	28b0      	cmp	r0, #176	; 0xb0
   1d07e:	4604      	mov	r4, r0
   1d080:	f000 80b2 	beq.w	1d1e8 <__gnu_unwind_execute+0x180>
   1d084:	0607      	lsls	r7, r0, #24
   1d086:	d520      	bpl.n	1d0ca <__gnu_unwind_execute+0x62>
   1d088:	f000 03f0 	and.w	r3, r0, #240	; 0xf0
   1d08c:	2b80      	cmp	r3, #128	; 0x80
   1d08e:	d04d      	beq.n	1d12c <__gnu_unwind_execute+0xc4>
   1d090:	2b90      	cmp	r3, #144	; 0x90
   1d092:	d036      	beq.n	1d102 <__gnu_unwind_execute+0x9a>
   1d094:	2ba0      	cmp	r3, #160	; 0xa0
   1d096:	d060      	beq.n	1d15a <__gnu_unwind_execute+0xf2>
   1d098:	2bb0      	cmp	r3, #176	; 0xb0
   1d09a:	d074      	beq.n	1d186 <__gnu_unwind_execute+0x11e>
   1d09c:	2bc0      	cmp	r3, #192	; 0xc0
   1d09e:	f000 808b 	beq.w	1d1b8 <__gnu_unwind_execute+0x150>
   1d0a2:	f000 03f8 	and.w	r3, r0, #248	; 0xf8
   1d0a6:	2bd0      	cmp	r3, #208	; 0xd0
   1d0a8:	d10b      	bne.n	1d0c2 <__gnu_unwind_execute+0x5a>
   1d0aa:	f000 0207 	and.w	r2, r0, #7
   1d0ae:	3201      	adds	r2, #1
   1d0b0:	f442 2200 	orr.w	r2, r2, #524288	; 0x80000
   1d0b4:	2305      	movs	r3, #5
   1d0b6:	2101      	movs	r1, #1
   1d0b8:	4628      	mov	r0, r5
   1d0ba:	f7ff fd97 	bl	1cbec <_Unwind_VRS_Pop>
   1d0be:	2800      	cmp	r0, #0
   1d0c0:	d0d9      	beq.n	1d076 <__gnu_unwind_execute+0xe>
   1d0c2:	2009      	movs	r0, #9
   1d0c4:	b005      	add	sp, #20
   1d0c6:	e8bd 83f0 	ldmia.w	sp!, {r4, r5, r6, r7, r8, r9, pc}
   1d0ca:	f10d 090c 	add.w	r9, sp, #12
   1d0ce:	2300      	movs	r3, #0
   1d0d0:	4619      	mov	r1, r3
   1d0d2:	0087      	lsls	r7, r0, #2
   1d0d4:	f8cd 9000 	str.w	r9, [sp]
   1d0d8:	220d      	movs	r2, #13
   1d0da:	4628      	mov	r0, r5
   1d0dc:	f7ff fba8 	bl	1c830 <_Unwind_VRS_Get>
   1d0e0:	b2ff      	uxtb	r7, r7
   1d0e2:	9b03      	ldr	r3, [sp, #12]
   1d0e4:	f8cd 9000 	str.w	r9, [sp]
   1d0e8:	3704      	adds	r7, #4
   1d0ea:	0660      	lsls	r0, r4, #25
   1d0ec:	bf4c      	ite	mi
   1d0ee:	1bdf      	submi	r7, r3, r7
   1d0f0:	18ff      	addpl	r7, r7, r3
   1d0f2:	2300      	movs	r3, #0
   1d0f4:	4619      	mov	r1, r3
   1d0f6:	220d      	movs	r2, #13
   1d0f8:	4628      	mov	r0, r5
   1d0fa:	9703      	str	r7, [sp, #12]
   1d0fc:	f7ff fbbc 	bl	1c878 <_Unwind_VRS_Set>
   1d100:	e7b9      	b.n	1d076 <__gnu_unwind_execute+0xe>
   1d102:	f000 030d 	and.w	r3, r0, #13
   1d106:	2b0d      	cmp	r3, #13
   1d108:	d0db      	beq.n	1d0c2 <__gnu_unwind_execute+0x5a>
   1d10a:	af03      	add	r7, sp, #12
   1d10c:	2300      	movs	r3, #0
   1d10e:	f000 020f 	and.w	r2, r0, #15
   1d112:	4619      	mov	r1, r3
   1d114:	9700      	str	r7, [sp, #0]
   1d116:	4628      	mov	r0, r5
   1d118:	f7ff fb8a 	bl	1c830 <_Unwind_VRS_Get>
   1d11c:	2300      	movs	r3, #0
   1d11e:	9700      	str	r7, [sp, #0]
   1d120:	4619      	mov	r1, r3
   1d122:	220d      	movs	r2, #13
   1d124:	4628      	mov	r0, r5
   1d126:	f7ff fba7 	bl	1c878 <_Unwind_VRS_Set>
   1d12a:	e7a4      	b.n	1d076 <__gnu_unwind_execute+0xe>
   1d12c:	4630      	mov	r0, r6
   1d12e:	f7ff ff6f 	bl	1d010 <next_unwind_byte>
   1d132:	0224      	lsls	r4, r4, #8
   1d134:	4320      	orrs	r0, r4
   1d136:	f5b0 4f00 	cmp.w	r0, #32768	; 0x8000
   1d13a:	d0c2      	beq.n	1d0c2 <__gnu_unwind_execute+0x5a>
   1d13c:	0104      	lsls	r4, r0, #4
   1d13e:	2300      	movs	r3, #0
   1d140:	b2a2      	uxth	r2, r4
   1d142:	4619      	mov	r1, r3
   1d144:	4628      	mov	r0, r5
   1d146:	f7ff fd51 	bl	1cbec <_Unwind_VRS_Pop>
   1d14a:	2800      	cmp	r0, #0
   1d14c:	d1b9      	bne.n	1d0c2 <__gnu_unwind_execute+0x5a>
   1d14e:	f414 4f00 	tst.w	r4, #32768	; 0x8000
   1d152:	bf18      	it	ne
   1d154:	f04f 0801 	movne.w	r8, #1
   1d158:	e78d      	b.n	1d076 <__gnu_unwind_execute+0xe>
   1d15a:	43c2      	mvns	r2, r0
   1d15c:	f002 0307 	and.w	r3, r2, #7
   1d160:	f44f 627f 	mov.w	r2, #4080	; 0xff0
   1d164:	411a      	asrs	r2, r3
   1d166:	0701      	lsls	r1, r0, #28
   1d168:	f402 627f 	and.w	r2, r2, #4080	; 0xff0
   1d16c:	f04f 0300 	mov.w	r3, #0
   1d170:	bf48      	it	mi
   1d172:	f442 4280 	orrmi.w	r2, r2, #16384	; 0x4000
   1d176:	4619      	mov	r1, r3
   1d178:	4628      	mov	r0, r5
   1d17a:	f7ff fd37 	bl	1cbec <_Unwind_VRS_Pop>
   1d17e:	2800      	cmp	r0, #0
   1d180:	f43f af79 	beq.w	1d076 <__gnu_unwind_execute+0xe>
   1d184:	e79d      	b.n	1d0c2 <__gnu_unwind_execute+0x5a>
   1d186:	28b1      	cmp	r0, #177	; 0xb1
   1d188:	d033      	beq.n	1d1f2 <__gnu_unwind_execute+0x18a>
   1d18a:	28b2      	cmp	r0, #178	; 0xb2
   1d18c:	f000 808b 	beq.w	1d2a6 <__gnu_unwind_execute+0x23e>
   1d190:	28b3      	cmp	r0, #179	; 0xb3
   1d192:	d039      	beq.n	1d208 <__gnu_unwind_execute+0x1a0>
   1d194:	f000 03fc 	and.w	r3, r0, #252	; 0xfc
   1d198:	2bb4      	cmp	r3, #180	; 0xb4
   1d19a:	d092      	beq.n	1d0c2 <__gnu_unwind_execute+0x5a>
   1d19c:	f000 0207 	and.w	r2, r0, #7
   1d1a0:	3201      	adds	r2, #1
   1d1a2:	2301      	movs	r3, #1
   1d1a4:	f442 2200 	orr.w	r2, r2, #524288	; 0x80000
   1d1a8:	4619      	mov	r1, r3
   1d1aa:	4628      	mov	r0, r5
   1d1ac:	f7ff fd1e 	bl	1cbec <_Unwind_VRS_Pop>
   1d1b0:	2800      	cmp	r0, #0
   1d1b2:	f43f af60 	beq.w	1d076 <__gnu_unwind_execute+0xe>
   1d1b6:	e784      	b.n	1d0c2 <__gnu_unwind_execute+0x5a>
   1d1b8:	28c6      	cmp	r0, #198	; 0xc6
   1d1ba:	d042      	beq.n	1d242 <__gnu_unwind_execute+0x1da>
   1d1bc:	28c7      	cmp	r0, #199	; 0xc7
   1d1be:	d04c      	beq.n	1d25a <__gnu_unwind_execute+0x1f2>
   1d1c0:	f000 03f8 	and.w	r3, r0, #248	; 0xf8
   1d1c4:	2bc0      	cmp	r3, #192	; 0xc0
   1d1c6:	d05b      	beq.n	1d280 <__gnu_unwind_execute+0x218>
   1d1c8:	28c8      	cmp	r0, #200	; 0xc8
   1d1ca:	d060      	beq.n	1d28e <__gnu_unwind_execute+0x226>
   1d1cc:	28c9      	cmp	r0, #201	; 0xc9
   1d1ce:	f47f af78 	bne.w	1d0c2 <__gnu_unwind_execute+0x5a>
   1d1d2:	4630      	mov	r0, r6
   1d1d4:	f7ff ff1c 	bl	1d010 <next_unwind_byte>
   1d1d8:	0302      	lsls	r2, r0, #12
   1d1da:	f000 000f 	and.w	r0, r0, #15
   1d1de:	f402 2270 	and.w	r2, r2, #983040	; 0xf0000
   1d1e2:	3001      	adds	r0, #1
   1d1e4:	4302      	orrs	r2, r0
   1d1e6:	e765      	b.n	1d0b4 <__gnu_unwind_execute+0x4c>
   1d1e8:	f1b8 0f00 	cmp.w	r8, #0
   1d1ec:	d018      	beq.n	1d220 <__gnu_unwind_execute+0x1b8>
   1d1ee:	2000      	movs	r0, #0
   1d1f0:	e768      	b.n	1d0c4 <__gnu_unwind_execute+0x5c>
   1d1f2:	4630      	mov	r0, r6
   1d1f4:	f7ff ff0c 	bl	1d010 <next_unwind_byte>
   1d1f8:	4602      	mov	r2, r0
   1d1fa:	2800      	cmp	r0, #0
   1d1fc:	f43f af61 	beq.w	1d0c2 <__gnu_unwind_execute+0x5a>
   1d200:	f010 03f0 	ands.w	r3, r0, #240	; 0xf0
   1d204:	d0d0      	beq.n	1d1a8 <__gnu_unwind_execute+0x140>
   1d206:	e75c      	b.n	1d0c2 <__gnu_unwind_execute+0x5a>
   1d208:	4630      	mov	r0, r6
   1d20a:	f7ff ff01 	bl	1d010 <next_unwind_byte>
   1d20e:	0301      	lsls	r1, r0, #12
   1d210:	f000 000f 	and.w	r0, r0, #15
   1d214:	f401 2170 	and.w	r1, r1, #983040	; 0xf0000
   1d218:	1c42      	adds	r2, r0, #1
   1d21a:	2301      	movs	r3, #1
   1d21c:	430a      	orrs	r2, r1
   1d21e:	e7c3      	b.n	1d1a8 <__gnu_unwind_execute+0x140>
   1d220:	ac03      	add	r4, sp, #12
   1d222:	4643      	mov	r3, r8
   1d224:	220e      	movs	r2, #14
   1d226:	4641      	mov	r1, r8
   1d228:	9400      	str	r4, [sp, #0]
   1d22a:	4628      	mov	r0, r5
   1d22c:	f7ff fb00 	bl	1c830 <_Unwind_VRS_Get>
   1d230:	9400      	str	r4, [sp, #0]
   1d232:	4628      	mov	r0, r5
   1d234:	4643      	mov	r3, r8
   1d236:	220f      	movs	r2, #15
   1d238:	4641      	mov	r1, r8
   1d23a:	f7ff fb1d 	bl	1c878 <_Unwind_VRS_Set>
   1d23e:	4640      	mov	r0, r8
   1d240:	e740      	b.n	1d0c4 <__gnu_unwind_execute+0x5c>
   1d242:	4630      	mov	r0, r6
   1d244:	f7ff fee4 	bl	1d010 <next_unwind_byte>
   1d248:	0301      	lsls	r1, r0, #12
   1d24a:	f000 000f 	and.w	r0, r0, #15
   1d24e:	f401 2170 	and.w	r1, r1, #983040	; 0xf0000
   1d252:	1c42      	adds	r2, r0, #1
   1d254:	2303      	movs	r3, #3
   1d256:	430a      	orrs	r2, r1
   1d258:	e7a6      	b.n	1d1a8 <__gnu_unwind_execute+0x140>
   1d25a:	4630      	mov	r0, r6
   1d25c:	f7ff fed8 	bl	1d010 <next_unwind_byte>
   1d260:	4602      	mov	r2, r0
   1d262:	2800      	cmp	r0, #0
   1d264:	f43f af2d 	beq.w	1d0c2 <__gnu_unwind_execute+0x5a>
   1d268:	f010 03f0 	ands.w	r3, r0, #240	; 0xf0
   1d26c:	f47f af29 	bne.w	1d0c2 <__gnu_unwind_execute+0x5a>
   1d270:	2104      	movs	r1, #4
   1d272:	4628      	mov	r0, r5
   1d274:	f7ff fcba 	bl	1cbec <_Unwind_VRS_Pop>
   1d278:	2800      	cmp	r0, #0
   1d27a:	f43f aefc 	beq.w	1d076 <__gnu_unwind_execute+0xe>
   1d27e:	e720      	b.n	1d0c2 <__gnu_unwind_execute+0x5a>
   1d280:	f000 020f 	and.w	r2, r0, #15
   1d284:	3201      	adds	r2, #1
   1d286:	2303      	movs	r3, #3
   1d288:	f442 2220 	orr.w	r2, r2, #655360	; 0xa0000
   1d28c:	e78c      	b.n	1d1a8 <__gnu_unwind_execute+0x140>
   1d28e:	4630      	mov	r0, r6
   1d290:	f7ff febe 	bl	1d010 <next_unwind_byte>
   1d294:	f000 02f0 	and.w	r2, r0, #240	; 0xf0
   1d298:	f000 030f 	and.w	r3, r0, #15
   1d29c:	3210      	adds	r2, #16
   1d29e:	3301      	adds	r3, #1
   1d2a0:	ea43 3202 	orr.w	r2, r3, r2, lsl #12
   1d2a4:	e706      	b.n	1d0b4 <__gnu_unwind_execute+0x4c>
   1d2a6:	2300      	movs	r3, #0
   1d2a8:	f10d 090c 	add.w	r9, sp, #12
   1d2ac:	220d      	movs	r2, #13
   1d2ae:	4619      	mov	r1, r3
   1d2b0:	f8cd 9000 	str.w	r9, [sp]
   1d2b4:	4628      	mov	r0, r5
   1d2b6:	f7ff fabb 	bl	1c830 <_Unwind_VRS_Get>
   1d2ba:	4630      	mov	r0, r6
   1d2bc:	f7ff fea8 	bl	1d010 <next_unwind_byte>
   1d2c0:	0602      	lsls	r2, r0, #24
   1d2c2:	f04f 0702 	mov.w	r7, #2
   1d2c6:	d50c      	bpl.n	1d2e2 <__gnu_unwind_execute+0x27a>
   1d2c8:	9b03      	ldr	r3, [sp, #12]
   1d2ca:	f000 007f 	and.w	r0, r0, #127	; 0x7f
   1d2ce:	40b8      	lsls	r0, r7
   1d2d0:	4403      	add	r3, r0
   1d2d2:	4630      	mov	r0, r6
   1d2d4:	9303      	str	r3, [sp, #12]
   1d2d6:	f7ff fe9b 	bl	1d010 <next_unwind_byte>
   1d2da:	0603      	lsls	r3, r0, #24
   1d2dc:	f107 0707 	add.w	r7, r7, #7
   1d2e0:	d4f2      	bmi.n	1d2c8 <__gnu_unwind_execute+0x260>
   1d2e2:	9b03      	ldr	r3, [sp, #12]
   1d2e4:	f8cd 9000 	str.w	r9, [sp]
   1d2e8:	f000 047f 	and.w	r4, r0, #127	; 0x7f
   1d2ec:	f503 7201 	add.w	r2, r3, #516	; 0x204
   1d2f0:	40bc      	lsls	r4, r7
   1d2f2:	2300      	movs	r3, #0
   1d2f4:	4414      	add	r4, r2
   1d2f6:	4619      	mov	r1, r3
   1d2f8:	220d      	movs	r2, #13
   1d2fa:	4628      	mov	r0, r5
   1d2fc:	9403      	str	r4, [sp, #12]
   1d2fe:	f7ff fabb 	bl	1c878 <_Unwind_VRS_Set>
   1d302:	e6b8      	b.n	1d076 <__gnu_unwind_execute+0xe>

0001d304 <__gnu_unwind_frame>:
   1d304:	b510      	push	{r4, lr}
   1d306:	6cc2      	ldr	r2, [r0, #76]	; 0x4c
   1d308:	b084      	sub	sp, #16
   1d30a:	6853      	ldr	r3, [r2, #4]
   1d30c:	2403      	movs	r4, #3
   1d30e:	f88d 400c 	strb.w	r4, [sp, #12]
   1d312:	021b      	lsls	r3, r3, #8
   1d314:	f102 0408 	add.w	r4, r2, #8
   1d318:	4608      	mov	r0, r1
   1d31a:	79d2      	ldrb	r2, [r2, #7]
   1d31c:	9301      	str	r3, [sp, #4]
   1d31e:	a901      	add	r1, sp, #4
   1d320:	9402      	str	r4, [sp, #8]
   1d322:	f88d 200d 	strb.w	r2, [sp, #13]
   1d326:	f7ff fe9f 	bl	1d068 <__gnu_unwind_execute>
   1d32a:	b004      	add	sp, #16
   1d32c:	bd10      	pop	{r4, pc}
   1d32e:	bf00      	nop

0001d330 <_Unwind_GetRegionStart>:
   1d330:	b508      	push	{r3, lr}
   1d332:	f7ff fe97 	bl	1d064 <unwind_UCB_from_context>
   1d336:	6c80      	ldr	r0, [r0, #72]	; 0x48
   1d338:	bd08      	pop	{r3, pc}
   1d33a:	bf00      	nop

0001d33c <_Unwind_GetLanguageSpecificData>:
   1d33c:	b508      	push	{r3, lr}
   1d33e:	f7ff fe91 	bl	1d064 <unwind_UCB_from_context>
   1d342:	6cc0      	ldr	r0, [r0, #76]	; 0x4c
   1d344:	79c3      	ldrb	r3, [r0, #7]
   1d346:	3302      	adds	r3, #2
   1d348:	eb00 0083 	add.w	r0, r0, r3, lsl #2
   1d34c:	bd08      	pop	{r3, pc}
   1d34e:	bf00      	nop

0001d350 <abort>:
   1d350:	b508      	push	{r3, lr}
   1d352:	2006      	movs	r0, #6
   1d354:	f000 f82c 	bl	1d3b0 <raise>
   1d358:	2001      	movs	r0, #1
   1d35a:	f7ff f885 	bl	1c468 <_exit>

0001d35e <_raise_r>:
   1d35e:	291f      	cmp	r1, #31
   1d360:	b538      	push	{r3, r4, r5, lr}
   1d362:	4604      	mov	r4, r0
   1d364:	460d      	mov	r5, r1
   1d366:	d904      	bls.n	1d372 <_raise_r+0x14>
   1d368:	2316      	movs	r3, #22
   1d36a:	6003      	str	r3, [r0, #0]
   1d36c:	f04f 30ff 	mov.w	r0, #4294967295	; 0xffffffff
   1d370:	bd38      	pop	{r3, r4, r5, pc}
   1d372:	6c42      	ldr	r2, [r0, #68]	; 0x44
   1d374:	b112      	cbz	r2, 1d37c <_raise_r+0x1e>
   1d376:	f852 3021 	ldr.w	r3, [r2, r1, lsl #2]
   1d37a:	b94b      	cbnz	r3, 1d390 <_raise_r+0x32>
   1d37c:	4620      	mov	r0, r4
   1d37e:	f000 f831 	bl	1d3e4 <_getpid_r>
   1d382:	462a      	mov	r2, r5
   1d384:	4601      	mov	r1, r0
   1d386:	4620      	mov	r0, r4
   1d388:	e8bd 4038 	ldmia.w	sp!, {r3, r4, r5, lr}
   1d38c:	f000 b818 	b.w	1d3c0 <_kill_r>
   1d390:	2b01      	cmp	r3, #1
   1d392:	d00a      	beq.n	1d3aa <_raise_r+0x4c>
   1d394:	1c59      	adds	r1, r3, #1
   1d396:	d103      	bne.n	1d3a0 <_raise_r+0x42>
   1d398:	2316      	movs	r3, #22
   1d39a:	6003      	str	r3, [r0, #0]
   1d39c:	2001      	movs	r0, #1
   1d39e:	e7e7      	b.n	1d370 <_raise_r+0x12>
   1d3a0:	2400      	movs	r4, #0
   1d3a2:	f842 4025 	str.w	r4, [r2, r5, lsl #2]
   1d3a6:	4628      	mov	r0, r5
   1d3a8:	4798      	blx	r3
   1d3aa:	2000      	movs	r0, #0
   1d3ac:	e7e0      	b.n	1d370 <_raise_r+0x12>
	...

0001d3b0 <raise>:
   1d3b0:	4b02      	ldr	r3, [pc, #8]	; (1d3bc <raise+0xc>)
   1d3b2:	4601      	mov	r1, r0
   1d3b4:	6818      	ldr	r0, [r3, #0]
   1d3b6:	f7ff bfd2 	b.w	1d35e <_raise_r>
   1d3ba:	bf00      	nop
   1d3bc:	20001144 	.word	0x20001144

0001d3c0 <_kill_r>:
   1d3c0:	b538      	push	{r3, r4, r5, lr}
   1d3c2:	4d07      	ldr	r5, [pc, #28]	; (1d3e0 <_kill_r+0x20>)
   1d3c4:	2300      	movs	r3, #0
   1d3c6:	4604      	mov	r4, r0
   1d3c8:	4608      	mov	r0, r1
   1d3ca:	4611      	mov	r1, r2
   1d3cc:	602b      	str	r3, [r5, #0]
   1d3ce:	f000 f813 	bl	1d3f8 <_kill>
   1d3d2:	1c43      	adds	r3, r0, #1
   1d3d4:	d102      	bne.n	1d3dc <_kill_r+0x1c>
   1d3d6:	682b      	ldr	r3, [r5, #0]
   1d3d8:	b103      	cbz	r3, 1d3dc <_kill_r+0x1c>
   1d3da:	6023      	str	r3, [r4, #0]
   1d3dc:	bd38      	pop	{r3, r4, r5, pc}
   1d3de:	bf00      	nop
   1d3e0:	2000164c 	.word	0x2000164c

0001d3e4 <_getpid_r>:
   1d3e4:	f000 b800 	b.w	1d3e8 <_getpid>

0001d3e8 <_getpid>:
   1d3e8:	4b02      	ldr	r3, [pc, #8]	; (1d3f4 <_getpid+0xc>)
   1d3ea:	2258      	movs	r2, #88	; 0x58
   1d3ec:	601a      	str	r2, [r3, #0]
   1d3ee:	f04f 30ff 	mov.w	r0, #4294967295	; 0xffffffff
   1d3f2:	4770      	bx	lr
   1d3f4:	2000164c 	.word	0x2000164c

0001d3f8 <_kill>:
   1d3f8:	4b02      	ldr	r3, [pc, #8]	; (1d404 <_kill+0xc>)
   1d3fa:	2258      	movs	r2, #88	; 0x58
   1d3fc:	601a      	str	r2, [r3, #0]
   1d3fe:	f04f 30ff 	mov.w	r0, #4294967295	; 0xffffffff
   1d402:	4770      	bx	lr
   1d404:	2000164c 	.word	0x2000164c

0001d408 <_init>:
   1d408:	b5f8      	push	{r3, r4, r5, r6, r7, lr}
   1d40a:	bf00      	nop
   1d40c:	bcf8      	pop	{r3, r4, r5, r6, r7}
   1d40e:	bc08      	pop	{r3}
   1d410:	469e      	mov	lr, r3
   1d412:	4770      	bx	lr

0001d414 <_fini>:
   1d414:	b5f8      	push	{r3, r4, r5, r6, r7, lr}
   1d416:	bf00      	nop
   1d418:	bcf8      	pop	{r3, r4, r5, r6, r7}
   1d41a:	bc08      	pop	{r3}
   1d41c:	469e      	mov	lr, r3
   1d41e:	4770      	bx	lr
   1d420:	00060001 	.word	0x00060001

0001d424 <m_app_timer_sortlist>:
   1d424:	00000000 200011d4 00019375              ....... u...

0001d430 <delay_machine_code.6859>:
   1d430:	d8fd3807 00004770                       .8..pG..

0001d438 <pwr_mgmt_data>:
   1d438:	0001d7e8 0001d7e8 00000004 33005b1b     .............[.3
   1d448:	3b323b38 3b383400 20003b32 2578305b     8;2;.48;2;. [0x%
   1d458:	5d583430 72202000 20646165 3a676572     04X].  read reg:
   1d468:	20642520 5b007325 6c696166 005d6465      %d %s.[failed].
   1d478:	7267467b 7d6e6565 3430255b 30252e64     {Fgreen}[%04d.%0
   1d488:	5b5d6436 253a7325 3a3a2064 7b5d7325     6d][%s:%d ::%s]{
   1d498:	69687746 0a7d6574 61657200 2e2e0064     Fwhite}..read...
   1d4a8:	706d542f 2e373131 00707068 6d742020     /Tmp117.hpp.  tm
   1d4b8:	37313170 77617220 6425203a 3a462020     p117 raw: %d  F:
   1d4c8:	0a642520 2a2e2500 2e002073 65542f2e      %d..%.*s .../Te
   1d4d8:	7265706d 72757461 70682e65 20200070     mperature.hpp.  
   1d4e8:	6c696166 74206465 6572206f 202c6461     failed to read, 
   1d4f8:	7220726f 72757465 2064656e 61666564     or returned defa
   1d508:	20746c75 706d6574 6c617620 000a6575     ult temp value..
   1d518:	33256325 75252e64 64707500 00657461     %c%3d.%u.update.
   1d528:	412f2e2e 72657664 69736974 682e676e     ../Advertising.h
   1d538:	7b007070 61796346 20207d6e 7664612d     pp.{Fcyan}  -adv
   1d548:	69747265 676e6973 63617020 2d74656b     ertising packet-
   1d558:	6877467b 7d657469 2020000a 3a6e656c     {Fwhite}..  len:
   1d568:	75322520 79742020 203a6570 78323025      %2u  type: %02x
   1d578:	61642020 203a6174 32302500 32302558       data: .%02X%02
   1d588:	7b002058 6d726f6e 7b7d6c61 65726746     X .{normal}{Fgre
   1d598:	0a7d6e65 746f6f42 7b2e2e2e 67616d46     en}.Boot...{Fmag
   1d5a8:	61746e65 62000a7d 6472616f 696e692e     enta}..board.ini
   1d5b8:	2e292874 000a2e2e 5f66726e 5f727770     t().....nrf_pwr_
   1d5c8:	746d676d 696e695f 2e292874 000a2e2e     mgmt_init().....
   1d5d8:	2e656c62 74696e69 2e2e2928 61000a2e     ble.init().....a
   1d5e8:	692e7664 2874696e 2e2e2e29 616d000a     dv.init().....ma
   1d5f8:	2e006e69 616d2f2e 632e6e69 7b007070     in.../main.cpp.{
   1d608:	61726f46 7d65676e 6f6c2020 6f702077     Forange}  low po
   1d618:	2e726577 467b2e2e 74696877 0a207d65     wer...{Fwhite} .
   1d628:	303b3000 006d303b 3b353532 6d303b30     .0;0;0m.255;0;0m
   1d638:	323b3000 303b3535 3532006d 35323b35     .0;255;0m.255;25
   1d648:	6d303b35 303b3000 3535323b 3532006d     5;0m.0;0;255m.25
   1d658:	3b303b35 6d353532 313b3000 323b3533     5;0;255m.0;135;2
   1d668:	006d3531 3b353532 3b353532 6d353532     15m.255;255;255m
   1d678:	35353200 3b39393b 006d3137 3b333431     .255;99;71m.143;
   1d688:	31323b30 32006d31 3b31004a 32004831     0;211m.2J.1;1H.2
   1d698:	315b1b4a 1b48313b 006d305b 34006d33     J.[1;1H.[0m.3m.4
   1d6a8:	                                         m.

0001d6aa <SD_TX_LEVELS>:
   1d6aa:	f0ecd800 00fcf8f4 00000403 00000000     ................
   1d6ba:	00000000                                 ......

0001d6c0 <nrfx_coredep_delay_us::delay_machine_code>:
   1d6c0:	d8fd3807 00004770                       .8..pG..

0001d6c8 <markupCodes>:
   1d6c8:	0000441d 0001d629 0000f25b 0001d630     .D..)...[...0...
   1d6d8:	00001a31 0001d639 0000f21c 0001d642     1...9.......B...
   1d6e8:	00009808 0001d64d 0000649d 0001d656     ....M....d..V...
   1d6f8:	0000592b 0001d661 00003961 0001d66c     +Y..a...a9..l...
   1d708:	0000999c 0001d679 00006758 0001d684     ....y...Xg......
   1d718:	0000b382 0001d68f 0000ee09 0001d692     ................
   1d728:	00004263 0001d697 0000ce96 0001d6a4     cB..............
   1d738:	000074e9 0001d62d 0000d0a6 0001d6a7     .t..-...........
   1d748:	6d726554 6c616e69 54545200 47455300     Terminal.RTT.SEG
   1d758:	00524547 01021000                       GER.....

0001d760 <sdh_req_observers>:
   1d760:	0001d800 0001d800 00000008              ............

0001d76c <sdh_stack_observers>:
   1d76c:	0001d7f0 0001d800 00000008              ............

0001d778 <sdh_state_observers>:
   1d778:	0001d7e8 0001d7f0 00000008              ............

0001d784 <sdh_ble_observers>:
   1d784:	0001d7e0 0001d7e8 00000008              ............

0001d790 <sdh_soc_observers>:
   1d790:	0001d7d8 0001d7e0 00000008              ............

0001d79c <_global_impure_ptr>:
   1d79c:	20001148 2b302d23 6c680020 6665004c     H.. #-0+ .hlL.ef
   1d7ac:	47464567 32313000 36353433 41393837     gEFG.0123456789A
   1d7bc:	45444342 31300046 35343332 39383736     BCDEF.0123456789
   1d7cc:	64636261 00006665                       abcdef..

0001d7d4 <__EH_FRAME_BEGIN__>:
   1d7d4:	00000000                                ....
