
_build/nrf52810_xxaa.out:     file format elf32-littlearm


Disassembly of section .text:

00019000 <__isr_vector>:
   19000:	20006000 	.word	0x20006000
   19004:	000192bd 	.word	0x000192bd
   19008:	00019311 	.word	0x00019311
   1900c:	00019313 	.word	0x00019313
   19010:	00019315 	.word	0x00019315
   19014:	00019317 	.word	0x00019317
   19018:	00019319 	.word	0x00019319
	...
   1902c:	0001931b 	.word	0x0001931b
   19030:	0001931d 	.word	0x0001931d
   19034:	00000000 	.word	0x00000000
   19038:	0001931f 	.word	0x0001931f
   1903c:	00019321 	.word	0x00019321
   19040:	0001a019 	.word	0x0001a019
   19044:	00019323 	.word	0x00019323
   19048:	00019323 	.word	0x00019323
   1904c:	00019323 	.word	0x00019323
   19050:	00019323 	.word	0x00019323
   19054:	00000000 	.word	0x00000000
   19058:	00019323 	.word	0x00019323
   1905c:	00019323 	.word	0x00019323
   19060:	00019323 	.word	0x00019323
   19064:	00019323 	.word	0x00019323
   19068:	00019323 	.word	0x00019323
   1906c:	00019323 	.word	0x00019323
   19070:	00019323 	.word	0x00019323
   19074:	00019323 	.word	0x00019323
   19078:	00019323 	.word	0x00019323
   1907c:	00019323 	.word	0x00019323
   19080:	00019323 	.word	0x00019323
   19084:	00019af9 	.word	0x00019af9
   19088:	00019323 	.word	0x00019323
   1908c:	00019323 	.word	0x00019323
   19090:	00019323 	.word	0x00019323
   19094:	00019323 	.word	0x00019323
   19098:	0001c6fd 	.word	0x0001c6fd
   1909c:	00019323 	.word	0x00019323
   190a0:	00019323 	.word	0x00019323
   190a4:	00019323 	.word	0x00019323
	...
   190b0:	00019323 	.word	0x00019323
   190b4:	00019323 	.word	0x00019323
	...

00019200 <__do_global_dtors_aux>:
   19200:	b510      	push	{r4, lr}
   19202:	4c05      	ldr	r4, [pc, #20]	; (19218 <__do_global_dtors_aux+0x18>)
   19204:	7823      	ldrb	r3, [r4, #0]
   19206:	b933      	cbnz	r3, 19216 <__do_global_dtors_aux+0x16>
   19208:	4b04      	ldr	r3, [pc, #16]	; (1921c <__do_global_dtors_aux+0x1c>)
   1920a:	b113      	cbz	r3, 19212 <__do_global_dtors_aux+0x12>
   1920c:	4804      	ldr	r0, [pc, #16]	; (19220 <__do_global_dtors_aux+0x20>)
   1920e:	f3af 8000 	nop.w
   19212:	2301      	movs	r3, #1
   19214:	7023      	strb	r3, [r4, #0]
   19216:	bd10      	pop	{r4, pc}
   19218:	200018a8 	.word	0x200018a8
   1921c:	00000000 	.word	0x00000000
   19220:	0001efe8 	.word	0x0001efe8

00019224 <frame_dummy>:
   19224:	b508      	push	{r3, lr}
   19226:	4b03      	ldr	r3, [pc, #12]	; (19234 <frame_dummy+0x10>)
   19228:	b11b      	cbz	r3, 19232 <frame_dummy+0xe>
   1922a:	4903      	ldr	r1, [pc, #12]	; (19238 <frame_dummy+0x14>)
   1922c:	4803      	ldr	r0, [pc, #12]	; (1923c <frame_dummy+0x18>)
   1922e:	f3af 8000 	nop.w
   19232:	bd08      	pop	{r3, pc}
   19234:	00000000 	.word	0x00000000
   19238:	200018ac 	.word	0x200018ac
   1923c:	0001efe8 	.word	0x0001efe8

00019240 <_stack_init>:
   19240:	f5a3 3a80 	sub.w	sl, r3, #65536	; 0x10000
   19244:	4770      	bx	lr
   19246:	bf00      	nop

00019248 <_mainCRTStartup>:
   19248:	4b17      	ldr	r3, [pc, #92]	; (192a8 <_mainCRTStartup+0x60>)
   1924a:	2b00      	cmp	r3, #0
   1924c:	bf08      	it	eq
   1924e:	4b13      	ldreq	r3, [pc, #76]	; (1929c <_mainCRTStartup+0x54>)
   19250:	469d      	mov	sp, r3
   19252:	f7ff fff5 	bl	19240 <_stack_init>
   19256:	2100      	movs	r1, #0
   19258:	468b      	mov	fp, r1
   1925a:	460f      	mov	r7, r1
   1925c:	4813      	ldr	r0, [pc, #76]	; (192ac <_mainCRTStartup+0x64>)
   1925e:	4a14      	ldr	r2, [pc, #80]	; (192b0 <_mainCRTStartup+0x68>)
   19260:	1a12      	subs	r2, r2, r0
   19262:	f003 fb63 	bl	1c92c <memset>
   19266:	4b0e      	ldr	r3, [pc, #56]	; (192a0 <_mainCRTStartup+0x58>)
   19268:	2b00      	cmp	r3, #0
   1926a:	d000      	beq.n	1926e <_mainCRTStartup+0x26>
   1926c:	4798      	blx	r3
   1926e:	4b0d      	ldr	r3, [pc, #52]	; (192a4 <_mainCRTStartup+0x5c>)
   19270:	2b00      	cmp	r3, #0
   19272:	d000      	beq.n	19276 <_mainCRTStartup+0x2e>
   19274:	4798      	blx	r3
   19276:	2000      	movs	r0, #0
   19278:	2100      	movs	r1, #0
   1927a:	0004      	movs	r4, r0
   1927c:	000d      	movs	r5, r1
   1927e:	480d      	ldr	r0, [pc, #52]	; (192b4 <_mainCRTStartup+0x6c>)
   19280:	2800      	cmp	r0, #0
   19282:	d002      	beq.n	1928a <_mainCRTStartup+0x42>
   19284:	480c      	ldr	r0, [pc, #48]	; (192b8 <_mainCRTStartup+0x70>)
   19286:	f3af 8000 	nop.w
   1928a:	f003 fb1d 	bl	1c8c8 <__libc_init_array>
   1928e:	0020      	movs	r0, r4
   19290:	0029      	movs	r1, r5
   19292:	f002 fe43 	bl	1bf1c <main>
   19296:	f003 fb03 	bl	1c8a0 <exit>
   1929a:	bf00      	nop
   1929c:	00080000 	.word	0x00080000
	...
   192a8:	20006000 	.word	0x20006000
   192ac:	200018a8 	.word	0x200018a8
   192b0:	20001d8c 	.word	0x20001d8c
	...

000192bc <Reset_Handler>:

    /* Workaround for Errata 185 RAM: RAM corruption at extreme corners 
     * found at the Errata document for your device located
     * at https://infocenter.nordicsemi.com/index.jsp */
    
    LDR     R0, =0x10000130
   192bc:	480e      	ldr	r0, [pc, #56]	; (192f8 <skip+0x1a>)
    LDR     R0, [R0]
   192be:	6800      	ldr	r0, [r0, #0]
    LDR     R1, =0x10000134
   192c0:	490e      	ldr	r1, [pc, #56]	; (192fc <skip+0x1e>)
    LDR     R1, [R1]
   192c2:	6809      	ldr	r1, [r1, #0]
    
    CMP     R0, #0xA
   192c4:	280a      	cmp	r0, #10
    BNE     skip
   192c6:	d10a      	bne.n	192de <skip>
    CMP     R1, #0x0
   192c8:	2900      	cmp	r1, #0
    BNE     skip
   192ca:	d108      	bne.n	192de <skip>
    
    LDR     R0, =0x40000EE4
   192cc:	480c      	ldr	r0, [pc, #48]	; (19300 <skip+0x22>)
    LDR     R2, [R0]
   192ce:	6802      	ldr	r2, [r0, #0]
    LDR     R3, =0xFFFFFF8F
   192d0:	f06f 0370 	mvn.w	r3, #112	; 0x70
    ANDS    R2, R2, R3
   192d4:	401a      	ands	r2, r3
    LDR     R3, =0x00000040
   192d6:	f04f 0340 	mov.w	r3, #64	; 0x40
    ORRS    R2, R2, R3
   192da:	431a      	orrs	r2, r3
    STR     R2, [R0]
   192dc:	6002      	str	r2, [r0, #0]

000192de <skip>:
 *      __bss_start__: VMA of end of the section to copy to. Normally __data_end__ is used, but by using __bss_start__
 *                    the user can add their own initialized data section before BSS section with the INTERT AFTER command.
 *
 * All addresses must be aligned to 4 bytes boundary.
 */
    ldr r1, =__etext
   192de:	4909      	ldr	r1, [pc, #36]	; (19304 <skip+0x26>)
    ldr r2, =__data_start__
   192e0:	4a09      	ldr	r2, [pc, #36]	; (19308 <skip+0x2a>)
    ldr r3, =__bss_start__
   192e2:	4b0a      	ldr	r3, [pc, #40]	; (1930c <skip+0x2e>)

    subs r3, r3, r2
   192e4:	1a9b      	subs	r3, r3, r2
    ble .L_loop1_done
   192e6:	dd03      	ble.n	192f0 <skip+0x12>

.L_loop1:
    subs r3, r3, #4
   192e8:	3b04      	subs	r3, #4
    ldr r0, [r1,r3]
   192ea:	58c8      	ldr	r0, [r1, r3]
    str r0, [r2,r3]
   192ec:	50d0      	str	r0, [r2, r3]
    bgt .L_loop1
   192ee:	dcfb      	bgt.n	192e8 <skip+0xa>

.L_loop3_done:
#endif /* __STARTUP_CLEAR_BSS */

/* Execute SystemInit function. */
    bl SystemInit
   192f0:	f000 fd06 	bl	19d00 <SystemInit>
 * If those libraries are not accessible, define __START as your entry point.
 */
#ifndef __START
#define __START _start
#endif
    bl __START
   192f4:	f7ff ffa8 	bl	19248 <_mainCRTStartup>
    LDR     R0, =0x10000130
   192f8:	10000130 	.word	0x10000130
    LDR     R1, =0x10000134
   192fc:	10000134 	.word	0x10000134
    LDR     R0, =0x40000EE4
   19300:	40000ee4 	.word	0x40000ee4
    ldr r1, =__etext
   19304:	0001f200 	.word	0x0001f200
    ldr r2, =__data_start__
   19308:	20001800 	.word	0x20001800
    ldr r3, =__bss_start__
   1930c:	200018a8 	.word	0x200018a8

00019310 <NMI_Handler>:
/* Dummy Exception Handlers (infinite loops which can be modified) */

    .weak   NMI_Handler
    .type   NMI_Handler, %function
NMI_Handler:
    b       .
   19310:	e7fe      	b.n	19310 <NMI_Handler>

00019312 <HardFault_Handler>:


    .weak   HardFault_Handler
    .type   HardFault_Handler, %function
HardFault_Handler:
    b       .
   19312:	e7fe      	b.n	19312 <HardFault_Handler>

00019314 <MemoryManagement_Handler>:


    .weak   MemoryManagement_Handler
    .type   MemoryManagement_Handler, %function
MemoryManagement_Handler:
    b       .
   19314:	e7fe      	b.n	19314 <MemoryManagement_Handler>

00019316 <BusFault_Handler>:


    .weak   BusFault_Handler
    .type   BusFault_Handler, %function
BusFault_Handler:
    b       .
   19316:	e7fe      	b.n	19316 <BusFault_Handler>

00019318 <UsageFault_Handler>:


    .weak   UsageFault_Handler
    .type   UsageFault_Handler, %function
UsageFault_Handler:
    b       .
   19318:	e7fe      	b.n	19318 <UsageFault_Handler>

0001931a <SVC_Handler>:


    .weak   SVC_Handler
    .type   SVC_Handler, %function
SVC_Handler:
    b       .
   1931a:	e7fe      	b.n	1931a <SVC_Handler>

0001931c <DebugMon_Handler>:


    .weak   DebugMon_Handler
    .type   DebugMon_Handler, %function
DebugMon_Handler:
    b       .
   1931c:	e7fe      	b.n	1931c <DebugMon_Handler>

0001931e <PendSV_Handler>:


    .weak   PendSV_Handler
    .type   PendSV_Handler, %function
PendSV_Handler:
    b       .
   1931e:	e7fe      	b.n	1931e <PendSV_Handler>

00019320 <SysTick_Handler>:


    .weak   SysTick_Handler
    .type   SysTick_Handler, %function
SysTick_Handler:
    b       .
   19320:	e7fe      	b.n	19320 <SysTick_Handler>

00019322 <Default_Handler>:
/* IRQ Handlers */

    .globl  Default_Handler
    .type   Default_Handler, %function
Default_Handler:
    b       .
   19322:	e7fe      	b.n	19322 <Default_Handler>

00019324 <app_error_handler_bare>:
 * @param[in] error_code  Error code supplied to the handler.
 * @param[in] line_num    Line number where the handler is called.
 * @param[in] p_file_name Pointer to the file name.
 */
void app_error_handler_bare(ret_code_t error_code)
{
   19324:	b500      	push	{lr}
   19326:	b085      	sub	sp, #20
   19328:	4603      	mov	r3, r0
    error_info_t error_info =
   1932a:	2100      	movs	r1, #0
        .line_num    = 0,
        .p_file_name = NULL,
        .err_code    = error_code,
    };

    app_error_fault_handler(NRF_FAULT_ID_SDK_ERROR, 0, (uint32_t)(&error_info));
   1932c:	aa01      	add	r2, sp, #4
   1932e:	f244 0001 	movw	r0, #16385	; 0x4001
    error_info_t error_info =
   19332:	e9cd 1101 	strd	r1, r1, [sp, #4]
   19336:	9303      	str	r3, [sp, #12]
    app_error_fault_handler(NRF_FAULT_ID_SDK_ERROR, 0, (uint32_t)(&error_info));
   19338:	f000 f804 	bl	19344 <app_error_fault_handler>

    UNUSED_VARIABLE(error_info);
}
   1933c:	b005      	add	sp, #20
   1933e:	f85d fb04 	ldr.w	pc, [sp], #4
   19342:	bf00      	nop

00019344 <app_error_fault_handler>:
  \details Disables IRQ interrupts by setting the I-bit in the CPSR.
  Can only be executed in Privileged modes.
 */
__attribute__( ( always_inline ) ) __STATIC_INLINE void __disable_irq(void)
{
  __ASM volatile ("cpsid i" : : : "memory");
   19344:	b672      	cpsid	i
            NRF_LOG_ERROR("UNKNOWN FAULT at 0x%08X", pc);
            break;
    }
#endif

    NRF_BREAKPOINT_COND;
   19346:	4b09      	ldr	r3, [pc, #36]	; (1936c <app_error_fault_handler+0x28>)
   19348:	681b      	ldr	r3, [r3, #0]
   1934a:	07db      	lsls	r3, r3, #31
   1934c:	d500      	bpl.n	19350 <app_error_fault_handler+0xc>
   1934e:	be00      	bkpt	0x0000
  \details Acts as a special kind of Data Memory Barrier.
           It completes when all explicit memory accesses before this instruction complete.
 */
__attribute__((always_inline)) __STATIC_INLINE void __DSB(void)
{
  __ASM volatile ("dsb 0xF":::"memory");
   19350:	f3bf 8f4f 	dsb	sy
__STATIC_INLINE void NVIC_SystemReset(void)
{
  __DSB();                                                          /* Ensure all outstanding memory accesses included
                                                                       buffered write are completed before reset */
  SCB->AIRCR  = (uint32_t)((0x5FAUL << SCB_AIRCR_VECTKEY_Pos)    |
                           (SCB->AIRCR & SCB_AIRCR_PRIGROUP_Msk) |
   19354:	4906      	ldr	r1, [pc, #24]	; (19370 <app_error_fault_handler+0x2c>)
  SCB->AIRCR  = (uint32_t)((0x5FAUL << SCB_AIRCR_VECTKEY_Pos)    |
   19356:	4b07      	ldr	r3, [pc, #28]	; (19374 <app_error_fault_handler+0x30>)
                           (SCB->AIRCR & SCB_AIRCR_PRIGROUP_Msk) |
   19358:	68ca      	ldr	r2, [r1, #12]
   1935a:	f402 62e0 	and.w	r2, r2, #1792	; 0x700
  SCB->AIRCR  = (uint32_t)((0x5FAUL << SCB_AIRCR_VECTKEY_Pos)    |
   1935e:	4313      	orrs	r3, r2
   19360:	60cb      	str	r3, [r1, #12]
   19362:	f3bf 8f4f 	dsb	sy
  __ASM volatile ("nop");
   19366:	bf00      	nop
   19368:	e7fd      	b.n	19366 <app_error_fault_handler+0x22>
   1936a:	bf00      	nop
   1936c:	e000edf0 	.word	0xe000edf0
   19370:	e000ed00 	.word	0xe000ed00
   19374:	05fa0004 	.word	0x05fa0004

00019378 <compare_func>:
    app_timer_t * p0 = CONTAINER_OF(p_item0, app_timer_t, list_item);
    app_timer_t * p1 = CONTAINER_OF(p_item1, app_timer_t, list_item);

    uint64_t p0_end = p0->end_val;
    uint64_t p1_end = p1->end_val;
    return (p0_end <= p1_end) ? true : false;
   19378:	e9d0 2302 	ldrd	r2, r3, [r0, #8]
   1937c:	e9d1 0102 	ldrd	r0, r1, [r1, #8]
   19380:	4299      	cmp	r1, r3
   19382:	bf08      	it	eq
   19384:	4290      	cmpeq	r0, r2
}
   19386:	bf2c      	ite	cs
   19388:	2001      	movcs	r0, #1
   1938a:	2000      	movcc	r0, #0
   1938c:	4770      	bx	lr
   1938e:	bf00      	nop

00019390 <rtc_irq>:
        p_req = nrf_atfifo_item_get(m_req_fifo, &fifo_ctx);
    }
}

static void rtc_irq(drv_rtc_t const * const  p_instance)
{
   19390:	e92d 4ff0 	stmdb	sp!, {r4, r5, r6, r7, r8, r9, sl, fp, lr}
   19394:	b087      	sub	sp, #28
   19396:	4606      	mov	r6, r0
    if (drv_rtc_overflow_pending(p_instance))
   19398:	f000 fb6e 	bl	19a78 <drv_rtc_overflow_pending>
   1939c:	b140      	cbz	r0, 193b0 <rtc_irq+0x20>
    m_base_counter += (DRV_RTC_MAX_CNT + 1);
   1939e:	4a97      	ldr	r2, [pc, #604]	; (195fc <rtc_irq+0x26c>)
   193a0:	e9d2 3100 	ldrd	r3, r1, [r2]
   193a4:	f113 7380 	adds.w	r3, r3, #16777216	; 0x1000000
   193a8:	f141 0100 	adc.w	r1, r1, #0
   193ac:	e9c2 3100 	strd	r3, r1, [r2]
    {
        on_overflow_evt();
    }
    if (drv_rtc_compare_pending(p_instance, 0))
   193b0:	2100      	movs	r1, #0
   193b2:	4630      	mov	r0, r6
   193b4:	f000 fb7c 	bl	19ab0 <drv_rtc_compare_pending>
    if (mp_active_timer)
   193b8:	4c91      	ldr	r4, [pc, #580]	; (19600 <rtc_irq+0x270>)
    if (drv_rtc_compare_pending(p_instance, 0))
   193ba:	b160      	cbz	r0, 193d6 <rtc_irq+0x46>
    if (mp_active_timer)
   193bc:	6823      	ldr	r3, [r4, #0]
   193be:	b153      	cbz	r3, 193d6 <rtc_irq+0x46>
    if ((m_global_active == true) && (p_timer != NULL) && (p_timer->active))
   193c0:	4b90      	ldr	r3, [pc, #576]	; (19604 <rtc_irq+0x274>)
        UNUSED_RETURN_VALUE(timer_expire(mp_active_timer));
   193c2:	6825      	ldr	r5, [r4, #0]
    if ((m_global_active == true) && (p_timer != NULL) && (p_timer->active))
   193c4:	781b      	ldrb	r3, [r3, #0]
   193c6:	b123      	cbz	r3, 193d2 <rtc_irq+0x42>
   193c8:	b11d      	cbz	r5, 193d2 <rtc_irq+0x42>
   193ca:	7f2b      	ldrb	r3, [r5, #28]
   193cc:	2b00      	cmp	r3, #0
   193ce:	f040 8125 	bne.w	1961c <rtc_irq+0x28c>
        mp_active_timer = NULL;
   193d2:	2300      	movs	r3, #0
   193d4:	6023      	str	r3, [r4, #0]
    {
        on_compare_evt(p_instance);
    }
    if (drv_rtc_compare_pending(p_instance, 1))
   193d6:	2101      	movs	r1, #1
   193d8:	4630      	mov	r0, r6
   193da:	f000 fb69 	bl	19ab0 <drv_rtc_compare_pending>
   193de:	2800      	cmp	r0, #0
   193e0:	f040 80ef 	bne.w	195c2 <rtc_irq+0x232>
    timer_req_t *         p_req = nrf_atfifo_item_get(m_req_fifo, &fifo_ctx);
   193e4:	4888      	ldr	r0, [pc, #544]	; (19608 <rtc_irq+0x278>)
   193e6:	a905      	add	r1, sp, #20
   193e8:	f000 fbe4 	bl	19bb4 <nrf_atfifo_item_get>
    while (p_req)
   193ec:	b378      	cbz	r0, 1944e <rtc_irq+0xbe>
                    bool found = nrf_sortlist_remove(&m_app_timer_sortlist, &(p_req->p_timer->list_item));
   193ee:	4d87      	ldr	r5, [pc, #540]	; (1960c <rtc_irq+0x27c>)
                m_global_active = true;
   193f0:	f8df 8210 	ldr.w	r8, [pc, #528]	; 19604 <rtc_irq+0x274>
        UNUSED_RETURN_VALUE(nrf_atfifo_item_free(m_req_fifo, &fifo_ctx));
   193f4:	4f84      	ldr	r7, [pc, #528]	; (19608 <rtc_irq+0x278>)
   193f6:	e00b      	b.n	19410 <rtc_irq+0x80>
        switch (p_req->type)
   193f8:	2b00      	cmp	r3, #0
   193fa:	f000 80c9 	beq.w	19590 <rtc_irq+0x200>
        UNUSED_RETURN_VALUE(nrf_atfifo_item_free(m_req_fifo, &fifo_ctx));
   193fe:	a905      	add	r1, sp, #20
   19400:	4638      	mov	r0, r7
   19402:	f000 fc07 	bl	19c14 <nrf_atfifo_item_free>
        p_req = nrf_atfifo_item_get(m_req_fifo, &fifo_ctx);
   19406:	a905      	add	r1, sp, #20
   19408:	4638      	mov	r0, r7
   1940a:	f000 fbd3 	bl	19bb4 <nrf_atfifo_item_get>
    while (p_req)
   1940e:	b1f0      	cbz	r0, 1944e <rtc_irq+0xbe>
        switch (p_req->type)
   19410:	7803      	ldrb	r3, [r0, #0]
   19412:	2b01      	cmp	r3, #1
   19414:	d012      	beq.n	1943c <rtc_irq+0xac>
   19416:	2b02      	cmp	r3, #2
   19418:	d1ee      	bne.n	193f8 <rtc_irq+0x68>
    nrf_sortlist_item_t * p_next_item = nrf_sortlist_pop(&m_app_timer_sortlist);
   1941a:	4628      	mov	r0, r5
            p_next->active = false;
   1941c:	f04f 0900 	mov.w	r9, #0
    nrf_sortlist_item_t * p_next_item = nrf_sortlist_pop(&m_app_timer_sortlist);
   19420:	f000 fc56 	bl	19cd0 <nrf_sortlist_pop>
        if (p_next)
   19424:	b130      	cbz	r0, 19434 <rtc_irq+0xa4>
            p_next->active = false;
   19426:	f880 901c 	strb.w	r9, [r0, #28]
    nrf_sortlist_item_t * p_next_item = nrf_sortlist_pop(&m_app_timer_sortlist);
   1942a:	4628      	mov	r0, r5
   1942c:	f000 fc50 	bl	19cd0 <nrf_sortlist_pop>
        if (p_next)
   19430:	2800      	cmp	r0, #0
   19432:	d1f8      	bne.n	19426 <rtc_irq+0x96>
                m_global_active = true;
   19434:	2301      	movs	r3, #1
   19436:	f888 3000 	strb.w	r3, [r8]
                break;
   1943a:	e7e0      	b.n	193fe <rtc_irq+0x6e>
                if (p_req->p_timer == mp_active_timer)
   1943c:	6841      	ldr	r1, [r0, #4]
   1943e:	6823      	ldr	r3, [r4, #0]
   19440:	4299      	cmp	r1, r3
   19442:	f000 80b5 	beq.w	195b0 <rtc_irq+0x220>
                    bool found = nrf_sortlist_remove(&m_app_timer_sortlist, &(p_req->p_timer->list_item));
   19446:	4628      	mov	r0, r5
   19448:	f000 fc4c 	bl	19ce4 <nrf_sortlist_remove>
                    if (!found)
   1944c:	e7d7      	b.n	193fe <rtc_irq+0x6e>
    nrf_sortlist_item_t const * p_next_item = nrf_sortlist_peek(&m_app_timer_sortlist);
   1944e:	f8df 81bc 	ldr.w	r8, [pc, #444]	; 1960c <rtc_irq+0x27c>
    uint64_t now = m_base_counter + drv_rtc_counter_get(&m_rtc_inst);
   19452:	4f6f      	ldr	r7, [pc, #444]	; (19610 <rtc_irq+0x280>)
   19454:	f8df 91a4 	ldr.w	r9, [pc, #420]	; 195fc <rtc_irq+0x26c>
}
   19458:	e038      	b.n	194cc <rtc_irq+0x13c>
    nrf_sortlist_item_t * p_next_item = nrf_sortlist_pop(&m_app_timer_sortlist);
   1945a:	4640      	mov	r0, r8
   1945c:	f000 fc38 	bl	19cd0 <nrf_sortlist_pop>
   19460:	4605      	mov	r5, r0
    int64_t remaining = (int64_t)(p_timer->end_val - get_now());
   19462:	e9d5 b302 	ldrd	fp, r3, [r5, #8]
    uint64_t now = m_base_counter + drv_rtc_counter_get(&m_rtc_inst);
   19466:	4638      	mov	r0, r7
    int64_t remaining = (int64_t)(p_timer->end_val - get_now());
   19468:	9303      	str	r3, [sp, #12]
    uint64_t now = m_base_counter + drv_rtc_counter_get(&m_rtc_inst);
   1946a:	f000 fb31 	bl	19ad0 <drv_rtc_counter_get>
   1946e:	4602      	mov	r2, r0
   19470:	e9d9 0100 	ldrd	r0, r1, [r9]
    if (now < m_stamp64) {
   19474:	f8df a1a0 	ldr.w	sl, [pc, #416]	; 19618 <rtc_irq+0x288>
    uint64_t now = m_base_counter + drv_rtc_counter_get(&m_rtc_inst);
   19478:	1880      	adds	r0, r0, r2
    if (now < m_stamp64) {
   1947a:	e9da 2300 	ldrd	r2, r3, [sl]
    uint64_t now = m_base_counter + drv_rtc_counter_get(&m_rtc_inst);
   1947e:	f141 0100 	adc.w	r1, r1, #0
    if (now < m_stamp64) {
   19482:	4299      	cmp	r1, r3
   19484:	bf08      	it	eq
   19486:	4290      	cmpeq	r0, r2
   19488:	9b03      	ldr	r3, [sp, #12]
   1948a:	d203      	bcs.n	19494 <rtc_irq+0x104>
        now += (DRV_RTC_MAX_CNT + 1);
   1948c:	f110 7080 	adds.w	r0, r0, #16777216	; 0x1000000
   19490:	f141 0100 	adc.w	r1, r1, #0
    int64_t remaining = (int64_t)(p_timer->end_val - get_now());
   19494:	ebbb 0200 	subs.w	r2, fp, r0
   19498:	eb63 0301 	sbc.w	r3, r3, r1
   1949c:	9200      	str	r2, [sp, #0]
   1949e:	9301      	str	r3, [sp, #4]
    if (remaining > 0) {
   194a0:	e9dd 2300 	ldrd	r2, r3, [sp]
   194a4:	2a01      	cmp	r2, #1
   194a6:	f173 0100 	sbcs.w	r1, r3, #0
   194aa:	db29      	blt.n	19500 <rtc_irq+0x170>
        uint32_t cc_val = ((uint32_t)remaining > APP_TIMER_RTC_MAX_VALUE) ?
   194ac:	f5b2 0f35 	cmp.w	r2, #11862016	; 0xb50000
   194b0:	d268      	bcs.n	19584 <rtc_irq+0x1f4>
   194b2:	68aa      	ldr	r2, [r5, #8]
        ret = drv_rtc_windowed_compare_set(&m_rtc_inst, 0, cc_val, APP_TIMER_SAFE_WINDOW);
   194b4:	f44f 0396 	mov.w	r3, #4915200	; 0x4b0000
   194b8:	2100      	movs	r1, #0
   194ba:	4638      	mov	r0, r7
   194bc:	f000 fa50 	bl	19960 <drv_rtc_windowed_compare_set>
        if (ret == NRF_SUCCESS)
   194c0:	2800      	cmp	r0, #0
   194c2:	d059      	beq.n	19578 <rtc_irq+0x1e8>
    if (ret == NRF_ERROR_TIMEOUT)
   194c4:	280d      	cmp	r0, #13
   194c6:	d01f      	beq.n	19508 <rtc_irq+0x178>
                    mp_active_timer = NULL;
   194c8:	2300      	movs	r3, #0
   194ca:	6023      	str	r3, [r4, #0]
    nrf_sortlist_item_t const * p_next_item = nrf_sortlist_peek(&m_app_timer_sortlist);
   194cc:	4640      	mov	r0, r8
   194ce:	f000 fc05 	bl	19cdc <nrf_sortlist_peek>
            if (mp_active_timer == NULL)
   194d2:	6823      	ldr	r3, [r4, #0]
        if (p_next) //Candidate for active timer
   194d4:	2800      	cmp	r0, #0
   194d6:	d06e      	beq.n	195b6 <rtc_irq+0x226>
            if (mp_active_timer == NULL)
   194d8:	2b00      	cmp	r3, #0
   194da:	d0be      	beq.n	1945a <rtc_irq+0xca>
            else if (p_next->end_val < mp_active_timer->end_val)
   194dc:	6823      	ldr	r3, [r4, #0]
   194de:	e9d0 0102 	ldrd	r0, r1, [r0, #8]
   194e2:	e9d3 2302 	ldrd	r2, r3, [r3, #8]
   194e6:	4299      	cmp	r1, r3
   194e8:	bf08      	it	eq
   194ea:	4290      	cmpeq	r0, r2
   194ec:	d247      	bcs.n	1957e <rtc_irq+0x1ee>
                if (mp_active_timer->active)
   194ee:	6823      	ldr	r3, [r4, #0]
   194f0:	7f1b      	ldrb	r3, [r3, #28]
   194f2:	2b00      	cmp	r3, #0
   194f4:	d0b1      	beq.n	1945a <rtc_irq+0xca>
                    nrf_sortlist_add(&m_app_timer_sortlist, &mp_active_timer->list_item);
   194f6:	6821      	ldr	r1, [r4, #0]
   194f8:	4640      	mov	r0, r8
   194fa:	f000 fbd5 	bl	19ca8 <nrf_sortlist_add>
            if (rtc_reconf)
   194fe:	e7ac      	b.n	1945a <rtc_irq+0xca>
        drv_rtc_compare_disable(&m_rtc_inst, 0);
   19500:	2100      	movs	r1, #0
   19502:	4638      	mov	r0, r7
   19504:	f000 fac8 	bl	19a98 <drv_rtc_compare_disable>
    if ((m_global_active == true) && (p_timer != NULL) && (p_timer->active))
   19508:	4b3e      	ldr	r3, [pc, #248]	; (19604 <rtc_irq+0x274>)
   1950a:	781b      	ldrb	r3, [r3, #0]
   1950c:	2b00      	cmp	r3, #0
   1950e:	d0db      	beq.n	194c8 <rtc_irq+0x138>
   19510:	7f2b      	ldrb	r3, [r5, #28]
   19512:	2b00      	cmp	r3, #0
   19514:	d0d8      	beq.n	194c8 <rtc_irq+0x138>
    uint64_t now = m_base_counter + drv_rtc_counter_get(&m_rtc_inst);
   19516:	4638      	mov	r0, r7
   19518:	f000 fada 	bl	19ad0 <drv_rtc_counter_get>
    if (now < m_stamp64) {
   1951c:	e9da 2300 	ldrd	r2, r3, [sl]
    uint64_t now = m_base_counter + drv_rtc_counter_get(&m_rtc_inst);
   19520:	e9d9 ab00 	ldrd	sl, fp, [r9]
   19524:	eb1a 0a00 	adds.w	sl, sl, r0
   19528:	f14b 0b00 	adc.w	fp, fp, #0
    if (now < m_stamp64) {
   1952c:	459b      	cmp	fp, r3
   1952e:	bf08      	it	eq
   19530:	4592      	cmpeq	sl, r2
   19532:	d203      	bcs.n	1953c <rtc_irq+0x1ac>
        now += (DRV_RTC_MAX_CNT + 1);
   19534:	f11a 7a80 	adds.w	sl, sl, #16777216	; 0x1000000
   19538:	f14b 0b00 	adc.w	fp, fp, #0
        if (get_now() >= p_timer->end_val) {
   1953c:	e9d5 2302 	ldrd	r2, r3, [r5, #8]
   19540:	459b      	cmp	fp, r3
   19542:	bf08      	it	eq
   19544:	4592      	cmpeq	sl, r2
   19546:	d354      	bcc.n	195f2 <rtc_irq+0x262>
            if (p_timer->repeat_period == 0)
   19548:	692b      	ldr	r3, [r5, #16]
   1954a:	b903      	cbnz	r3, 1954e <rtc_irq+0x1be>
                p_timer->active = false;
   1954c:	772b      	strb	r3, [r5, #28]
            p_timer->handler(p_timer->p_context);
   1954e:	e9d5 3005 	ldrd	r3, r0, [r5, #20]
   19552:	4798      	blx	r3
            if ((p_timer->repeat_period) && (p_timer->active))
   19554:	6929      	ldr	r1, [r5, #16]
   19556:	2900      	cmp	r1, #0
   19558:	d0b6      	beq.n	194c8 <rtc_irq+0x138>
   1955a:	7f2b      	ldrb	r3, [r5, #28]
   1955c:	2b00      	cmp	r3, #0
   1955e:	d0b3      	beq.n	194c8 <rtc_irq+0x138>
                p_timer->end_val += p_timer->repeat_period;
   19560:	e9d5 2302 	ldrd	r2, r3, [r5, #8]
   19564:	1852      	adds	r2, r2, r1
   19566:	f143 0300 	adc.w	r3, r3, #0
   1956a:	e9c5 2302 	strd	r2, r3, [r5, #8]
                nrf_sortlist_add(&m_app_timer_sortlist, &p_timer->list_item);
   1956e:	4629      	mov	r1, r5
   19570:	4640      	mov	r0, r8
   19572:	f000 fb99 	bl	19ca8 <nrf_sortlist_add>
                ret = true;
   19576:	e7a7      	b.n	194c8 <rtc_irq+0x138>
                    if (!APP_TIMER_KEEPS_RTC_ACTIVE && (mp_active_timer == NULL))
   19578:	6823      	ldr	r3, [r4, #0]
   1957a:	b1ab      	cbz	r3, 195a8 <rtc_irq+0x218>
                    mp_active_timer = p_next;
   1957c:	6025      	str	r5, [r4, #0]
        on_compare1_evt(p_instance);
    }

    timer_req_process(p_instance);
    rtc_update(p_instance);
}
   1957e:	b007      	add	sp, #28
   19580:	e8bd 8ff0 	ldmia.w	sp!, {r4, r5, r6, r7, r8, r9, sl, fp, pc}
    return ((ticks_to - ticks_from) & RTC_COUNTER_COUNTER_Msk);
}

uint32_t app_timer_cnt_get(void)
{
    return drv_rtc_counter_get(&m_rtc_inst);
   19584:	4638      	mov	r0, r7
   19586:	f000 faa3 	bl	19ad0 <drv_rtc_counter_get>
        uint32_t cc_val = ((uint32_t)remaining > APP_TIMER_RTC_MAX_VALUE) ?
   1958a:	4a22      	ldr	r2, [pc, #136]	; (19614 <rtc_irq+0x284>)
   1958c:	4402      	add	r2, r0
   1958e:	e791      	b.n	194b4 <rtc_irq+0x124>
                if (!p_req->p_timer->active)
   19590:	6843      	ldr	r3, [r0, #4]
   19592:	7f1a      	ldrb	r2, [r3, #28]
   19594:	2a00      	cmp	r2, #0
   19596:	f47f af32 	bne.w	193fe <rtc_irq+0x6e>
                    p_req->p_timer->active = true;
   1959a:	2201      	movs	r2, #1
   1959c:	771a      	strb	r2, [r3, #28]
                    nrf_sortlist_add(&m_app_timer_sortlist, &(p_req->p_timer->list_item));
   1959e:	6841      	ldr	r1, [r0, #4]
   195a0:	4628      	mov	r0, r5
   195a2:	f000 fb81 	bl	19ca8 <nrf_sortlist_add>
                    NRF_LOG_INST_DEBUG(p_req->p_timer->p_log,"Start request (expiring at %d/0x%08x).",
   195a6:	e72a      	b.n	193fe <rtc_irq+0x6e>
                        drv_rtc_start(p_instance);
   195a8:	4630      	mov	r0, r6
   195aa:	f000 f9ab 	bl	19904 <drv_rtc_start>
   195ae:	e7e5      	b.n	1957c <rtc_irq+0x1ec>
                    mp_active_timer = NULL;
   195b0:	2300      	movs	r3, #0
   195b2:	6023      	str	r3, [r4, #0]
   195b4:	e723      	b.n	193fe <rtc_irq+0x6e>
            if (!APP_TIMER_KEEPS_RTC_ACTIVE && (mp_active_timer == NULL))
   195b6:	2b00      	cmp	r3, #0
   195b8:	d1e1      	bne.n	1957e <rtc_irq+0x1ee>
                drv_rtc_stop(p_instance);
   195ba:	4630      	mov	r0, r6
   195bc:	f000 f9a6 	bl	1990c <drv_rtc_stop>
}
   195c0:	e7dd      	b.n	1957e <rtc_irq+0x1ee>
    uint64_t now = m_base_counter + drv_rtc_counter_get(&m_rtc_inst);
   195c2:	4813      	ldr	r0, [pc, #76]	; (19610 <rtc_irq+0x280>)
    if (now < m_stamp64) {
   195c4:	4d14      	ldr	r5, [pc, #80]	; (19618 <rtc_irq+0x288>)
    uint64_t now = m_base_counter + drv_rtc_counter_get(&m_rtc_inst);
   195c6:	f000 fa83 	bl	19ad0 <drv_rtc_counter_get>
   195ca:	4b0c      	ldr	r3, [pc, #48]	; (195fc <rtc_irq+0x26c>)
   195cc:	e9d3 8900 	ldrd	r8, r9, [r3]
    if (now < m_stamp64) {
   195d0:	e9d5 2300 	ldrd	r2, r3, [r5]
    uint64_t now = m_base_counter + drv_rtc_counter_get(&m_rtc_inst);
   195d4:	eb18 0800 	adds.w	r8, r8, r0
   195d8:	f149 0900 	adc.w	r9, r9, #0
    if (now < m_stamp64) {
   195dc:	4599      	cmp	r9, r3
   195de:	bf08      	it	eq
   195e0:	4590      	cmpeq	r8, r2
   195e2:	d203      	bcs.n	195ec <rtc_irq+0x25c>
        now += (DRV_RTC_MAX_CNT + 1);
   195e4:	f118 7880 	adds.w	r8, r8, #16777216	; 0x1000000
   195e8:	f149 0900 	adc.w	r9, r9, #0
    m_stamp64 = get_now();
   195ec:	e9c5 8900 	strd	r8, r9, [r5]
}
   195f0:	e6f8      	b.n	193e4 <rtc_irq+0x54>
            nrf_sortlist_add(&m_app_timer_sortlist, &p_timer->list_item);
   195f2:	4629      	mov	r1, r5
   195f4:	4640      	mov	r0, r8
   195f6:	f000 fb57 	bl	19ca8 <nrf_sortlist_add>
            ret = true;
   195fa:	e765      	b.n	194c8 <rtc_irq+0x138>
   195fc:	200018c8 	.word	0x200018c8
   19600:	20001948 	.word	0x20001948
   19604:	200018d0 	.word	0x200018d0
   19608:	2000192c 	.word	0x2000192c
   1960c:	0001ea1c 	.word	0x0001ea1c
   19610:	20001800 	.word	0x20001800
   19614:	00b4ffff 	.word	0x00b4ffff
   19618:	20001940 	.word	0x20001940
    uint64_t now = m_base_counter + drv_rtc_counter_get(&m_rtc_inst);
   1961c:	481c      	ldr	r0, [pc, #112]	; (19690 <rtc_irq+0x300>)
   1961e:	f000 fa57 	bl	19ad0 <drv_rtc_counter_get>
   19622:	4a1c      	ldr	r2, [pc, #112]	; (19694 <rtc_irq+0x304>)
    if (now < m_stamp64) {
   19624:	4b1c      	ldr	r3, [pc, #112]	; (19698 <rtc_irq+0x308>)
    uint64_t now = m_base_counter + drv_rtc_counter_get(&m_rtc_inst);
   19626:	e9d2 8900 	ldrd	r8, r9, [r2]
    if (now < m_stamp64) {
   1962a:	e9d3 2300 	ldrd	r2, r3, [r3]
    uint64_t now = m_base_counter + drv_rtc_counter_get(&m_rtc_inst);
   1962e:	eb18 0800 	adds.w	r8, r8, r0
   19632:	f149 0900 	adc.w	r9, r9, #0
    if (now < m_stamp64) {
   19636:	4599      	cmp	r9, r3
   19638:	bf08      	it	eq
   1963a:	4590      	cmpeq	r8, r2
   1963c:	d203      	bcs.n	19646 <rtc_irq+0x2b6>
        now += (DRV_RTC_MAX_CNT + 1);
   1963e:	f118 7880 	adds.w	r8, r8, #16777216	; 0x1000000
   19642:	f149 0900 	adc.w	r9, r9, #0
        if (get_now() >= p_timer->end_val) {
   19646:	e9d5 2302 	ldrd	r2, r3, [r5, #8]
   1964a:	4599      	cmp	r9, r3
   1964c:	bf08      	it	eq
   1964e:	4590      	cmpeq	r8, r2
   19650:	d319      	bcc.n	19686 <rtc_irq+0x2f6>
            if (p_timer->repeat_period == 0)
   19652:	692b      	ldr	r3, [r5, #16]
   19654:	b903      	cbnz	r3, 19658 <rtc_irq+0x2c8>
                p_timer->active = false;
   19656:	772b      	strb	r3, [r5, #28]
            p_timer->handler(p_timer->p_context);
   19658:	e9d5 3005 	ldrd	r3, r0, [r5, #20]
   1965c:	4798      	blx	r3
            if ((p_timer->repeat_period) && (p_timer->active))
   1965e:	6929      	ldr	r1, [r5, #16]
   19660:	2900      	cmp	r1, #0
   19662:	f43f aeb6 	beq.w	193d2 <rtc_irq+0x42>
   19666:	7f2b      	ldrb	r3, [r5, #28]
   19668:	2b00      	cmp	r3, #0
   1966a:	f43f aeb2 	beq.w	193d2 <rtc_irq+0x42>
                p_timer->end_val += p_timer->repeat_period;
   1966e:	e9d5 2302 	ldrd	r2, r3, [r5, #8]
   19672:	1852      	adds	r2, r2, r1
   19674:	f143 0300 	adc.w	r3, r3, #0
   19678:	e9c5 2302 	strd	r2, r3, [r5, #8]
                nrf_sortlist_add(&m_app_timer_sortlist, &p_timer->list_item);
   1967c:	4807      	ldr	r0, [pc, #28]	; (1969c <rtc_irq+0x30c>)
   1967e:	4629      	mov	r1, r5
   19680:	f000 fb12 	bl	19ca8 <nrf_sortlist_add>
                ret = true;
   19684:	e6a5      	b.n	193d2 <rtc_irq+0x42>
            nrf_sortlist_add(&m_app_timer_sortlist, &p_timer->list_item);
   19686:	4805      	ldr	r0, [pc, #20]	; (1969c <rtc_irq+0x30c>)
   19688:	4629      	mov	r1, r5
   1968a:	f000 fb0d 	bl	19ca8 <nrf_sortlist_add>
            ret = true;
   1968e:	e6a0      	b.n	193d2 <rtc_irq+0x42>
   19690:	20001800 	.word	0x20001800
   19694:	200018c8 	.word	0x200018c8
   19698:	20001940 	.word	0x20001940
   1969c:	0001ea1c 	.word	0x0001ea1c

000196a0 <app_timer_init>:
{
   196a0:	b510      	push	{r4, lr}
    drv_rtc_config_t config = {
   196a2:	4b13      	ldr	r3, [pc, #76]	; (196f0 <app_timer_init+0x50>)
    err_code = NRF_ATFIFO_INIT(m_req_fifo);
   196a4:	4913      	ldr	r1, [pc, #76]	; (196f4 <app_timer_init+0x54>)
    drv_rtc_config_t config = {
   196a6:	681b      	ldr	r3, [r3, #0]
    err_code = NRF_ATFIFO_INIT(m_req_fifo);
   196a8:	4813      	ldr	r0, [pc, #76]	; (196f8 <app_timer_init+0x58>)
{
   196aa:	b082      	sub	sp, #8
    err_code = NRF_ATFIFO_INIT(m_req_fifo);
   196ac:	2258      	movs	r2, #88	; 0x58
    drv_rtc_config_t config = {
   196ae:	9301      	str	r3, [sp, #4]
    err_code = NRF_ATFIFO_INIT(m_req_fifo);
   196b0:	2308      	movs	r3, #8
   196b2:	f000 fa2b 	bl	19b0c <nrf_atfifo_init>
    if (err_code != NRFX_SUCCESS)
   196b6:	4604      	mov	r4, r0
   196b8:	b110      	cbz	r0, 196c0 <app_timer_init+0x20>
}
   196ba:	4620      	mov	r0, r4
   196bc:	b002      	add	sp, #8
   196be:	bd10      	pop	{r4, pc}
    err_code = drv_rtc_init(&m_rtc_inst, &config, rtc_irq);
   196c0:	4a0e      	ldr	r2, [pc, #56]	; (196fc <app_timer_init+0x5c>)
   196c2:	480f      	ldr	r0, [pc, #60]	; (19700 <app_timer_init+0x60>)
   196c4:	a901      	add	r1, sp, #4
   196c6:	f000 f8db 	bl	19880 <drv_rtc_init>
    if (err_code != NRFX_SUCCESS)
   196ca:	4604      	mov	r4, r0
   196cc:	2800      	cmp	r0, #0
   196ce:	d1f4      	bne.n	196ba <app_timer_init+0x1a>
    drv_rtc_overflow_enable(&m_rtc_inst, true);
   196d0:	480b      	ldr	r0, [pc, #44]	; (19700 <app_timer_init+0x60>)
   196d2:	2101      	movs	r1, #1
   196d4:	f000 f9c6 	bl	19a64 <drv_rtc_overflow_enable>
    drv_rtc_compare_set(&m_rtc_inst, 1, DRV_RTC_MAX_CNT >> 1, true);
   196d8:	2301      	movs	r3, #1
   196da:	4619      	mov	r1, r3
   196dc:	4a09      	ldr	r2, [pc, #36]	; (19704 <app_timer_init+0x64>)
   196de:	4808      	ldr	r0, [pc, #32]	; (19700 <app_timer_init+0x60>)
   196e0:	f000 f918 	bl	19914 <drv_rtc_compare_set>
    m_global_active = true;
   196e4:	4b08      	ldr	r3, [pc, #32]	; (19708 <app_timer_init+0x68>)
   196e6:	2201      	movs	r2, #1
}
   196e8:	4620      	mov	r0, r4
    m_global_active = true;
   196ea:	701a      	strb	r2, [r3, #0]
}
   196ec:	b002      	add	sp, #8
   196ee:	bd10      	pop	{r4, pc}
   196f0:	0001ea18 	.word	0x0001ea18
   196f4:	200018d4 	.word	0x200018d4
   196f8:	2000192c 	.word	0x2000192c
   196fc:	00019391 	.word	0x00019391
   19700:	20001800 	.word	0x20001800
   19704:	007fffff 	.word	0x007fffff
   19708:	200018d0 	.word	0x200018d0

0001970c <app_timer_create>:
    if (timeout_handler == NULL)
   1970c:	b14a      	cbz	r2, 19722 <app_timer_create+0x16>
    p_t->repeat_period = (mode == APP_TIMER_MODE_REPEATED) ? 1 : 0;
   1970e:	f1a1 0101 	sub.w	r1, r1, #1
    app_timer_t * p_t = (app_timer_t *) *p_timer_id;
   19712:	6803      	ldr	r3, [r0, #0]
    p_t->repeat_period = (mode == APP_TIMER_MODE_REPEATED) ? 1 : 0;
   19714:	fab1 f181 	clz	r1, r1
   19718:	0949      	lsrs	r1, r1, #5
   1971a:	e9c3 1204 	strd	r1, r2, [r3, #16]
    return NRF_SUCCESS;
   1971e:	2000      	movs	r0, #0
   19720:	4770      	bx	lr
        return NRF_ERROR_INVALID_PARAM;
   19722:	2007      	movs	r0, #7
}
   19724:	4770      	bx	lr
   19726:	bf00      	nop

00019728 <app_timer_start>:
    if (p_t->active)
   19728:	7f03      	ldrb	r3, [r0, #28]
   1972a:	b10b      	cbz	r3, 19730 <app_timer_start+0x8>
        return NRF_SUCCESS;
   1972c:	2000      	movs	r0, #0
}
   1972e:	4770      	bx	lr
{
   19730:	b5f0      	push	{r4, r5, r6, r7, lr}
    p_t->p_context = p_context;
   19732:	6182      	str	r2, [r0, #24]
{
   19734:	b083      	sub	sp, #12
   19736:	4604      	mov	r4, r0
    uint64_t now = m_base_counter + drv_rtc_counter_get(&m_rtc_inst);
   19738:	481a      	ldr	r0, [pc, #104]	; (197a4 <app_timer_start+0x7c>)
   1973a:	460d      	mov	r5, r1
   1973c:	f000 f9c8 	bl	19ad0 <drv_rtc_counter_get>
   19740:	4b19      	ldr	r3, [pc, #100]	; (197a8 <app_timer_start+0x80>)
    if (now < m_stamp64) {
   19742:	491a      	ldr	r1, [pc, #104]	; (197ac <app_timer_start+0x84>)
    uint64_t now = m_base_counter + drv_rtc_counter_get(&m_rtc_inst);
   19744:	e9d3 2300 	ldrd	r2, r3, [r3]
    if (now < m_stamp64) {
   19748:	e9d1 6700 	ldrd	r6, r7, [r1]
    uint64_t now = m_base_counter + drv_rtc_counter_get(&m_rtc_inst);
   1974c:	1812      	adds	r2, r2, r0
   1974e:	f143 0300 	adc.w	r3, r3, #0
    if (now < m_stamp64) {
   19752:	42bb      	cmp	r3, r7
   19754:	bf08      	it	eq
   19756:	42b2      	cmpeq	r2, r6
   19758:	d203      	bcs.n	19762 <app_timer_start+0x3a>
        now += (DRV_RTC_MAX_CNT + 1);
   1975a:	f112 7280 	adds.w	r2, r2, #16777216	; 0x1000000
   1975e:	f143 0300 	adc.w	r3, r3, #0
    p_t->end_val = get_now() + timeout_ticks;
   19762:	1952      	adds	r2, r2, r5
    if (p_t->repeat_period)
   19764:	6921      	ldr	r1, [r4, #16]
    p_t->end_val = get_now() + timeout_ticks;
   19766:	f143 0300 	adc.w	r3, r3, #0
   1976a:	e9c4 2302 	strd	r2, r3, [r4, #8]
    if (p_t->repeat_period)
   1976e:	b101      	cbz	r1, 19772 <app_timer_start+0x4a>
        p_t->repeat_period = timeout_ticks;
   19770:	6125      	str	r5, [r4, #16]
    p_req = nrf_atfifo_item_alloc(m_req_fifo, &fifo_ctx);
   19772:	480f      	ldr	r0, [pc, #60]	; (197b0 <app_timer_start+0x88>)
   19774:	a901      	add	r1, sp, #4
   19776:	f000 f9df 	bl	19b38 <nrf_atfifo_item_alloc>
    if (p_req)
   1977a:	b148      	cbz	r0, 19790 <app_timer_start+0x68>
        p_req->type    = type;
   1977c:	2500      	movs	r5, #0
        p_req->p_timer = p_timer;
   1977e:	6044      	str	r4, [r0, #4]
        p_req->type    = type;
   19780:	7005      	strb	r5, [r0, #0]
        if (nrf_atfifo_item_put(m_req_fifo, &fifo_ctx))
   19782:	a901      	add	r1, sp, #4
   19784:	480a      	ldr	r0, [pc, #40]	; (197b0 <app_timer_start+0x88>)
   19786:	f000 fa05 	bl	19b94 <nrf_atfifo_item_put>
   1978a:	b920      	cbnz	r0, 19796 <app_timer_start+0x6e>
}
   1978c:	b003      	add	sp, #12
   1978e:	bdf0      	pop	{r4, r5, r6, r7, pc}
        return NRF_ERROR_NO_MEM;
   19790:	2004      	movs	r0, #4
}
   19792:	b003      	add	sp, #12
   19794:	bdf0      	pop	{r4, r5, r6, r7, pc}
    drv_rtc_irq_trigger(&m_rtc_inst);
   19796:	4803      	ldr	r0, [pc, #12]	; (197a4 <app_timer_start+0x7c>)
   19798:	f000 f99e 	bl	19ad8 <drv_rtc_irq_trigger>
        return NRF_SUCCESS;
   1979c:	4628      	mov	r0, r5
}
   1979e:	b003      	add	sp, #12
   197a0:	bdf0      	pop	{r4, r5, r6, r7, pc}
   197a2:	bf00      	nop
   197a4:	20001800 	.word	0x20001800
   197a8:	200018c8 	.word	0x200018c8
   197ac:	20001940 	.word	0x20001940
   197b0:	2000192c 	.word	0x2000192c

000197b4 <app_timer_stop>:
{
   197b4:	b530      	push	{r4, r5, lr}
    p_t->active = false;
   197b6:	2500      	movs	r5, #0
{
   197b8:	b083      	sub	sp, #12
   197ba:	4604      	mov	r4, r0
    p_t->active = false;
   197bc:	7705      	strb	r5, [r0, #28]
    p_req = nrf_atfifo_item_alloc(m_req_fifo, &fifo_ctx);
   197be:	a901      	add	r1, sp, #4
   197c0:	480b      	ldr	r0, [pc, #44]	; (197f0 <app_timer_stop+0x3c>)
   197c2:	f000 f9b9 	bl	19b38 <nrf_atfifo_item_alloc>
    if (p_req)
   197c6:	b178      	cbz	r0, 197e8 <app_timer_stop+0x34>
        p_req->type    = type;
   197c8:	2301      	movs	r3, #1
        p_req->p_timer = p_timer;
   197ca:	6044      	str	r4, [r0, #4]
        p_req->type    = type;
   197cc:	7003      	strb	r3, [r0, #0]
        if (nrf_atfifo_item_put(m_req_fifo, &fifo_ctx))
   197ce:	a901      	add	r1, sp, #4
   197d0:	4807      	ldr	r0, [pc, #28]	; (197f0 <app_timer_stop+0x3c>)
   197d2:	f000 f9df 	bl	19b94 <nrf_atfifo_item_put>
   197d6:	b908      	cbnz	r0, 197dc <app_timer_stop+0x28>
}
   197d8:	b003      	add	sp, #12
   197da:	bd30      	pop	{r4, r5, pc}
    drv_rtc_irq_trigger(&m_rtc_inst);
   197dc:	4805      	ldr	r0, [pc, #20]	; (197f4 <app_timer_stop+0x40>)
   197de:	f000 f97b 	bl	19ad8 <drv_rtc_irq_trigger>
        return NRF_SUCCESS;
   197e2:	4628      	mov	r0, r5
}
   197e4:	b003      	add	sp, #12
   197e6:	bd30      	pop	{r4, r5, pc}
        return NRF_ERROR_NO_MEM;
   197e8:	2004      	movs	r0, #4
}
   197ea:	b003      	add	sp, #12
   197ec:	bd30      	pop	{r4, r5, pc}
   197ee:	bf00      	nop
   197f0:	2000192c 	.word	0x2000192c
   197f4:	20001800 	.word	0x20001800

000197f8 <app_timer_cnt_get>:
    return drv_rtc_counter_get(&m_rtc_inst);
   197f8:	4801      	ldr	r0, [pc, #4]	; (19800 <app_timer_cnt_get+0x8>)
   197fa:	f000 b969 	b.w	19ad0 <drv_rtc_counter_get>
   197fe:	bf00      	nop
   19800:	20001800 	.word	0x20001800

00019804 <app_util_critical_region_enter>:
        __enable_irq();
    }
}

void app_util_critical_region_enter(uint8_t *p_nested)
{
   19804:	b470      	push	{r4, r5, r6}
  __ASM volatile ("MRS %0, primask" : "=r" (result) );
   19806:	f3ef 8410 	mrs	r4, PRIMASK
  __ASM volatile ("cpsid i" : : : "memory");
   1980a:	b672      	cpsid	i
}

__STATIC_INLINE uint32_t sd_nvic_critical_region_enter(uint8_t * p_is_nested_critical_region)
{
  int was_masked = __sd_nvic_irq_disable();
  if (!nrf_nvic_state.__cr_flag)
   1980c:	4b0d      	ldr	r3, [pc, #52]	; (19844 <app_util_critical_region_enter+0x40>)
   1980e:	689a      	ldr	r2, [r3, #8]
   19810:	b9aa      	cbnz	r2, 1983e <app_util_critical_region_enter+0x3a>
  {
    nrf_nvic_state.__cr_flag = 1;
    nrf_nvic_state.__irq_masks[0] = ( NVIC->ICER[0] & __NRF_NVIC_APP_IRQS_0 );
   19812:	490d      	ldr	r1, [pc, #52]	; (19848 <app_util_critical_region_enter+0x44>)
   19814:	4e0d      	ldr	r6, [pc, #52]	; (1984c <app_util_critical_region_enter+0x48>)
    nrf_nvic_state.__cr_flag = 1;
   19816:	2501      	movs	r5, #1
   19818:	609d      	str	r5, [r3, #8]
    nrf_nvic_state.__irq_masks[0] = ( NVIC->ICER[0] & __NRF_NVIC_APP_IRQS_0 );
   1981a:	f8d1 5080 	ldr.w	r5, [r1, #128]	; 0x80
   1981e:	4035      	ands	r5, r6
   19820:	601d      	str	r5, [r3, #0]
    NVIC->ICER[0] = __NRF_NVIC_APP_IRQS_0;
   19822:	f8c1 6080 	str.w	r6, [r1, #128]	; 0x80
    nrf_nvic_state.__irq_masks[1] = ( NVIC->ICER[1] & __NRF_NVIC_APP_IRQS_1 );
   19826:	f8d1 5084 	ldr.w	r5, [r1, #132]	; 0x84
   1982a:	605d      	str	r5, [r3, #4]
    NVIC->ICER[1] = __NRF_NVIC_APP_IRQS_1;
   1982c:	f04f 33ff 	mov.w	r3, #4294967295	; 0xffffffff
   19830:	f8c1 3084 	str.w	r3, [r1, #132]	; 0x84
    *p_is_nested_critical_region = 0;
   19834:	7002      	strb	r2, [r0, #0]
  }
  else
  {
    *p_is_nested_critical_region = 1;
  }
  if (!was_masked)
   19836:	b904      	cbnz	r4, 1983a <app_util_critical_region_enter+0x36>
  __ASM volatile ("cpsie i" : : : "memory");
   19838:	b662      	cpsie	i
    /* return value can be safely ignored */
    (void) sd_nvic_critical_region_enter(p_nested);
#else
    app_util_disable_irq();
#endif
}
   1983a:	bc70      	pop	{r4, r5, r6}
   1983c:	4770      	bx	lr
    *p_is_nested_critical_region = 1;
   1983e:	2301      	movs	r3, #1
   19840:	7003      	strb	r3, [r0, #0]
   19842:	e7f8      	b.n	19836 <app_util_critical_region_enter+0x32>
   19844:	20001cf8 	.word	0x20001cf8
   19848:	e000e100 	.word	0xe000e100
   1984c:	bdff06fc 	.word	0xbdff06fc

00019850 <app_util_critical_region_exit>:
  return NRF_SUCCESS;
}

__STATIC_INLINE uint32_t sd_nvic_critical_region_exit(uint8_t is_nested_critical_region)
{
  if (nrf_nvic_state.__cr_flag && (is_nested_critical_region == 0))
   19850:	4b09      	ldr	r3, [pc, #36]	; (19878 <app_util_critical_region_exit+0x28>)
   19852:	689a      	ldr	r2, [r3, #8]
   19854:	b172      	cbz	r2, 19874 <app_util_critical_region_exit+0x24>
   19856:	b968      	cbnz	r0, 19874 <app_util_critical_region_exit+0x24>

void app_util_critical_region_exit(uint8_t nested)
{
   19858:	b410      	push	{r4}
  __ASM volatile ("MRS %0, primask" : "=r" (result) );
   1985a:	f3ef 8110 	mrs	r1, PRIMASK
  __ASM volatile ("cpsid i" : : : "memory");
   1985e:	b672      	cpsid	i
  {
    int was_masked = __sd_nvic_irq_disable();
    NVIC->ISER[0] = nrf_nvic_state.__irq_masks[0];
   19860:	4a06      	ldr	r2, [pc, #24]	; (1987c <app_util_critical_region_exit+0x2c>)
   19862:	681c      	ldr	r4, [r3, #0]
   19864:	6014      	str	r4, [r2, #0]
    NVIC->ISER[1] = nrf_nvic_state.__irq_masks[1];
   19866:	685c      	ldr	r4, [r3, #4]
   19868:	6054      	str	r4, [r2, #4]
    nrf_nvic_state.__cr_flag = 0;
   1986a:	6098      	str	r0, [r3, #8]
    if (!was_masked)
   1986c:	b901      	cbnz	r1, 19870 <app_util_critical_region_exit+0x20>
  __ASM volatile ("cpsie i" : : : "memory");
   1986e:	b662      	cpsie	i
    /* return value can be safely ignored */
    (void) sd_nvic_critical_region_exit(nested);
#else
    app_util_enable_irq();
#endif
}
   19870:	bc10      	pop	{r4}
   19872:	4770      	bx	lr
   19874:	4770      	bx	lr
   19876:	bf00      	nop
   19878:	20001cf8 	.word	0x20001cf8
   1987c:	e000e100 	.word	0xe000e100

00019880 <drv_rtc_init>:
#define COUNTER_TO_CC_MIN_DISTANCE 2

ret_code_t drv_rtc_init(drv_rtc_t const * const  p_instance,
                        drv_rtc_config_t const * p_config,
                        drv_rtc_handler_t        handler)
{
   19880:	b470      	push	{r4, r5, r6}

    ret_code_t err_code;

    m_handlers[p_instance->instance_id] = handler;

    if (m_cb[p_instance->instance_id].state != NRFX_DRV_STATE_UNINITIALIZED)
   19882:	4c1c      	ldr	r4, [pc, #112]	; (198f4 <drv_rtc_init+0x74>)
    m_handlers[p_instance->instance_id] = handler;
   19884:	7943      	ldrb	r3, [r0, #5]
   19886:	4e1c      	ldr	r6, [pc, #112]	; (198f8 <drv_rtc_init+0x78>)
    if (m_cb[p_instance->instance_id].state != NRFX_DRV_STATE_UNINITIALIZED)
   19888:	eb04 05c3 	add.w	r5, r4, r3, lsl #3
    m_handlers[p_instance->instance_id] = handler;
   1988c:	f846 2023 	str.w	r2, [r6, r3, lsl #2]
    if (m_cb[p_instance->instance_id].state != NRFX_DRV_STATE_UNINITIALIZED)
   19890:	792d      	ldrb	r5, [r5, #4]
   19892:	bb65      	cbnz	r5, 198ee <drv_rtc_init+0x6e>
        err_code = NRF_ERROR_INVALID_STATE;
        NRF_LOG_WARNING("RTC instance already initialized.");
        return err_code;
    }

    nrf_rtc_prescaler_set(p_instance->p_reg, p_config->prescaler);
   19894:	6803      	ldr	r3, [r0, #0]
   19896:	880a      	ldrh	r2, [r1, #0]
}

__STATIC_INLINE void nrf_rtc_prescaler_set(NRF_RTC_Type * p_reg, uint32_t val)
{
    NRFX_ASSERT(val <= (RTC_PRESCALER_PRESCALER_Msk >> RTC_PRESCALER_PRESCALER_Pos));
    p_reg->PRESCALER = val;
   19898:	f8c3 2508 	str.w	r2, [r3, #1288]	; 0x508
    NRFX_IRQ_PRIORITY_SET(p_instance->irq, p_config->interrupt_priority);
   1989c:	f990 3004 	ldrsb.w	r3, [r0, #4]
   198a0:	788a      	ldrb	r2, [r1, #2]
  if ((int32_t)(IRQn) < 0)
   198a2:	2b00      	cmp	r3, #0
   198a4:	db1b      	blt.n	198de <drv_rtc_init+0x5e>
    NVIC->IP[((uint32_t)(int32_t)IRQn)]               = (uint8_t)((priority << (8U - __NVIC_PRIO_BITS)) & (uint32_t)0xFFUL);
   198a6:	f103 4360 	add.w	r3, r3, #3758096384	; 0xe0000000
   198aa:	f503 4361 	add.w	r3, r3, #57600	; 0xe100
   198ae:	0152      	lsls	r2, r2, #5
   198b0:	b2d2      	uxtb	r2, r2
   198b2:	f883 2300 	strb.w	r2, [r3, #768]	; 0x300
    NRFX_IRQ_ENABLE(p_instance->irq);
   198b6:	f990 3004 	ldrsb.w	r3, [r0, #4]
  NVIC->ISER[(((uint32_t)(int32_t)IRQn) >> 5UL)] = (uint32_t)(1UL << (((uint32_t)(int32_t)IRQn) & 0x1FUL));
   198ba:	4d10      	ldr	r5, [pc, #64]	; (198fc <drv_rtc_init+0x7c>)
   198bc:	f003 021f 	and.w	r2, r3, #31
   198c0:	2101      	movs	r1, #1
   198c2:	095b      	lsrs	r3, r3, #5
   198c4:	fa01 f202 	lsl.w	r2, r1, r2
   198c8:	f845 2023 	str.w	r2, [r5, r3, lsl #2]

    m_cb[p_instance->instance_id].state = NRFX_DRV_STATE_INITIALIZED;
   198cc:	7943      	ldrb	r3, [r0, #5]
   198ce:	eb04 02c3 	add.w	r2, r4, r3, lsl #3
    m_cb[p_instance->instance_id].p_instance = p_instance;
   198d2:	f844 0033 	str.w	r0, [r4, r3, lsl #3]
    m_cb[p_instance->instance_id].state = NRFX_DRV_STATE_INITIALIZED;
   198d6:	7111      	strb	r1, [r2, #4]

    err_code = NRF_SUCCESS;
    NRF_LOG_INFO("RTC: initialized.");
    return err_code;
   198d8:	2000      	movs	r0, #0
}
   198da:	bc70      	pop	{r4, r5, r6}
   198dc:	4770      	bx	lr
    SCB->SHP[(((uint32_t)(int32_t)IRQn) & 0xFUL)-4UL] = (uint8_t)((priority << (8U - __NVIC_PRIO_BITS)) & (uint32_t)0xFFUL);
   198de:	4908      	ldr	r1, [pc, #32]	; (19900 <drv_rtc_init+0x80>)
   198e0:	f003 030f 	and.w	r3, r3, #15
   198e4:	0152      	lsls	r2, r2, #5
   198e6:	4419      	add	r1, r3
   198e8:	b2d2      	uxtb	r2, r2
   198ea:	760a      	strb	r2, [r1, #24]
   198ec:	e7e3      	b.n	198b6 <drv_rtc_init+0x36>
        return err_code;
   198ee:	2008      	movs	r0, #8
}
   198f0:	bc70      	pop	{r4, r5, r6}
   198f2:	4770      	bx	lr
   198f4:	2000194c 	.word	0x2000194c
   198f8:	20001954 	.word	0x20001954
   198fc:	e000e100 	.word	0xe000e100
   19900:	e000ecfc 	.word	0xe000ecfc

00019904 <drv_rtc_start>:
}

void drv_rtc_start(drv_rtc_t const * const p_instance)
{
    ASSERT(p_instance);
    nrf_rtc_task_trigger(p_instance->p_reg, NRF_RTC_TASK_START);
   19904:	6803      	ldr	r3, [r0, #0]
    return (uint32_t)p_reg + task;
}

__STATIC_INLINE void nrf_rtc_task_trigger(NRF_RTC_Type * p_reg, nrf_rtc_task_t task)
{
    *(__IO uint32_t *)((uint32_t)p_reg + task) = 1;
   19906:	2201      	movs	r2, #1
   19908:	601a      	str	r2, [r3, #0]
}
   1990a:	4770      	bx	lr

0001990c <drv_rtc_stop>:
   1990c:	6803      	ldr	r3, [r0, #0]
   1990e:	2201      	movs	r2, #1
   19910:	605a      	str	r2, [r3, #4]

void drv_rtc_stop(drv_rtc_t const * const p_instance)
{
    ASSERT(p_instance);
    nrf_rtc_task_trigger(p_instance->p_reg, NRF_RTC_TASK_STOP);
}
   19912:	4770      	bx	lr

00019914 <drv_rtc_compare_set>:

void drv_rtc_compare_set(drv_rtc_t const * const p_instance,
                         uint32_t                cc,
                         uint32_t                abs_value,
                         bool                    irq_enable)
{
   19914:	b4f0      	push	{r4, r5, r6, r7}
    ASSERT(p_instance);
    nrf_rtc_int_t   cc_int_mask = (nrf_rtc_int_t)(NRF_RTC_INT_COMPARE0_MASK << cc);
    nrf_rtc_event_t cc_evt      = CC_IDX_TO_CC_EVENT(cc);
    abs_value &= RTC_COUNTER_COUNTER_Msk;

    nrf_rtc_int_disable(p_instance->p_reg, cc_int_mask);
   19916:	6804      	ldr	r4, [r0, #0]
    nrf_rtc_int_t   cc_int_mask = (nrf_rtc_int_t)(NRF_RTC_INT_COMPARE0_MASK << cc);
   19918:	f44f 3580 	mov.w	r5, #65536	; 0x10000
   1991c:	408d      	lsls	r5, r1
    p_reg->INTENCLR = mask;
   1991e:	f8c4 5308 	str.w	r5, [r4, #776]	; 0x308
    nrf_rtc_event_disable(p_instance->p_reg, cc_int_mask);
   19922:	6806      	ldr	r6, [r0, #0]
    nrf_rtc_event_t cc_evt      = CC_IDX_TO_CC_EVENT(cc);
   19924:	f101 0450 	add.w	r4, r1, #80	; 0x50
    p_reg->EVTENSET = mask;
}

__STATIC_INLINE void nrf_rtc_event_disable(NRF_RTC_Type * p_reg, uint32_t mask)
{
    p_reg->EVTENCLR = mask;
   19928:	f8c6 5348 	str.w	r5, [r6, #840]	; 0x348
   1992c:	00a4      	lsls	r4, r4, #2
    *((volatile uint32_t *)((uint8_t *)p_reg + (uint32_t)event)) = 0;
   1992e:	6806      	ldr	r6, [r0, #0]
   19930:	b2a4      	uxth	r4, r4
   19932:	2700      	movs	r7, #0
   19934:	5137      	str	r7, [r6, r4]
{
   19936:	b082      	sub	sp, #8
    volatile uint32_t dummy = *((volatile uint32_t *)((uint8_t *)p_reg + (uint32_t)event));
   19938:	5936      	ldr	r6, [r6, r4]
    nrf_rtc_event_clear(p_instance->p_reg, cc_evt);
    nrf_rtc_cc_set(p_instance->p_reg, cc,abs_value);
   1993a:	6804      	ldr	r4, [r0, #0]
   1993c:	9601      	str	r6, [sp, #4]
    p_reg->CC[ch] = cc_val;
   1993e:	f501 71a8 	add.w	r1, r1, #336	; 0x150
    abs_value &= RTC_COUNTER_COUNTER_Msk;
   19942:	f022 427f 	bic.w	r2, r2, #4278190080	; 0xff000000
    (void)dummy;
   19946:	9e01      	ldr	r6, [sp, #4]
    p_reg->CC[ch] = cc_val;
   19948:	f844 2021 	str.w	r2, [r4, r1, lsl #2]
    nrf_rtc_event_enable(p_instance->p_reg, cc_int_mask);
   1994c:	6802      	ldr	r2, [r0, #0]
    p_reg->EVTENSET = mask;
   1994e:	f8c2 5344 	str.w	r5, [r2, #836]	; 0x344

    if (irq_enable)
   19952:	b113      	cbz	r3, 1995a <drv_rtc_compare_set+0x46>
    {
        nrf_rtc_int_enable(p_instance->p_reg, cc_int_mask);
   19954:	6803      	ldr	r3, [r0, #0]
    p_reg->INTENSET = mask;
   19956:	f8c3 5304 	str.w	r5, [r3, #772]	; 0x304
    }
}
   1995a:	b002      	add	sp, #8
   1995c:	bcf0      	pop	{r4, r5, r6, r7}
   1995e:	4770      	bx	lr

00019960 <drv_rtc_windowed_compare_set>:

ret_code_t drv_rtc_windowed_compare_set(drv_rtc_t const * const p_instance,
                                        uint32_t                cc,
                                        uint32_t                abs_value,
                                        uint32_t                safe_window)
{
   19960:	e92d 47f0 	stmdb	sp!, {r4, r5, r6, r7, r8, r9, sl, lr}
   19964:	460d      	mov	r5, r1
    ASSERT(p_instance);
    uint32_t        prev_cc_set;
    uint32_t        now;
    uint32_t        diff;
    nrf_rtc_int_t   cc_int_mask = (nrf_rtc_int_t)(NRF_RTC_INT_COMPARE0_MASK << cc);
   19966:	f44f 3780 	mov.w	r7, #65536	; 0x10000
    nrf_rtc_event_disable(p_instance->p_reg, mask);
   1996a:	6801      	ldr	r1, [r0, #0]
    nrf_rtc_int_t   cc_int_mask = (nrf_rtc_int_t)(NRF_RTC_INT_COMPARE0_MASK << cc);
   1996c:	40af      	lsls	r7, r5
    p_reg->EVTENCLR = mask;
   1996e:	f8c1 7348 	str.w	r7, [r1, #840]	; 0x348
    nrf_rtc_int_disable(p_instance->p_reg, mask);
   19972:	6801      	ldr	r1, [r0, #0]
    p_reg->INTENCLR = mask;
   19974:	f8c1 7308 	str.w	r7, [r1, #776]	; 0x308
     * - read previous CC
     * - write current counter value to CC (furtherest in future)
     * - if previous CC was in one tick from now wait half of the 32k tick and clear event which
     *   may be set. Half tick delay is used because CC is latched in the middle of the 32k tick.
     */
    now = nrf_rtc_counter_get(p_instance->p_reg);
   19978:	6801      	ldr	r1, [r0, #0]
{
   1997a:	4604      	mov	r4, r0
   1997c:	eb01 0085 	add.w	r0, r1, r5, lsl #2
     return p_reg->COUNTER;
   19980:	f8d1 c504 	ldr.w	ip, [r1, #1284]	; 0x504
    return p_reg->CC[ch];
   19984:	f8d0 1540 	ldr.w	r1, [r0, #1344]	; 0x540
    p_reg->CC[ch] = cc_val;
   19988:	f8c0 c540 	str.w	ip, [r0, #1344]	; 0x540
    nrf_rtc_event_t cc_evt      = CC_IDX_TO_CC_EVENT(cc);;
   1998c:	f105 0650 	add.w	r6, r5, #80	; 0x50
   19990:	00b6      	lsls	r6, r6, #2
    *((volatile uint32_t *)((uint8_t *)p_reg + (uint32_t)event)) = 0;
   19992:	6820      	ldr	r0, [r4, #0]
   19994:	b2b6      	uxth	r6, r6
   19996:	f04f 0900 	mov.w	r9, #0
   1999a:	f840 9006 	str.w	r9, [r0, r6]
{
   1999e:	b082      	sub	sp, #8
    return (a - b) & RTC_COUNTER_COUNTER_Msk;
   199a0:	eba1 010c 	sub.w	r1, r1, ip
    volatile uint32_t dummy = *((volatile uint32_t *)((uint8_t *)p_reg + (uint32_t)event));
   199a4:	5980      	ldr	r0, [r0, r6]
   199a6:	9000      	str	r0, [sp, #0]
   199a8:	f021 417f 	bic.w	r1, r1, #4278190080	; 0xff000000
    prev_cc_set = nrf_rtc_cc_get(p_instance->p_reg, cc);
    nrf_rtc_cc_set(p_instance->p_reg, cc, now);
    nrf_rtc_event_clear(p_instance->p_reg, cc_evt);

    if (ticks_sub(prev_cc_set, now) == 1)
   199ac:	2901      	cmp	r1, #1
{
   199ae:	469a      	mov	sl, r3
    abs_value &=RTC_COUNTER_COUNTER_Msk;
   199b0:	f022 487f 	bic.w	r8, r2, #4278190080	; 0xff000000
    (void)dummy;
   199b4:	9b00      	ldr	r3, [sp, #0]
    if (ticks_sub(prev_cc_set, now) == 1)
   199b6:	d045      	beq.n	19a44 <drv_rtc_windowed_compare_set+0xe4>
    {
        nrf_delay_us(16);
        nrf_rtc_event_clear(p_instance->p_reg, cc_evt);
    }

    now = nrf_rtc_counter_get(p_instance->p_reg);
   199b8:	6823      	ldr	r3, [r4, #0]
     return p_reg->COUNTER;
   199ba:	f8d3 6504 	ldr.w	r6, [r3, #1284]	; 0x504
    p_reg->EVTENSET = mask;
   199be:	f8c3 7344 	str.w	r7, [r3, #836]	; 0x344
    return (a - b) & RTC_COUNTER_COUNTER_Msk;
   199c2:	eba8 0306 	sub.w	r3, r8, r6
   199c6:	f023 437f 	bic.w	r3, r3, #4278190080	; 0xff000000

    nrf_rtc_event_enable(p_instance->p_reg, cc_int_mask);

    /* Setting CC for +1 from now may not generate event. In that case set CC+2 and check if counter
     * changed during that process. If changed it means that 1 tick expired. */
    if (diff == 1)
   199ca:	2b01      	cmp	r3, #1
    p_reg->CC[ch] = cc_val;
   199cc:	f505 75a8 	add.w	r5, r5, #336	; 0x150
   199d0:	d027      	beq.n	19a22 <drv_rtc_windowed_compare_set+0xc2>
        {
            /* one tick elapsed already. */
            return NRF_ERROR_TIMEOUT;
        }
    } else {
        nrf_rtc_cc_set(p_instance->p_reg, cc, abs_value);
   199d2:	6823      	ldr	r3, [r4, #0]
   199d4:	f843 8025 	str.w	r8, [r3, r5, lsl #2]
        now = nrf_rtc_counter_get(p_instance->p_reg);
   199d8:	6821      	ldr	r1, [r4, #0]
     return p_reg->COUNTER;
   199da:	f8d1 0504 	ldr.w	r0, [r1, #1284]	; 0x504
    return (a - b) & RTC_COUNTER_COUNTER_Msk;
   199de:	eba8 0200 	sub.w	r2, r8, r0
        diff = ticks_sub(abs_value - 1, now);
        /* Check if counter equals cc value or is behind in the safe window. If yes it means that
         * CC expired. */
        if (diff > (RTC_COUNTER_COUNTER_Msk - safe_window))
   199e2:	f1ca 13ff 	rsb	r3, sl, #16711935	; 0xff00ff
    return (a - b) & RTC_COUNTER_COUNTER_Msk;
   199e6:	3a01      	subs	r2, #1
        if (diff > (RTC_COUNTER_COUNTER_Msk - safe_window))
   199e8:	f503 437f 	add.w	r3, r3, #65280	; 0xff00
    return (a - b) & RTC_COUNTER_COUNTER_Msk;
   199ec:	f022 427f 	bic.w	r2, r2, #4278190080	; 0xff000000
        if (diff > (RTC_COUNTER_COUNTER_Msk - safe_window))
   199f0:	4293      	cmp	r3, r2
   199f2:	d312      	bcc.n	19a1a <drv_rtc_windowed_compare_set+0xba>
        {
            return NRF_ERROR_TIMEOUT;
        }
        else if (diff == 0)
   199f4:	b142      	cbz	r2, 19a08 <drv_rtc_windowed_compare_set+0xa8>
    p_reg->EVTENSET = mask;
   199f6:	f8c1 7344 	str.w	r7, [r1, #836]	; 0x344
        nrf_rtc_int_enable(p_instance->p_reg, mask);
   199fa:	6823      	ldr	r3, [r4, #0]
        }
    }

    evt_enable(p_instance, cc_int_mask, true);

    return NRF_SUCCESS;
   199fc:	2000      	movs	r0, #0
    p_reg->INTENSET = mask;
   199fe:	f8c3 7304 	str.w	r7, [r3, #772]	; 0x304
}
   19a02:	b002      	add	sp, #8
   19a04:	e8bd 87f0 	ldmia.w	sp!, {r4, r5, r6, r7, r8, r9, sl, pc}
            nrf_rtc_cc_set(p_instance->p_reg, cc, abs_value + 1);
   19a08:	f108 0201 	add.w	r2, r8, #1
    p_reg->CC[ch] = cc_val;
   19a0c:	f841 2025 	str.w	r2, [r1, r5, lsl #2]
            if (now != nrf_rtc_counter_get(p_instance->p_reg))
   19a10:	6821      	ldr	r1, [r4, #0]
     return p_reg->COUNTER;
   19a12:	f8d1 3504 	ldr.w	r3, [r1, #1284]	; 0x504
   19a16:	4298      	cmp	r0, r3
   19a18:	d0ed      	beq.n	199f6 <drv_rtc_windowed_compare_set+0x96>
            return NRF_ERROR_TIMEOUT;
   19a1a:	200d      	movs	r0, #13
}
   19a1c:	b002      	add	sp, #8
   19a1e:	e8bd 87f0 	ldmia.w	sp!, {r4, r5, r6, r7, r8, r9, sl, pc}
        nrf_rtc_cc_set(p_instance->p_reg, cc, abs_value + 1);
   19a22:	6820      	ldr	r0, [r4, #0]
    };

    typedef void (* delay_func_t)(uint32_t);
    const delay_func_t delay_cycles =
        // Set LSB to 1 to execute the code in the Thumb mode.
        (delay_func_t)((((uint32_t)delay_machine_code) | 1));
   19a24:	4b0e      	ldr	r3, [pc, #56]	; (19a60 <drv_rtc_windowed_compare_set+0x100>)
   19a26:	f108 0201 	add.w	r2, r8, #1
    p_reg->CC[ch] = cc_val;
   19a2a:	f840 2025 	str.w	r2, [r0, r5, lsl #2]
   19a2e:	f043 0301 	orr.w	r3, r3, #1
    uint32_t cycles = time_us * NRFX_DELAY_CPU_FREQ_MHZ;
    delay_cycles(cycles);
   19a32:	f44f 6080 	mov.w	r0, #1024	; 0x400
   19a36:	4798      	blx	r3
        if (now != nrf_rtc_counter_get(p_instance->p_reg))
   19a38:	6821      	ldr	r1, [r4, #0]
     return p_reg->COUNTER;
   19a3a:	f8d1 3504 	ldr.w	r3, [r1, #1284]	; 0x504
   19a3e:	429e      	cmp	r6, r3
   19a40:	d0d9      	beq.n	199f6 <drv_rtc_windowed_compare_set+0x96>
   19a42:	e7ea      	b.n	19a1a <drv_rtc_windowed_compare_set+0xba>
        (delay_func_t)((((uint32_t)delay_machine_code) | 1));
   19a44:	4b06      	ldr	r3, [pc, #24]	; (19a60 <drv_rtc_windowed_compare_set+0x100>)
    delay_cycles(cycles);
   19a46:	f44f 6080 	mov.w	r0, #1024	; 0x400
        (delay_func_t)((((uint32_t)delay_machine_code) | 1));
   19a4a:	f043 0301 	orr.w	r3, r3, #1
    delay_cycles(cycles);
   19a4e:	4798      	blx	r3
    *((volatile uint32_t *)((uint8_t *)p_reg + (uint32_t)event)) = 0;
   19a50:	6823      	ldr	r3, [r4, #0]
   19a52:	f843 9006 	str.w	r9, [r3, r6]
    volatile uint32_t dummy = *((volatile uint32_t *)((uint8_t *)p_reg + (uint32_t)event));
   19a56:	599b      	ldr	r3, [r3, r6]
   19a58:	9301      	str	r3, [sp, #4]
    (void)dummy;
   19a5a:	9b01      	ldr	r3, [sp, #4]
}
   19a5c:	e7ac      	b.n	199b8 <drv_rtc_windowed_compare_set+0x58>
   19a5e:	bf00      	nop
   19a60:	0001ea30 	.word	0x0001ea30

00019a64 <drv_rtc_overflow_enable>:
    nrf_rtc_event_enable(p_instance->p_reg, mask);
   19a64:	6802      	ldr	r2, [r0, #0]
    p_reg->EVTENSET = mask;
   19a66:	2302      	movs	r3, #2
   19a68:	f8c2 3344 	str.w	r3, [r2, #836]	; 0x344
    if (irq_enable)
   19a6c:	b111      	cbz	r1, 19a74 <drv_rtc_overflow_enable+0x10>
        nrf_rtc_int_enable(p_instance->p_reg, mask);
   19a6e:	6802      	ldr	r2, [r0, #0]
    p_reg->INTENSET = mask;
   19a70:	f8c2 3304 	str.w	r3, [r2, #772]	; 0x304

void drv_rtc_overflow_enable(drv_rtc_t const * const p_instance, bool irq_enable)
{
    evt_enable(p_instance, NRF_RTC_INT_OVERFLOW_MASK, irq_enable);
}
   19a74:	4770      	bx	lr
   19a76:	bf00      	nop

00019a78 <drv_rtc_overflow_pending>:
    evt_disable(p_instance, NRF_RTC_INT_OVERFLOW_MASK);
}

bool drv_rtc_overflow_pending(drv_rtc_t const * const p_instance)
{
    return evt_pending(p_instance, NRF_RTC_EVENT_OVERFLOW);
   19a78:	6803      	ldr	r3, [r0, #0]
    return *(volatile uint32_t *)((uint8_t *)p_reg + (uint32_t)event);
   19a7a:	f8d3 0104 	ldr.w	r0, [r3, #260]	; 0x104
    if (nrf_rtc_event_pending(p_instance->p_reg, event))
   19a7e:	b900      	cbnz	r0, 19a82 <drv_rtc_overflow_pending+0xa>
}
   19a80:	4770      	bx	lr
    *((volatile uint32_t *)((uint8_t *)p_reg + (uint32_t)event)) = 0;
   19a82:	2200      	movs	r2, #0
{
   19a84:	b082      	sub	sp, #8
   19a86:	f8c3 2104 	str.w	r2, [r3, #260]	; 0x104
    volatile uint32_t dummy = *((volatile uint32_t *)((uint8_t *)p_reg + (uint32_t)event));
   19a8a:	f8d3 3104 	ldr.w	r3, [r3, #260]	; 0x104
   19a8e:	9301      	str	r3, [sp, #4]
    (void)dummy;
   19a90:	9b01      	ldr	r3, [sp, #4]
        return true;
   19a92:	2001      	movs	r0, #1
}
   19a94:	b002      	add	sp, #8
   19a96:	4770      	bx	lr

00019a98 <drv_rtc_compare_disable>:
    nrf_rtc_event_disable(p_instance->p_reg, mask);
   19a98:	6802      	ldr	r2, [r0, #0]
    evt_enable(p_instance, (uint32_t)NRF_RTC_INT_COMPARE0_MASK << cc, irq_enable);
}

void drv_rtc_compare_disable(drv_rtc_t const * const p_instance, uint32_t cc)
{
    evt_disable(p_instance, (uint32_t)NRF_RTC_INT_COMPARE0_MASK << cc);
   19a9a:	f44f 3380 	mov.w	r3, #65536	; 0x10000
   19a9e:	fa03 f101 	lsl.w	r1, r3, r1
    p_reg->EVTENCLR = mask;
   19aa2:	f8c2 1348 	str.w	r1, [r2, #840]	; 0x348
    nrf_rtc_int_disable(p_instance->p_reg, mask);
   19aa6:	6803      	ldr	r3, [r0, #0]
    p_reg->INTENCLR = mask;
   19aa8:	f8c3 1308 	str.w	r1, [r3, #776]	; 0x308
}
   19aac:	4770      	bx	lr
   19aae:	bf00      	nop

00019ab0 <drv_rtc_compare_pending>:

bool drv_rtc_compare_pending(drv_rtc_t const * const p_instance, uint32_t cc)
{
    nrf_rtc_event_t cc_evt = CC_IDX_TO_CC_EVENT(cc);
   19ab0:	3150      	adds	r1, #80	; 0x50
   19ab2:	0089      	lsls	r1, r1, #2
    return *(volatile uint32_t *)((uint8_t *)p_reg + (uint32_t)event);
   19ab4:	6803      	ldr	r3, [r0, #0]
   19ab6:	b289      	uxth	r1, r1
   19ab8:	5858      	ldr	r0, [r3, r1]
    if (nrf_rtc_event_pending(p_instance->p_reg, event))
   19aba:	b900      	cbnz	r0, 19abe <drv_rtc_compare_pending+0xe>
    return evt_pending(p_instance, cc_evt);
}
   19abc:	4770      	bx	lr
    *((volatile uint32_t *)((uint8_t *)p_reg + (uint32_t)event)) = 0;
   19abe:	2200      	movs	r2, #0
   19ac0:	505a      	str	r2, [r3, r1]
{
   19ac2:	b082      	sub	sp, #8
    volatile uint32_t dummy = *((volatile uint32_t *)((uint8_t *)p_reg + (uint32_t)event));
   19ac4:	585b      	ldr	r3, [r3, r1]
   19ac6:	9301      	str	r3, [sp, #4]
    (void)dummy;
   19ac8:	9b01      	ldr	r3, [sp, #4]
        return true;
   19aca:	2001      	movs	r0, #1
}
   19acc:	b002      	add	sp, #8
   19ace:	4770      	bx	lr

00019ad0 <drv_rtc_counter_get>:

uint32_t drv_rtc_counter_get(drv_rtc_t const * const p_instance)
{
    return nrf_rtc_counter_get(p_instance->p_reg);
   19ad0:	6803      	ldr	r3, [r0, #0]
     return p_reg->COUNTER;
   19ad2:	f8d3 0504 	ldr.w	r0, [r3, #1284]	; 0x504
}
   19ad6:	4770      	bx	lr

00019ad8 <drv_rtc_irq_trigger>:

void drv_rtc_irq_trigger(drv_rtc_t const * const p_instance)
{
    NVIC_SetPendingIRQ(p_instance->irq);
   19ad8:	f990 3004 	ldrsb.w	r3, [r0, #4]
  NVIC->ISPR[(((uint32_t)(int32_t)IRQn) >> 5UL)] = (uint32_t)(1UL << (((uint32_t)(int32_t)IRQn) & 0x1FUL));
   19adc:	4805      	ldr	r0, [pc, #20]	; (19af4 <drv_rtc_irq_trigger+0x1c>)
   19ade:	095a      	lsrs	r2, r3, #5
   19ae0:	2101      	movs	r1, #1
   19ae2:	3240      	adds	r2, #64	; 0x40
   19ae4:	f003 031f 	and.w	r3, r3, #31
   19ae8:	fa01 f303 	lsl.w	r3, r1, r3
   19aec:	f840 3022 	str.w	r3, [r0, r2, lsl #2]
}
   19af0:	4770      	bx	lr
   19af2:	bf00      	nop
   19af4:	e000e100 	.word	0xe000e100

00019af8 <RTC1_IRQHandler>:
#endif

#if defined(APP_TIMER_V2_RTC1_ENABLED)
void drv_rtc_rtc_1_irq_handler(void)
{
    m_handlers[DRV_RTC_RTC1_INST_IDX](m_cb[DRV_RTC_RTC1_INST_IDX].p_instance);
   19af8:	4a02      	ldr	r2, [pc, #8]	; (19b04 <RTC1_IRQHandler+0xc>)
   19afa:	4b03      	ldr	r3, [pc, #12]	; (19b08 <RTC1_IRQHandler+0x10>)
   19afc:	6810      	ldr	r0, [r2, #0]
   19afe:	681b      	ldr	r3, [r3, #0]
   19b00:	4718      	bx	r3
   19b02:	bf00      	nop
   19b04:	2000194c 	.word	0x2000194c
   19b08:	20001954 	.word	0x20001954

00019b0c <nrf_atfifo_init>:
STATIC_ASSERT(sizeof(nrf_atfifo_postag_t) == sizeof(uint32_t));


ret_code_t nrf_atfifo_init(nrf_atfifo_t * const p_fifo, void * p_buf, uint16_t buf_size, uint16_t item_size)
{
    if (NULL == p_buf)
   19b0c:	b189      	cbz	r1, 19b32 <nrf_atfifo_init+0x26>
{
   19b0e:	b430      	push	{r4, r5}
    {
        NRF_LOG_INST_ERROR(p_fifo->p_log, "Initialization failed. p_buf == NULL");
        return NRF_ERROR_NULL;
    }
    if (0 != (buf_size % item_size))
   19b10:	fbb2 f4f3 	udiv	r4, r2, r3
   19b14:	fb03 2414 	mls	r4, r3, r4, r2
   19b18:	4605      	mov	r5, r0
   19b1a:	b2a0      	uxth	r0, r4
   19b1c:	b930      	cbnz	r0, 19b2c <nrf_atfifo_init+0x20>
        NRF_LOG_INST_ERROR(p_fifo->p_log, "Initialization failed. Buf_size not multiple of item_size");
        return NRF_ERROR_INVALID_LENGTH;
    }

    p_fifo->p_buf     = p_buf;
    p_fifo->tail.tag  = 0;
   19b1e:	e9c5 1000 	strd	r1, r0, [r5]
    p_fifo->head.tag  = 0;
   19b22:	60a8      	str	r0, [r5, #8]
    p_fifo->buf_size  = buf_size;
   19b24:	81aa      	strh	r2, [r5, #12]
    p_fifo->item_size = item_size;
   19b26:	81eb      	strh	r3, [r5, #14]

    NRF_LOG_INST_INFO(p_fifo->p_log, "Initialized.");
    return NRF_SUCCESS;
}
   19b28:	bc30      	pop	{r4, r5}
   19b2a:	4770      	bx	lr
        return NRF_ERROR_INVALID_LENGTH;
   19b2c:	2009      	movs	r0, #9
}
   19b2e:	bc30      	pop	{r4, r5}
   19b30:	4770      	bx	lr
        return NRF_ERROR_NULL;
   19b32:	200e      	movs	r0, #14
}
   19b34:	4770      	bx	lr
   19b36:	bf00      	nop

00019b38 <nrf_atfifo_item_alloc>:
    return NRF_SUCCESS;
}


void * nrf_atfifo_item_alloc(nrf_atfifo_t * const p_fifo, nrf_atfifo_item_put_t * p_context)
{
   19b38:	b430      	push	{r4, r5}
   19b3a:	b082      	sub	sp, #8
    volatile bool ret;
    volatile uint32_t old_tail;
    uint32_t new_tail;
    uint32_t temp;

    __ASM volatile(
   19b3c:	e850 3f01 	ldrex	r3, [r0, #4]
   19b40:	b29d      	uxth	r5, r3
   19b42:	89c4      	ldrh	r4, [r0, #14]
   19b44:	4425      	add	r5, r4
   19b46:	8984      	ldrh	r4, [r0, #12]
   19b48:	42a5      	cmp	r5, r4
   19b4a:	bf28      	it	cs
   19b4c:	1b2d      	subcs	r5, r5, r4
   19b4e:	8904      	ldrh	r4, [r0, #8]
   19b50:	42a5      	cmp	r5, r4
   19b52:	bf02      	ittt	eq
   19b54:	f3bf 8f2f 	clrexeq
   19b58:	2200      	moveq	r2, #0
   19b5a:	e007      	beq.n	19b6c <nrf_atfifo_item_alloc+0x34>
   19b5c:	eac5 0503 	pkhbt	r5, r5, r3
   19b60:	e840 5401 	strex	r4, r5, [r0, #4]
   19b64:	2c00      	cmp	r4, #0
   19b66:	d1e9      	bne.n	19b3c <nrf_atfifo_item_alloc+0x4>
   19b68:	f04f 0201 	mov.w	r2, #1
   19b6c:	f88d 2003 	strb.w	r2, [sp, #3]
   19b70:	9301      	str	r3, [sp, #4]
            [true_val]        "I"(true),
            [false_val]       "I"(false)
        : /* Clobbers */
            "cc");

    p_old_tail->tag = old_tail;
   19b72:	9b01      	ldr	r3, [sp, #4]
    UNUSED_VARIABLE(new_tail);
    UNUSED_VARIABLE(temp);
    return ret;
   19b74:	f89d 2003 	ldrb.w	r2, [sp, #3]
    p_old_tail->tag = old_tail;
   19b78:	600b      	str	r3, [r1, #0]
    if (nrf_atfifo_wspace_req(p_fifo, &(p_context->last_tail)))
   19b7a:	b12a      	cbz	r2, 19b88 <nrf_atfifo_item_alloc+0x50>
    {
        void * p_item = ((uint8_t*)(p_fifo->p_buf)) + p_context->last_tail.pos.wr;
   19b7c:	880b      	ldrh	r3, [r1, #0]
   19b7e:	6800      	ldr	r0, [r0, #0]
   19b80:	4418      	add	r0, r3
        NRF_LOG_INST_DEBUG(p_fifo->p_log, "Allocated  element (0x%08X).", p_item);
        return p_item;
    }
    NRF_LOG_INST_WARNING(p_fifo->p_log, "Allocation failed - no space.");
    return NULL;
}
   19b82:	b002      	add	sp, #8
   19b84:	bc30      	pop	{r4, r5}
   19b86:	4770      	bx	lr
   19b88:	f002 03ff 	and.w	r3, r2, #255	; 0xff
    return NULL;
   19b8c:	4618      	mov	r0, r3
}
   19b8e:	b002      	add	sp, #8
   19b90:	bc30      	pop	{r4, r5}
   19b92:	4770      	bx	lr

00019b94 <nrf_atfifo_item_put>:


bool nrf_atfifo_item_put(nrf_atfifo_t * const p_fifo, nrf_atfifo_item_put_t * p_context)
{
    if ((p_context->last_tail.pos.wr) == (p_context->last_tail.pos.rd))
   19b94:	880a      	ldrh	r2, [r1, #0]
   19b96:	884b      	ldrh	r3, [r1, #2]
   19b98:	429a      	cmp	r2, r3
   19b9a:	d001      	beq.n	19ba0 <nrf_atfifo_item_put+0xc>
        NRF_LOG_INST_DEBUG(p_fifo->p_log, "Put (uninterrupted)");
        nrf_atfifo_wspace_close(p_fifo);
        return true;
    }
    NRF_LOG_INST_DEBUG(p_fifo->p_log, "Put (interrupted!)");
    return false;
   19b9c:	2000      	movs	r0, #0
}
   19b9e:	4770      	bx	lr
void nrf_atfifo_wspace_close(nrf_atfifo_t * const p_fifo)
{
    uint32_t temp;
    uint32_t new_tail;

    __ASM volatile(
   19ba0:	e850 2f01 	ldrex	r2, [r0, #4]
   19ba4:	eac2 4202 	pkhbt	r2, r2, r2, lsl #16
   19ba8:	e840 2301 	strex	r3, r2, [r0, #4]
   19bac:	2b00      	cmp	r3, #0
   19bae:	d1f7      	bne.n	19ba0 <nrf_atfifo_item_put+0xc>
   19bb0:	2001      	movs	r0, #1
   19bb2:	4770      	bx	lr

00019bb4 <nrf_atfifo_item_get>:
    return NRF_SUCCESS;
}


void * nrf_atfifo_item_get(nrf_atfifo_t * const p_fifo, nrf_atfifo_item_get_t * p_context)
{
   19bb4:	b430      	push	{r4, r5}
   19bb6:	b082      	sub	sp, #8
    volatile bool ret;
    volatile uint32_t old_head;
    uint32_t new_head;
    uint32_t temp;

    __ASM volatile(
   19bb8:	e850 3f02 	ldrex	r3, [r0, #8]
   19bbc:	fa1f f5a3 	uxth.w	r5, r3, ror #16
   19bc0:	88c4      	ldrh	r4, [r0, #6]
   19bc2:	42a5      	cmp	r5, r4
   19bc4:	bf02      	ittt	eq
   19bc6:	f3bf 8f2f 	clrexeq
   19bca:	2200      	moveq	r2, #0
   19bcc:	e00d      	beq.n	19bea <nrf_atfifo_item_get+0x36>
   19bce:	89c4      	ldrh	r4, [r0, #14]
   19bd0:	4425      	add	r5, r4
   19bd2:	8984      	ldrh	r4, [r0, #12]
   19bd4:	42a5      	cmp	r5, r4
   19bd6:	bf28      	it	cs
   19bd8:	1b2d      	subcs	r5, r5, r4
   19bda:	eac3 4505 	pkhbt	r5, r3, r5, lsl #16
   19bde:	e840 5402 	strex	r4, r5, [r0, #8]
   19be2:	2c00      	cmp	r4, #0
   19be4:	d1e8      	bne.n	19bb8 <nrf_atfifo_item_get+0x4>
   19be6:	f04f 0201 	mov.w	r2, #1
   19bea:	f88d 2003 	strb.w	r2, [sp, #3]
   19bee:	9301      	str	r3, [sp, #4]
            [true_val]        "I"(true),
            [false_val]       "I"(false)
        : /* Clobbers */
            "cc");

    p_old_head->tag = old_head;
   19bf0:	9b01      	ldr	r3, [sp, #4]
    UNUSED_VARIABLE(new_head);
    UNUSED_VARIABLE(temp);
    return ret;
   19bf2:	f89d 2003 	ldrb.w	r2, [sp, #3]
    p_old_head->tag = old_head;
   19bf6:	600b      	str	r3, [r1, #0]
    if (nrf_atfifo_rspace_req(p_fifo, &(p_context->last_head)))
   19bf8:	b12a      	cbz	r2, 19c06 <nrf_atfifo_item_get+0x52>
    {
        void * p_item = ((uint8_t*)(p_fifo->p_buf)) + p_context->last_head.pos.rd;
   19bfa:	884b      	ldrh	r3, [r1, #2]
   19bfc:	6800      	ldr	r0, [r0, #0]
   19bfe:	4418      	add	r0, r3
        NRF_LOG_INST_DEBUG(p_fifo->p_log, "Get element: 0x%08X", p_item);
        return p_item;
    }
    NRF_LOG_INST_WARNING(p_fifo->p_log, "Get failed - no item in the FIFO.");
    return NULL;
}
   19c00:	b002      	add	sp, #8
   19c02:	bc30      	pop	{r4, r5}
   19c04:	4770      	bx	lr
   19c06:	f002 03ff 	and.w	r3, r2, #255	; 0xff
    return NULL;
   19c0a:	4618      	mov	r0, r3
}
   19c0c:	b002      	add	sp, #8
   19c0e:	bc30      	pop	{r4, r5}
   19c10:	4770      	bx	lr
   19c12:	bf00      	nop

00019c14 <nrf_atfifo_item_free>:


bool nrf_atfifo_item_free(nrf_atfifo_t * const p_fifo, nrf_atfifo_item_get_t * p_context)
{
    if ((p_context->last_head.pos.wr) == (p_context->last_head.pos.rd))
   19c14:	880a      	ldrh	r2, [r1, #0]
   19c16:	884b      	ldrh	r3, [r1, #2]
   19c18:	429a      	cmp	r2, r3
   19c1a:	d001      	beq.n	19c20 <nrf_atfifo_item_free+0xc>
        NRF_LOG_INST_DEBUG(p_fifo->p_log, "Free (uninterrupted)");
        nrf_atfifo_rspace_close(p_fifo);
        return true;
    }
    NRF_LOG_INST_DEBUG(p_fifo->p_log, "Free (interrupted)");
    return false;
   19c1c:	2000      	movs	r0, #0
}
   19c1e:	4770      	bx	lr
void nrf_atfifo_rspace_close(nrf_atfifo_t * const p_fifo)
{
    uint32_t temp;
    uint32_t new_head;

    __ASM volatile(
   19c20:	e850 2f02 	ldrex	r2, [r0, #8]
   19c24:	eac2 4222 	pkhtb	r2, r2, r2, asr #16
   19c28:	e840 2302 	strex	r3, r2, [r0, #8]
   19c2c:	2b00      	cmp	r3, #0
   19c2e:	d1f7      	bne.n	19c20 <nrf_atfifo_item_free+0xc>
   19c30:	2001      	movs	r0, #1
   19c32:	4770      	bx	lr

00019c34 <sd_app_evt_wait>:
 *
 * @post An application interrupt has happened or a interrupt pending flag is set.
 *
 * @retval ::NRF_SUCCESS
 */
SVCALL(SD_APP_EVT_WAIT, uint32_t, sd_app_evt_wait(void));
   19c34:	df41      	svc	65	; 0x41
   19c36:	4770      	bx	lr

00019c38 <nrf_pwr_mgmt_init>:

ret_code_t nrf_pwr_mgmt_init(void)
{
    NRF_LOG_INFO("Init");

    m_shutdown_started = false;
   19c38:	4a06      	ldr	r2, [pc, #24]	; (19c54 <nrf_pwr_mgmt_init+0x1c>)

__STATIC_INLINE void nrf_mtx_init(nrf_mtx_t * p_mtx)
{
    ASSERT(p_mtx  != NULL);

    *p_mtx = NRF_MTX_UNLOCKED;
   19c3a:	4b07      	ldr	r3, [pc, #28]	; (19c58 <nrf_pwr_mgmt_init+0x20>)
{
   19c3c:	b510      	push	{r4, lr}
    m_shutdown_started = false;
   19c3e:	2400      	movs	r4, #0
   19c40:	7014      	strb	r4, [r2, #0]
   19c42:	601c      	str	r4, [r3, #0]
  \details Ensures the apparent order of the explicit memory operations before
           and after the instruction, without ensuring their completion.
 */
__attribute__((always_inline)) __STATIC_INLINE void __DMB(void)
{
  __ASM volatile ("dmb 0xF":::"memory");
   19c44:	f3bf 8f5f 	dmb	sy
    nrf_mtx_init(&m_sysoff_mtx);
    nrf_section_iter_init(&m_handlers_iter, &pwr_mgmt_data);
   19c48:	4904      	ldr	r1, [pc, #16]	; (19c5c <nrf_pwr_mgmt_init+0x24>)
   19c4a:	4805      	ldr	r0, [pc, #20]	; (19c60 <nrf_pwr_mgmt_init+0x28>)
   19c4c:	f000 f816 	bl	19c7c <nrf_section_iter_init>
    PWR_MGMT_DEBUG_PINS_INIT();
    PWR_MGMT_STANDBY_TIMEOUT_INIT();
    PWR_MGMT_CPU_USAGE_MONITOR_INIT();

    return PWR_MGMT_TIMER_CREATE();
}
   19c50:	4620      	mov	r0, r4
   19c52:	bd10      	pop	{r4, pc}
   19c54:	20001960 	.word	0x20001960
   19c58:	20001964 	.word	0x20001964
   19c5c:	0001ea38 	.word	0x0001ea38
   19c60:	20001958 	.word	0x20001958

00019c64 <nrf_pwr_mgmt_run>:

void nrf_pwr_mgmt_run(void)
{
   19c64:	b508      	push	{r3, lr}
    PWR_MGMT_CPU_USAGE_MONITOR_SECTION_ENTER();
    PWR_MGMT_DEBUG_PIN_SET();

    // Wait for an event.
#ifdef SOFTDEVICE_PRESENT
    if (nrf_sdh_is_enabled())
   19c66:	f002 fd43 	bl	1c6f0 <nrf_sdh_is_enabled>
   19c6a:	b918      	cbnz	r0, 19c74 <nrf_pwr_mgmt_run+0x10>
  __ASM volatile ("wfe");
   19c6c:	bf20      	wfe
  __ASM volatile ("sev");
   19c6e:	bf40      	sev
  __ASM volatile ("wfe");
   19c70:	bf20      	wfe
    }

    PWR_MGMT_DEBUG_PIN_CLEAR();
    PWR_MGMT_CPU_USAGE_MONITOR_SECTION_EXIT();
    PWR_MGMT_SLEEP_LOCK_RELEASE();
}
   19c72:	bd08      	pop	{r3, pc}
   19c74:	e8bd 4008 	ldmia.w	sp!, {r3, lr}
        ret_code_t ret_code = sd_app_evt_wait();
   19c78:	f7ff bfdc 	b.w	19c34 <sd_app_evt_wait>

00019c7c <nrf_section_iter_init>:
void nrf_section_iter_init(nrf_section_iter_t * p_iter, nrf_section_set_t const * p_set)
{
    ASSERT(p_iter != NULL);
    ASSERT(p_set  != NULL);

    p_iter->p_set = p_set;
   19c7c:	6001      	str	r1, [r0, #0]

#if defined(__GNUC__)
    p_iter->p_item = p_iter->p_set->section.p_start;
   19c7e:	680b      	ldr	r3, [r1, #0]
   19c80:	6043      	str	r3, [r0, #4]
    if (p_iter->p_item == p_iter->p_set->section.p_end)
   19c82:	684a      	ldr	r2, [r1, #4]
   19c84:	4293      	cmp	r3, r2
    {
        p_iter->p_item = NULL;
   19c86:	bf04      	itt	eq
   19c88:	2300      	moveq	r3, #0
   19c8a:	6043      	streq	r3, [r0, #4]
    }
#else
    p_iter->p_section = p_set->p_first;
    nrf_section_iter_item_set(p_iter);
#endif
}
   19c8c:	4770      	bx	lr
   19c8e:	bf00      	nop

00019c90 <nrf_section_iter_next>:
void nrf_section_iter_next(nrf_section_iter_t * p_iter)
{
    ASSERT(p_iter        != NULL);
    ASSERT(p_iter->p_set != NULL);

    if (p_iter->p_item == NULL)
   19c90:	6843      	ldr	r3, [r0, #4]
   19c92:	b143      	cbz	r3, 19ca6 <nrf_section_iter_next+0x16>
    {
        return;
    }

    p_iter->p_item = (void *)((size_t)(p_iter->p_item) + p_iter->p_set->item_size);
   19c94:	6802      	ldr	r2, [r0, #0]
   19c96:	6891      	ldr	r1, [r2, #8]
   19c98:	440b      	add	r3, r1
   19c9a:	6043      	str	r3, [r0, #4]

#if defined(__GNUC__)
    if (p_iter->p_item == p_iter->p_set->section.p_end)
   19c9c:	6852      	ldr	r2, [r2, #4]
   19c9e:	4293      	cmp	r3, r2
    {
        p_iter->p_item = NULL;
   19ca0:	bf04      	itt	eq
   19ca2:	2300      	moveq	r3, #0
   19ca4:	6043      	streq	r3, [r0, #4]
    {
        p_iter->p_section++;
        nrf_section_iter_item_set(p_iter);
    }
#endif
}
   19ca6:	4770      	bx	lr

00019ca8 <nrf_sortlist_add>:
#endif // NRF_SORTLIST_CONFIG_LOG_ENABLED
#include "nrf_log.h"
NRF_LOG_MODULE_REGISTER();

void nrf_sortlist_add(nrf_sortlist_t const * p_list, nrf_sortlist_item_t * p_item)
{
   19ca8:	b570      	push	{r4, r5, r6, lr}
    ASSERT(p_list);
    ASSERT(p_item);

    nrf_sortlist_item_t ** pp_curr = &(p_list->p_cb->p_head);
   19caa:	6844      	ldr	r4, [r0, #4]
{
   19cac:	4606      	mov	r6, r0

    while(*pp_curr != NULL)
   19cae:	6820      	ldr	r0, [r4, #0]
{
   19cb0:	460d      	mov	r5, r1
    while(*pp_curr != NULL)
   19cb2:	b918      	cbnz	r0, 19cbc <nrf_sortlist_add+0x14>
   19cb4:	e008      	b.n	19cc8 <nrf_sortlist_add+0x20>
    {
        if(!(p_list->compare_func(*pp_curr, p_item)))
        {
            break;
        }
        pp_curr = &((*pp_curr)->p_next);
   19cb6:	6824      	ldr	r4, [r4, #0]
    while(*pp_curr != NULL)
   19cb8:	6820      	ldr	r0, [r4, #0]
   19cba:	b128      	cbz	r0, 19cc8 <nrf_sortlist_add+0x20>
        if(!(p_list->compare_func(*pp_curr, p_item)))
   19cbc:	68b3      	ldr	r3, [r6, #8]
   19cbe:	4629      	mov	r1, r5
   19cc0:	4798      	blx	r3
   19cc2:	2800      	cmp	r0, #0
   19cc4:	d1f7      	bne.n	19cb6 <nrf_sortlist_add+0xe>
   19cc6:	6820      	ldr	r0, [r4, #0]
    }

    p_item->p_next = *pp_curr;
   19cc8:	6028      	str	r0, [r5, #0]
    *pp_curr = p_item;
   19cca:	6025      	str	r5, [r4, #0]

    NRF_LOG_INFO("List:%s, adding element:%08X after:%08X, before:%08X",
                                  p_list->p_name, p_item, *pp_curr, p_item->p_next);
}
   19ccc:	bd70      	pop	{r4, r5, r6, pc}
   19cce:	bf00      	nop

00019cd0 <nrf_sortlist_pop>:

nrf_sortlist_item_t * nrf_sortlist_pop(nrf_sortlist_t const * p_list)
{
    ASSERT(p_list);
    nrf_sortlist_item_t * ret = p_list->p_cb->p_head;
   19cd0:	6843      	ldr	r3, [r0, #4]
   19cd2:	6818      	ldr	r0, [r3, #0]
    if (p_list->p_cb->p_head != NULL)
   19cd4:	b108      	cbz	r0, 19cda <nrf_sortlist_pop+0xa>
    {
        p_list->p_cb->p_head = p_list->p_cb->p_head->p_next;
   19cd6:	6802      	ldr	r2, [r0, #0]
   19cd8:	601a      	str	r2, [r3, #0]
    }
    NRF_LOG_INFO("List:%s, poping element:%08X", p_list->p_name, ret);
    return ret;
}
   19cda:	4770      	bx	lr

00019cdc <nrf_sortlist_peek>:

nrf_sortlist_item_t const * nrf_sortlist_peek(nrf_sortlist_t const * p_list)
{
    ASSERT(p_list);
    return p_list->p_cb->p_head;
   19cdc:	6843      	ldr	r3, [r0, #4]
}
   19cde:	6818      	ldr	r0, [r3, #0]
   19ce0:	4770      	bx	lr
   19ce2:	bf00      	nop

00019ce4 <nrf_sortlist_remove>:
{
    ASSERT(p_list);
    ASSERT(p_item);
    bool ret = false;

    nrf_sortlist_item_t ** pp_curr = &(p_list->p_cb->p_head);
   19ce4:	6843      	ldr	r3, [r0, #4]
   19ce6:	6818      	ldr	r0, [r3, #0]

    while(*pp_curr != NULL)
   19ce8:	b918      	cbnz	r0, 19cf2 <nrf_sortlist_remove+0xe>
   19cea:	e008      	b.n	19cfe <nrf_sortlist_remove+0x1a>
        {
            *pp_curr = p_item->p_next;
            ret = true;
            break;
        }
        pp_curr = &((*pp_curr)->p_next);
   19cec:	4603      	mov	r3, r0
   19cee:	6800      	ldr	r0, [r0, #0]
    while(*pp_curr != NULL)
   19cf0:	b128      	cbz	r0, 19cfe <nrf_sortlist_remove+0x1a>
        if(*pp_curr == p_item)
   19cf2:	4281      	cmp	r1, r0
   19cf4:	d1fa      	bne.n	19cec <nrf_sortlist_remove+0x8>
            *pp_curr = p_item->p_next;
   19cf6:	680a      	ldr	r2, [r1, #0]
   19cf8:	601a      	str	r2, [r3, #0]
            ret = true;
   19cfa:	2001      	movs	r0, #1
            break;
   19cfc:	4770      	bx	lr
    }

    NRF_LOG_INFO("List:%s, removing element:%08X %s",
                                  p_list->p_name, p_item, ret ? "succeeded" : "not found");
    return ret;
}
   19cfe:	4770      	bx	lr

00019d00 <SystemInit>:
{
    SystemCoreClock = __SYSTEM_CLOCK_64M;
}

void SystemInit(void)
{
   19d00:	b430      	push	{r4, r5}
    #endif
    
    /* Workaround for Errata 31 "CLOCK: Calibration values are not correctly loaded from FICR at reset" found at the Errata document
       for your device located at https://infocenter.nordicsemi.com/index.jsp */
    if (errata_31()){
        *(volatile uint32_t *)0x4000053C = ((*(volatile uint32_t *)0x10000244) & 0x0000E000) >> 13;
   19d02:	4b5f      	ldr	r3, [pc, #380]	; (19e80 <SystemInit+0x180>)
   19d04:	4d5f      	ldr	r5, [pc, #380]	; (19e84 <SystemInit+0x184>)
   19d06:	681a      	ldr	r2, [r3, #0]
    #endif
    
    /* Workaround for Errata 66 "TEMP: Linearity specification not met with default settings" found at the Errata document
       for your device located at https://infocenter.nordicsemi.com/index.jsp  */
    if (errata_66()){
        NRF_TEMP->A0 = NRF_FICR->TEMP.A0;
   19d08:	4b5f      	ldr	r3, [pc, #380]	; (19e88 <SystemInit+0x188>)
    return true;
}

static bool errata_103(void)
{
    if (*(uint32_t *)0x10000130ul == 0xAul){
   19d0a:	4c60      	ldr	r4, [pc, #384]	; (19e8c <SystemInit+0x18c>)
        NRF_CLOCK->EVENTS_DONE = 0;
   19d0c:	f04f 4180 	mov.w	r1, #1073741824	; 0x40000000
        *(volatile uint32_t *)0x4000053C = ((*(volatile uint32_t *)0x10000244) & 0x0000E000) >> 13;
   19d10:	f3c2 3242 	ubfx	r2, r2, #13, #3
   19d14:	602a      	str	r2, [r5, #0]
        NRF_CLOCK->EVENTS_DONE = 0;
   19d16:	2000      	movs	r0, #0
        NRF_TEMP->A0 = NRF_FICR->TEMP.A0;
   19d18:	f04f 5280 	mov.w	r2, #268435456	; 0x10000000
        NRF_CLOCK->EVENTS_DONE = 0;
   19d1c:	f8c1 010c 	str.w	r0, [r1, #268]	; 0x10c
        NRF_CLOCK->EVENTS_CTTO = 0;
   19d20:	f8c1 0110 	str.w	r0, [r1, #272]	; 0x110
        NRF_CLOCK->CTIV = 0;
   19d24:	f8c1 0538 	str.w	r0, [r1, #1336]	; 0x538
        NRF_TEMP->A0 = NRF_FICR->TEMP.A0;
   19d28:	f8d2 0404 	ldr.w	r0, [r2, #1028]	; 0x404
   19d2c:	f8c3 0520 	str.w	r0, [r3, #1312]	; 0x520
        NRF_TEMP->A1 = NRF_FICR->TEMP.A1;
   19d30:	f8d2 0408 	ldr.w	r0, [r2, #1032]	; 0x408
   19d34:	f8c3 0524 	str.w	r0, [r3, #1316]	; 0x524
        NRF_TEMP->A2 = NRF_FICR->TEMP.A2;
   19d38:	f8d2 040c 	ldr.w	r0, [r2, #1036]	; 0x40c
   19d3c:	f8c3 0528 	str.w	r0, [r3, #1320]	; 0x528
        NRF_TEMP->A3 = NRF_FICR->TEMP.A3;
   19d40:	f8d2 0410 	ldr.w	r0, [r2, #1040]	; 0x410
   19d44:	f8c3 052c 	str.w	r0, [r3, #1324]	; 0x52c
        NRF_TEMP->A4 = NRF_FICR->TEMP.A4;
   19d48:	f8d2 0414 	ldr.w	r0, [r2, #1044]	; 0x414
   19d4c:	f8c3 0530 	str.w	r0, [r3, #1328]	; 0x530
        NRF_TEMP->A5 = NRF_FICR->TEMP.A5;
   19d50:	f8d2 0418 	ldr.w	r0, [r2, #1048]	; 0x418
   19d54:	f8c3 0534 	str.w	r0, [r3, #1332]	; 0x534
        NRF_TEMP->B0 = NRF_FICR->TEMP.B0;
   19d58:	f8d2 041c 	ldr.w	r0, [r2, #1052]	; 0x41c
   19d5c:	f8c3 0540 	str.w	r0, [r3, #1344]	; 0x540
        NRF_TEMP->B1 = NRF_FICR->TEMP.B1;
   19d60:	f8d2 0420 	ldr.w	r0, [r2, #1056]	; 0x420
   19d64:	f8c3 0544 	str.w	r0, [r3, #1348]	; 0x544
        NRF_TEMP->B2 = NRF_FICR->TEMP.B2;
   19d68:	f8d2 0424 	ldr.w	r0, [r2, #1060]	; 0x424
   19d6c:	f8c3 0548 	str.w	r0, [r3, #1352]	; 0x548
        NRF_TEMP->B3 = NRF_FICR->TEMP.B3;
   19d70:	f8d2 0428 	ldr.w	r0, [r2, #1064]	; 0x428
   19d74:	f8c3 054c 	str.w	r0, [r3, #1356]	; 0x54c
        NRF_TEMP->B4 = NRF_FICR->TEMP.B4;
   19d78:	f8d2 042c 	ldr.w	r0, [r2, #1068]	; 0x42c
   19d7c:	f8c3 0550 	str.w	r0, [r3, #1360]	; 0x550
        NRF_TEMP->B5 = NRF_FICR->TEMP.B5;
   19d80:	f8d2 0430 	ldr.w	r0, [r2, #1072]	; 0x430
   19d84:	f8c3 0554 	str.w	r0, [r3, #1364]	; 0x554
        NRF_TEMP->T0 = NRF_FICR->TEMP.T0;
   19d88:	f8d2 0434 	ldr.w	r0, [r2, #1076]	; 0x434
   19d8c:	f8c3 0560 	str.w	r0, [r3, #1376]	; 0x560
        NRF_TEMP->T1 = NRF_FICR->TEMP.T1;
   19d90:	f8d2 0438 	ldr.w	r0, [r2, #1080]	; 0x438
   19d94:	f8c3 0564 	str.w	r0, [r3, #1380]	; 0x564
        NRF_TEMP->T2 = NRF_FICR->TEMP.T2;
   19d98:	f8d2 043c 	ldr.w	r0, [r2, #1084]	; 0x43c
   19d9c:	f8c3 0568 	str.w	r0, [r3, #1384]	; 0x568
        NRF_TEMP->T3 = NRF_FICR->TEMP.T3;
   19da0:	f8d2 0440 	ldr.w	r0, [r2, #1088]	; 0x440
   19da4:	f8c3 056c 	str.w	r0, [r3, #1388]	; 0x56c
    if (*(uint32_t *)0x10000130ul == 0xAul){
   19da8:	6820      	ldr	r0, [r4, #0]
        NRF_TEMP->T4 = NRF_FICR->TEMP.T4;
   19daa:	f8d2 2444 	ldr.w	r2, [r2, #1092]	; 0x444
   19dae:	f8c3 2570 	str.w	r2, [r3, #1392]	; 0x570
    if (*(uint32_t *)0x10000130ul == 0xAul){
   19db2:	280a      	cmp	r0, #10
   19db4:	d017      	beq.n	19de6 <SystemInit+0xe6>
        if (NRF_POWER->RESETREAS & POWER_RESETREAS_RESETPIN_Msk){
   19db6:	f8d1 3400 	ldr.w	r3, [r1, #1024]	; 0x400
   19dba:	07db      	lsls	r3, r3, #31
   19dbc:	d41f      	bmi.n	19dfe <SystemInit+0xfe>
        *(volatile uint32_t *)0x40000EE4ul |= 0x0000000Ful;
   19dbe:	4a34      	ldr	r2, [pc, #208]	; (19e90 <SystemInit+0x190>)
   19dc0:	6813      	ldr	r3, [r2, #0]
   19dc2:	f043 030f 	orr.w	r3, r3, #15
   19dc6:	6013      	str	r3, [r2, #0]
        if (((NRF_UICR->PSELRESET[0] & UICR_PSELRESET_CONNECT_Msk) != (UICR_PSELRESET_CONNECT_Connected << UICR_PSELRESET_CONNECT_Pos)) ||
   19dc8:	f04f 2310 	mov.w	r3, #268439552	; 0x10001000
   19dcc:	f8d3 2200 	ldr.w	r2, [r3, #512]	; 0x200
   19dd0:	2a00      	cmp	r2, #0
   19dd2:	db23      	blt.n	19e1c <SystemInit+0x11c>
            ((NRF_UICR->PSELRESET[1] & UICR_PSELRESET_CONNECT_Msk) != (UICR_PSELRESET_CONNECT_Connected << UICR_PSELRESET_CONNECT_Pos))){
   19dd4:	f8d3 3204 	ldr.w	r3, [r3, #516]	; 0x204
        if (((NRF_UICR->PSELRESET[0] & UICR_PSELRESET_CONNECT_Msk) != (UICR_PSELRESET_CONNECT_Connected << UICR_PSELRESET_CONNECT_Pos)) ||
   19dd8:	2b00      	cmp	r3, #0
   19dda:	db1f      	blt.n	19e1c <SystemInit+0x11c>
    SystemCoreClock = __SYSTEM_CLOCK_64M;
   19ddc:	4b2d      	ldr	r3, [pc, #180]	; (19e94 <SystemInit+0x194>)
   19dde:	4a2e      	ldr	r2, [pc, #184]	; (19e98 <SystemInit+0x198>)
   19de0:	601a      	str	r2, [r3, #0]
}
   19de2:	bc30      	pop	{r4, r5}
   19de4:	4770      	bx	lr
        if (*(uint32_t *)0x10000134ul == 0x0ul){
   19de6:	4b2d      	ldr	r3, [pc, #180]	; (19e9c <SystemInit+0x19c>)
   19de8:	681b      	ldr	r3, [r3, #0]
   19dea:	2b00      	cmp	r3, #0
   19dec:	d1e3      	bne.n	19db6 <SystemInit+0xb6>
        NRF_CCM->MAXPACKETSIZE = 0xFBul;
   19dee:	4b2c      	ldr	r3, [pc, #176]	; (19ea0 <SystemInit+0x1a0>)
   19df0:	22fb      	movs	r2, #251	; 0xfb
   19df2:	f8c3 2518 	str.w	r2, [r3, #1304]	; 0x518
        if (NRF_POWER->RESETREAS & POWER_RESETREAS_RESETPIN_Msk){
   19df6:	f8d1 3400 	ldr.w	r3, [r1, #1024]	; 0x400
   19dfa:	07da      	lsls	r2, r3, #31
   19dfc:	d505      	bpl.n	19e0a <SystemInit+0x10a>
            NRF_POWER->RESETREAS =  ~POWER_RESETREAS_RESETPIN_Msk;
   19dfe:	f04f 4380 	mov.w	r3, #1073741824	; 0x40000000
   19e02:	f06f 0201 	mvn.w	r2, #1
   19e06:	f8c3 2400 	str.w	r2, [r3, #1024]	; 0x400
}
#endif

static bool errata_217(void)
{
    if (*(uint32_t *)0x10000130ul == 0xAul){
   19e0a:	4b20      	ldr	r3, [pc, #128]	; (19e8c <SystemInit+0x18c>)
   19e0c:	681b      	ldr	r3, [r3, #0]
   19e0e:	2b0a      	cmp	r3, #10
   19e10:	d1d5      	bne.n	19dbe <SystemInit+0xbe>
        if (*(uint32_t *)0x10000134ul == 0x0ul){
   19e12:	4b22      	ldr	r3, [pc, #136]	; (19e9c <SystemInit+0x19c>)
   19e14:	681b      	ldr	r3, [r3, #0]
   19e16:	2b00      	cmp	r3, #0
   19e18:	d0d6      	beq.n	19dc8 <SystemInit+0xc8>
   19e1a:	e7d0      	b.n	19dbe <SystemInit+0xbe>
            NRF_NVMC->CONFIG = NVMC_CONFIG_WEN_Wen << NVMC_CONFIG_WEN_Pos;
   19e1c:	4a21      	ldr	r2, [pc, #132]	; (19ea4 <SystemInit+0x1a4>)
   19e1e:	2301      	movs	r3, #1
   19e20:	f8c2 3504 	str.w	r3, [r2, #1284]	; 0x504
            while (NRF_NVMC->READY == NVMC_READY_READY_Busy){}
   19e24:	f8d2 3400 	ldr.w	r3, [r2, #1024]	; 0x400
   19e28:	2b00      	cmp	r3, #0
   19e2a:	d0fb      	beq.n	19e24 <SystemInit+0x124>
            NRF_UICR->PSELRESET[0] = 21;
   19e2c:	f04f 2310 	mov.w	r3, #268439552	; 0x10001000
   19e30:	2115      	movs	r1, #21
            while (NRF_NVMC->READY == NVMC_READY_READY_Busy){}
   19e32:	4a1c      	ldr	r2, [pc, #112]	; (19ea4 <SystemInit+0x1a4>)
            NRF_UICR->PSELRESET[0] = 21;
   19e34:	f8c3 1200 	str.w	r1, [r3, #512]	; 0x200
            while (NRF_NVMC->READY == NVMC_READY_READY_Busy){}
   19e38:	f8d2 3400 	ldr.w	r3, [r2, #1024]	; 0x400
   19e3c:	2b00      	cmp	r3, #0
   19e3e:	d0fb      	beq.n	19e38 <SystemInit+0x138>
            NRF_UICR->PSELRESET[1] = 21;
   19e40:	f04f 2310 	mov.w	r3, #268439552	; 0x10001000
   19e44:	2115      	movs	r1, #21
            while (NRF_NVMC->READY == NVMC_READY_READY_Busy){}
   19e46:	4a17      	ldr	r2, [pc, #92]	; (19ea4 <SystemInit+0x1a4>)
            NRF_UICR->PSELRESET[1] = 21;
   19e48:	f8c3 1204 	str.w	r1, [r3, #516]	; 0x204
            while (NRF_NVMC->READY == NVMC_READY_READY_Busy){}
   19e4c:	f8d2 3400 	ldr.w	r3, [r2, #1024]	; 0x400
   19e50:	2b00      	cmp	r3, #0
   19e52:	d0fb      	beq.n	19e4c <SystemInit+0x14c>
            NRF_NVMC->CONFIG = NVMC_CONFIG_WEN_Ren << NVMC_CONFIG_WEN_Pos;
   19e54:	2300      	movs	r3, #0
            while (NRF_NVMC->READY == NVMC_READY_READY_Busy){}
   19e56:	4913      	ldr	r1, [pc, #76]	; (19ea4 <SystemInit+0x1a4>)
            NRF_NVMC->CONFIG = NVMC_CONFIG_WEN_Ren << NVMC_CONFIG_WEN_Pos;
   19e58:	f8c2 3504 	str.w	r3, [r2, #1284]	; 0x504
            while (NRF_NVMC->READY == NVMC_READY_READY_Busy){}
   19e5c:	f8d1 3400 	ldr.w	r3, [r1, #1024]	; 0x400
   19e60:	2b00      	cmp	r3, #0
   19e62:	d0fb      	beq.n	19e5c <SystemInit+0x15c>
  __ASM volatile ("dsb 0xF":::"memory");
   19e64:	f3bf 8f4f 	dsb	sy
                           (SCB->AIRCR & SCB_AIRCR_PRIGROUP_Msk) |
   19e68:	490f      	ldr	r1, [pc, #60]	; (19ea8 <SystemInit+0x1a8>)
  SCB->AIRCR  = (uint32_t)((0x5FAUL << SCB_AIRCR_VECTKEY_Pos)    |
   19e6a:	4b10      	ldr	r3, [pc, #64]	; (19eac <SystemInit+0x1ac>)
                           (SCB->AIRCR & SCB_AIRCR_PRIGROUP_Msk) |
   19e6c:	68ca      	ldr	r2, [r1, #12]
   19e6e:	f402 62e0 	and.w	r2, r2, #1792	; 0x700
  SCB->AIRCR  = (uint32_t)((0x5FAUL << SCB_AIRCR_VECTKEY_Pos)    |
   19e72:	4313      	orrs	r3, r2
   19e74:	60cb      	str	r3, [r1, #12]
   19e76:	f3bf 8f4f 	dsb	sy
  __ASM volatile ("nop");
   19e7a:	bf00      	nop
   19e7c:	e7fd      	b.n	19e7a <SystemInit+0x17a>
   19e7e:	bf00      	nop
   19e80:	10000244 	.word	0x10000244
   19e84:	4000053c 	.word	0x4000053c
   19e88:	4000c000 	.word	0x4000c000
   19e8c:	10000130 	.word	0x10000130
   19e90:	40000ee4 	.word	0x40000ee4
   19e94:	20001808 	.word	0x20001808
   19e98:	03d09000 	.word	0x03d09000
   19e9c:	10000134 	.word	0x10000134
   19ea0:	4000f000 	.word	0x4000f000
   19ea4:	4001e000 	.word	0x4001e000
   19ea8:	e000ed00 	.word	0xe000ed00
   19eac:	05fa0004 	.word	0x05fa0004

00019eb0 <clock_irq_handler>:
        p_item->event_handler(evt_type);
    }
}

static void clock_irq_handler(nrfx_clock_evt_type_t evt)
{
   19eb0:	b510      	push	{r4, lr}
    if (evt == NRFX_CLOCK_EVT_HFCLK_STARTED)
   19eb2:	b968      	cbnz	r0, 19ed0 <clock_irq_handler+0x20>
    {
        m_clock_cb.hfclk_on = true;
   19eb4:	4c0e      	ldr	r4, [pc, #56]	; (19ef0 <clock_irq_handler+0x40>)
    nrf_drv_clock_handler_item_t * p_item = *p_head;
   19eb6:	68a3      	ldr	r3, [r4, #8]
        m_clock_cb.hfclk_on = true;
   19eb8:	2201      	movs	r2, #1
   19eba:	7062      	strb	r2, [r4, #1]
    if (p_item)
   19ebc:	b13b      	cbz	r3, 19ece <clock_irq_handler+0x1e>
        p_item->event_handler(evt_type);
   19ebe:	e9d3 2300 	ldrd	r2, r3, [r3]
   19ec2:	2000      	movs	r0, #0
        *p_head = p_item->p_next;
   19ec4:	60a2      	str	r2, [r4, #8]
        p_item->event_handler(evt_type);
   19ec6:	4798      	blx	r3
    nrf_drv_clock_handler_item_t * p_item = *p_head;
   19ec8:	68a3      	ldr	r3, [r4, #8]
    if (p_item)
   19eca:	2b00      	cmp	r3, #0
   19ecc:	d1f7      	bne.n	19ebe <clock_irq_handler+0xe>
            m_clock_cb.cal_done_handler(aborted ?
                NRF_DRV_CLOCK_EVT_CAL_ABORTED : NRF_DRV_CLOCK_EVT_CAL_DONE);
        }
    }
#endif // CALIBRATION_SUPPORT
}
   19ece:	bd10      	pop	{r4, pc}
    if (evt == NRFX_CLOCK_EVT_LFCLK_STARTED)
   19ed0:	2801      	cmp	r0, #1
   19ed2:	d1fc      	bne.n	19ece <clock_irq_handler+0x1e>
        m_clock_cb.lfclk_on = true;
   19ed4:	4c06      	ldr	r4, [pc, #24]	; (19ef0 <clock_irq_handler+0x40>)
    nrf_drv_clock_handler_item_t * p_item = *p_head;
   19ed6:	6923      	ldr	r3, [r4, #16]
        m_clock_cb.lfclk_on = true;
   19ed8:	70a0      	strb	r0, [r4, #2]
    if (p_item)
   19eda:	2b00      	cmp	r3, #0
   19edc:	d0f7      	beq.n	19ece <clock_irq_handler+0x1e>
        p_item->event_handler(evt_type);
   19ede:	e9d3 2300 	ldrd	r2, r3, [r3]
   19ee2:	2001      	movs	r0, #1
        *p_head = p_item->p_next;
   19ee4:	6122      	str	r2, [r4, #16]
        p_item->event_handler(evt_type);
   19ee6:	4798      	blx	r3
    nrf_drv_clock_handler_item_t * p_item = *p_head;
   19ee8:	6923      	ldr	r3, [r4, #16]
    if (p_item)
   19eea:	2b00      	cmp	r3, #0
   19eec:	d1f7      	bne.n	19ede <clock_irq_handler+0x2e>
}
   19eee:	bd10      	pop	{r4, pc}
   19ef0:	20001968 	.word	0x20001968

00019ef4 <soc_evt_handler>:
 * @param[in] evt_id    SoC event.
 * @param[in] p_context Context.
 */
static void soc_evt_handler(uint32_t evt_id, void * p_context)
{
    if (evt_id == NRF_EVT_HFCLKSTARTED)
   19ef4:	b970      	cbnz	r0, 19f14 <soc_evt_handler+0x20>
{
   19ef6:	b510      	push	{r4, lr}
    {
        m_clock_cb.hfclk_on = true;
   19ef8:	4c07      	ldr	r4, [pc, #28]	; (19f18 <soc_evt_handler+0x24>)
    nrf_drv_clock_handler_item_t * p_item = *p_head;
   19efa:	68a3      	ldr	r3, [r4, #8]
        m_clock_cb.hfclk_on = true;
   19efc:	2201      	movs	r2, #1
   19efe:	7062      	strb	r2, [r4, #1]
    if (p_item)
   19f00:	b13b      	cbz	r3, 19f12 <soc_evt_handler+0x1e>
        p_item->event_handler(evt_type);
   19f02:	e9d3 2300 	ldrd	r2, r3, [r3]
   19f06:	2000      	movs	r0, #0
        *p_head = p_item->p_next;
   19f08:	60a2      	str	r2, [r4, #8]
        p_item->event_handler(evt_type);
   19f0a:	4798      	blx	r3
    nrf_drv_clock_handler_item_t * p_item = *p_head;
   19f0c:	68a3      	ldr	r3, [r4, #8]
    if (p_item)
   19f0e:	2b00      	cmp	r3, #0
   19f10:	d1f7      	bne.n	19f02 <soc_evt_handler+0xe>
        clock_clk_started_notify(NRF_DRV_CLOCK_EVT_HFCLK_STARTED);
    }
}
   19f12:	bd10      	pop	{r4, pc}
   19f14:	4770      	bx	lr
   19f16:	bf00      	nop
   19f18:	20001968 	.word	0x20001968

00019f1c <sd_state_evt_handler>:
 *
 * @param[in] state     State.
 * @param[in] p_context Context.
 */
static void sd_state_evt_handler(nrf_sdh_state_evt_t state, void * p_context)
{
   19f1c:	b530      	push	{r4, r5, lr}
    switch (state)
   19f1e:	2801      	cmp	r0, #1
{
   19f20:	b083      	sub	sp, #12
    switch (state)
   19f22:	d004      	beq.n	19f2e <sd_state_evt_handler+0x12>
   19f24:	2803      	cmp	r0, #3
   19f26:	d01d      	beq.n	19f64 <sd_state_evt_handler+0x48>
   19f28:	b1b0      	cbz	r0, 19f58 <sd_state_evt_handler+0x3c>
            break;

        default:
            break;
    }
}
   19f2a:	b003      	add	sp, #12
   19f2c:	bd30      	pop	{r4, r5, pc}
            if (!m_clock_cb.module_initialized)
   19f2e:	4c22      	ldr	r4, [pc, #136]	; (19fb8 <sd_state_evt_handler+0x9c>)
            CRITICAL_REGION_ENTER();
   19f30:	2300      	movs	r3, #0
   19f32:	f10d 0007 	add.w	r0, sp, #7
   19f36:	f88d 3007 	strb.w	r3, [sp, #7]
   19f3a:	f7ff fc63 	bl	19804 <app_util_critical_region_enter>
            if (!m_clock_cb.module_initialized)
   19f3e:	7823      	ldrb	r3, [r4, #0]
   19f40:	b34b      	cbz	r3, 19f96 <sd_state_evt_handler+0x7a>
            ++(m_clock_cb.lfclk_requests);
   19f42:	68e3      	ldr	r3, [r4, #12]
            CRITICAL_REGION_EXIT();
   19f44:	f89d 0007 	ldrb.w	r0, [sp, #7]
            ++(m_clock_cb.lfclk_requests);
   19f48:	3301      	adds	r3, #1
            m_clock_cb.lfclk_on = true;
   19f4a:	2201      	movs	r2, #1
            ++(m_clock_cb.lfclk_requests);
   19f4c:	60e3      	str	r3, [r4, #12]
            m_clock_cb.lfclk_on = true;
   19f4e:	70a2      	strb	r2, [r4, #2]
            CRITICAL_REGION_EXIT();
   19f50:	f7ff fc7e 	bl	19850 <app_util_critical_region_exit>
}
   19f54:	b003      	add	sp, #12
   19f56:	bd30      	pop	{r4, r5, pc}
  NVIC->ICER[(((uint32_t)(int32_t)IRQn) >> 5UL)] = (uint32_t)(1UL << (((uint32_t)(int32_t)IRQn) & 0x1FUL));
   19f58:	4b18      	ldr	r3, [pc, #96]	; (19fbc <sd_state_evt_handler+0xa0>)
   19f5a:	2201      	movs	r2, #1
   19f5c:	f8c3 2080 	str.w	r2, [r3, #128]	; 0x80
   19f60:	b003      	add	sp, #12
   19f62:	bd30      	pop	{r4, r5, pc}
    --(m_clock_cb.lfclk_requests);
   19f64:	4c14      	ldr	r4, [pc, #80]	; (19fb8 <sd_state_evt_handler+0x9c>)
            nrfx_clock_enable();
   19f66:	f000 f839 	bl	19fdc <nrfx_clock_enable>
    CRITICAL_REGION_ENTER();
   19f6a:	2300      	movs	r3, #0
   19f6c:	f10d 0007 	add.w	r0, sp, #7
   19f70:	f88d 3007 	strb.w	r3, [sp, #7]
   19f74:	f7ff fc46 	bl	19804 <app_util_critical_region_enter>
    --(m_clock_cb.lfclk_requests);
   19f78:	68e3      	ldr	r3, [r4, #12]
   19f7a:	3b01      	subs	r3, #1
   19f7c:	60e3      	str	r3, [r4, #12]
    if (m_clock_cb.lfclk_requests == 0)
   19f7e:	68e5      	ldr	r5, [r4, #12]
   19f80:	b12d      	cbz	r5, 19f8e <sd_state_evt_handler+0x72>
    CRITICAL_REGION_EXIT();
   19f82:	f89d 0007 	ldrb.w	r0, [sp, #7]
   19f86:	f7ff fc63 	bl	19850 <app_util_critical_region_exit>
}
   19f8a:	b003      	add	sp, #12
   19f8c:	bd30      	pop	{r4, r5, pc}
    nrfx_clock_lfclk_stop();
   19f8e:	f000 f837 	bl	1a000 <nrfx_clock_lfclk_stop>
    m_clock_cb.lfclk_on = false;
   19f92:	70a5      	strb	r5, [r4, #2]
}
   19f94:	e7f5      	b.n	19f82 <sd_state_evt_handler+0x66>
        err_code = nrfx_clock_init(clock_irq_handler);
   19f96:	480a      	ldr	r0, [pc, #40]	; (19fc0 <sd_state_evt_handler+0xa4>)
        m_clock_cb.hfclk_requests = 0;
   19f98:	6063      	str	r3, [r4, #4]
        m_clock_cb.p_hf_head      = NULL;
   19f9a:	60a3      	str	r3, [r4, #8]
        m_clock_cb.p_lf_head      = NULL;
   19f9c:	6123      	str	r3, [r4, #16]
        m_clock_cb.lfclk_requests = 0;
   19f9e:	60e3      	str	r3, [r4, #12]
        err_code = nrfx_clock_init(clock_irq_handler);
   19fa0:	f000 f810 	bl	19fc4 <nrfx_clock_init>
        if (!nrf_sdh_is_enabled())
   19fa4:	f002 fba4 	bl	1c6f0 <nrf_sdh_is_enabled>
   19fa8:	b110      	cbz	r0, 19fb0 <sd_state_evt_handler+0x94>
        m_clock_cb.module_initialized = true;
   19faa:	2301      	movs	r3, #1
   19fac:	7023      	strb	r3, [r4, #0]
    return err_code;
   19fae:	e7c8      	b.n	19f42 <sd_state_evt_handler+0x26>
            nrfx_clock_enable();
   19fb0:	f000 f814 	bl	19fdc <nrfx_clock_enable>
   19fb4:	e7f9      	b.n	19faa <sd_state_evt_handler+0x8e>
   19fb6:	bf00      	nop
   19fb8:	20001968 	.word	0x20001968
   19fbc:	e000e100 	.word	0xe000e100
   19fc0:	00019eb1 	.word	0x00019eb1

00019fc4 <nrfx_clock_init>:
nrfx_err_t nrfx_clock_init(nrfx_clock_event_handler_t event_handler)
{
    NRFX_ASSERT(event_handler);

    nrfx_err_t err_code = NRFX_SUCCESS;
    if (m_clock_cb.module_initialized)
   19fc4:	4a04      	ldr	r2, [pc, #16]	; (19fd8 <nrfx_clock_init+0x14>)
   19fc6:	7913      	ldrb	r3, [r2, #4]
   19fc8:	b923      	cbnz	r3, 19fd4 <nrfx_clock_init+0x10>
    {
#if NRFX_CHECK(NRFX_CLOCK_CONFIG_LF_CAL_ENABLED)
        m_clock_cb.cal_state = CAL_STATE_IDLE;
#endif
        m_clock_cb.event_handler = event_handler;
        m_clock_cb.module_initialized = true;
   19fca:	2101      	movs	r1, #1
        m_clock_cb.event_handler = event_handler;
   19fcc:	6010      	str	r0, [r2, #0]
        m_clock_cb.module_initialized = true;
   19fce:	8091      	strh	r1, [r2, #4]
    nrfx_err_t err_code = NRFX_SUCCESS;
   19fd0:	4618      	mov	r0, r3
   19fd2:	4770      	bx	lr
        err_code = NRFX_ERROR_ALREADY_INITIALIZED;
   19fd4:	2085      	movs	r0, #133	; 0x85
#endif
    }

    NRFX_LOG_INFO("Function: %s, error code: %s.", __func__, NRFX_LOG_ERROR_STRING_GET(err_code));
    return err_code;
}
   19fd6:	4770      	bx	lr
   19fd8:	2000197c 	.word	0x2000197c

00019fdc <nrfx_clock_enable>:
 * @retval false Otherwise.
 */
#define NRFX_IRQ_IS_ENABLED(irq_number)  _NRFX_IRQ_IS_ENABLED(irq_number)
static inline bool _NRFX_IRQ_IS_ENABLED(IRQn_Type irq_number)
{
    return 0 != (NVIC->ISER[irq_number / 32] & (1UL << (irq_number % 32)));
   19fdc:	4b07      	ldr	r3, [pc, #28]	; (19ffc <nrfx_clock_enable+0x20>)
   19fde:	681a      	ldr	r2, [r3, #0]
    priority = NRFX_CLOCK_CONFIG_IRQ_PRIORITY;
#else
    #error "This code is not supposed to be compiled when neither POWER nor CLOCK is enabled."
#endif

    if (!NRFX_IRQ_IS_ENABLED(nrfx_get_irq_number(NRF_CLOCK)))
   19fe0:	07d2      	lsls	r2, r2, #31
   19fe2:	d404      	bmi.n	19fee <nrfx_clock_enable+0x12>
    NVIC->IP[((uint32_t)(int32_t)IRQn)]               = (uint8_t)((priority << (8U - __NVIC_PRIO_BITS)) & (uint32_t)0xFFUL);
   19fe4:	21c0      	movs	r1, #192	; 0xc0
  NVIC->ISER[(((uint32_t)(int32_t)IRQn) >> 5UL)] = (uint32_t)(1UL << (((uint32_t)(int32_t)IRQn) & 0x1FUL));
   19fe6:	2201      	movs	r2, #1
    NVIC->IP[((uint32_t)(int32_t)IRQn)]               = (uint8_t)((priority << (8U - __NVIC_PRIO_BITS)) & (uint32_t)0xFFUL);
   19fe8:	f883 1300 	strb.w	r1, [r3, #768]	; 0x300
  NVIC->ISER[(((uint32_t)(int32_t)IRQn) >> 5UL)] = (uint32_t)(1UL << (((uint32_t)(int32_t)IRQn) & 0x1FUL));
   19fec:	601a      	str	r2, [r3, #0]
    return (bool)*((volatile uint32_t *)((uint8_t *)NRF_CLOCK + event));
}

__STATIC_INLINE void nrf_clock_lf_src_set(nrf_clock_lfclk_t source)
{
    NRF_CLOCK->LFCLKSRC = (uint32_t)(source);
   19fee:	f04f 4380 	mov.w	r3, #1073741824	; 0x40000000
   19ff2:	2201      	movs	r2, #1
   19ff4:	f8c3 2518 	str.w	r2, [r3, #1304]	; 0x518
#if NRFX_CHECK(NRFX_POWER_ENABLED)
    nrfx_clock_irq_enabled = true;
#endif

    NRFX_LOG_INFO("Module enabled.");
}
   19ff8:	4770      	bx	lr
   19ffa:	bf00      	nop
   19ffc:	e000e100 	.word	0xe000e100

0001a000 <nrfx_clock_lfclk_stop>:
    *((volatile uint32_t *)((uint8_t *)NRF_CLOCK + task)) = 0x1UL;
   1a000:	4b04      	ldr	r3, [pc, #16]	; (1a014 <nrfx_clock_lfclk_stop+0x14>)
   1a002:	2201      	movs	r2, #1
   1a004:	601a      	str	r2, [r3, #0]
                                CLOCK_LFCLKSRCCOPY_SRC_Msk) >> CLOCK_LFCLKSRCCOPY_SRC_Pos);
}

__STATIC_INLINE bool nrf_clock_lf_is_running(void)
{
    return ((NRF_CLOCK->LFCLKSTAT &
   1a006:	f04f 4280 	mov.w	r2, #1073741824	; 0x40000000
   1a00a:	f8d2 3418 	ldr.w	r3, [r2, #1048]	; 0x418

void nrfx_clock_lfclk_stop(void)
{
    NRFX_ASSERT(m_clock_cb.module_initialized);
    nrf_clock_task_trigger(NRF_CLOCK_TASK_LFCLKSTOP);
    while (nrf_clock_lf_is_running())
   1a00e:	03db      	lsls	r3, r3, #15
   1a010:	d4fb      	bmi.n	1a00a <nrfx_clock_lfclk_stop+0xa>
    {}
}
   1a012:	4770      	bx	lr
   1a014:	4000000c 	.word	0x4000000c

0001a018 <POWER_CLOCK_IRQHandler>:
    nrf_clock_task_trigger(NRF_CLOCK_TASK_CTSTOP);
#endif
}

void nrfx_clock_irq_handler(void)
{
   1a018:	b510      	push	{r4, lr}
    return (bool)*((volatile uint32_t *)((uint8_t *)NRF_CLOCK + event));
   1a01a:	4b17      	ldr	r3, [pc, #92]	; (1a078 <POWER_CLOCK_IRQHandler+0x60>)
   1a01c:	681a      	ldr	r2, [r3, #0]
   1a01e:	b082      	sub	sp, #8
    if (nrf_clock_event_check(NRF_CLOCK_EVENT_HFCLKSTARTED))
   1a020:	b162      	cbz	r2, 1a03c <POWER_CLOCK_IRQHandler+0x24>
    *((volatile uint32_t *)((uint8_t *)NRF_CLOCK + event)) = 0x0UL;
   1a022:	2100      	movs	r1, #0
        nrf_clock_event_clear(NRF_CLOCK_EVENT_HFCLKSTARTED);
        NRFX_LOG_DEBUG("Event: %s.", EVT_TO_STR(NRF_CLOCK_EVENT_HFCLKSTARTED));
        nrf_clock_int_disable(NRF_CLOCK_INT_HF_STARTED_MASK);

#if NRFX_CHECK(USE_WORKAROUND_FOR_ANOMALY_201)
        if (!m_clock_cb.hfclk_started)
   1a024:	4a15      	ldr	r2, [pc, #84]	; (1a07c <POWER_CLOCK_IRQHandler+0x64>)
   1a026:	6019      	str	r1, [r3, #0]
    volatile uint32_t dummy = *((volatile uint32_t *)((uint8_t *)NRF_CLOCK + (uint32_t)event));
   1a028:	681b      	ldr	r3, [r3, #0]
   1a02a:	7950      	ldrb	r0, [r2, #5]
   1a02c:	9300      	str	r3, [sp, #0]
    NRF_CLOCK->INTENCLR = int_mask;
   1a02e:	f04f 4180 	mov.w	r1, #1073741824	; 0x40000000
   1a032:	2301      	movs	r3, #1
    (void)dummy;
   1a034:	9c00      	ldr	r4, [sp, #0]
    NRF_CLOCK->INTENCLR = int_mask;
   1a036:	f8c1 3308 	str.w	r3, [r1, #776]	; 0x308
   1a03a:	b198      	cbz	r0, 1a064 <POWER_CLOCK_IRQHandler+0x4c>
    return (bool)*((volatile uint32_t *)((uint8_t *)NRF_CLOCK + event));
   1a03c:	4b10      	ldr	r3, [pc, #64]	; (1a080 <POWER_CLOCK_IRQHandler+0x68>)
   1a03e:	681a      	ldr	r2, [r3, #0]
        }
#else
        m_clock_cb.event_handler(NRFX_CLOCK_EVT_HFCLK_STARTED);
#endif
    }
    if (nrf_clock_event_check(NRF_CLOCK_EVENT_LFCLKSTARTED))
   1a040:	b1ba      	cbz	r2, 1a072 <POWER_CLOCK_IRQHandler+0x5a>
    *((volatile uint32_t *)((uint8_t *)NRF_CLOCK + event)) = 0x0UL;
   1a042:	2200      	movs	r2, #0
   1a044:	601a      	str	r2, [r3, #0]
    volatile uint32_t dummy = *((volatile uint32_t *)((uint8_t *)NRF_CLOCK + (uint32_t)event));
   1a046:	681b      	ldr	r3, [r3, #0]
   1a048:	9301      	str	r3, [sp, #4]
    NRF_CLOCK->INTENCLR = int_mask;
   1a04a:	f04f 4280 	mov.w	r2, #1073741824	; 0x40000000
   1a04e:	2102      	movs	r1, #2
    {
        nrf_clock_event_clear(NRF_CLOCK_EVENT_LFCLKSTARTED);
        NRFX_LOG_DEBUG("Event: %s.", EVT_TO_STR(NRF_CLOCK_EVENT_LFCLKSTARTED));
        nrf_clock_int_disable(NRF_CLOCK_INT_LF_STARTED_MASK);

        m_clock_cb.event_handler(NRFX_CLOCK_EVT_LFCLK_STARTED);
   1a050:	4b0a      	ldr	r3, [pc, #40]	; (1a07c <POWER_CLOCK_IRQHandler+0x64>)
    (void)dummy;
   1a052:	9801      	ldr	r0, [sp, #4]
    NRF_CLOCK->INTENCLR = int_mask;
   1a054:	f8c2 1308 	str.w	r1, [r2, #776]	; 0x308
   1a058:	681b      	ldr	r3, [r3, #0]
   1a05a:	2001      	movs	r0, #1
        nrf_clock_int_disable(NRF_CLOCK_INT_DONE_MASK);
        m_clock_cb.cal_state = CAL_STATE_IDLE;
        m_clock_cb.event_handler(NRFX_CLOCK_EVT_CAL_DONE);
    }
#endif //  NRFX_CHECK(NRFX_CLOCK_CONFIG_LF_CAL_ENABLED)
}
   1a05c:	b002      	add	sp, #8
   1a05e:	e8bd 4010 	ldmia.w	sp!, {r4, lr}
        m_clock_cb.event_handler(NRFX_CLOCK_EVT_LFCLK_STARTED);
   1a062:	4718      	bx	r3
            m_clock_cb.event_handler(NRFX_CLOCK_EVT_HFCLK_STARTED);
   1a064:	6811      	ldr	r1, [r2, #0]
            m_clock_cb.hfclk_started = true;
   1a066:	7153      	strb	r3, [r2, #5]
            m_clock_cb.event_handler(NRFX_CLOCK_EVT_HFCLK_STARTED);
   1a068:	4788      	blx	r1
    return (bool)*((volatile uint32_t *)((uint8_t *)NRF_CLOCK + event));
   1a06a:	4b05      	ldr	r3, [pc, #20]	; (1a080 <POWER_CLOCK_IRQHandler+0x68>)
   1a06c:	681a      	ldr	r2, [r3, #0]
    if (nrf_clock_event_check(NRF_CLOCK_EVENT_LFCLKSTARTED))
   1a06e:	2a00      	cmp	r2, #0
   1a070:	d1e7      	bne.n	1a042 <POWER_CLOCK_IRQHandler+0x2a>
}
   1a072:	b002      	add	sp, #8
   1a074:	bd10      	pop	{r4, pc}
   1a076:	bf00      	nop
   1a078:	40000100 	.word	0x40000100
   1a07c:	2000197c 	.word	0x2000197c
   1a080:	40000104 	.word	0x40000104

0001a084 <sd_temp_get>:
 *
 * @param[out] p_temp Result of temperature measurement. Die temperature in 0.25 degrees Celsius.
 *
 * @retval ::NRF_SUCCESS A temperature measurement was done, and the temperature was written to temp
 */
SVCALL(SD_TEMP_GET, uint32_t, sd_temp_get(int32_t * p_temp));
   1a084:	df4c      	svc	76	; 0x4c
   1a086:	4770      	bx	lr

0001a088 <sd_flash_write>:
* @retval ::NRF_ERROR_BUSY           The previous command has not yet completed.
* @retval ::NRF_ERROR_INVALID_LENGTH Size was 0, or higher than the maximum allowed size.
* @retval ::NRF_ERROR_FORBIDDEN      Tried to write to an address outside the application flash area.
* @retval ::NRF_SUCCESS              The command was accepted.
*/
SVCALL(SD_FLASH_WRITE, uint32_t, sd_flash_write(uint32_t * p_dst, uint32_t const * p_src, uint32_t size));
   1a088:	df29      	svc	41	; 0x29
   1a08a:	4770      	bx	lr

0001a08c <sd_flash_page_erase>:
* @retval ::NRF_ERROR_INVALID_ADDR  Tried to erase to a non existing flash page.
* @retval ::NRF_ERROR_BUSY          The previous command has not yet completed.
* @retval ::NRF_ERROR_FORBIDDEN     Tried to erase a page outside the application flash area.
* @retval ::NRF_SUCCESS             The command was accepted.
*/
SVCALL(SD_FLASH_PAGE_ERASE, uint32_t, sd_flash_page_erase(uint32_t page_number));
   1a08c:	df28      	svc	40	; 0x28
   1a08e:	4770      	bx	lr

0001a090 <sd_ble_gap_adv_set_configure>:
 * @retval ::NRF_ERROR_NOT_SUPPORTED                   Unsupported data length or advertising parameter configuration.
 * @retval ::NRF_ERROR_NO_MEM                          Not enough memory to configure a new advertising handle. Update an
 *                                                     existing advertising handle instead.
 * @retval ::BLE_ERROR_GAP_UUID_LIST_MISMATCH Invalid UUID list supplied.
 */
SVCALL(SD_BLE_GAP_ADV_SET_CONFIGURE, uint32_t, sd_ble_gap_adv_set_configure(uint8_t *p_adv_handle, ble_gap_adv_data_t const *p_adv_data, ble_gap_adv_params_t const *p_adv_params));
   1a090:	df72      	svc	114	; 0x72
   1a092:	4770      	bx	lr

0001a094 <sd_ble_gap_adv_start>:
 *                                        - p_adv_params is configured with connectable advertising, but the event_length parameter
 *                                          associated with conn_cfg_tag is too small to be able to establish a connection on
 *                                          the selected advertising phys. Use @ref sd_ble_cfg_set to increase the event length.
 * @retval ::NRF_ERROR_NOT_SUPPORTED Unsupported PHYs supplied to the call.
 */
SVCALL(SD_BLE_GAP_ADV_START, uint32_t, sd_ble_gap_adv_start(uint8_t adv_handle, uint8_t conn_cfg_tag));
   1a094:	df73      	svc	115	; 0x73
   1a096:	4770      	bx	lr

0001a098 <sd_ble_gap_adv_stop>:
 *
 * @retval ::NRF_SUCCESS The BLE stack has stopped advertising.
 * @retval ::BLE_ERROR_INVALID_ADV_HANDLE Invalid advertising handle.
 * @retval ::NRF_ERROR_INVALID_STATE The advertising handle is not advertising.
 */
SVCALL(SD_BLE_GAP_ADV_STOP, uint32_t, sd_ble_gap_adv_stop(uint8_t adv_handle));
   1a098:	df74      	svc	116	; 0x74
   1a09a:	4770      	bx	lr

0001a09c <sd_ble_gap_tx_power_set>:
 * @retval ::NRF_SUCCESS Successfully changed the transmit power.
 * @retval ::NRF_ERROR_INVALID_PARAM Invalid parameter(s) supplied.
 * @retval ::BLE_ERROR_INVALID_ADV_HANDLE Advertising handle not found.
 * @retval ::BLE_ERROR_INVALID_CONN_HANDLE Invalid connection handle supplied.
 */
SVCALL(SD_BLE_GAP_TX_POWER_SET, uint32_t, sd_ble_gap_tx_power_set(uint8_t role, uint16_t handle, int8_t tx_power));
   1a09c:	df77      	svc	119	; 0x77
   1a09e:	4770      	bx	lr

0001a0a0 <sd_ble_gap_ppcp_set>:
 * @retval ::NRF_ERROR_INVALID_ADDR Invalid pointer supplied.
 * @retval ::NRF_ERROR_INVALID_PARAM Invalid parameter(s) supplied.
 * @retval ::NRF_ERROR_NOT_SUPPORTED The characteristic is not included in the Attribute Table,
                                     see @ref ble_gap_cfg_ppcp_incl_cfg_t.
 */
SVCALL(SD_BLE_GAP_PPCP_SET, uint32_t, sd_ble_gap_ppcp_set(ble_gap_conn_params_t const *p_conn_params));
   1a0a0:	df7a      	svc	122	; 0x7a
   1a0a2:	4770      	bx	lr

0001a0a4 <sd_ble_gap_device_name_set>:
 * @retval ::NRF_ERROR_INVALID_ADDR Invalid pointer supplied.
 * @retval ::NRF_ERROR_INVALID_PARAM Invalid parameter(s) supplied.
 * @retval ::NRF_ERROR_DATA_SIZE Invalid data size(s) supplied.
 * @retval ::NRF_ERROR_FORBIDDEN Device name is not writable.
 */
SVCALL(SD_BLE_GAP_DEVICE_NAME_SET, uint32_t, sd_ble_gap_device_name_set(ble_gap_conn_sec_mode_t const *p_write_perm, uint8_t const *p_dev_name, uint16_t len));
   1a0a4:	df7c      	svc	124	; 0x7c
   1a0a6:	4770      	bx	lr

0001a0a8 <sd_ble_gap_device_name_get>:
 *
 * @retval ::NRF_SUCCESS GAP device name retrieved successfully.
 * @retval ::NRF_ERROR_INVALID_ADDR Invalid pointer supplied.
 * @retval ::NRF_ERROR_DATA_SIZE Invalid data size(s) supplied.
 */
SVCALL(SD_BLE_GAP_DEVICE_NAME_GET, uint32_t, sd_ble_gap_device_name_get(uint8_t *p_dev_name, uint16_t *p_len));
   1a0a8:	df7d      	svc	125	; 0x7d
   1a0aa:	4770      	bx	lr

0001a0ac <sd_ble_gap_phy_update>:
 * @retval ::NRF_ERROR_NOT_SUPPORTED Unsupported PHYs supplied to the call.
 * @retval ::NRF_ERROR_INVALID_STATE No link has been established.
 * @retval ::NRF_ERROR_BUSY Procedure is already in progress or not allowed at this time. Process pending events and wait for the pending procedure to complete and retry.
 *
 */
SVCALL(SD_BLE_GAP_PHY_UPDATE, uint32_t, sd_ble_gap_phy_update(uint16_t conn_handle, ble_gap_phys_t const *p_gap_phys));
   1a0ac:	df8f      	svc	143	; 0x8f
   1a0ae:	4770      	bx	lr

0001a0b0 <int Print<DevRtt<0>, unsigned long>(DevRtt<0>, char const*, unsigned long) [clone .isra.0]>:
/*------------------------------------------------------------------------------
    Print to device that has a write function-
        write(const char*) //0 terminated
------------------------------------------------------------------------------*/
template<typename Dev, typename...Ts>
int Print(Dev dev, const char* fmt, Ts...ts){
   1a0b0:	b510      	push	{r4, lr}
   1a0b2:	f5ad 7d00 	sub.w	sp, sp, #512	; 0x200
   1a0b6:	4602      	mov	r2, r0
   1a0b8:	460b      	mov	r3, r1
    char buf[512];
    int n = snprintf( buf, 512, fmt, ts... );
   1a0ba:	4668      	mov	r0, sp
   1a0bc:	f44f 7100 	mov.w	r1, #512	; 0x200
   1a0c0:	f002 fc3c 	bl	1c93c <sniprintf>
    if( n == 0 ) return 0;
   1a0c4:	4604      	mov	r4, r0
   1a0c6:	b118      	cbz	r0, 1a0d0 <int Print<DevRtt<0>, unsigned long>(DevRtt<0>, char const*, unsigned long) [clone .isra.0]+0x20>
        return SEGGER_RTT_WriteString(N, buf);
   1a0c8:	4669      	mov	r1, sp
   1a0ca:	2000      	movs	r0, #0
   1a0cc:	f002 f968 	bl	1c3a0 <SEGGER_RTT_WriteString>
    dev.write( buf );
    return n;
}
   1a0d0:	4620      	mov	r0, r4
   1a0d2:	f50d 7d00 	add.w	sp, sp, #512	; 0x200
   1a0d6:	bd10      	pop	{r4, pc}

0001a0d8 <int Print<DevRtt<0>>(DevRtt<0>, char const*) [clone .isra.0]>:
int Print(Dev dev, const char* fmt, Ts...ts){
   1a0d8:	b510      	push	{r4, lr}
   1a0da:	f5ad 7d00 	sub.w	sp, sp, #512	; 0x200
   1a0de:	4602      	mov	r2, r0
    int n = snprintf( buf, 512, fmt, ts... );
   1a0e0:	f44f 7100 	mov.w	r1, #512	; 0x200
   1a0e4:	4668      	mov	r0, sp
   1a0e6:	f002 fc29 	bl	1c93c <sniprintf>
    if( n == 0 ) return 0;
   1a0ea:	4604      	mov	r4, r0
   1a0ec:	b118      	cbz	r0, 1a0f6 <int Print<DevRtt<0>>(DevRtt<0>, char const*) [clone .isra.0]+0x1e>
        return SEGGER_RTT_WriteString(N, buf);
   1a0ee:	4669      	mov	r1, sp
   1a0f0:	2000      	movs	r0, #0
   1a0f2:	f002 f955 	bl	1c3a0 <SEGGER_RTT_WriteString>
}
   1a0f6:	4620      	mov	r0, r4
   1a0f8:	f50d 7d00 	add.w	sp, sp, #512	; 0x200
   1a0fc:	bd10      	pop	{r4, pc}
   1a0fe:	bf00      	nop

0001a100 <int Print<DevRtt<0>, char const*>(DevRtt<0>, char const*, char const*) [clone .isra.0]>:
int Print(Dev dev, const char* fmt, Ts...ts){
   1a100:	b510      	push	{r4, lr}
   1a102:	f5ad 7d00 	sub.w	sp, sp, #512	; 0x200
   1a106:	4602      	mov	r2, r0
   1a108:	460b      	mov	r3, r1
    int n = snprintf( buf, 512, fmt, ts... );
   1a10a:	4668      	mov	r0, sp
   1a10c:	f44f 7100 	mov.w	r1, #512	; 0x200
   1a110:	f002 fc14 	bl	1c93c <sniprintf>
    if( n == 0 ) return 0;
   1a114:	4604      	mov	r4, r0
   1a116:	b118      	cbz	r0, 1a120 <int Print<DevRtt<0>, char const*>(DevRtt<0>, char const*, char const*) [clone .isra.0]+0x20>
        return SEGGER_RTT_WriteString(N, buf);
   1a118:	4669      	mov	r1, sp
   1a11a:	2000      	movs	r0, #0
   1a11c:	f002 f940 	bl	1c3a0 <SEGGER_RTT_WriteString>
}
   1a120:	4620      	mov	r0, r4
   1a122:	f50d 7d00 	add.w	sp, sp, #512	; 0x200
   1a126:	bd10      	pop	{r4, pc}

0001a128 <int Print<DevRtt<0>, unsigned short>(DevRtt<0>, char const*, unsigned short) [clone .isra.0]>:
int Print(Dev dev, const char* fmt, Ts...ts){
   1a128:	b510      	push	{r4, lr}
   1a12a:	f5ad 7d00 	sub.w	sp, sp, #512	; 0x200
   1a12e:	4602      	mov	r2, r0
   1a130:	460b      	mov	r3, r1
    int n = snprintf( buf, 512, fmt, ts... );
   1a132:	4668      	mov	r0, sp
   1a134:	f44f 7100 	mov.w	r1, #512	; 0x200
   1a138:	f002 fc00 	bl	1c93c <sniprintf>
    if( n == 0 ) return 0;
   1a13c:	4604      	mov	r4, r0
   1a13e:	b118      	cbz	r0, 1a148 <int Print<DevRtt<0>, unsigned short>(DevRtt<0>, char const*, unsigned short) [clone .isra.0]+0x20>
        return SEGGER_RTT_WriteString(N, buf);
   1a140:	4669      	mov	r1, sp
   1a142:	2000      	movs	r0, #0
   1a144:	f002 f92c 	bl	1c3a0 <SEGGER_RTT_WriteString>
}
   1a148:	4620      	mov	r0, r4
   1a14a:	f50d 7d00 	add.w	sp, sp, #512	; 0x200
   1a14e:	bd10      	pop	{r4, pc}

0001a150 <int Print<DevRtt<0>, unsigned short, int, int>(DevRtt<0>, char const*, unsigned short, int, int) [clone .isra.0] [clone .constprop.0]>:
int Print(Dev dev, const char* fmt, Ts...ts){
   1a150:	b510      	push	{r4, lr}
   1a152:	f5ad 7d02 	sub.w	sp, sp, #520	; 0x208
    int n = snprintf( buf, 512, fmt, ts... );
   1a156:	e9cd 1200 	strd	r1, r2, [sp]
int Print(Dev dev, const char* fmt, Ts...ts){
   1a15a:	4603      	mov	r3, r0
    int n = snprintf( buf, 512, fmt, ts... );
   1a15c:	4a07      	ldr	r2, [pc, #28]	; (1a17c <int Print<DevRtt<0>, unsigned short, int, int>(DevRtt<0>, char const*, unsigned short, int, int) [clone .isra.0] [clone .constprop.0]+0x2c>)
   1a15e:	a802      	add	r0, sp, #8
   1a160:	f44f 7100 	mov.w	r1, #512	; 0x200
   1a164:	f002 fbea 	bl	1c93c <sniprintf>
    if( n == 0 ) return 0;
   1a168:	4604      	mov	r4, r0
   1a16a:	b118      	cbz	r0, 1a174 <int Print<DevRtt<0>, unsigned short, int, int>(DevRtt<0>, char const*, unsigned short, int, int) [clone .isra.0] [clone .constprop.0]+0x24>
        return SEGGER_RTT_WriteString(N, buf);
   1a16c:	a902      	add	r1, sp, #8
   1a16e:	2000      	movs	r0, #0
   1a170:	f002 f916 	bl	1c3a0 <SEGGER_RTT_WriteString>
}
   1a174:	4620      	mov	r0, r4
   1a176:	f50d 7d02 	add.w	sp, sp, #520	; 0x208
   1a17a:	bd10      	pop	{r4, pc}
   1a17c:	0001ea44 	.word	0x0001ea44

0001a180 <int Print<DevRtt<0>, long, int, int>(DevRtt<0>, char const*, long, int, int) [clone .isra.0] [clone .constprop.0]>:
int Print(Dev dev, const char* fmt, Ts...ts){
   1a180:	b510      	push	{r4, lr}
   1a182:	f5ad 7d02 	sub.w	sp, sp, #520	; 0x208
    int n = snprintf( buf, 512, fmt, ts... );
   1a186:	e9cd 1200 	strd	r1, r2, [sp]
int Print(Dev dev, const char* fmt, Ts...ts){
   1a18a:	4603      	mov	r3, r0
    int n = snprintf( buf, 512, fmt, ts... );
   1a18c:	4a07      	ldr	r2, [pc, #28]	; (1a1ac <int Print<DevRtt<0>, long, int, int>(DevRtt<0>, char const*, long, int, int) [clone .isra.0] [clone .constprop.0]+0x2c>)
   1a18e:	a802      	add	r0, sp, #8
   1a190:	f44f 7100 	mov.w	r1, #512	; 0x200
   1a194:	f002 fbd2 	bl	1c93c <sniprintf>
    if( n == 0 ) return 0;
   1a198:	4604      	mov	r4, r0
   1a19a:	b118      	cbz	r0, 1a1a4 <int Print<DevRtt<0>, long, int, int>(DevRtt<0>, char const*, long, int, int) [clone .isra.0] [clone .constprop.0]+0x24>
        return SEGGER_RTT_WriteString(N, buf);
   1a19c:	a902      	add	r1, sp, #8
   1a19e:	2000      	movs	r0, #0
   1a1a0:	f002 f8fe 	bl	1c3a0 <SEGGER_RTT_WriteString>
}
   1a1a4:	4620      	mov	r0, r4
   1a1a6:	f50d 7d02 	add.w	sp, sp, #520	; 0x208
   1a1aa:	bd10      	pop	{r4, pc}
   1a1ac:	0001ea64 	.word	0x0001ea64

0001a1b0 <int Print<DevRtt<0>, unsigned char*>(DevRtt<0>, char const*, unsigned char*) [clone .isra.0] [clone .constprop.0]>:
int Print(Dev dev, const char* fmt, Ts...ts){
   1a1b0:	b510      	push	{r4, lr}
   1a1b2:	f5ad 7d00 	sub.w	sp, sp, #512	; 0x200
   1a1b6:	4603      	mov	r3, r0
    int n = snprintf( buf, 512, fmt, ts... );
   1a1b8:	4a07      	ldr	r2, [pc, #28]	; (1a1d8 <int Print<DevRtt<0>, unsigned char*>(DevRtt<0>, char const*, unsigned char*) [clone .isra.0] [clone .constprop.0]+0x28>)
   1a1ba:	4668      	mov	r0, sp
   1a1bc:	f44f 7100 	mov.w	r1, #512	; 0x200
   1a1c0:	f002 fbbc 	bl	1c93c <sniprintf>
    if( n == 0 ) return 0;
   1a1c4:	4604      	mov	r4, r0
   1a1c6:	b118      	cbz	r0, 1a1d0 <int Print<DevRtt<0>, unsigned char*>(DevRtt<0>, char const*, unsigned char*) [clone .isra.0] [clone .constprop.0]+0x20>
        return SEGGER_RTT_WriteString(N, buf);
   1a1c8:	4669      	mov	r1, sp
   1a1ca:	2000      	movs	r0, #0
   1a1cc:	f002 f8e8 	bl	1c3a0 <SEGGER_RTT_WriteString>
}
   1a1d0:	4620      	mov	r0, r4
   1a1d2:	f50d 7d00 	add.w	sp, sp, #512	; 0x200
   1a1d6:	bd10      	pop	{r4, pc}
   1a1d8:	0001ee3c 	.word	0x0001ee3c

0001a1dc <int Print<DevRtt<0>, short, int, int>(DevRtt<0>, char const*, short, int, int) [clone .isra.0] [clone .constprop.0]>:
int Print(Dev dev, const char* fmt, Ts...ts){
   1a1dc:	b510      	push	{r4, lr}
   1a1de:	f5ad 7d02 	sub.w	sp, sp, #520	; 0x208
    int n = snprintf( buf, 512, fmt, ts... );
   1a1e2:	e9cd 1200 	strd	r1, r2, [sp]
int Print(Dev dev, const char* fmt, Ts...ts){
   1a1e6:	4603      	mov	r3, r0
    int n = snprintf( buf, 512, fmt, ts... );
   1a1e8:	4a07      	ldr	r2, [pc, #28]	; (1a208 <int Print<DevRtt<0>, short, int, int>(DevRtt<0>, char const*, short, int, int) [clone .isra.0] [clone .constprop.0]+0x2c>)
   1a1ea:	a802      	add	r0, sp, #8
   1a1ec:	f44f 7100 	mov.w	r1, #512	; 0x200
   1a1f0:	f002 fba4 	bl	1c93c <sniprintf>
    if( n == 0 ) return 0;
   1a1f4:	4604      	mov	r4, r0
   1a1f6:	b118      	cbz	r0, 1a200 <int Print<DevRtt<0>, short, int, int>(DevRtt<0>, char const*, short, int, int) [clone .isra.0] [clone .constprop.0]+0x24>
        return SEGGER_RTT_WriteString(N, buf);
   1a1f8:	a902      	add	r1, sp, #8
   1a1fa:	2000      	movs	r0, #0
   1a1fc:	f002 f8d0 	bl	1c3a0 <SEGGER_RTT_WriteString>
}
   1a200:	4620      	mov	r0, r4
   1a202:	f50d 7d02 	add.w	sp, sp, #520	; 0x208
   1a206:	bd10      	pop	{r4, pc}
   1a208:	0001ea84 	.word	0x0001ea84

0001a20c <int Print<DevRtt<0>, unsigned char, unsigned char>(DevRtt<0>, char const*, unsigned char, unsigned char) [clone .isra.0] [clone .constprop.0]>:
int Print(Dev dev, const char* fmt, Ts...ts){
   1a20c:	b510      	push	{r4, lr}
   1a20e:	f5ad 7d02 	sub.w	sp, sp, #520	; 0x208
   1a212:	4603      	mov	r3, r0
    int n = snprintf( buf, 512, fmt, ts... );
   1a214:	9100      	str	r1, [sp, #0]
   1a216:	4a08      	ldr	r2, [pc, #32]	; (1a238 <int Print<DevRtt<0>, unsigned char, unsigned char>(DevRtt<0>, char const*, unsigned char, unsigned char) [clone .isra.0] [clone .constprop.0]+0x2c>)
   1a218:	a802      	add	r0, sp, #8
   1a21a:	f44f 7100 	mov.w	r1, #512	; 0x200
   1a21e:	f002 fb8d 	bl	1c93c <sniprintf>
    if( n == 0 ) return 0;
   1a222:	4604      	mov	r4, r0
   1a224:	b118      	cbz	r0, 1a22e <int Print<DevRtt<0>, unsigned char, unsigned char>(DevRtt<0>, char const*, unsigned char, unsigned char) [clone .isra.0] [clone .constprop.0]+0x22>
        return SEGGER_RTT_WriteString(N, buf);
   1a226:	a902      	add	r1, sp, #8
   1a228:	2000      	movs	r0, #0
   1a22a:	f002 f8b9 	bl	1c3a0 <SEGGER_RTT_WriteString>
}
   1a22e:	4620      	mov	r0, r4
   1a230:	f50d 7d02 	add.w	sp, sp, #520	; 0x208
   1a234:	bd10      	pop	{r4, pc}
   1a236:	bf00      	nop
   1a238:	0001eaa4 	.word	0x0001eaa4

0001a23c <int Print<DevRtt<0>, unsigned char, unsigned char*>(DevRtt<0>, char const*, unsigned char, unsigned char*) [clone .isra.0] [clone .constprop.0]>:
int Print(Dev dev, const char* fmt, Ts...ts){
   1a23c:	b510      	push	{r4, lr}
   1a23e:	f5ad 7d02 	sub.w	sp, sp, #520	; 0x208
   1a242:	4603      	mov	r3, r0
    int n = snprintf( buf, 512, fmt, ts... );
   1a244:	9100      	str	r1, [sp, #0]
   1a246:	4a08      	ldr	r2, [pc, #32]	; (1a268 <int Print<DevRtt<0>, unsigned char, unsigned char*>(DevRtt<0>, char const*, unsigned char, unsigned char*) [clone .isra.0] [clone .constprop.0]+0x2c>)
   1a248:	a802      	add	r0, sp, #8
   1a24a:	f44f 7100 	mov.w	r1, #512	; 0x200
   1a24e:	f002 fb75 	bl	1c93c <sniprintf>
    if( n == 0 ) return 0;
   1a252:	4604      	mov	r4, r0
   1a254:	b118      	cbz	r0, 1a25e <int Print<DevRtt<0>, unsigned char, unsigned char*>(DevRtt<0>, char const*, unsigned char, unsigned char*) [clone .isra.0] [clone .constprop.0]+0x22>
        return SEGGER_RTT_WriteString(N, buf);
   1a256:	a902      	add	r1, sp, #8
   1a258:	2000      	movs	r0, #0
   1a25a:	f002 f8a1 	bl	1c3a0 <SEGGER_RTT_WriteString>
}
   1a25e:	4620      	mov	r0, r4
   1a260:	f50d 7d02 	add.w	sp, sp, #520	; 0x208
   1a264:	bd10      	pop	{r4, pc}
   1a266:	bf00      	nop
   1a268:	0001eac4 	.word	0x0001eac4

0001a26c <int Print<DevRtt<0>, unsigned long, unsigned long, char const*, int, char const*>(DevRtt<0>, char const*, unsigned long, unsigned long, char const*, int, char const*) [clone .isra.0] [clone .constprop.0]>:
int Print(Dev dev, const char* fmt, Ts...ts){
   1a26c:	b510      	push	{r4, lr}
   1a26e:	f5ad 7d04 	sub.w	sp, sp, #528	; 0x210
    int n = snprintf( buf, 512, fmt, ts... );
   1a272:	e9cd 1200 	strd	r1, r2, [sp]
int Print(Dev dev, const char* fmt, Ts...ts){
   1a276:	9c86      	ldr	r4, [sp, #536]	; 0x218
    int n = snprintf( buf, 512, fmt, ts... );
   1a278:	9302      	str	r3, [sp, #8]
   1a27a:	9403      	str	r4, [sp, #12]
   1a27c:	4603      	mov	r3, r0
   1a27e:	4a08      	ldr	r2, [pc, #32]	; (1a2a0 <int Print<DevRtt<0>, unsigned long, unsigned long, char const*, int, char const*>(DevRtt<0>, char const*, unsigned long, unsigned long, char const*, int, char const*) [clone .isra.0] [clone .constprop.0]+0x34>)
   1a280:	a804      	add	r0, sp, #16
   1a282:	f44f 7100 	mov.w	r1, #512	; 0x200
   1a286:	f002 fb59 	bl	1c93c <sniprintf>
    if( n == 0 ) return 0;
   1a28a:	4604      	mov	r4, r0
   1a28c:	b118      	cbz	r0, 1a296 <int Print<DevRtt<0>, unsigned long, unsigned long, char const*, int, char const*>(DevRtt<0>, char const*, unsigned long, unsigned long, char const*, int, char const*) [clone .isra.0] [clone .constprop.0]+0x2a>
        return SEGGER_RTT_WriteString(N, buf);
   1a28e:	a904      	add	r1, sp, #16
   1a290:	2000      	movs	r0, #0
   1a292:	f002 f885 	bl	1c3a0 <SEGGER_RTT_WriteString>
}
   1a296:	4620      	mov	r0, r4
   1a298:	f50d 7d04 	add.w	sp, sp, #528	; 0x210
   1a29c:	bd10      	pop	{r4, pc}
   1a29e:	bf00      	nop
   1a2a0:	0001eacc 	.word	0x0001eacc

0001a2a4 <ServiceData16::make(unsigned char*, unsigned short, unsigned char*, unsigned char) [clone .constprop.0]>:
    size [4+datlen]
------------------------------------------------------------------------------*/
struct ServiceData16 {

SA  make            (u8* buf, u16 uuid, u8* dat, u8 datlen) {
                        buf[0] = 3 + datlen;
   1a2a4:	4b02      	ldr	r3, [pc, #8]	; (1a2b0 <ServiceData16::make(unsigned char*, unsigned short, unsigned char*, unsigned char) [clone .constprop.0]+0xc>)
   1a2a6:	6003      	str	r3, [r0, #0]
                        buf[1] = 0x16;
                        buf[2] = uuid;
                        buf[3] = uuid>>8;
                        for( auto i = 4; i < datlen+4; i++ ) buf[i] = *dat++;
   1a2a8:	780b      	ldrb	r3, [r1, #0]
   1a2aa:	7103      	strb	r3, [r0, #4]
                        return buf[0] + 1;
                    }
   1a2ac:	2005      	movs	r0, #5
   1a2ae:	4770      	bx	lr
   1a2b0:	180f1604 	.word	0x180f1604

0001a2b4 <int Print<DevRtt<0>, char>(DevRtt<0>, char const*, char) [clone .isra.0] [clone .constprop.0]>:
int Print(Dev dev, const char* fmt, Ts...ts){
   1a2b4:	b510      	push	{r4, lr}
   1a2b6:	f5ad 7d00 	sub.w	sp, sp, #512	; 0x200
   1a2ba:	4603      	mov	r3, r0
    int n = snprintf( buf, 512, fmt, ts... );
   1a2bc:	4a07      	ldr	r2, [pc, #28]	; (1a2dc <int Print<DevRtt<0>, char>(DevRtt<0>, char const*, char) [clone .isra.0] [clone .constprop.0]+0x28>)
   1a2be:	4668      	mov	r0, sp
   1a2c0:	f44f 7100 	mov.w	r1, #512	; 0x200
   1a2c4:	f002 fb3a 	bl	1c93c <sniprintf>
    if( n == 0 ) return 0;
   1a2c8:	4604      	mov	r4, r0
   1a2ca:	b118      	cbz	r0, 1a2d4 <int Print<DevRtt<0>, char>(DevRtt<0>, char const*, char) [clone .isra.0] [clone .constprop.0]+0x20>
        return SEGGER_RTT_WriteString(N, buf);
   1a2cc:	4669      	mov	r1, sp
   1a2ce:	2000      	movs	r0, #0
   1a2d0:	f002 f866 	bl	1c3a0 <SEGGER_RTT_WriteString>
}
   1a2d4:	4620      	mov	r0, r4
   1a2d6:	f50d 7d00 	add.w	sp, sp, #512	; 0x200
   1a2da:	bd10      	pop	{r4, pc}
   1a2dc:	0001eb0c 	.word	0x0001eb0c

0001a2e0 <int Print<DevRtt<0>, char>(DevRtt<0>, char const*, char) [clone .isra.0] [clone .constprop.1]>:
int Print(Dev dev, const char* fmt, Ts...ts){
   1a2e0:	b510      	push	{r4, lr}
   1a2e2:	f5ad 7d00 	sub.w	sp, sp, #512	; 0x200
   1a2e6:	4603      	mov	r3, r0
    int n = snprintf( buf, 512, fmt, ts... );
   1a2e8:	4a07      	ldr	r2, [pc, #28]	; (1a308 <int Print<DevRtt<0>, char>(DevRtt<0>, char const*, char) [clone .isra.0] [clone .constprop.1]+0x28>)
   1a2ea:	4668      	mov	r0, sp
   1a2ec:	f44f 7100 	mov.w	r1, #512	; 0x200
   1a2f0:	f002 fb24 	bl	1c93c <sniprintf>
    if( n == 0 ) return 0;
   1a2f4:	4604      	mov	r4, r0
   1a2f6:	b118      	cbz	r0, 1a300 <int Print<DevRtt<0>, char>(DevRtt<0>, char const*, char) [clone .isra.0] [clone .constprop.1]+0x20>
        return SEGGER_RTT_WriteString(N, buf);
   1a2f8:	4669      	mov	r1, sp
   1a2fa:	2000      	movs	r0, #0
   1a2fc:	f002 f850 	bl	1c3a0 <SEGGER_RTT_WriteString>
}
   1a300:	4620      	mov	r0, r4
   1a302:	f50d 7d00 	add.w	sp, sp, #512	; 0x200
   1a306:	bd10      	pop	{r4, pc}
   1a308:	0001eb14 	.word	0x0001eb14

0001a30c <int Print<DevRtt<0>, char>(DevRtt<0>, char const*, char) [clone .isra.0] [clone .constprop.2]>:
int Print(Dev dev, const char* fmt, Ts...ts){
   1a30c:	b510      	push	{r4, lr}
   1a30e:	f5ad 7d00 	sub.w	sp, sp, #512	; 0x200
   1a312:	4603      	mov	r3, r0
    int n = snprintf( buf, 512, fmt, ts... );
   1a314:	4a07      	ldr	r2, [pc, #28]	; (1a334 <int Print<DevRtt<0>, char>(DevRtt<0>, char const*, char) [clone .isra.0] [clone .constprop.2]+0x28>)
   1a316:	4668      	mov	r0, sp
   1a318:	f44f 7100 	mov.w	r1, #512	; 0x200
   1a31c:	f002 fb0e 	bl	1c93c <sniprintf>
    if( n == 0 ) return 0;
   1a320:	4604      	mov	r4, r0
   1a322:	b118      	cbz	r0, 1a32c <int Print<DevRtt<0>, char>(DevRtt<0>, char const*, char) [clone .isra.0] [clone .constprop.2]+0x20>
        return SEGGER_RTT_WriteString(N, buf);
   1a324:	4669      	mov	r1, sp
   1a326:	2000      	movs	r0, #0
   1a328:	f002 f83a 	bl	1c3a0 <SEGGER_RTT_WriteString>
}
   1a32c:	4620      	mov	r0, r4
   1a32e:	f50d 7d00 	add.w	sp, sp, #512	; 0x200
   1a332:	bd10      	pop	{r4, pc}
   1a334:	0001eb18 	.word	0x0001eb18

0001a338 <int Print<DevRtt<0>, int, int>(DevRtt<0>, char const*, int, int) [clone .isra.0] [clone .constprop.0]>:
int Print(Dev dev, const char* fmt, Ts...ts){
   1a338:	b510      	push	{r4, lr}
   1a33a:	f5ad 7d02 	sub.w	sp, sp, #520	; 0x208
   1a33e:	4603      	mov	r3, r0
    int n = snprintf( buf, 512, fmt, ts... );
   1a340:	9100      	str	r1, [sp, #0]
   1a342:	4a08      	ldr	r2, [pc, #32]	; (1a364 <int Print<DevRtt<0>, int, int>(DevRtt<0>, char const*, int, int) [clone .isra.0] [clone .constprop.0]+0x2c>)
   1a344:	a802      	add	r0, sp, #8
   1a346:	f44f 7100 	mov.w	r1, #512	; 0x200
   1a34a:	f002 faf7 	bl	1c93c <sniprintf>
    if( n == 0 ) return 0;
   1a34e:	4604      	mov	r4, r0
   1a350:	b118      	cbz	r0, 1a35a <int Print<DevRtt<0>, int, int>(DevRtt<0>, char const*, int, int) [clone .isra.0] [clone .constprop.0]+0x22>
        return SEGGER_RTT_WriteString(N, buf);
   1a352:	a902      	add	r1, sp, #8
   1a354:	2000      	movs	r0, #0
   1a356:	f002 f823 	bl	1c3a0 <SEGGER_RTT_WriteString>
}
   1a35a:	4620      	mov	r0, r4
   1a35c:	f50d 7d02 	add.w	sp, sp, #520	; 0x208
   1a360:	bd10      	pop	{r4, pc}
   1a362:	bf00      	nop
   1a364:	0001eb20 	.word	0x0001eb20

0001a368 <int Print<DevRtt<0>, short>(DevRtt<0>, char const*, short) [clone .isra.0] [clone .constprop.0]>:
int Print(Dev dev, const char* fmt, Ts...ts){
   1a368:	b510      	push	{r4, lr}
   1a36a:	f5ad 7d00 	sub.w	sp, sp, #512	; 0x200
   1a36e:	4603      	mov	r3, r0
    int n = snprintf( buf, 512, fmt, ts... );
   1a370:	4a07      	ldr	r2, [pc, #28]	; (1a390 <int Print<DevRtt<0>, short>(DevRtt<0>, char const*, short) [clone .isra.0] [clone .constprop.0]+0x28>)
   1a372:	4668      	mov	r0, sp
   1a374:	f44f 7100 	mov.w	r1, #512	; 0x200
   1a378:	f002 fae0 	bl	1c93c <sniprintf>
    if( n == 0 ) return 0;
   1a37c:	4604      	mov	r4, r0
   1a37e:	b118      	cbz	r0, 1a388 <int Print<DevRtt<0>, short>(DevRtt<0>, char const*, short) [clone .isra.0] [clone .constprop.0]+0x20>
        return SEGGER_RTT_WriteString(N, buf);
   1a380:	4669      	mov	r1, sp
   1a382:	2000      	movs	r0, #0
   1a384:	f002 f80c 	bl	1c3a0 <SEGGER_RTT_WriteString>
}
   1a388:	4620      	mov	r0, r4
   1a38a:	f50d 7d00 	add.w	sp, sp, #512	; 0x200
   1a38e:	bd10      	pop	{r4, pc}
   1a390:	0001eb3c 	.word	0x0001eb3c

0001a394 <Errors::check(short, bool) [clone .constprop.0]>:
struct Errors {

                //if error, show error code 3 times, 
                //reset unless also pass in false
SA  check       (i16 err, bool reboot = true) {
                    if( err == 0 ) return;
   1a394:	b900      	cbnz	r0, 1a398 <Errors::check(short, bool) [clone .constprop.0]+0x4>
   1a396:	4770      	bx	lr
SA  check       (i16 err, bool reboot = true) {
   1a398:	e92d 4ff8 	stmdb	sp!, {r3, r4, r5, r6, r7, r8, r9, sl, fp, lr}
   1a39c:	4680      	mov	r8, r0
                    Debug( FG RED "Error: %d\n" ANSI_NORMAL, err );
   1a39e:	4e45      	ldr	r6, [pc, #276]	; (1a4b4 <Errors::check(short, bool) [clone .constprop.0]+0x120>)
   1a3a0:	f7ff ffe2 	bl	1a368 <int Print<DevRtt<0>, short>(DevRtt<0>, char const*, short) [clone .isra.0] [clone .constprop.0]>
                    for( auto i = 0; i < 3; i++ ){
   1a3a4:	fa1f f888 	uxth.w	r8, r8
   1a3a8:	f046 0601 	orr.w	r6, r6, #1
                    Debug( FG RED "Error: %d\n" ANSI_NORMAL, err );
   1a3ac:	f04f 0903 	mov.w	r9, #3
SA  latchOn     ()          { reg.DETECTMODE = 1; }

//------------
//  status
//------------
SA  isOutput    ()          { return reg.DIRP; }
   1a3b0:	f04f 44a0 	mov.w	r4, #1342177280	; 0x50000000

            //show error code via led's, skip leading 0's
            //show 1-15 blinks for each nibble (0x01-0x0f)
            //a zero will be a short green blink
SA  error   (u16 hex) {
                bool lz = true;
   1a3b4:	2501      	movs	r5, #1
                for( auto i = 12; i >= 0; i -= 4 ){
   1a3b6:	270c      	movs	r7, #12
                    u8 v = (hex>>i) bitand 0xf;
   1a3b8:	fa48 f307 	asr.w	r3, r8, r7
                    if( v == 0 and lz == true ) continue; //skip leading 0's
   1a3bc:	f013 030f 	ands.w	r3, r3, #15
   1a3c0:	d04e      	beq.n	1a460 <Errors::check(short, bool) [clone .constprop.0]+0xcc>
   1a3c2:	f8d4 271c 	ldr.w	r2, [r4, #1820]	; 0x71c
                //in places that sets a peripheral pin
                //  PSEL.SCA = board.sca.pinNumber();
SCA pinNumber   ()          { return Pin_; }

SA  blinkN      (uint16_t n, uint32_t mson, uint32_t msoff = 0, uint32_t lastdelayms = 0) {
                    if( not isOutput() ) return;
   1a3c6:	07d5      	lsls	r5, r2, #31
   1a3c8:	d529      	bpl.n	1a41e <Errors::check(short, bool) [clone .constprop.0]+0x8a>
                    if( not msoff ) msoff = mson;
                    while( n-- ){ 
   1a3ca:	3b01      	subs	r3, #1
   1a3cc:	b29d      	uxth	r5, r3
SA  high        ()          { reg.OUTSET = bm_; } //register wide write
   1a3ce:	f04f 0a80 	mov.w	sl, #128	; 0x80
SA  toggle      ()          { if( reg.OUT ) low(); else high(); }
   1a3d2:	f8d4 3504 	ldr.w	r3, [r4, #1284]	; 0x504
   1a3d6:	0618      	lsls	r0, r3, #24
SA  low         ()          { reg.OUTCLR = bm_; } //register wide write
   1a3d8:	bf4c      	ite	mi
   1a3da:	f8c4 a50c 	strmi.w	sl, [r4, #1292]	; 0x50c
SA  high        ()          { reg.OUTSET = bm_; } //register wide write
   1a3de:	f8c4 a508 	strpl.w	sl, [r4, #1288]	; 0x508
                for( auto i = 12; i >= 0; i -= 4 ){
   1a3e2:	f44f 7bfa 	mov.w	fp, #500	; 0x1f4
   1a3e6:	f44f 407a 	mov.w	r0, #64000	; 0xfa00
   1a3ea:	47b0      	blx	r6
        return;
    }

    do {
        nrf_delay_us(1000);
    } while (--ms_time);
   1a3ec:	f1bb 0b01 	subs.w	fp, fp, #1
   1a3f0:	d1f9      	bne.n	1a3e6 <Errors::check(short, bool) [clone .constprop.0]+0x52>
SA  toggle      ()          { if( reg.OUT ) low(); else high(); }
   1a3f2:	f8d4 3504 	ldr.w	r3, [r4, #1284]	; 0x504
   1a3f6:	0619      	lsls	r1, r3, #24
SA  low         ()          { reg.OUTCLR = bm_; } //register wide write
   1a3f8:	bf4c      	ite	mi
   1a3fa:	f8c4 a50c 	strmi.w	sl, [r4, #1292]	; 0x50c
SA  high        ()          { reg.OUTSET = bm_; } //register wide write
   1a3fe:	f8c4 a508 	strpl.w	sl, [r4, #1288]	; 0x508
   1a402:	f44f 7bfa 	mov.w	fp, #500	; 0x1f4
   1a406:	f44f 407a 	mov.w	r0, #64000	; 0xfa00
   1a40a:	47b0      	blx	r6
   1a40c:	f1bb 0b01 	subs.w	fp, fp, #1
   1a410:	d1f9      	bne.n	1a406 <Errors::check(short, bool) [clone .constprop.0]+0x72>
                    while( n-- ){ 
   1a412:	3d01      	subs	r5, #1
   1a414:	b2ad      	uxth	r5, r5
   1a416:	f64f 73ff 	movw	r3, #65535	; 0xffff
   1a41a:	429d      	cmp	r5, r3
   1a41c:	d1d9      	bne.n	1a3d2 <Errors::check(short, bool) [clone .constprop.0]+0x3e>
   1a41e:	f44f 75fa 	mov.w	r5, #500	; 0x1f4
   1a422:	f44f 407a 	mov.w	r0, #64000	; 0xfa00
   1a426:	47b0      	blx	r6
   1a428:	3d01      	subs	r5, #1
   1a42a:	d1fa      	bne.n	1a422 <Errors::check(short, bool) [clone .constprop.0]+0x8e>
   1a42c:	3f04      	subs	r7, #4
   1a42e:	1d3b      	adds	r3, r7, #4
   1a430:	d1c2      	bne.n	1a3b8 <Errors::check(short, bool) [clone .constprop.0]+0x24>
   1a432:	f640 35b8 	movw	r5, #3000	; 0xbb8
   1a436:	f44f 407a 	mov.w	r0, #64000	; 0xfa00
   1a43a:	47b0      	blx	r6
   1a43c:	3d01      	subs	r5, #1
   1a43e:	d1fa      	bne.n	1a436 <Errors::check(short, bool) [clone .constprop.0]+0xa2>
                    for( auto i = 0; i < 3; i++ ){
   1a440:	f1b9 0901 	subs.w	r9, r9, #1
   1a444:	d1b6      	bne.n	1a3b4 <Errors::check(short, bool) [clone .constprop.0]+0x20>
  __ASM volatile ("dsb 0xF":::"memory");
   1a446:	f3bf 8f4f 	dsb	sy
                           (SCB->AIRCR & SCB_AIRCR_PRIGROUP_Msk) |
   1a44a:	491b      	ldr	r1, [pc, #108]	; (1a4b8 <Errors::check(short, bool) [clone .constprop.0]+0x124>)
   1a44c:	4b1b      	ldr	r3, [pc, #108]	; (1a4bc <Errors::check(short, bool) [clone .constprop.0]+0x128>)
   1a44e:	68ca      	ldr	r2, [r1, #12]
   1a450:	f402 62e0 	and.w	r2, r2, #1792	; 0x700
   1a454:	4313      	orrs	r3, r2
  SCB->AIRCR  = (uint32_t)((0x5FAUL << SCB_AIRCR_VECTKEY_Pos)    |
   1a456:	60cb      	str	r3, [r1, #12]
   1a458:	f3bf 8f4f 	dsb	sy
  __ASM volatile ("nop");
   1a45c:	bf00      	nop
   1a45e:	e7fd      	b.n	1a45c <Errors::check(short, bool) [clone .constprop.0]+0xc8>
                    if( v == 0 and lz == true ) continue; //skip leading 0's
   1a460:	2d00      	cmp	r5, #0
   1a462:	d1e3      	bne.n	1a42c <Errors::check(short, bool) [clone .constprop.0]+0x98>
SA  isOutput    ()          { return reg.DIRP; }
   1a464:	f8d4 3720 	ldr.w	r3, [r4, #1824]	; 0x720
                    if( not isOutput() ) return;
   1a468:	07da      	lsls	r2, r3, #31
   1a46a:	d5d8      	bpl.n	1a41e <Errors::check(short, bool) [clone .constprop.0]+0x8a>
SA  toggle      ()          { if( reg.OUT ) low(); else high(); }
   1a46c:	f8d4 3504 	ldr.w	r3, [r4, #1284]	; 0x504
   1a470:	f413 7f80 	tst.w	r3, #256	; 0x100
SA  low         ()          { reg.OUTCLR = bm_; } //register wide write
   1a474:	f44f 7380 	mov.w	r3, #256	; 0x100
   1a478:	bf14      	ite	ne
   1a47a:	f8c4 350c 	strne.w	r3, [r4, #1292]	; 0x50c
SA  high        ()          { reg.OUTSET = bm_; } //register wide write
   1a47e:	f8c4 3508 	streq.w	r3, [r4, #1288]	; 0x508
                for( auto i = 12; i >= 0; i -= 4 ){
   1a482:	2532      	movs	r5, #50	; 0x32
   1a484:	f44f 407a 	mov.w	r0, #64000	; 0xfa00
   1a488:	47b0      	blx	r6
   1a48a:	3d01      	subs	r5, #1
   1a48c:	d1fa      	bne.n	1a484 <Errors::check(short, bool) [clone .constprop.0]+0xf0>
SA  toggle      ()          { if( reg.OUT ) low(); else high(); }
   1a48e:	f8d4 3504 	ldr.w	r3, [r4, #1284]	; 0x504
   1a492:	f413 7f80 	tst.w	r3, #256	; 0x100
SA  low         ()          { reg.OUTCLR = bm_; } //register wide write
   1a496:	f44f 7380 	mov.w	r3, #256	; 0x100
   1a49a:	bf14      	ite	ne
   1a49c:	f8c4 350c 	strne.w	r3, [r4, #1292]	; 0x50c
SA  high        ()          { reg.OUTSET = bm_; } //register wide write
   1a4a0:	f8c4 3508 	streq.w	r3, [r4, #1288]	; 0x508
   1a4a4:	2532      	movs	r5, #50	; 0x32
   1a4a6:	f44f 407a 	mov.w	r0, #64000	; 0xfa00
   1a4aa:	47b0      	blx	r6
   1a4ac:	3d01      	subs	r5, #1
   1a4ae:	d1fa      	bne.n	1a4a6 <Errors::check(short, bool) [clone .constprop.0]+0x112>
   1a4b0:	e7b5      	b.n	1a41e <Errors::check(short, bool) [clone .constprop.0]+0x8a>
   1a4b2:	bf00      	nop
   1a4b4:	0001ef50 	.word	0x0001ef50
   1a4b8:	e000ed00 	.word	0xe000ed00
   1a4bc:	05fa0004 	.word	0x05fa0004

0001a4c0 <Flash::evtHandler(unsigned long, void*)>:
    SI bool saveName_{false};
    SI bool busy_{false};


                    //sd soc event handler to get success/error from erase/write
SA  evtHandler      (u32 evtId, void* ctx) -> void {
   1a4c0:	e92d 41f0 	stmdb	sp!, {r4, r5, r6, r7, r8, lr}
                        Debug( "Flash::handler event : %d\n", evtId );
   1a4c4:	4601      	mov	r1, r0
SA  evtHandler      (u32 evtId, void* ctx) -> void {
   1a4c6:	4604      	mov	r4, r0
                        Debug( "Flash::handler event : %d\n", evtId );
   1a4c8:	4825      	ldr	r0, [pc, #148]	; (1a560 <Flash::evtHandler(unsigned long, void*)+0xa0>)
   1a4ca:	f7ff fdf1 	bl	1a0b0 <int Print<DevRtt<0>, unsigned long>(DevRtt<0>, char const*, unsigned long) [clone .isra.0]>
                        if( evtId == NRF_EVT_FLASH_OPERATION_SUCCESS ){
   1a4ce:	2c02      	cmp	r4, #2
   1a4d0:	d003      	beq.n	1a4da <Flash::evtHandler(unsigned long, void*)+0x1a>
                            Debug( "    success\n" );
                            dump();
                            busy_ = false;
                        }
                        if( evtId == NRF_EVT_FLASH_OPERATION_ERROR ){
   1a4d2:	2c03      	cmp	r4, #3
   1a4d4:	d03b      	beq.n	1a54e <Flash::evtHandler(unsigned long, void*)+0x8e>
                            Debug( "    error\n" );
                            busy_ = false;
                        }
                    }
   1a4d6:	e8bd 81f0 	ldmia.w	sp!, {r4, r5, r6, r7, r8, pc}
                            Debug( "    success\n" );
   1a4da:	4822      	ldr	r0, [pc, #136]	; (1a564 <Flash::evtHandler(unsigned long, void*)+0xa4>)

                    //dump 32 bytes
SA  dump            () -> void {
                        Debug( "fullname flash values:\n    " );
                        for( auto i = 0; i < fullnameSiz_; i++ ){
                            Debug( "%02X", fullnameFlash_[i] );
   1a4dc:	4e22      	ldr	r6, [pc, #136]	; (1a568 <Flash::evtHandler(unsigned long, void*)+0xa8>)
                            if( (i bitand 15) == 15 ){
                                Debug(" ");
   1a4de:	f8df 80a0 	ldr.w	r8, [pc, #160]	; 1a580 <Flash::evtHandler(unsigned long, void*)+0xc0>
                                for( auto j = i-15; j <= i; j++ ){
                                    Debug("%c", fullnameFlash_[j] > ' ' and fullnameFlash_[j] < 128 ? 
                                                fullnameFlash_[j] : '.');                                    
                                }
                                Debug("\n    ");
   1a4e2:	4f22      	ldr	r7, [pc, #136]	; (1a56c <Flash::evtHandler(unsigned long, void*)+0xac>)
                            Debug( "    success\n" );
   1a4e4:	f7ff fdf8 	bl	1a0d8 <int Print<DevRtt<0>>(DevRtt<0>, char const*) [clone .isra.0]>
                        Debug( "fullname flash values:\n    " );
   1a4e8:	4821      	ldr	r0, [pc, #132]	; (1a570 <Flash::evtHandler(unsigned long, void*)+0xb0>)
   1a4ea:	f7ff fdf5 	bl	1a0d8 <int Print<DevRtt<0>>(DevRtt<0>, char const*) [clone .isra.0]>
                            Debug( "%02X", fullnameFlash_[i] );
   1a4ee:	6833      	ldr	r3, [r6, #0]
   1a4f0:	7818      	ldrb	r0, [r3, #0]
   1a4f2:	f7ff fedf 	bl	1a2b4 <int Print<DevRtt<0>, char>(DevRtt<0>, char const*, char) [clone .isra.0] [clone .constprop.0]>
                        for( auto i = 0; i < fullnameSiz_; i++ ){
   1a4f6:	2401      	movs	r4, #1
   1a4f8:	e002      	b.n	1a500 <Flash::evtHandler(unsigned long, void*)+0x40>
   1a4fa:	3401      	adds	r4, #1
   1a4fc:	2c20      	cmp	r4, #32
   1a4fe:	d01e      	beq.n	1a53e <Flash::evtHandler(unsigned long, void*)+0x7e>
                            Debug( "%02X", fullnameFlash_[i] );
   1a500:	6833      	ldr	r3, [r6, #0]
   1a502:	5d18      	ldrb	r0, [r3, r4]
   1a504:	f7ff fed6 	bl	1a2b4 <int Print<DevRtt<0>, char>(DevRtt<0>, char const*, char) [clone .isra.0] [clone .constprop.0]>
                            if( (i bitand 15) == 15 ){
   1a508:	f004 030f 	and.w	r3, r4, #15
   1a50c:	2b0f      	cmp	r3, #15
   1a50e:	d1f4      	bne.n	1a4fa <Flash::evtHandler(unsigned long, void*)+0x3a>
                                Debug(" ");
   1a510:	4640      	mov	r0, r8
   1a512:	f7ff fde1 	bl	1a0d8 <int Print<DevRtt<0>>(DevRtt<0>, char const*) [clone .isra.0]>
                                for( auto j = i-15; j <= i; j++ ){
   1a516:	f1a4 050f 	sub.w	r5, r4, #15
   1a51a:	3401      	adds	r4, #1
                                    Debug("%c", fullnameFlash_[j] > ' ' and fullnameFlash_[j] < 128 ? 
   1a51c:	6833      	ldr	r3, [r6, #0]
   1a51e:	5d58      	ldrb	r0, [r3, r5]
   1a520:	f1a0 0321 	sub.w	r3, r0, #33	; 0x21
   1a524:	2b5e      	cmp	r3, #94	; 0x5e
   1a526:	bf88      	it	hi
   1a528:	202e      	movhi	r0, #46	; 0x2e
                                for( auto j = i-15; j <= i; j++ ){
   1a52a:	3501      	adds	r5, #1
                                    Debug("%c", fullnameFlash_[j] > ' ' and fullnameFlash_[j] < 128 ? 
   1a52c:	f7ff fed8 	bl	1a2e0 <int Print<DevRtt<0>, char>(DevRtt<0>, char const*, char) [clone .isra.0] [clone .constprop.1]>
                                for( auto j = i-15; j <= i; j++ ){
   1a530:	42a5      	cmp	r5, r4
   1a532:	d1f3      	bne.n	1a51c <Flash::evtHandler(unsigned long, void*)+0x5c>
                                Debug("\n    ");
   1a534:	4638      	mov	r0, r7
   1a536:	f7ff fdcf 	bl	1a0d8 <int Print<DevRtt<0>>(DevRtt<0>, char const*) [clone .isra.0]>
                        for( auto i = 0; i < fullnameSiz_; i++ ){
   1a53a:	2c20      	cmp	r4, #32
   1a53c:	d1e0      	bne.n	1a500 <Flash::evtHandler(unsigned long, void*)+0x40>
                            }
                        }
                        Debug( "\n" );
   1a53e:	480d      	ldr	r0, [pc, #52]	; (1a574 <Flash::evtHandler(unsigned long, void*)+0xb4>)
   1a540:	f7ff fdca 	bl	1a0d8 <int Print<DevRtt<0>>(DevRtt<0>, char const*) [clone .isra.0]>
                            busy_ = false;
   1a544:	4b0c      	ldr	r3, [pc, #48]	; (1a578 <Flash::evtHandler(unsigned long, void*)+0xb8>)
   1a546:	2200      	movs	r2, #0
   1a548:	701a      	strb	r2, [r3, #0]
                    }
   1a54a:	e8bd 81f0 	ldmia.w	sp!, {r4, r5, r6, r7, r8, pc}
                            Debug( "    error\n" );
   1a54e:	480b      	ldr	r0, [pc, #44]	; (1a57c <Flash::evtHandler(unsigned long, void*)+0xbc>)
   1a550:	f7ff fdc2 	bl	1a0d8 <int Print<DevRtt<0>>(DevRtt<0>, char const*) [clone .isra.0]>
                            busy_ = false;
   1a554:	4b08      	ldr	r3, [pc, #32]	; (1a578 <Flash::evtHandler(unsigned long, void*)+0xb8>)
   1a556:	2200      	movs	r2, #0
   1a558:	701a      	strb	r2, [r3, #0]
                    }
   1a55a:	e8bd 81f0 	ldmia.w	sp!, {r4, r5, r6, r7, r8, pc}
   1a55e:	bf00      	nop
   1a560:	0001eb5c 	.word	0x0001eb5c
   1a564:	0001eb78 	.word	0x0001eb78
   1a568:	20001834 	.word	0x20001834
   1a56c:	0001eba4 	.word	0x0001eba4
   1a570:	0001eb88 	.word	0x0001eb88
   1a574:	0001ec38 	.word	0x0001ec38
   1a578:	20001a22 	.word	0x20001a22
   1a57c:	0001ebac 	.word	0x0001ebac
   1a580:	0001eba8 	.word	0x0001eba8

0001a584 <BL651tempBoard::init()>:
SA  init    () {
   1a584:	b510      	push	{r4, lr}
                Debug( "BL651tempBoard::init...\n" );
   1a586:	480a      	ldr	r0, [pc, #40]	; (1a5b0 <BL651tempBoard::init()+0x2c>)
   1a588:	f7ff fda6 	bl	1a0d8 <int Print<DevRtt<0>>(DevRtt<0>, char const*) [clone .isra.0]>
SA  low         ()          { reg.OUTCLR = bm_; } //register wide write
   1a58c:	f04f 43a0 	mov.w	r3, #1342177280	; 0x50000000
SA  init        (Ts... ts)  { initT it{2}; init_(it, ts...); }
   1a590:	2201      	movs	r2, #1
SA  low         ()          { reg.OUTCLR = bm_; } //register wide write
   1a592:	2480      	movs	r4, #128	; 0x80
   1a594:	f44f 7080 	mov.w	r0, #256	; 0x100
SA  init        (Ts... ts)  { initT it{2}; init_(it, ts...); }
   1a598:	210c      	movs	r1, #12
SA  low         ()          { reg.OUTCLR = bm_; } //register wide write
   1a59a:	f8c3 450c 	str.w	r4, [r3, #1292]	; 0x50c
                    reg.PIN_CNF = it.INIT_CNF;
   1a59e:	f8c3 271c 	str.w	r2, [r3, #1820]	; 0x71c
SA  low         ()          { reg.OUTCLR = bm_; } //register wide write
   1a5a2:	f8c3 050c 	str.w	r0, [r3, #1292]	; 0x50c
                    reg.PIN_CNF = it.INIT_CNF;
   1a5a6:	f8c3 2720 	str.w	r2, [r3, #1824]	; 0x720
   1a5aa:	f8c3 176c 	str.w	r1, [r3, #1900]	; 0x76c
            }
   1a5ae:	bd10      	pop	{r4, pc}
   1a5b0:	0001ebb8 	.word	0x0001ebb8

0001a5b4 <BL651tempBoard::alive()>:
SA  alive   () {
   1a5b4:	e92d 41f0 	stmdb	sp!, {r4, r5, r6, r7, r8, lr}
SA  isOutput    ()          { return reg.DIRP; }
   1a5b8:	f04f 44a0 	mov.w	r4, #1342177280	; 0x50000000
   1a5bc:	f8d4 3720 	ldr.w	r3, [r4, #1824]	; 0x720
                    if( not isOutput() ) return;
   1a5c0:	07de      	lsls	r6, r3, #31
   1a5c2:	d52e      	bpl.n	1a622 <BL651tempBoard::alive()+0x6e>
   1a5c4:	4e32      	ldr	r6, [pc, #200]	; (1a690 <BL651tempBoard::alive()+0xdc>)
   1a5c6:	f04f 0802 	mov.w	r8, #2
   1a5ca:	f046 0601 	orr.w	r6, r6, #1
SA  high        ()          { reg.OUTSET = bm_; } //register wide write
   1a5ce:	f44f 7780 	mov.w	r7, #256	; 0x100
SA  toggle      ()          { if( reg.OUT ) low(); else high(); }
   1a5d2:	f8d4 3504 	ldr.w	r3, [r4, #1284]	; 0x504
   1a5d6:	05d8      	lsls	r0, r3, #23
SA  low         ()          { reg.OUTCLR = bm_; } //register wide write
   1a5d8:	bf4c      	ite	mi
   1a5da:	f8c4 750c 	strmi.w	r7, [r4, #1292]	; 0x50c
SA  high        ()          { reg.OUTSET = bm_; } //register wide write
   1a5de:	f8c4 7508 	strpl.w	r7, [r4, #1288]	; 0x508
   1a5e2:	2532      	movs	r5, #50	; 0x32
   1a5e4:	f44f 407a 	mov.w	r0, #64000	; 0xfa00
   1a5e8:	47b0      	blx	r6
   1a5ea:	3d01      	subs	r5, #1
   1a5ec:	d1fa      	bne.n	1a5e4 <BL651tempBoard::alive()+0x30>
SA  toggle      ()          { if( reg.OUT ) low(); else high(); }
   1a5ee:	f8d4 3504 	ldr.w	r3, [r4, #1284]	; 0x504
   1a5f2:	05d9      	lsls	r1, r3, #23
SA  low         ()          { reg.OUTCLR = bm_; } //register wide write
   1a5f4:	bf4c      	ite	mi
   1a5f6:	f8c4 750c 	strmi.w	r7, [r4, #1292]	; 0x50c
SA  high        ()          { reg.OUTSET = bm_; } //register wide write
   1a5fa:	f8c4 7508 	strpl.w	r7, [r4, #1288]	; 0x508
   1a5fe:	2532      	movs	r5, #50	; 0x32
   1a600:	f44f 407a 	mov.w	r0, #64000	; 0xfa00
   1a604:	47b0      	blx	r6
   1a606:	3d01      	subs	r5, #1
   1a608:	d1fa      	bne.n	1a600 <BL651tempBoard::alive()+0x4c>
                    while( n-- ){ 
   1a60a:	f1b8 0f01 	cmp.w	r8, #1
   1a60e:	d002      	beq.n	1a616 <BL651tempBoard::alive()+0x62>
   1a610:	f04f 0801 	mov.w	r8, #1
   1a614:	e7dd      	b.n	1a5d2 <BL651tempBoard::alive()+0x1e>
   1a616:	24c8      	movs	r4, #200	; 0xc8
   1a618:	f44f 407a 	mov.w	r0, #64000	; 0xfa00
   1a61c:	47b0      	blx	r6
   1a61e:	3c01      	subs	r4, #1
   1a620:	d1fa      	bne.n	1a618 <BL651tempBoard::alive()+0x64>
SA  isOutput    ()          { return reg.DIRP; }
   1a622:	f04f 44a0 	mov.w	r4, #1342177280	; 0x50000000
   1a626:	f8d4 371c 	ldr.w	r3, [r4, #1820]	; 0x71c
                    if( not isOutput() ) return;
   1a62a:	07dd      	lsls	r5, r3, #31
   1a62c:	d52d      	bpl.n	1a68a <BL651tempBoard::alive()+0xd6>
   1a62e:	4e18      	ldr	r6, [pc, #96]	; (1a690 <BL651tempBoard::alive()+0xdc>)
   1a630:	f04f 0802 	mov.w	r8, #2
   1a634:	f046 0601 	orr.w	r6, r6, #1
SA  high        ()          { reg.OUTSET = bm_; } //register wide write
   1a638:	2780      	movs	r7, #128	; 0x80
SA  toggle      ()          { if( reg.OUT ) low(); else high(); }
   1a63a:	f8d4 3504 	ldr.w	r3, [r4, #1284]	; 0x504
   1a63e:	061a      	lsls	r2, r3, #24
SA  low         ()          { reg.OUTCLR = bm_; } //register wide write
   1a640:	bf4c      	ite	mi
   1a642:	f8c4 750c 	strmi.w	r7, [r4, #1292]	; 0x50c
SA  high        ()          { reg.OUTSET = bm_; } //register wide write
   1a646:	f8c4 7508 	strpl.w	r7, [r4, #1288]	; 0x508
   1a64a:	2532      	movs	r5, #50	; 0x32
   1a64c:	f44f 407a 	mov.w	r0, #64000	; 0xfa00
   1a650:	47b0      	blx	r6
   1a652:	3d01      	subs	r5, #1
   1a654:	d1fa      	bne.n	1a64c <BL651tempBoard::alive()+0x98>
SA  toggle      ()          { if( reg.OUT ) low(); else high(); }
   1a656:	f8d4 3504 	ldr.w	r3, [r4, #1284]	; 0x504
   1a65a:	061b      	lsls	r3, r3, #24
SA  low         ()          { reg.OUTCLR = bm_; } //register wide write
   1a65c:	bf4c      	ite	mi
   1a65e:	f8c4 750c 	strmi.w	r7, [r4, #1292]	; 0x50c
SA  high        ()          { reg.OUTSET = bm_; } //register wide write
   1a662:	f8c4 7508 	strpl.w	r7, [r4, #1288]	; 0x508
   1a666:	2532      	movs	r5, #50	; 0x32
   1a668:	f44f 407a 	mov.w	r0, #64000	; 0xfa00
   1a66c:	47b0      	blx	r6
   1a66e:	3d01      	subs	r5, #1
   1a670:	d1fa      	bne.n	1a668 <BL651tempBoard::alive()+0xb4>
                    while( n-- ){ 
   1a672:	f1b8 0f01 	cmp.w	r8, #1
   1a676:	d002      	beq.n	1a67e <BL651tempBoard::alive()+0xca>
   1a678:	f04f 0801 	mov.w	r8, #1
   1a67c:	e7dd      	b.n	1a63a <BL651tempBoard::alive()+0x86>
   1a67e:	24c8      	movs	r4, #200	; 0xc8
   1a680:	f44f 407a 	mov.w	r0, #64000	; 0xfa00
   1a684:	47b0      	blx	r6
   1a686:	3c01      	subs	r4, #1
   1a688:	d1fa      	bne.n	1a680 <BL651tempBoard::alive()+0xcc>
            }
   1a68a:	e8bd 81f0 	ldmia.w	sp!, {r4, r5, r6, r7, r8, pc}
   1a68e:	bf00      	nop
   1a690:	0001ef50 	.word	0x0001ef50

0001a694 <Saadc::isBusy()>:
    reg { *(reinterpret_cast<Saadc_*>(base_)) };

//--------------------
//  control, status
//--------------------
SA  isBusy          ()          { return reg.STATUS; } //conversion in progress?
   1a694:	4b01      	ldr	r3, [pc, #4]	; (1a69c <Saadc::isBusy()+0x8>)
   1a696:	f8d3 0400 	ldr.w	r0, [r3, #1024]	; 0x400
   1a69a:	4770      	bx	lr
   1a69c:	40007000 	.word	0x40007000

0001a6a0 <Saadc::enable()>:
SA  enable          ()          { reg.ENABLE = 1; }
   1a6a0:	4b02      	ldr	r3, [pc, #8]	; (1a6ac <Saadc::enable()+0xc>)
   1a6a2:	2201      	movs	r2, #1
   1a6a4:	f8c3 2500 	str.w	r2, [r3, #1280]	; 0x500
   1a6a8:	4770      	bx	lr
   1a6aa:	bf00      	nop
   1a6ac:	40007000 	.word	0x40007000

0001a6b0 <Saadc::disable()>:
SA  disable         ()          { reg.ENABLE = 0; }
   1a6b0:	4b02      	ldr	r3, [pc, #8]	; (1a6bc <Saadc::disable()+0xc>)
   1a6b2:	2200      	movs	r2, #0
   1a6b4:	f8c3 2500 	str.w	r2, [r3, #1280]	; 0x500
   1a6b8:	4770      	bx	lr
   1a6ba:	bf00      	nop
   1a6bc:	40007000 	.word	0x40007000

0001a6c0 <Saadc::clearStarted()>:
SA  isEnabled       ()          { return reg.ENABLE; }

//--------------------
//  events
//--------------------
SA  clearStarted    ()          { reg.EVENTS.STARTED = 0; }
   1a6c0:	4b02      	ldr	r3, [pc, #8]	; (1a6cc <Saadc::clearStarted()+0xc>)
   1a6c2:	2200      	movs	r2, #0
   1a6c4:	f8c3 2100 	str.w	r2, [r3, #256]	; 0x100
   1a6c8:	4770      	bx	lr
   1a6ca:	bf00      	nop
   1a6cc:	40007000 	.word	0x40007000

0001a6d0 <Saadc::clearBufferFull()>:
SA  clearBufferFull ()          { reg.EVENTS.END = 0; }
   1a6d0:	4b02      	ldr	r3, [pc, #8]	; (1a6dc <Saadc::clearBufferFull()+0xc>)
   1a6d2:	2200      	movs	r2, #0
   1a6d4:	f8c3 2104 	str.w	r2, [r3, #260]	; 0x104
   1a6d8:	4770      	bx	lr
   1a6da:	bf00      	nop
   1a6dc:	40007000 	.word	0x40007000

0001a6e0 <Saadc::clearConversion()>:
SA  clearConversion ()          { reg.EVENTS.DONE = 0; }
   1a6e0:	4b02      	ldr	r3, [pc, #8]	; (1a6ec <Saadc::clearConversion()+0xc>)
   1a6e2:	2200      	movs	r2, #0
   1a6e4:	f8c3 2108 	str.w	r2, [r3, #264]	; 0x108
   1a6e8:	4770      	bx	lr
   1a6ea:	bf00      	nop
   1a6ec:	40007000 	.word	0x40007000

0001a6f0 <Saadc::clearResult()>:
SA  clearResult     ()          { reg.EVENTS.RESULTDONE = 0; }
   1a6f0:	4b02      	ldr	r3, [pc, #8]	; (1a6fc <Saadc::clearResult()+0xc>)
   1a6f2:	2200      	movs	r2, #0
   1a6f4:	f8c3 210c 	str.w	r2, [r3, #268]	; 0x10c
   1a6f8:	4770      	bx	lr
   1a6fa:	bf00      	nop
   1a6fc:	40007000 	.word	0x40007000

0001a700 <Saadc::clearCalibrated()>:
SA  clearCalibrated ()          { reg.EVENTS.CALIBRATEDONE = 0; }
   1a700:	4b02      	ldr	r3, [pc, #8]	; (1a70c <Saadc::clearCalibrated()+0xc>)
   1a702:	2200      	movs	r2, #0
   1a704:	f8c3 2110 	str.w	r2, [r3, #272]	; 0x110
   1a708:	4770      	bx	lr
   1a70a:	bf00      	nop
   1a70c:	40007000 	.word	0x40007000

0001a710 <Saadc::clearStopped()>:
SA  clearStopped    ()          { reg.EVENTS.STOPPED = 0; }
   1a710:	4b02      	ldr	r3, [pc, #8]	; (1a71c <Saadc::clearStopped()+0xc>)
   1a712:	2200      	movs	r2, #0
   1a714:	f8c3 2114 	str.w	r2, [r3, #276]	; 0x114
   1a718:	4770      	bx	lr
   1a71a:	bf00      	nop
   1a71c:	40007000 	.word	0x40007000

0001a720 <Saadc::clearEvents()>:
SA  clearLimitHigh  (CH e)      { reg.EVENTS.LIMIT[e].H = 0; }
SA  clearLimitLow   (CH e)      { reg.EVENTS.LIMIT[e].L = 0; }
SA  clearEvents     ()          { 
   1a720:	b508      	push	{r3, lr}
                                    clearStarted();
   1a722:	f7ff ffcd 	bl	1a6c0 <Saadc::clearStarted()>
                                    clearBufferFull();
   1a726:	f7ff ffd3 	bl	1a6d0 <Saadc::clearBufferFull()>
                                    clearConversion();
   1a72a:	f7ff ffd9 	bl	1a6e0 <Saadc::clearConversion()>
                                    clearResult();
   1a72e:	f7ff ffdf 	bl	1a6f0 <Saadc::clearResult()>
                                    clearStopped();
   1a732:	f7ff ffed 	bl	1a710 <Saadc::clearStopped()>
                                }
   1a736:	bd08      	pop	{r3, pc}

0001a738 <Saadc::isResult()>:

SA  isStarted       ()          { return reg.EVENTS.STARTED; }
SA  isBufferFull    ()          { return reg.EVENTS.END; } //ram buffer is filled
SA  isConversion    ()          { return reg.EVENTS.DONE; } //a conversion was done
SA  isResult        ()          { return reg.EVENTS.RESULTDONE; } //when conversion(s) stored to ram
   1a738:	4b01      	ldr	r3, [pc, #4]	; (1a740 <Saadc::isResult()+0x8>)
   1a73a:	f8d3 010c 	ldr.w	r0, [r3, #268]	; 0x10c
   1a73e:	4770      	bx	lr
   1a740:	40007000 	.word	0x40007000

0001a744 <Saadc::isCalibrated()>:
SA  isCalibrated    ()          { return reg.EVENTS.CALIBRATEDONE; }
   1a744:	4b01      	ldr	r3, [pc, #4]	; (1a74c <Saadc::isCalibrated()+0x8>)
   1a746:	f8d3 0110 	ldr.w	r0, [r3, #272]	; 0x110
   1a74a:	4770      	bx	lr
   1a74c:	40007000 	.word	0x40007000

0001a750 <Saadc::start()>:
SA  isLimitLow      (CH e)      { return reg.EVENTS.LIMIT[e].L; }

//--------------------
//  tasks
//--------------------
SA  start           ()          { enable(); reg.TASKS.START = 1; } 
   1a750:	b508      	push	{r3, lr}
   1a752:	f7ff ffa5 	bl	1a6a0 <Saadc::enable()>
   1a756:	4b02      	ldr	r3, [pc, #8]	; (1a760 <Saadc::start()+0x10>)
   1a758:	2201      	movs	r2, #1
   1a75a:	601a      	str	r2, [r3, #0]
   1a75c:	bd08      	pop	{r3, pc}
   1a75e:	bf00      	nop
   1a760:	40007000 	.word	0x40007000

0001a764 <Saadc::sample()>:
SA  sample          ()          { reg.TASKS.SAMPLE = 1; } 
   1a764:	4b01      	ldr	r3, [pc, #4]	; (1a76c <Saadc::sample()+0x8>)
   1a766:	2201      	movs	r2, #1
   1a768:	605a      	str	r2, [r3, #4]
   1a76a:	4770      	bx	lr
   1a76c:	40007000 	.word	0x40007000

0001a770 <Saadc::calibrate()>:
SA  stop            ()          { reg.TASKS.STOP = 1; } 
SA  calibrate       ()          {   
   1a770:	b508      	push	{r3, lr}
                                    enable();
   1a772:	f7ff ff95 	bl	1a6a0 <Saadc::enable()>
                                    reg.TASKS.CALIBRATE = 1;
   1a776:	4b05      	ldr	r3, [pc, #20]	; (1a78c <Saadc::calibrate()+0x1c>)
   1a778:	2201      	movs	r2, #1
   1a77a:	60da      	str	r2, [r3, #12]
                                    while( not isCalibrated() );
   1a77c:	f7ff ffe2 	bl	1a744 <Saadc::isCalibrated()>
   1a780:	2800      	cmp	r0, #0
   1a782:	d0fb      	beq.n	1a77c <Saadc::calibrate()+0xc>
                                    clearCalibrated();
   1a784:	f7ff ffbc 	bl	1a700 <Saadc::clearCalibrated()>
                                    //leave enabled
                                }
   1a788:	bd08      	pop	{r3, pc}
   1a78a:	bf00      	nop
   1a78c:	40007000 	.word	0x40007000

0001a790 <Saadc::channelSetup(Saadc::CH, unsigned long, Saadc::PSEL, Saadc::PSEL)>:

//--------------------
//  channel config
//--------------------
SA  isChannelUsed   (CH e)      { return inuse_ bitand (1<<e); }
SA  channelSetup    (CH e, u32 cfg, PSEL p, PSEL n = NC) { 
   1a790:	b470      	push	{r4, r5, r6}
                                    if( p or n ) inuse_ or_eq (1<<e);
   1a792:	ea52 0403 	orrs.w	r4, r2, r3
   1a796:	d005      	beq.n	1a7a4 <Saadc::channelSetup(Saadc::CH, unsigned long, Saadc::PSEL, Saadc::PSEL)+0x14>
   1a798:	4d09      	ldr	r5, [pc, #36]	; (1a7c0 <Saadc::channelSetup(Saadc::CH, unsigned long, Saadc::PSEL, Saadc::PSEL)+0x30>)
   1a79a:	2401      	movs	r4, #1
   1a79c:	782e      	ldrb	r6, [r5, #0]
   1a79e:	4084      	lsls	r4, r0
   1a7a0:	4334      	orrs	r4, r6
   1a7a2:	702c      	strb	r4, [r5, #0]
                                    reg.CHCONFIG[e].PSELP = p;
   1a7a4:	0100      	lsls	r0, r0, #4
   1a7a6:	f100 4480 	add.w	r4, r0, #1073741824	; 0x40000000
   1a7aa:	f504 44e0 	add.w	r4, r4, #28672	; 0x7000
   1a7ae:	f8c4 2510 	str.w	r2, [r4, #1296]	; 0x510
                                    reg.CHCONFIG[e].PSELN = n; 
   1a7b2:	f8c4 3514 	str.w	r3, [r4, #1300]	; 0x514
                                    reg.CHCONFIG[e].CONFIG = cfg;                      
   1a7b6:	f8c4 1518 	str.w	r1, [r4, #1304]	; 0x518
                                }
   1a7ba:	bc70      	pop	{r4, r5, r6}
   1a7bc:	4770      	bx	lr
   1a7be:	bf00      	nop
   1a7c0:	20001a4f 	.word	0x20001a4f

0001a7c4 <Saadc::channelRelease(Saadc::CH)>:
SA  channelRelease  (CH e)      {
   1a7c4:	b410      	push	{r4}
                                    inuse_ and_eq compl (1<<e); 
   1a7c6:	4c0a      	ldr	r4, [pc, #40]	; (1a7f0 <Saadc::channelRelease(Saadc::CH)+0x2c>)
   1a7c8:	0103      	lsls	r3, r0, #4
   1a7ca:	7822      	ldrb	r2, [r4, #0]
   1a7cc:	f103 4380 	add.w	r3, r3, #1073741824	; 0x40000000
   1a7d0:	2101      	movs	r1, #1
   1a7d2:	f503 43e0 	add.w	r3, r3, #28672	; 0x7000
   1a7d6:	fa01 f000 	lsl.w	r0, r1, r0
   1a7da:	ea22 0000 	bic.w	r0, r2, r0
                                    reg.CHCONFIG[e].PSELP = NC;
   1a7de:	2200      	movs	r2, #0
   1a7e0:	f8c3 2510 	str.w	r2, [r3, #1296]	; 0x510
                                    reg.CHCONFIG[e].PSELN = NC;
   1a7e4:	f8c3 2514 	str.w	r2, [r3, #1300]	; 0x514
                                    inuse_ and_eq compl (1<<e); 
   1a7e8:	7020      	strb	r0, [r4, #0]
                                }
   1a7ea:	bc10      	pop	{r4}
   1a7ec:	4770      	bx	lr
   1a7ee:	bf00      	nop
   1a7f0:	20001a4f 	.word	0x20001a4f

0001a7f4 <Saadc::channelOnly(Saadc::CH)>:
SA  channelOnly     (CH e)      {
   1a7f4:	b510      	push	{r4, lr}
                                    for( int i = CH0; i <= CH7; i++ ){
                                        if( e != i ) channelRelease( (CH)i );
   1a7f6:	4604      	mov	r4, r0
   1a7f8:	bb08      	cbnz	r0, 1a83e <Saadc::channelOnly(Saadc::CH)+0x4a>
   1a7fa:	2001      	movs	r0, #1
   1a7fc:	f7ff ffe2 	bl	1a7c4 <Saadc::channelRelease(Saadc::CH)>
   1a800:	2002      	movs	r0, #2
   1a802:	f7ff ffdf 	bl	1a7c4 <Saadc::channelRelease(Saadc::CH)>
   1a806:	2c03      	cmp	r4, #3
   1a808:	d10b      	bne.n	1a822 <Saadc::channelOnly(Saadc::CH)+0x2e>
   1a80a:	2004      	movs	r0, #4
   1a80c:	f7ff ffda 	bl	1a7c4 <Saadc::channelRelease(Saadc::CH)>
   1a810:	2005      	movs	r0, #5
   1a812:	f7ff ffd7 	bl	1a7c4 <Saadc::channelRelease(Saadc::CH)>
   1a816:	2c06      	cmp	r4, #6
   1a818:	d10b      	bne.n	1a832 <Saadc::channelOnly(Saadc::CH)+0x3e>
   1a81a:	2007      	movs	r0, #7
   1a81c:	f7ff ffd2 	bl	1a7c4 <Saadc::channelRelease(Saadc::CH)>
                                    }
                                }
   1a820:	bd10      	pop	{r4, pc}
                                        if( e != i ) channelRelease( (CH)i );
   1a822:	2003      	movs	r0, #3
   1a824:	f7ff ffce 	bl	1a7c4 <Saadc::channelRelease(Saadc::CH)>
   1a828:	2c04      	cmp	r4, #4
   1a82a:	d115      	bne.n	1a858 <Saadc::channelOnly(Saadc::CH)+0x64>
   1a82c:	2005      	movs	r0, #5
   1a82e:	f7ff ffc9 	bl	1a7c4 <Saadc::channelRelease(Saadc::CH)>
   1a832:	2006      	movs	r0, #6
   1a834:	f7ff ffc6 	bl	1a7c4 <Saadc::channelRelease(Saadc::CH)>
   1a838:	2c07      	cmp	r4, #7
   1a83a:	d1ee      	bne.n	1a81a <Saadc::channelOnly(Saadc::CH)+0x26>
                                }
   1a83c:	bd10      	pop	{r4, pc}
                                        if( e != i ) channelRelease( (CH)i );
   1a83e:	2000      	movs	r0, #0
   1a840:	f7ff ffc0 	bl	1a7c4 <Saadc::channelRelease(Saadc::CH)>
   1a844:	2c01      	cmp	r4, #1
   1a846:	d0db      	beq.n	1a800 <Saadc::channelOnly(Saadc::CH)+0xc>
   1a848:	2001      	movs	r0, #1
   1a84a:	f7ff ffbb 	bl	1a7c4 <Saadc::channelRelease(Saadc::CH)>
   1a84e:	2c02      	cmp	r4, #2
   1a850:	d1d6      	bne.n	1a800 <Saadc::channelOnly(Saadc::CH)+0xc>
   1a852:	2003      	movs	r0, #3
   1a854:	f7ff ffb6 	bl	1a7c4 <Saadc::channelRelease(Saadc::CH)>
   1a858:	2004      	movs	r0, #4
   1a85a:	f7ff ffb3 	bl	1a7c4 <Saadc::channelRelease(Saadc::CH)>
   1a85e:	2c05      	cmp	r4, #5
   1a860:	d1d6      	bne.n	1a810 <Saadc::channelOnly(Saadc::CH)+0x1c>
   1a862:	2006      	movs	r0, #6
   1a864:	f7ff ffae 	bl	1a7c4 <Saadc::channelRelease(Saadc::CH)>
   1a868:	e7d7      	b.n	1a81a <Saadc::channelOnly(Saadc::CH)+0x26>
   1a86a:	bf00      	nop

0001a86c <Saadc::resolution(Saadc::RES)>:
SA  limitHL         (CH e, i16 H, i16 L) { limitH(e,H); limitL(e,L); }

//--------------------
//  config
//--------------------
SA  resolution      (RES e)         { reg.RESOLUTION = e; }
   1a86c:	4b01      	ldr	r3, [pc, #4]	; (1a874 <Saadc::resolution(Saadc::RES)+0x8>)
   1a86e:	f8c3 05f0 	str.w	r0, [r3, #1520]	; 0x5f0
   1a872:	4770      	bx	lr
   1a874:	40007000 	.word	0x40007000

0001a878 <Saadc::resolution()>:
SA  resolution      ()              { return RES(reg.RESOLUTION); }
   1a878:	4b02      	ldr	r3, [pc, #8]	; (1a884 <Saadc::resolution()+0xc>)
   1a87a:	f8d3 05f0 	ldr.w	r0, [r3, #1520]	; 0x5f0
   1a87e:	b2c0      	uxtb	r0, r0
   1a880:	4770      	bx	lr
   1a882:	bf00      	nop
   1a884:	40007000 	.word	0x40007000

0001a888 <Saadc::overSample(Saadc::OVERSAMP)>:

SA  overSample      (OVERSAMP e)    { reg.OVERSAMPLE = e; }
   1a888:	4b01      	ldr	r3, [pc, #4]	; (1a890 <Saadc::overSample(Saadc::OVERSAMP)+0x8>)
   1a88a:	f8c3 05f4 	str.w	r0, [r3, #1524]	; 0x5f4
   1a88e:	4770      	bx	lr
   1a890:	40007000 	.word	0x40007000

0001a894 <Saadc::overSample()>:
SA  overSample      ()              { return OVERSAMP(reg.OVERSAMPLE); }
   1a894:	4b02      	ldr	r3, [pc, #8]	; (1a8a0 <Saadc::overSample()+0xc>)
   1a896:	f8d3 05f4 	ldr.w	r0, [r3, #1524]	; 0x5f4
   1a89a:	b2c0      	uxtb	r0, r0
   1a89c:	4770      	bx	lr
   1a89e:	bf00      	nop
   1a8a0:	40007000 	.word	0x40007000

0001a8a4 <Saadc::bufferAddr(unsigned long)>:
                                        if( v > 2047 ) v =2047;
                                        reg.SAMPLERATE = v bitor (1<<12);
                                    }
SA  sampleRateTask  ()              { reg.SAMPLERATE = 0; }

SA  bufferAddr      (u32 v)         { reg.RESULTPTR = v; }
   1a8a4:	4b01      	ldr	r3, [pc, #4]	; (1a8ac <Saadc::bufferAddr(unsigned long)+0x8>)
   1a8a6:	f8c3 062c 	str.w	r0, [r3, #1580]	; 0x62c
   1a8aa:	4770      	bx	lr
   1a8ac:	40007000 	.word	0x40007000

0001a8b0 <Saadc::bufferSize(unsigned short)>:
SA  bufferAddr      ()              { return reg.RESULTPTR; }
SA  bufferSize      (u16 v)         { reg.RESULTMAXCNT = v; } //15bits (max 32767)
   1a8b0:	4b01      	ldr	r3, [pc, #4]	; (1a8b8 <Saadc::bufferSize(unsigned short)+0x8>)
   1a8b2:	f8c3 0630 	str.w	r0, [r3, #1584]	; 0x630
   1a8b6:	4770      	bx	lr
   1a8b8:	40007000 	.word	0x40007000

0001a8bc <Saadc::bufferSet(unsigned long, unsigned short)>:
SA  bufferSize      ()              { return reg.RESULTMAXCNT; }
SA  bufferSet       (u32 v, u16 n)  { bufferAddr(v); bufferSize(n); }
   1a8bc:	b510      	push	{r4, lr}
   1a8be:	460c      	mov	r4, r1
   1a8c0:	f7ff fff0 	bl	1a8a4 <Saadc::bufferAddr(unsigned long)>
   1a8c4:	4620      	mov	r0, r4
   1a8c6:	f7ff fff3 	bl	1a8b0 <Saadc::bufferSize(unsigned short)>
   1a8ca:	bd10      	pop	{r4, pc}

0001a8cc <SaadcChan::setConfig(short&)>:
    private:
//============

                    //setup our channel config and buffer in Saadc
                    //take exclusive use of Saadc
SA setConfig        (i16& v) {
   1a8cc:	b538      	push	{r3, r4, r5, lr}
   1a8ce:	4604      	mov	r4, r0
                        if( isBusy() ) return false;        //is in use
   1a8d0:	f7ff fee0 	bl	1a694 <Saadc::isBusy()>
   1a8d4:	b9a8      	cbnz	r0, 1a902 <SaadcChan::setConfig(short&)+0x36>
                        if( pselP_ == NC and pselN_ == NC ) return false; //or we are not init
   1a8d6:	4a0c      	ldr	r2, [pc, #48]	; (1a908 <SaadcChan::setConfig(short&)+0x3c>)
   1a8d8:	4b0c      	ldr	r3, [pc, #48]	; (1a90c <SaadcChan::setConfig(short&)+0x40>)
   1a8da:	7812      	ldrb	r2, [r2, #0]
   1a8dc:	781b      	ldrb	r3, [r3, #0]
   1a8de:	ea52 0003 	orrs.w	r0, r2, r3
   1a8e2:	d00d      	beq.n	1a900 <SaadcChan::setConfig(short&)+0x34>
                        channelSetup( ch_, config_, pselP_, pselN_ );  //set config and inputs
   1a8e4:	4d0a      	ldr	r5, [pc, #40]	; (1a910 <SaadcChan::setConfig(short&)+0x44>)
   1a8e6:	490b      	ldr	r1, [pc, #44]	; (1a914 <SaadcChan::setConfig(short&)+0x48>)
   1a8e8:	7828      	ldrb	r0, [r5, #0]
   1a8ea:	6809      	ldr	r1, [r1, #0]
   1a8ec:	f7ff ff50 	bl	1a790 <Saadc::channelSetup(Saadc::CH, unsigned long, Saadc::PSEL, Saadc::PSEL)>
                        bufferSet( (u32)&v, 1 );
   1a8f0:	4620      	mov	r0, r4
   1a8f2:	2101      	movs	r1, #1
   1a8f4:	f7ff ffe2 	bl	1a8bc <Saadc::bufferSet(unsigned long, unsigned short)>
                        channelOnly( ch_ );                 //disable all other channels
   1a8f8:	7828      	ldrb	r0, [r5, #0]
   1a8fa:	f7ff ff7b 	bl	1a7f4 <Saadc::channelOnly(Saadc::CH)>
                        return true;
   1a8fe:	2001      	movs	r0, #1
                    }
   1a900:	bd38      	pop	{r3, r4, r5, pc}
                        if( isBusy() ) return false;        //is in use
   1a902:	2000      	movs	r0, #0
                    }
   1a904:	bd38      	pop	{r3, r4, r5, pc}
   1a906:	bf00      	nop
   1a908:	20001a4d 	.word	0x20001a4d
   1a90c:	20001a4c 	.word	0x20001a4c
   1a910:	20001a4e 	.word	0x20001a4e
   1a914:	20001a48 	.word	0x20001a48

0001a918 <SaadcChan::result1()>:
                    }

                    //get a single result (blocking) - 
                    //could be >1 sample if oversample is on
                    //TODO, should have timeout here  
SA  result1         () {
   1a918:	b508      	push	{r3, lr}
                        clearResult();
   1a91a:	f7ff fee9 	bl	1a6f0 <Saadc::clearResult()>
   1a91e:	e001      	b.n	1a924 <SaadcChan::result1()+0xc>
                        for( ; not isResult(); sample() );  
   1a920:	f7ff ff20 	bl	1a764 <Saadc::sample()>
   1a924:	f7ff ff08 	bl	1a738 <Saadc::isResult()>
   1a928:	2800      	cmp	r0, #0
   1a92a:	d0f9      	beq.n	1a920 <SaadcChan::result1()+0x8>
                    }
   1a92c:	bd08      	pop	{r3, pc}
   1a92e:	bf00      	nop

0001a930 <SaadcChan::read(short&, Saadc::RES, Saadc::OVERSAMP)>:
//============
    public:
//============

                    //get with a specific resolution, and number of samples
SA  read            (i16& v, RES r, OVERSAMP s = OVEROFF) {
   1a930:	b5f8      	push	{r3, r4, r5, r6, r7, lr}
   1a932:	460e      	mov	r6, r1
   1a934:	4615      	mov	r5, r2
                        if( not setConfig( v ) ) return false;
   1a936:	f7ff ffc9 	bl	1a8cc <SaadcChan::setConfig(short&)>
   1a93a:	4604      	mov	r4, r0
   1a93c:	b1f0      	cbz	r0, 1a97c <SaadcChan::read(short&, Saadc::RES, Saadc::OVERSAMP)+0x4c>
                        RES rr = resolution();          //save old
   1a93e:	f7ff ff9b 	bl	1a878 <Saadc::resolution()>
   1a942:	4607      	mov	r7, r0
                        OVERSAMP ss = overSample();
   1a944:	f7ff ffa6 	bl	1a894 <Saadc::overSample()>
   1a948:	4603      	mov	r3, r0
                        resolution( r );                //set new
   1a94a:	4630      	mov	r0, r6
                        OVERSAMP ss = overSample();
   1a94c:	461e      	mov	r6, r3
                        resolution( r );                //set new
   1a94e:	f7ff ff8d 	bl	1a86c <Saadc::resolution(Saadc::RES)>
                        overSample( s );
   1a952:	4628      	mov	r0, r5
   1a954:	f7ff ff98 	bl	1a888 <Saadc::overSample(Saadc::OVERSAMP)>
                        start();                        //start will also enable
   1a958:	f7ff fefa 	bl	1a750 <Saadc::start()>
                        result1();
   1a95c:	f7ff ffdc 	bl	1a918 <SaadcChan::result1()>
                        resolution( rr );               //restore old
   1a960:	4638      	mov	r0, r7
   1a962:	f7ff ff83 	bl	1a86c <Saadc::resolution(Saadc::RES)>
                        overSample( ss );
   1a966:	4630      	mov	r0, r6
   1a968:	f7ff ff8e 	bl	1a888 <Saadc::overSample(Saadc::OVERSAMP)>
                        disable();
   1a96c:	f7ff fea0 	bl	1a6b0 <Saadc::disable()>
                        clearEvents();
   1a970:	f7ff fed6 	bl	1a720 <Saadc::clearEvents()>
                        channelRelease( ch_ );
   1a974:	4b02      	ldr	r3, [pc, #8]	; (1a980 <SaadcChan::read(short&, Saadc::RES, Saadc::OVERSAMP)+0x50>)
   1a976:	7818      	ldrb	r0, [r3, #0]
   1a978:	f7ff ff24 	bl	1a7c4 <Saadc::channelRelease(Saadc::CH)>
                        return true;
                    }
   1a97c:	4620      	mov	r0, r4
   1a97e:	bdf8      	pop	{r3, r4, r5, r6, r7, pc}
   1a980:	20001a4e 	.word	0x20001a4e

0001a984 <Flash::init()>:
                        saveName_ = not sdFlashWrite32( (const u32*)fullnameRam_, fullnameSiz_/4 );
                    }

    public:
                    //stored flash name to ram, or use default if not set
SA  init            () {
   1a984:	b510      	push	{r4, lr}
                        Debug( "Flash::init...\n" );  
   1a986:	4815      	ldr	r0, [pc, #84]	; (1a9dc <Flash::init()+0x58>)
   1a988:	f7ff fba6 	bl	1a0d8 <int Print<DevRtt<0>>(DevRtt<0>, char const*) [clone .isra.0]>
                            if( fullnameFlash_[i] == 0 ) return true;
   1a98c:	4b14      	ldr	r3, [pc, #80]	; (1a9e0 <Flash::init()+0x5c>)
   1a98e:	681c      	ldr	r4, [r3, #0]
   1a990:	1e63      	subs	r3, r4, #1
   1a992:	f104 001f 	add.w	r0, r4, #31
   1a996:	e001      	b.n	1a99c <Flash::init()+0x18>
                        for( auto i = 0; i < fullnameSiz_; i++ ){
   1a998:	4283      	cmp	r3, r0
   1a99a:	d011      	beq.n	1a9c0 <Flash::init()+0x3c>
                            if( fullnameFlash_[i] == 0 ) return true;
   1a99c:	f813 2f01 	ldrb.w	r2, [r3, #1]!
   1a9a0:	2a00      	cmp	r2, #0
   1a9a2:	d1f9      	bne.n	1a998 <Flash::init()+0x14>
                        if( fullnameValid() ){
                            //copy to ram (include 0 terminator)
                            memcpy( (void*)fullnameRam_, (void*)fullnameFlash_, strlen(fullnameFlash_)+1 );
   1a9a4:	4620      	mov	r0, r4
   1a9a6:	f002 f805 	bl	1c9b4 <strlen>
   1a9aa:	4621      	mov	r1, r4
   1a9ac:	1c42      	adds	r2, r0, #1
   1a9ae:	480d      	ldr	r0, [pc, #52]	; (1a9e4 <Flash::init()+0x60>)
   1a9b0:	f001 ffae 	bl	1c910 <memcpy>
                        } else {
                            memcpy( (void*)fullnameRam_, (void*)"NoName", strlen("NoName")+1 );
                        }
                        Debug( "    name: %s\n", fullnameRam_ );
                    }
   1a9b4:	e8bd 4010 	ldmia.w	sp!, {r4, lr}
                        Debug( "    name: %s\n", fullnameRam_ );
   1a9b8:	490a      	ldr	r1, [pc, #40]	; (1a9e4 <Flash::init()+0x60>)
   1a9ba:	480b      	ldr	r0, [pc, #44]	; (1a9e8 <Flash::init()+0x64>)
   1a9bc:	f7ff bba0 	b.w	1a100 <int Print<DevRtt<0>, char const*>(DevRtt<0>, char const*, char const*) [clone .isra.0]>
                            memcpy( (void*)fullnameRam_, (void*)"NoName", strlen("NoName")+1 );
   1a9c0:	480a      	ldr	r0, [pc, #40]	; (1a9ec <Flash::init()+0x68>)
   1a9c2:	f001 fff7 	bl	1c9b4 <strlen>
   1a9c6:	4909      	ldr	r1, [pc, #36]	; (1a9ec <Flash::init()+0x68>)
   1a9c8:	1c42      	adds	r2, r0, #1
   1a9ca:	4806      	ldr	r0, [pc, #24]	; (1a9e4 <Flash::init()+0x60>)
   1a9cc:	f001 ffa0 	bl	1c910 <memcpy>
                    }
   1a9d0:	e8bd 4010 	ldmia.w	sp!, {r4, lr}
                        Debug( "    name: %s\n", fullnameRam_ );
   1a9d4:	4903      	ldr	r1, [pc, #12]	; (1a9e4 <Flash::init()+0x60>)
   1a9d6:	4804      	ldr	r0, [pc, #16]	; (1a9e8 <Flash::init()+0x64>)
   1a9d8:	f7ff bb92 	b.w	1a100 <int Print<DevRtt<0>, char const*>(DevRtt<0>, char const*, char const*) [clone .isra.0]>
   1a9dc:	0001ebd4 	.word	0x0001ebd4
   1a9e0:	20001834 	.word	0x20001834
   1a9e4:	20001a24 	.word	0x20001a24
   1a9e8:	0001ebe4 	.word	0x0001ebe4
   1a9ec:	0001ebf4 	.word	0x0001ebf4

0001a9f0 <Flags01::make(unsigned char*, unsigned char)>:
                        buf[0] = 2;
   1a9f0:	2202      	movs	r2, #2
                        buf[1] = 1;
   1a9f2:	2301      	movs	r3, #1
                        buf[2] = flags;
   1a9f4:	7081      	strb	r1, [r0, #2]
                        buf[0] = 2;
   1a9f6:	7002      	strb	r2, [r0, #0]
                        buf[1] = 1;
   1a9f8:	7043      	strb	r3, [r0, #1]
                    }
   1a9fa:	2003      	movs	r0, #3
   1a9fc:	4770      	bx	lr
   1a9fe:	bf00      	nop

0001aa00 <CompleteName09::make(unsigned char*, char const*, unsigned char)>:
SA  make            (u8* buf, const char* str, u8 maxlen) {
   1aa00:	b5f8      	push	{r3, r4, r5, r6, r7, lr}
   1aa02:	4605      	mov	r5, r0
                        u8 slen = strlen( str );
   1aa04:	4608      	mov	r0, r1
SA  make            (u8* buf, const char* str, u8 maxlen) {
   1aa06:	4617      	mov	r7, r2
   1aa08:	460e      	mov	r6, r1
                        u8 slen = strlen( str );
   1aa0a:	f001 ffd3 	bl	1c9b4 <strlen>
   1aa0e:	b2c4      	uxtb	r4, r0
                        if( slen > maxlen ) slen = maxlen;
   1aa10:	42bc      	cmp	r4, r7
   1aa12:	bf28      	it	cs
   1aa14:	463c      	movcs	r4, r7
                        buf[0] = slen + 1;
   1aa16:	1c62      	adds	r2, r4, #1
                        buf[1] = 9;
   1aa18:	2309      	movs	r3, #9
                        buf[0] = slen + 1;
   1aa1a:	702a      	strb	r2, [r5, #0]
                        memcpy( &buf[2], str, slen );
   1aa1c:	4631      	mov	r1, r6
                        buf[1] = 9;
   1aa1e:	706b      	strb	r3, [r5, #1]
                        memcpy( &buf[2], str, slen );
   1aa20:	1ca8      	adds	r0, r5, #2
   1aa22:	4622      	mov	r2, r4
   1aa24:	f001 ff74 	bl	1c910 <memcpy>
                    }
   1aa28:	1ca0      	adds	r0, r4, #2
   1aa2a:	bdf8      	pop	{r3, r4, r5, r6, r7, pc}

0001aa2c <BatteryService180F::make(unsigned char*)>:
        uses ServiceData16
    size [4]
------------------------------------------------------------------------------*/
struct BatteryService180F {

SA  make            (u8* buf) {
   1aa2c:	e92d 41f0 	stmdb	sp!, {r4, r5, r6, r7, r8, lr}
    // adc*3600/1024
    SI i16 voltage_{ 0 }; 

SA  update          () {
                        static u8 count;
                        if( count == 0 ) {
   1aa30:	4f3e      	ldr	r7, [pc, #248]	; (1ab2c <BatteryService180F::make(unsigned char*)+0x100>)
   1aa32:	783c      	ldrb	r4, [r7, #0]
   1aa34:	b084      	sub	sp, #16
   1aa36:	4605      	mov	r5, r0
                            vdd_.calibrate();
                            i16 v = 0;
                            vdd_.read(v, vdd_.RES10, vdd_.OVER8X);
   1aa38:	f10d 060e 	add.w	r6, sp, #14
                        if( count == 0 ) {
   1aa3c:	2c00      	cmp	r4, #0
   1aa3e:	d038      	beq.n	1aab2 <BatteryService180F::make(unsigned char*)+0x86>
   1aa40:	f8df 80fc 	ldr.w	r8, [pc, #252]	; 1ab40 <BatteryService180F::make(unsigned char*)+0x114>
                            //make sure we are in some sane range
                            if( voltage_ < 500 ) voltage_ = 0; // <500mv, show 0000
                            if( voltage_ > 3600 ) voltage_ = 9999; //>3600, show 9999
                            Debug( "Battery::update  %u.%03uV\n", voltage_/1000, voltage_%1000 );
                        }
                        if( ++count >= updateInterval_ ) count = 0;  
   1aa44:	3401      	adds	r4, #1
   1aa46:	b2e4      	uxtb	r4, r4
   1aa48:	2c3b      	cmp	r4, #59	; 0x3b
   1aa4a:	bf8a      	itet	hi
   1aa4c:	2300      	movhi	r3, #0
   1aa4e:	703c      	strbls	r4, [r7, #0]
   1aa50:	703b      	strbhi	r3, [r7, #0]
                        //2.00v = 0%, 3.00v = 100%
                        //percentage will be mV/10 from 2-3v (77% = 2.77v)
                        u16 bv = battery.read();
   1aa52:	f8b8 4000 	ldrh.w	r4, [r8]
                        DebugFuncHeader();
   1aa56:	f7fe fecf 	bl	197f8 <app_timer_cnt_get>
   1aa5a:	f3c0 030d 	ubfx	r3, r0, #0, #14
   1aa5e:	4a34      	ldr	r2, [pc, #208]	; (1ab30 <BatteryService180F::make(unsigned char*)+0x104>)
   1aa60:	9200      	str	r2, [sp, #0]
   1aa62:	ebc3 1103 	rsb	r1, r3, r3, lsl #4
   1aa66:	eb03 0181 	add.w	r1, r3, r1, lsl #2
   1aa6a:	4a32      	ldr	r2, [pc, #200]	; (1ab34 <BatteryService180F::make(unsigned char*)+0x108>)
   1aa6c:	2368      	movs	r3, #104	; 0x68
   1aa6e:	0b80      	lsrs	r0, r0, #14
   1aa70:	f7ff fbfc 	bl	1a26c <int Print<DevRtt<0>, unsigned long, unsigned long, char const*, int, char const*>(DevRtt<0>, char const*, unsigned long, unsigned long, char const*, int, char const*) [clone .isra.0] [clone .constprop.0]>
                        Debug( "  battery: %dmV\n", bv );
   1aa74:	4830      	ldr	r0, [pc, #192]	; (1ab38 <BatteryService180F::make(unsigned char*)+0x10c>)
   1aa76:	4621      	mov	r1, r4
   1aa78:	f7ff fb56 	bl	1a128 <int Print<DevRtt<0>, unsigned short>(DevRtt<0>, char const*, unsigned short) [clone .isra.0]>
                        u8 dat = bv > 3000 ? 100 :
   1aa7c:	f640 33b8 	movw	r3, #3000	; 0xbb8
   1aa80:	429c      	cmp	r4, r3
   1aa82:	d80a      	bhi.n	1aa9a <BatteryService180F::make(unsigned char*)+0x6e>
   1aa84:	f5b4 6ffa 	cmp.w	r4, #2000	; 0x7d0
   1aa88:	d311      	bcc.n	1aaae <BatteryService180F::make(unsigned char*)+0x82>
                                 bv < 2000 ? 0 :
                                 (bv - 2000)/10;
   1aa8a:	4b2c      	ldr	r3, [pc, #176]	; (1ab3c <BatteryService180F::make(unsigned char*)+0x110>)
   1aa8c:	f5a4 64fa 	sub.w	r4, r4, #2000	; 0x7d0
   1aa90:	fba3 3404 	umull	r3, r4, r3, r4
                        u8 dat = bv > 3000 ? 100 :
   1aa94:	f3c4 04c7 	ubfx	r4, r4, #3, #8
   1aa98:	e000      	b.n	1aa9c <BatteryService180F::make(unsigned char*)+0x70>
   1aa9a:	2464      	movs	r4, #100	; 0x64
                        return ServiceData16::make( buf, 0x180F, &dat, 1 );
   1aa9c:	4631      	mov	r1, r6
   1aa9e:	4628      	mov	r0, r5
                        u8 dat = bv > 3000 ? 100 :
   1aaa0:	f88d 400e 	strb.w	r4, [sp, #14]
                        return ServiceData16::make( buf, 0x180F, &dat, 1 );
   1aaa4:	f7ff fbfe 	bl	1a2a4 <ServiceData16::make(unsigned char*, unsigned short, unsigned char*, unsigned char) [clone .constprop.0]>
                    }
   1aaa8:	b004      	add	sp, #16
   1aaaa:	e8bd 81f0 	ldmia.w	sp!, {r4, r5, r6, r7, r8, pc}
                        u8 dat = bv > 3000 ? 100 :
   1aaae:	2400      	movs	r4, #0
   1aab0:	e7f4      	b.n	1aa9c <BatteryService180F::make(unsigned char*)+0x70>
                            vdd_.calibrate();
   1aab2:	f7ff fe5d 	bl	1a770 <Saadc::calibrate()>
                            vdd_.read(v, vdd_.RES10, vdd_.OVER8X);
   1aab6:	4630      	mov	r0, r6
   1aab8:	2203      	movs	r2, #3
   1aaba:	2101      	movs	r1, #1
                            i16 v = 0;
   1aabc:	f8ad 400e 	strh.w	r4, [sp, #14]
                            vdd_.read(v, vdd_.RES10, vdd_.OVER8X);
   1aac0:	f7ff ff36 	bl	1a930 <SaadcChan::read(short&, Saadc::RES, Saadc::OVERSAMP)>
                            voltage_ = (i32)v * 3600 / 1024;
   1aac4:	f9bd 300e 	ldrsh.w	r3, [sp, #14]
   1aac8:	ebc3 1303 	rsb	r3, r3, r3, lsl #4
   1aacc:	ebc3 1303 	rsb	r3, r3, r3, lsl #4
   1aad0:	011b      	lsls	r3, r3, #4
   1aad2:	bf48      	it	mi
   1aad4:	f203 33ff 	addwmi	r3, r3, #1023	; 0x3ff
   1aad8:	f343 238f 	sbfx	r3, r3, #10, #16
                            if( voltage_ < 500 ) voltage_ = 0; // <500mv, show 0000
   1aadc:	f5b3 7ffa 	cmp.w	r3, #500	; 0x1f4
   1aae0:	db0f      	blt.n	1ab02 <BatteryService180F::make(unsigned char*)+0xd6>
                            if( voltage_ > 3600 ) voltage_ = 9999; //>3600, show 9999
   1aae2:	f5b3 6f61 	cmp.w	r3, #3600	; 0xe10
   1aae6:	dd14      	ble.n	1ab12 <BatteryService180F::make(unsigned char*)+0xe6>
   1aae8:	f8df 8054 	ldr.w	r8, [pc, #84]	; 1ab40 <BatteryService180F::make(unsigned char*)+0x114>
   1aaec:	f242 730f 	movw	r3, #9999	; 0x270f
   1aaf0:	f8a8 3000 	strh.w	r3, [r8]
   1aaf4:	f240 31e7 	movw	r1, #999	; 0x3e7
   1aaf8:	2009      	movs	r0, #9
                            Debug( "Battery::update  %u.%03uV\n", voltage_/1000, voltage_%1000 );
   1aafa:	f7ff fc1d 	bl	1a338 <int Print<DevRtt<0>, int, int>(DevRtt<0>, char const*, int, int) [clone .isra.0] [clone .constprop.0]>
   1aafe:	783c      	ldrb	r4, [r7, #0]
   1ab00:	e7a0      	b.n	1aa44 <BatteryService180F::make(unsigned char*)+0x18>
                            if( voltage_ < 500 ) voltage_ = 0; // <500mv, show 0000
   1ab02:	f8df 803c 	ldr.w	r8, [pc, #60]	; 1ab40 <BatteryService180F::make(unsigned char*)+0x114>
   1ab06:	2300      	movs	r3, #0
   1ab08:	4619      	mov	r1, r3
   1ab0a:	f8a8 3000 	strh.w	r3, [r8]
   1ab0e:	4618      	mov	r0, r3
   1ab10:	e7f3      	b.n	1aafa <BatteryService180F::make(unsigned char*)+0xce>
   1ab12:	f44f 727a 	mov.w	r2, #1000	; 0x3e8
                            voltage_ = (i32)v * 3600 / 1024;
   1ab16:	f8df 8028 	ldr.w	r8, [pc, #40]	; 1ab40 <BatteryService180F::make(unsigned char*)+0x114>
   1ab1a:	fb93 f0f2 	sdiv	r0, r3, r2
   1ab1e:	fb02 3210 	mls	r2, r2, r0, r3
   1ab22:	b211      	sxth	r1, r2
   1ab24:	b200      	sxth	r0, r0
   1ab26:	f8a8 3000 	strh.w	r3, [r8]
   1ab2a:	e7e6      	b.n	1aafa <BatteryService180F::make(unsigned char*)+0xce>
   1ab2c:	20001a44 	.word	0x20001a44
   1ab30:	0001ec10 	.word	0x0001ec10
   1ab34:	0001ebfc 	.word	0x0001ebfc
   1ab38:	0001ec18 	.word	0x0001ec18
   1ab3c:	cccccccd 	.word	0xcccccccd
   1ab40:	20001a46 	.word	0x20001a46

0001ab44 <Advertising<MyTemperatureAD<TemperatureTmp117<(unsigned char)5> >, (unsigned short)3000, 20000ul>::timerOff()>:

SA  timerOn         () {
                        timerAdvUpdate_.init( timerInterval_, update, timerAdvUpdate_.REPEATED );
                    }

SA  timerOff        () {
   1ab44:	b508      	push	{r3, lr}
                                APP_TIMER_MODE_REPEATED, cb) 
                        );
                        error.check( app_timer_start(ptimerId_, appTimerTicks(ms), NULL) );
                    }

auto stop           (){ error.check( app_timer_stop(ptimerId_) ); }
   1ab46:	4b04      	ldr	r3, [pc, #16]	; (1ab58 <Advertising<MyTemperatureAD<TemperatureTmp117<(unsigned char)5> >, (unsigned short)3000, 20000ul>::timerOff()+0x14>)
   1ab48:	6a18      	ldr	r0, [r3, #32]
   1ab4a:	f7fe fe33 	bl	197b4 <app_timer_stop>
                        timerAdvUpdate_.stop();
                    }
   1ab4e:	e8bd 4008 	ldmia.w	sp!, {r3, lr}
   1ab52:	b200      	sxth	r0, r0
   1ab54:	f7ff bc1e 	b.w	1a394 <Errors::check(short, bool) [clone .constprop.0]>
   1ab58:	200019b0 	.word	0x200019b0

0001ab5c <Advertising<MyTemperatureAD<TemperatureTmp117<(unsigned char)5> >, (unsigned short)3000, 20000ul>::isStopped()>:
                        isActive_ = false; 
   1ab5c:	4b01      	ldr	r3, [pc, #4]	; (1ab64 <Advertising<MyTemperatureAD<TemperatureTmp117<(unsigned char)5> >, (unsigned short)3000, 20000ul>::isStopped()+0x8>)
   1ab5e:	2200      	movs	r2, #0
   1ab60:	701a      	strb	r2, [r3, #0]
                    }
   1ab62:	4770      	bx	lr
   1ab64:	200019d8 	.word	0x200019d8

0001ab68 <Advertising<MyTemperatureAD<TemperatureTmp117<(unsigned char)5> >, (unsigned short)3000, 20000ul>::connectable(bool)>:
                        isConnectable_ = tf; 
   1ab68:	4b01      	ldr	r3, [pc, #4]	; (1ab70 <Advertising<MyTemperatureAD<TemperatureTmp117<(unsigned char)5> >, (unsigned short)3000, 20000ul>::connectable(bool)+0x8>)
   1ab6a:	7018      	strb	r0, [r3, #0]
                    }
   1ab6c:	4770      	bx	lr
   1ab6e:	bf00      	nop
   1ab70:	20001811 	.word	0x20001811
   1ab74:	00000000 	.word	0x00000000

0001ab78 <Advertising<MyTemperatureAD<TemperatureTmp117<(unsigned char)5> >, (unsigned short)3000, 20000ul>::timerOn()>:
SA  timerOn         () {
   1ab78:	b538      	push	{r3, r4, r5, lr}
                        if( isTimerModuleInit_ ) return;
   1ab7a:	4c17      	ldr	r4, [pc, #92]	; (1abd8 <Advertising<MyTemperatureAD<TemperatureTmp117<(unsigned char)5> >, (unsigned short)3000, 20000ul>::timerOn()+0x60>)
                        timerAdvUpdate_.init( timerInterval_, update, timerAdvUpdate_.REPEATED );
   1ab7c:	4a17      	ldr	r2, [pc, #92]	; (1abdc <Advertising<MyTemperatureAD<TemperatureTmp117<(unsigned char)5> >, (unsigned short)3000, 20000ul>::timerOn()+0x64>)
   1ab7e:	7823      	ldrb	r3, [r4, #0]
   1ab80:	6815      	ldr	r5, [r2, #0]
   1ab82:	b91b      	cbnz	r3, 1ab8c <Advertising<MyTemperatureAD<TemperatureTmp117<(unsigned char)5> >, (unsigned short)3000, 20000ul>::timerOn()+0x14>
                        app_timer_init(); //always success
   1ab84:	f7fe fd8c 	bl	196a0 <app_timer_init>
                        isTimerModuleInit_ = true;
   1ab88:	2301      	movs	r3, #1
   1ab8a:	7023      	strb	r3, [r4, #0]
                        error.check( app_timer_create(&ptimerId_, 
   1ab8c:	4a14      	ldr	r2, [pc, #80]	; (1abe0 <Advertising<MyTemperatureAD<TemperatureTmp117<(unsigned char)5> >, (unsigned short)3000, 20000ul>::timerOn()+0x68>)
   1ab8e:	4815      	ldr	r0, [pc, #84]	; (1abe4 <Advertising<MyTemperatureAD<TemperatureTmp117<(unsigned char)5> >, (unsigned short)3000, 20000ul>::timerOn()+0x6c>)
   1ab90:	2101      	movs	r1, #1
   1ab92:	f7fe fdbb 	bl	1970c <app_timer_create>
   1ab96:	b200      	sxth	r0, r0
   1ab98:	f7ff fbfc 	bl	1a394 <Errors::check(short, bool) [clone .constprop.0]>
                        return __builtin_ceil( ms*(RTC_HZ/1000.0) );
   1ab9c:	4812      	ldr	r0, [pc, #72]	; (1abe8 <Advertising<MyTemperatureAD<TemperatureTmp117<(unsigned char)5> >, (unsigned short)3000, 20000ul>::timerOn()+0x70>)
   1ab9e:	42a8      	cmp	r0, r5
   1aba0:	bf28      	it	cs
   1aba2:	4628      	movcs	r0, r5
   1aba4:	f002 fe5c 	bl	1d860 <__aeabi_ui2d>
   1aba8:	a309      	add	r3, pc, #36	; (adr r3, 1abd0 <Advertising<MyTemperatureAD<TemperatureTmp117<(unsigned char)5> >, (unsigned short)3000, 20000ul>::timerOn()+0x58>)
   1abaa:	e9d3 2300 	ldrd	r2, r3, [r3]
   1abae:	f002 fbeb 	bl	1d388 <__aeabi_dmul>
   1abb2:	f002 fb6d 	bl	1d290 <ceil>
                        error.check( app_timer_start(ptimerId_, appTimerTicks(ms), NULL) );
   1abb6:	f002 ff55 	bl	1da64 <__aeabi_d2uiz>
   1abba:	4b0c      	ldr	r3, [pc, #48]	; (1abec <Advertising<MyTemperatureAD<TemperatureTmp117<(unsigned char)5> >, (unsigned short)3000, 20000ul>::timerOn()+0x74>)
   1abbc:	4601      	mov	r1, r0
   1abbe:	2200      	movs	r2, #0
   1abc0:	6a18      	ldr	r0, [r3, #32]
   1abc2:	f7fe fdb1 	bl	19728 <app_timer_start>
                    }
   1abc6:	e8bd 4038 	ldmia.w	sp!, {r3, r4, r5, lr}
   1abca:	b200      	sxth	r0, r0
   1abcc:	f7ff bbe2 	b.w	1a394 <Errors::check(short, bool) [clone .constprop.0]>
   1abd0:	d2f1a9fc 	.word	0xd2f1a9fc
   1abd4:	4030624d 	.word	0x4030624d
   1abd8:	20001a50 	.word	0x20001a50
   1abdc:	2000180c 	.word	0x2000180c
   1abe0:	0001bc8d 	.word	0x0001bc8d
   1abe4:	200019d0 	.word	0x200019d0
   1abe8:	05265c00 	.word	0x05265c00
   1abec:	200019b0 	.word	0x200019b0

0001abf0 <Ble::init()>:

//===========
    public:
//===========

SA  init            () {
   1abf0:	b510      	push	{r4, lr}
   1abf2:	b082      	sub	sp, #8
                        Debug( "Ble::init...\n" );
                        uint32_t ram_start = 0;
   1abf4:	2400      	movs	r4, #0
                        Debug( "Ble::init...\n" );
   1abf6:	480e      	ldr	r0, [pc, #56]	; (1ac30 <Ble::init()+0x40>)
   1abf8:	f7ff fa6e 	bl	1a0d8 <int Print<DevRtt<0>>(DevRtt<0>, char const*) [clone .isra.0]>
                        uint32_t ram_start = 0;
   1abfc:	9401      	str	r4, [sp, #4]
                        error.check( nrf_sdh_enable_request() );
   1abfe:	f001 fceb 	bl	1c5d8 <nrf_sdh_enable_request>
   1ac02:	b200      	sxth	r0, r0
   1ac04:	f7ff fbc6 	bl	1a394 <Errors::check(short, bool) [clone .constprop.0]>
                        error.check( nrf_sdh_ble_default_cfg_set(BLE_CONN_CFG_TAG_DEFAULT, &ram_start) );
   1ac08:	a901      	add	r1, sp, #4
   1ac0a:	4620      	mov	r0, r4
   1ac0c:	f001 fdc0 	bl	1c790 <nrf_sdh_ble_default_cfg_set>
   1ac10:	b200      	sxth	r0, r0
   1ac12:	f7ff fbbf 	bl	1a394 <Errors::check(short, bool) [clone .constprop.0]>
                        error.check( nrf_sdh_ble_enable(&ram_start) );
   1ac16:	a801      	add	r0, sp, #4
   1ac18:	f001 fe10 	bl	1c83c <nrf_sdh_ble_enable>
   1ac1c:	b200      	sxth	r0, r0
   1ac1e:	f7ff fbb9 	bl	1a394 <Errors::check(short, bool) [clone .constprop.0]>
                        Debug( "    ram start: 0x%08X\n", ram_start );
   1ac22:	9901      	ldr	r1, [sp, #4]
   1ac24:	4803      	ldr	r0, [pc, #12]	; (1ac34 <Ble::init()+0x44>)
   1ac26:	f7ff fa43 	bl	1a0b0 <int Print<DevRtt<0>, unsigned long>(DevRtt<0>, char const*, unsigned long) [clone .isra.0]>
                        //_name, _prio, _handler, _context
                        NRF_SDH_BLE_OBSERVER(bleObserver_, 3, eventHandler, NULL);
                    }
   1ac2a:	b002      	add	sp, #8
   1ac2c:	bd10      	pop	{r4, pc}
   1ac2e:	bf00      	nop
   1ac30:	0001ec2c 	.word	0x0001ec2c
   1ac34:	0001ec3c 	.word	0x0001ec3c

0001ac38 <Gap::init()>:
/*------------------------------------------------------------------------------
    Gap
------------------------------------------------------------------------------*/
struct Gap {

SA  init        () {
   1ac38:	e92d 4ff0 	stmdb	sp!, {r4, r5, r6, r7, r8, r9, sl, fp, lr}
                        saveName_ = true;
                    }

SA  readName        () {
                        //was updated?, need to save in flash
                        if( saveName_ ) saveName();                        
   1ac3c:	4e98      	ldr	r6, [pc, #608]	; (1aea0 <Gap::init()+0x268>)
                    Debug( "Gap::init...\n" );                    
   1ac3e:	4899      	ldr	r0, [pc, #612]	; (1aea4 <Gap::init()+0x26c>)
SA  init        () {
   1ac40:	b085      	sub	sp, #20
                    Debug( "Gap::init...\n" );                    
   1ac42:	f7ff fa49 	bl	1a0d8 <int Print<DevRtt<0>>(DevRtt<0>, char const*) [clone .isra.0]>
   1ac46:	7833      	ldrb	r3, [r6, #0]

                    ble_gap_conn_params_t   gap_conn_params;
                    ble_gap_conn_sec_mode_t sec_mode;

                    BLE_GAP_CONN_SEC_MODE_SET_OPEN(&sec_mode);
   1ac48:	2211      	movs	r2, #17
   1ac4a:	f88d 2004 	strb.w	r2, [sp, #4]
   1ac4e:	b9f3      	cbnz	r3, 1ac8e <Gap::init()+0x56>

                    error.check( 
                        sd_ble_gap_device_name_set( &sec_mode, (const uint8_t*)flash.readName(), strlen( flash.readName() ) )
   1ac50:	4895      	ldr	r0, [pc, #596]	; (1aea8 <Gap::init()+0x270>)
   1ac52:	f001 feaf 	bl	1c9b4 <strlen>
   1ac56:	4994      	ldr	r1, [pc, #592]	; (1aea8 <Gap::init()+0x270>)
   1ac58:	b282      	uxth	r2, r0
   1ac5a:	a801      	add	r0, sp, #4
   1ac5c:	f7ff fa22 	bl	1a0a4 <sd_ble_gap_device_name_set>
                    error.check( 
   1ac60:	b200      	sxth	r0, r0
   1ac62:	f7ff fb97 	bl	1a394 <Errors::check(short, bool) [clone .constprop.0]>
                     );

                    memset(&gap_conn_params, 0, sizeof(gap_conn_params));
   1ac66:	2208      	movs	r2, #8
   1ac68:	2100      	movs	r1, #0
   1ac6a:	a802      	add	r0, sp, #8
   1ac6c:	f001 fe5e 	bl	1c92c <memset>

                    gap_conn_params.min_conn_interval = MSEC_TO_UNITS(100, UNIT_1_25_MS);
   1ac70:	4b8e      	ldr	r3, [pc, #568]	; (1aeac <Gap::init()+0x274>)
   1ac72:	9302      	str	r3, [sp, #8]
                    gap_conn_params.max_conn_interval = MSEC_TO_UNITS(200, UNIT_1_25_MS);
                    gap_conn_params.conn_sup_timeout  = MSEC_TO_UNITS(4000, UNIT_10_MS);

                    error.check( sd_ble_gap_ppcp_set(&gap_conn_params) );
   1ac74:	a802      	add	r0, sp, #8
                    gap_conn_params.conn_sup_timeout  = MSEC_TO_UNITS(4000, UNIT_10_MS);
   1ac76:	f44f 73c8 	mov.w	r3, #400	; 0x190
   1ac7a:	f8ad 300e 	strh.w	r3, [sp, #14]
                    error.check( sd_ble_gap_ppcp_set(&gap_conn_params) );
   1ac7e:	f7ff fa0f 	bl	1a0a0 <sd_ble_gap_ppcp_set>
   1ac82:	b200      	sxth	r0, r0
   1ac84:	f7ff fb86 	bl	1a394 <Errors::check(short, bool) [clone .constprop.0]>
                }
   1ac88:	b005      	add	sp, #20
   1ac8a:	e8bd 8ff0 	ldmia.w	sp!, {r4, r5, r6, r7, r8, r9, sl, fp, pc}
                        Debug( "Flash::saveName : %s\n", fullnameRam_ );          
   1ac8e:	4986      	ldr	r1, [pc, #536]	; (1aea8 <Gap::init()+0x270>)
   1ac90:	4887      	ldr	r0, [pc, #540]	; (1aeb0 <Gap::init()+0x278>)
   1ac92:	f7ff fa35 	bl	1a100 <int Print<DevRtt<0>, char const*>(DevRtt<0>, char const*, char const*) [clone .isra.0]>
                        if( not nrf_sdh_is_enabled() ) return; //these functions use sd
   1ac96:	f001 fd2b 	bl	1c6f0 <nrf_sdh_is_enabled>
   1ac9a:	2800      	cmp	r0, #0
   1ac9c:	d151      	bne.n	1ad42 <Gap::init()+0x10a>
                        if( saveName_ ) saveName();                        
   1ac9e:	7833      	ldrb	r3, [r6, #0]
   1aca0:	2b00      	cmp	r3, #0
   1aca2:	d0d5      	beq.n	1ac50 <Gap::init()+0x18>
                        Debug( "Flash::saveName : %s\n", fullnameRam_ );          
   1aca4:	4980      	ldr	r1, [pc, #512]	; (1aea8 <Gap::init()+0x270>)
   1aca6:	4882      	ldr	r0, [pc, #520]	; (1aeb0 <Gap::init()+0x278>)
   1aca8:	f7ff fa2a 	bl	1a100 <int Print<DevRtt<0>, char const*>(DevRtt<0>, char const*, char const*) [clone .isra.0]>
                        if( not nrf_sdh_is_enabled() ) return; //these functions use sd
   1acac:	f001 fd20 	bl	1c6f0 <nrf_sdh_is_enabled>
   1acb0:	4607      	mov	r7, r0
   1acb2:	2800      	cmp	r0, #0
   1acb4:	d0cc      	beq.n	1ac50 <Gap::init()+0x18>
                            if( fullnameFlash_[i] != 0xFF ) return false;
   1acb6:	4d7f      	ldr	r5, [pc, #508]	; (1aeb4 <Gap::init()+0x27c>)
   1acb8:	6829      	ldr	r1, [r5, #0]
   1acba:	1e4b      	subs	r3, r1, #1
   1acbc:	311f      	adds	r1, #31
   1acbe:	e002      	b.n	1acc6 <Gap::init()+0x8e>
                        for( auto i = 0; i < fullnameSiz_; i++ ){
   1acc0:	428b      	cmp	r3, r1
   1acc2:	f000 80a1 	beq.w	1ae08 <Gap::init()+0x1d0>
                            if( fullnameFlash_[i] != 0xFF ) return false;
   1acc6:	f813 2f01 	ldrb.w	r2, [r3, #1]!
   1acca:	2aff      	cmp	r2, #255	; 0xff
   1accc:	d0f8      	beq.n	1acc0 <Gap::init()+0x88>
                        if( busy_ ){
   1acce:	f8df 8200 	ldr.w	r8, [pc, #512]	; 1aed0 <Gap::init()+0x298>
                        Debug( "Flash::sdErasePage\n" );
   1acd2:	4879      	ldr	r0, [pc, #484]	; (1aeb8 <Gap::init()+0x280>)
   1acd4:	f7ff fa00 	bl	1a0d8 <int Print<DevRtt<0>>(DevRtt<0>, char const*) [clone .isra.0]>
                        if( busy_ ){
   1acd8:	f898 3000 	ldrb.w	r3, [r8]
   1acdc:	2b00      	cmp	r3, #0
   1acde:	f040 80d6 	bne.w	1ae8e <Gap::init()+0x256>
                        Debug( "fullname flash values:\n    " );
   1ace2:	4876      	ldr	r0, [pc, #472]	; (1aebc <Gap::init()+0x284>)
                                Debug(" ");
   1ace4:	f8df a1ec 	ldr.w	sl, [pc, #492]	; 1aed4 <Gap::init()+0x29c>
                                Debug("\n    ");
   1ace8:	f8df 91ec 	ldr.w	r9, [pc, #492]	; 1aed8 <Gap::init()+0x2a0>
                        Debug( "fullname flash values:\n    " );
   1acec:	f7ff f9f4 	bl	1a0d8 <int Print<DevRtt<0>>(DevRtt<0>, char const*) [clone .isra.0]>
                            Debug( "%02X", fullnameFlash_[i] );
   1acf0:	682b      	ldr	r3, [r5, #0]
   1acf2:	7818      	ldrb	r0, [r3, #0]
   1acf4:	f7ff fade 	bl	1a2b4 <int Print<DevRtt<0>, char>(DevRtt<0>, char const*, char) [clone .isra.0] [clone .constprop.0]>
                        for( auto i = 0; i < fullnameSiz_; i++ ){
   1acf8:	2401      	movs	r4, #1
   1acfa:	e003      	b.n	1ad04 <Gap::init()+0xcc>
   1acfc:	3401      	adds	r4, #1
   1acfe:	2c20      	cmp	r4, #32
   1ad00:	f000 80aa 	beq.w	1ae58 <Gap::init()+0x220>
                            Debug( "%02X", fullnameFlash_[i] );
   1ad04:	682b      	ldr	r3, [r5, #0]
   1ad06:	5d18      	ldrb	r0, [r3, r4]
   1ad08:	f7ff fad4 	bl	1a2b4 <int Print<DevRtt<0>, char>(DevRtt<0>, char const*, char) [clone .isra.0] [clone .constprop.0]>
                            if( (i bitand 15) == 15 ){
   1ad0c:	f004 030f 	and.w	r3, r4, #15
   1ad10:	2b0f      	cmp	r3, #15
   1ad12:	d1f3      	bne.n	1acfc <Gap::init()+0xc4>
                                Debug(" ");
   1ad14:	4650      	mov	r0, sl
   1ad16:	f7ff f9df 	bl	1a0d8 <int Print<DevRtt<0>>(DevRtt<0>, char const*) [clone .isra.0]>
                                for( auto j = i-15; j <= i; j++ ){
   1ad1a:	f1a4 0b0f 	sub.w	fp, r4, #15
   1ad1e:	3401      	adds	r4, #1
                                    Debug("%c", fullnameFlash_[j] > ' ' and fullnameFlash_[j] < 128 ? 
   1ad20:	682b      	ldr	r3, [r5, #0]
   1ad22:	f813 000b 	ldrb.w	r0, [r3, fp]
   1ad26:	f1a0 0321 	sub.w	r3, r0, #33	; 0x21
   1ad2a:	2b5e      	cmp	r3, #94	; 0x5e
                                for( auto j = i-15; j <= i; j++ ){
   1ad2c:	f10b 0b01 	add.w	fp, fp, #1
                                    Debug("%c", fullnameFlash_[j] > ' ' and fullnameFlash_[j] < 128 ? 
   1ad30:	d84a      	bhi.n	1adc8 <Gap::init()+0x190>
   1ad32:	f7ff fad5 	bl	1a2e0 <int Print<DevRtt<0>, char>(DevRtt<0>, char const*, char) [clone .isra.0] [clone .constprop.1]>
                                for( auto j = i-15; j <= i; j++ ){
   1ad36:	45a3      	cmp	fp, r4
   1ad38:	d1f2      	bne.n	1ad20 <Gap::init()+0xe8>
                                Debug("\n    ");
   1ad3a:	4648      	mov	r0, r9
   1ad3c:	f7ff f9cc 	bl	1a0d8 <int Print<DevRtt<0>>(DevRtt<0>, char const*) [clone .isra.0]>
   1ad40:	e7dd      	b.n	1acfe <Gap::init()+0xc6>
                            if( fullnameFlash_[i] != 0xFF ) return false;
   1ad42:	4d5c      	ldr	r5, [pc, #368]	; (1aeb4 <Gap::init()+0x27c>)
   1ad44:	6829      	ldr	r1, [r5, #0]
   1ad46:	1e4b      	subs	r3, r1, #1
   1ad48:	311f      	adds	r1, #31
   1ad4a:	e001      	b.n	1ad50 <Gap::init()+0x118>
                        for( auto i = 0; i < fullnameSiz_; i++ ){
   1ad4c:	428b      	cmp	r3, r1
   1ad4e:	d041      	beq.n	1add4 <Gap::init()+0x19c>
                            if( fullnameFlash_[i] != 0xFF ) return false;
   1ad50:	f813 2f01 	ldrb.w	r2, [r3, #1]!
   1ad54:	2aff      	cmp	r2, #255	; 0xff
   1ad56:	d0f9      	beq.n	1ad4c <Gap::init()+0x114>
                        if( busy_ ){
   1ad58:	f8df 8174 	ldr.w	r8, [pc, #372]	; 1aed0 <Gap::init()+0x298>
                        Debug( "Flash::sdErasePage\n" );
   1ad5c:	4856      	ldr	r0, [pc, #344]	; (1aeb8 <Gap::init()+0x280>)
   1ad5e:	f7ff f9bb 	bl	1a0d8 <int Print<DevRtt<0>>(DevRtt<0>, char const*) [clone .isra.0]>
                        if( busy_ ){
   1ad62:	f898 3000 	ldrb.w	r3, [r8]
   1ad66:	2b00      	cmp	r3, #0
   1ad68:	f040 8095 	bne.w	1ae96 <Gap::init()+0x25e>
                        Debug( "fullname flash values:\n    " );
   1ad6c:	4853      	ldr	r0, [pc, #332]	; (1aebc <Gap::init()+0x284>)
                                Debug(" ");
   1ad6e:	f8df a164 	ldr.w	sl, [pc, #356]	; 1aed4 <Gap::init()+0x29c>
                                Debug("\n    ");
   1ad72:	f8df 9164 	ldr.w	r9, [pc, #356]	; 1aed8 <Gap::init()+0x2a0>
                        Debug( "fullname flash values:\n    " );
   1ad76:	f7ff f9af 	bl	1a0d8 <int Print<DevRtt<0>>(DevRtt<0>, char const*) [clone .isra.0]>
                            Debug( "%02X", fullnameFlash_[i] );
   1ad7a:	682b      	ldr	r3, [r5, #0]
   1ad7c:	7818      	ldrb	r0, [r3, #0]
   1ad7e:	f7ff fa99 	bl	1a2b4 <int Print<DevRtt<0>, char>(DevRtt<0>, char const*, char) [clone .isra.0] [clone .constprop.0]>
                        for( auto i = 0; i < fullnameSiz_; i++ ){
   1ad82:	2401      	movs	r4, #1
   1ad84:	e002      	b.n	1ad8c <Gap::init()+0x154>
   1ad86:	3401      	adds	r4, #1
   1ad88:	2c20      	cmp	r4, #32
   1ad8a:	d058      	beq.n	1ae3e <Gap::init()+0x206>
                            Debug( "%02X", fullnameFlash_[i] );
   1ad8c:	682b      	ldr	r3, [r5, #0]
   1ad8e:	5d18      	ldrb	r0, [r3, r4]
   1ad90:	f7ff fa90 	bl	1a2b4 <int Print<DevRtt<0>, char>(DevRtt<0>, char const*, char) [clone .isra.0] [clone .constprop.0]>
                            if( (i bitand 15) == 15 ){
   1ad94:	f004 030f 	and.w	r3, r4, #15
   1ad98:	2b0f      	cmp	r3, #15
   1ad9a:	d1f4      	bne.n	1ad86 <Gap::init()+0x14e>
                                Debug(" ");
   1ad9c:	4650      	mov	r0, sl
   1ad9e:	f7ff f99b 	bl	1a0d8 <int Print<DevRtt<0>>(DevRtt<0>, char const*) [clone .isra.0]>
                                for( auto j = i-15; j <= i; j++ ){
   1ada2:	f1a4 070f 	sub.w	r7, r4, #15
   1ada6:	3401      	adds	r4, #1
                                    Debug("%c", fullnameFlash_[j] > ' ' and fullnameFlash_[j] < 128 ? 
   1ada8:	682b      	ldr	r3, [r5, #0]
   1adaa:	5dd8      	ldrb	r0, [r3, r7]
   1adac:	f1a0 0321 	sub.w	r3, r0, #33	; 0x21
   1adb0:	2b5e      	cmp	r3, #94	; 0x5e
   1adb2:	bf88      	it	hi
   1adb4:	202e      	movhi	r0, #46	; 0x2e
                                for( auto j = i-15; j <= i; j++ ){
   1adb6:	3701      	adds	r7, #1
                                    Debug("%c", fullnameFlash_[j] > ' ' and fullnameFlash_[j] < 128 ? 
   1adb8:	f7ff fa92 	bl	1a2e0 <int Print<DevRtt<0>, char>(DevRtt<0>, char const*, char) [clone .isra.0] [clone .constprop.1]>
                                for( auto j = i-15; j <= i; j++ ){
   1adbc:	42bc      	cmp	r4, r7
   1adbe:	d1f3      	bne.n	1ada8 <Gap::init()+0x170>
                                Debug("\n    ");
   1adc0:	4648      	mov	r0, r9
   1adc2:	f7ff f989 	bl	1a0d8 <int Print<DevRtt<0>>(DevRtt<0>, char const*) [clone .isra.0]>
   1adc6:	e7df      	b.n	1ad88 <Gap::init()+0x150>
                                    Debug("%c", fullnameFlash_[j] > ' ' and fullnameFlash_[j] < 128 ? 
   1adc8:	202e      	movs	r0, #46	; 0x2e
   1adca:	f7ff fa89 	bl	1a2e0 <int Print<DevRtt<0>, char>(DevRtt<0>, char const*, char) [clone .isra.0] [clone .constprop.1]>
                                for( auto j = i-15; j <= i; j++ ){
   1adce:	455c      	cmp	r4, fp
   1add0:	d1a6      	bne.n	1ad20 <Gap::init()+0xe8>
   1add2:	e7b2      	b.n	1ad3a <Gap::init()+0x102>
   1add4:	f8df 80f8 	ldr.w	r8, [pc, #248]	; 1aed0 <Gap::init()+0x298>
                        Debug( "Flash::sdFlashWrite32\n" );
   1add8:	4839      	ldr	r0, [pc, #228]	; (1aec0 <Gap::init()+0x288>)
   1adda:	f7ff f97d 	bl	1a0d8 <int Print<DevRtt<0>>(DevRtt<0>, char const*) [clone .isra.0]>
                        if( busy_ ){
   1adde:	f898 3000 	ldrb.w	r3, [r8]
   1ade2:	2b00      	cmp	r3, #0
   1ade4:	d14d      	bne.n	1ae82 <Gap::init()+0x24a>
                        u32 err = sd_flash_write((u32*)fullnameFlash_, vals, valsN );
   1ade6:	4930      	ldr	r1, [pc, #192]	; (1aea8 <Gap::init()+0x270>)
   1ade8:	6828      	ldr	r0, [r5, #0]
   1adea:	2208      	movs	r2, #8
   1adec:	f7ff f94c 	bl	1a088 <sd_flash_write>
                        Debug( "    return val: %u\n", err );
   1adf0:	4601      	mov	r1, r0
                        u32 err = sd_flash_write((u32*)fullnameFlash_, vals, valsN );
   1adf2:	4604      	mov	r4, r0
                        Debug( "    return val: %u\n", err );
   1adf4:	4833      	ldr	r0, [pc, #204]	; (1aec4 <Gap::init()+0x28c>)
   1adf6:	f7ff f95b 	bl	1a0b0 <int Print<DevRtt<0>, unsigned long>(DevRtt<0>, char const*, unsigned long) [clone .isra.0]>
                        saveName_ = not sdFlashWrite32( (const u32*)fullnameRam_, fullnameSiz_/4 );
   1adfa:	2301      	movs	r3, #1
                        if( err != NRF_SUCCESS ) return false;
   1adfc:	2c00      	cmp	r4, #0
   1adfe:	d13a      	bne.n	1ae76 <Gap::init()+0x23e>
                        saveName_ = not sdFlashWrite32( (const u32*)fullnameRam_, fullnameSiz_/4 );
   1ae00:	7034      	strb	r4, [r6, #0]
                        busy_ = true;
   1ae02:	f888 3000 	strb.w	r3, [r8]
                        if( saveName_ ) saveName();                        
   1ae06:	e723      	b.n	1ac50 <Gap::init()+0x18>
   1ae08:	f8df 80c4 	ldr.w	r8, [pc, #196]	; 1aed0 <Gap::init()+0x298>
                        Debug( "Flash::sdFlashWrite32\n" );
   1ae0c:	482c      	ldr	r0, [pc, #176]	; (1aec0 <Gap::init()+0x288>)
   1ae0e:	f7ff f963 	bl	1a0d8 <int Print<DevRtt<0>>(DevRtt<0>, char const*) [clone .isra.0]>
                        if( busy_ ){
   1ae12:	f898 9000 	ldrb.w	r9, [r8]
   1ae16:	f1b9 0f00 	cmp.w	r9, #0
   1ae1a:	d12e      	bne.n	1ae7a <Gap::init()+0x242>
                        u32 err = sd_flash_write((u32*)fullnameFlash_, vals, valsN );
   1ae1c:	4922      	ldr	r1, [pc, #136]	; (1aea8 <Gap::init()+0x270>)
   1ae1e:	6828      	ldr	r0, [r5, #0]
   1ae20:	2208      	movs	r2, #8
   1ae22:	f7ff f931 	bl	1a088 <sd_flash_write>
   1ae26:	4604      	mov	r4, r0
                        Debug( "    return val: %u\n", err );
   1ae28:	4601      	mov	r1, r0
   1ae2a:	4826      	ldr	r0, [pc, #152]	; (1aec4 <Gap::init()+0x28c>)
   1ae2c:	f7ff f940 	bl	1a0b0 <int Print<DevRtt<0>, unsigned long>(DevRtt<0>, char const*, unsigned long) [clone .isra.0]>
                        if( err != NRF_SUCCESS ) return false;
   1ae30:	b9fc      	cbnz	r4, 1ae72 <Gap::init()+0x23a>
                        busy_ = true;
   1ae32:	2301      	movs	r3, #1
   1ae34:	f888 3000 	strb.w	r3, [r8]
                        saveName_ = not sdFlashWrite32( (const u32*)fullnameRam_, fullnameSiz_/4 );
   1ae38:	f886 9000 	strb.w	r9, [r6]
   1ae3c:	e708      	b.n	1ac50 <Gap::init()+0x18>
                        Debug( "\n" );
   1ae3e:	4822      	ldr	r0, [pc, #136]	; (1aec8 <Gap::init()+0x290>)
   1ae40:	f7ff f94a 	bl	1a0d8 <int Print<DevRtt<0>>(DevRtt<0>, char const*) [clone .isra.0]>
                        u32 err = sd_flash_page_erase(lastPageFlash_);
   1ae44:	202f      	movs	r0, #47	; 0x2f
   1ae46:	f7ff f921 	bl	1a08c <sd_flash_page_erase>
                        if( err != NRF_SUCCESS ) return false;
   1ae4a:	2800      	cmp	r0, #0
   1ae4c:	f47f af27 	bne.w	1ac9e <Gap::init()+0x66>
                        busy_ = true;
   1ae50:	2301      	movs	r3, #1
   1ae52:	f888 3000 	strb.w	r3, [r8]
                        return true;
   1ae56:	e7bf      	b.n	1add8 <Gap::init()+0x1a0>
                        Debug( "\n" );
   1ae58:	481b      	ldr	r0, [pc, #108]	; (1aec8 <Gap::init()+0x290>)
   1ae5a:	f7ff f93d 	bl	1a0d8 <int Print<DevRtt<0>>(DevRtt<0>, char const*) [clone .isra.0]>
                        u32 err = sd_flash_page_erase(lastPageFlash_);
   1ae5e:	202f      	movs	r0, #47	; 0x2f
   1ae60:	f7ff f914 	bl	1a08c <sd_flash_page_erase>
                        if( err != NRF_SUCCESS ) return false;
   1ae64:	2800      	cmp	r0, #0
   1ae66:	f47f aef3 	bne.w	1ac50 <Gap::init()+0x18>
                        busy_ = true;
   1ae6a:	2301      	movs	r3, #1
   1ae6c:	f888 3000 	strb.w	r3, [r8]
                        return true;
   1ae70:	e7cc      	b.n	1ae0c <Gap::init()+0x1d4>
   1ae72:	46b9      	mov	r9, r7
   1ae74:	e7e0      	b.n	1ae38 <Gap::init()+0x200>
                        saveName_ = not sdFlashWrite32( (const u32*)fullnameRam_, fullnameSiz_/4 );
   1ae76:	7033      	strb	r3, [r6, #0]
                        if( saveName_ ) saveName();                        
   1ae78:	e714      	b.n	1aca4 <Gap::init()+0x6c>
                            Debug( "    flash busy\n" );
   1ae7a:	4814      	ldr	r0, [pc, #80]	; (1aecc <Gap::init()+0x294>)
   1ae7c:	f7ff f92c 	bl	1a0d8 <int Print<DevRtt<0>>(DevRtt<0>, char const*) [clone .isra.0]>
                            return false;
   1ae80:	e7da      	b.n	1ae38 <Gap::init()+0x200>
                            Debug( "    flash busy\n" );
   1ae82:	4812      	ldr	r0, [pc, #72]	; (1aecc <Gap::init()+0x294>)
   1ae84:	f7ff f928 	bl	1a0d8 <int Print<DevRtt<0>>(DevRtt<0>, char const*) [clone .isra.0]>
                        saveName_ = not sdFlashWrite32( (const u32*)fullnameRam_, fullnameSiz_/4 );
   1ae88:	2301      	movs	r3, #1
   1ae8a:	7033      	strb	r3, [r6, #0]
                        if( saveName_ ) saveName();                        
   1ae8c:	e70a      	b.n	1aca4 <Gap::init()+0x6c>
                            Debug( "    flash busy\n" );
   1ae8e:	480f      	ldr	r0, [pc, #60]	; (1aecc <Gap::init()+0x294>)
   1ae90:	f7ff f922 	bl	1a0d8 <int Print<DevRtt<0>>(DevRtt<0>, char const*) [clone .isra.0]>
                            return false;
   1ae94:	e6dc      	b.n	1ac50 <Gap::init()+0x18>
                            Debug( "    flash busy\n" );
   1ae96:	480d      	ldr	r0, [pc, #52]	; (1aecc <Gap::init()+0x294>)
   1ae98:	f7ff f91e 	bl	1a0d8 <int Print<DevRtt<0>>(DevRtt<0>, char const*) [clone .isra.0]>
   1ae9c:	e6ff      	b.n	1ac9e <Gap::init()+0x66>
   1ae9e:	bf00      	nop
   1aea0:	20001a23 	.word	0x20001a23
   1aea4:	0001ec54 	.word	0x0001ec54
   1aea8:	20001a24 	.word	0x20001a24
   1aeac:	00a00050 	.word	0x00a00050
   1aeb0:	0001ec64 	.word	0x0001ec64
   1aeb4:	20001834 	.word	0x20001834
   1aeb8:	0001ecb8 	.word	0x0001ecb8
   1aebc:	0001eb88 	.word	0x0001eb88
   1aec0:	0001ec8c 	.word	0x0001ec8c
   1aec4:	0001eca4 	.word	0x0001eca4
   1aec8:	0001ec38 	.word	0x0001ec38
   1aecc:	0001ec7c 	.word	0x0001ec7c
   1aed0:	20001a22 	.word	0x20001a22
   1aed4:	0001eba8 	.word	0x0001eba8
   1aed8:	0001eba4 	.word	0x0001eba4

0001aedc <TemperatureTmp117<(unsigned char)1>::read()>:

SA  average         () { return tempH.average(); }
SA  histSize        () { return HistSiz_; }

                    // -999 = failed (and is not added to history)
SA  read            () {
   1aedc:	e92d 4ff0 	stmdb	sp!, {r4, r5, r6, r7, r8, r9, sl, fp, lr}

public:
SA  disable         ()          { reg.ENABLE = 0; }
SA  isEnabled       ()          { return reg.ENABLE; }
SA  frequency       (FREQ e)    { reg.FREQUENCY = e; }
SA  address         (u8 v)      { reg.ADDRESS = v; } //0-127
   1aee0:	4bd2      	ldr	r3, [pc, #840]	; (1b22c <TemperatureTmp117<(unsigned char)1>::read()+0x350>)
        (delay_func_t)((((uint32_t)delay_machine_code) | 1));
   1aee2:	4ed3      	ldr	r6, [pc, #844]	; (1b230 <TemperatureTmp117<(unsigned char)1>::read()+0x354>)
        public:
    //============

SA  init        ()              { twi_.init( Addr_, twi_.K400 );
                                  nrf_delay_ms( 2 ); //startup time is 2ms
                                  isInit_ = true;
   1aee4:	4fd3      	ldr	r7, [pc, #844]	; (1b234 <TemperatureTmp117<(unsigned char)1>::read()+0x358>)
                    reg.PIN_CNF = it.INIT_CNF;
   1aee6:	f04f 42a0 	mov.w	r2, #1342177280	; 0x50000000
   1aeea:	2148      	movs	r1, #72	; 0x48
SA  frequency       (FREQ e)    { reg.FREQUENCY = e; }
   1aeec:	f04f 60c8 	mov.w	r0, #104857600	; 0x6400000
SA  address         (u8 v)      { reg.ADDRESS = v; } //0-127
   1aef0:	f8c3 1588 	str.w	r1, [r3, #1416]	; 0x588
                        reg.PSEL_SCL = e;
                        if( not on ) pinSclDisconnect();
                    } 

SA  pinSda          (PIN e, bool on = true) {
                        reg.PSEL_SDA = e;
   1aef4:	240d      	movs	r4, #13
SA  frequency       (FREQ e)    { reg.FREQUENCY = e; }
   1aef6:	f8c3 0524 	str.w	r0, [r3, #1316]	; 0x524
SA  init        (Ts... ts)  { initT it{2}; init_(it, ts...); }
   1aefa:	f240 610c 	movw	r1, #1548	; 0x60c
                        reg.PSEL_SCL = e;
   1aefe:	200f      	movs	r0, #15
                    reg.PIN_CNF = it.INIT_CNF;
   1af00:	f8c2 1734 	str.w	r1, [r2, #1844]	; 0x734
   1af04:	f8c2 173c 	str.w	r1, [r2, #1852]	; 0x73c
                        reg.PSEL_SDA = e;
   1af08:	f8c3 450c 	str.w	r4, [r3, #1292]	; 0x50c
SA  low         ()          { reg.OUTCLR = bm_; } //register wide write
   1af0c:	f44f 3100 	mov.w	r1, #131072	; 0x20000
                        reg.PSEL_SCL = e;
   1af10:	f8c3 0508 	str.w	r0, [r3, #1288]	; 0x508
SA  enable          ()          { reg.ENABLE = 6; }
   1af14:	2406      	movs	r4, #6
SA  init        (Ts... ts)  { initT it{2}; init_(it, ts...); }
   1af16:	f240 2001 	movw	r0, #513	; 0x201
SA  low         ()          { reg.OUTCLR = bm_; } //register wide write
   1af1a:	f8c2 150c 	str.w	r1, [r2, #1292]	; 0x50c
   1af1e:	b085      	sub	sp, #20
                    reg.PIN_CNF = it.INIT_CNF;
   1af20:	f8c2 0744 	str.w	r0, [r2, #1860]	; 0x744
   1af24:	f046 0601 	orr.w	r6, r6, #1
SA  high        ()          { reg.OUTSET = bm_; } //register wide write
   1af28:	f8c2 1508 	str.w	r1, [r2, #1288]	; 0x508
    delay_cycles(cycles);
   1af2c:	f44f 407a 	mov.w	r0, #64000	; 0xfa00
   1af30:	f8c3 4500 	str.w	r4, [r3, #1280]	; 0x500
   1af34:	47b0      	blx	r6
   1af36:	f44f 407a 	mov.w	r0, #64000	; 0xfa00
   1af3a:	47b0      	blx	r6
   1af3c:	2301      	movs	r3, #1
   1af3e:	703b      	strb	r3, [r7, #0]
                                }
   1af40:	247d      	movs	r4, #125	; 0x7d
   1af42:	f44f 407a 	mov.w	r0, #64000	; 0xfa00
   1af46:	47b0      	blx	r6
   1af48:	3c01      	subs	r4, #1
   1af4a:	d1fa      	bne.n	1af42 <TemperatureTmp117<(unsigned char)1>::read()+0x66>
SA  address         (u8 v)      { reg.ADDRESS = v; } //0-127
   1af4c:	4cb7      	ldr	r4, [pc, #732]	; (1b22c <TemperatureTmp117<(unsigned char)1>::read()+0x350>)
   1af4e:	f10d 0908 	add.w	r9, sp, #8
   1af52:	f10d 080c 	add.w	r8, sp, #12
   1af56:	2514      	movs	r5, #20
   1af58:	f04f 0a48 	mov.w	sl, #72	; 0x48
                                  isInit_ = true;
   1af5c:	f04f 0b01 	mov.w	fp, #1
                    if( not isInit_ ) init();
   1af60:	783b      	ldrb	r3, [r7, #0]
   1af62:	2b00      	cmp	r3, #0
   1af64:	d06e      	beq.n	1b044 <TemperatureTmp117<(unsigned char)1>::read()+0x168>

//--------------------
//  events
//--------------------
SA  clearStopped    ()          { reg.EVENTS.STOPPED = 0; }
SA  clearError      ()          { reg.ERRORSRC = 7; reg.EVENTS.ERROR = 0; }
   1af66:	2300      	movs	r3, #0
                        reg.RXD.MAXCNT = len;
   1af68:	2002      	movs	r0, #2
SA  clearError      ()          { reg.ERRORSRC = 7; reg.EVENTS.ERROR = 0; }
   1af6a:	2107      	movs	r1, #7
SA  startRxStop     ()          { clearEvents(); shortsSetup(LASTRX_STOP); startRx(); }

//--------------------
//  shorts
//--------------------
SA  shortsSetup     (SHORTS e)  { reg.SHORTS = e; }
   1af6c:	f44f 5284 	mov.w	r2, #4224	; 0x1080
                    u8 tbuf[1] = { r }; //register
   1af70:	f88d b008 	strb.w	fp, [sp, #8]
                        reg.TXD.MAXCNT = len;
   1af74:	f8c4 b548 	str.w	fp, [r4, #1352]	; 0x548
                        reg.TXD.PTR = addr;
   1af78:	f8c4 9544 	str.w	r9, [r4, #1348]	; 0x544
                        reg.RXD.MAXCNT = len;
   1af7c:	f8c4 0538 	str.w	r0, [r4, #1336]	; 0x538
                        reg.RXD.PTR = addr;
   1af80:	f8c4 8534 	str.w	r8, [r4, #1332]	; 0x534
SA  clearError      ()          { reg.ERRORSRC = 7; reg.EVENTS.ERROR = 0; }
   1af84:	f8c4 14c4 	str.w	r1, [r4, #1220]	; 0x4c4
   1af88:	f8c4 3124 	str.w	r3, [r4, #292]	; 0x124
SA  clearStopped    ()          { reg.EVENTS.STOPPED = 0; }
   1af8c:	f8c4 3104 	str.w	r3, [r4, #260]	; 0x104
SA  clearSuspended  ()          { reg.EVENTS.SUSPENDED = 0; }
   1af90:	f8c4 3148 	str.w	r3, [r4, #328]	; 0x148
SA  clearRxStarted  ()          { reg.EVENTS.RXSTARTED = 0; }
   1af94:	f8c4 314c 	str.w	r3, [r4, #332]	; 0x14c
SA  clearTxStarted  ()          { reg.EVENTS.TXSTARTED = 0; }
   1af98:	f8c4 3150 	str.w	r3, [r4, #336]	; 0x150
SA  clearLastRx     ()          { reg.EVENTS.LASTRX = 0; }
   1af9c:	f8c4 315c 	str.w	r3, [r4, #348]	; 0x15c
SA  clearLastTx     ()          { reg.EVENTS.LASTTX = 0; }
   1afa0:	f8c4 3160 	str.w	r3, [r4, #352]	; 0x160
SA  shortsSetup     (SHORTS e)  { reg.SHORTS = e; }
   1afa4:	f8c4 2200 	str.w	r2, [r4, #512]	; 0x200
SA  startTx         ()          { reg.TASKS.STARTTX = 1; } 
   1afa8:	f8c4 b008 	str.w	fp, [r4, #8]
SA  startTxRxStop   ()          { clearEvents(); shortsSetup(LASTTX_STARTRX_STOP); startTx(); }
   1afac:	e003      	b.n	1afb6 <TemperatureTmp117<(unsigned char)1>::read()+0xda>
SA  isError         ()          { return reg.EVENTS.ERROR; }
   1afae:	f8d4 3124 	ldr.w	r3, [r4, #292]	; 0x124

//TODO - add timeouts so if something wrong we don't block forever

SA  waitForStop     () {
                        while( not isStopped() ){
                            if( isError() ){
   1afb2:	2b00      	cmp	r3, #0
   1afb4:	d13f      	bne.n	1b036 <TemperatureTmp117<(unsigned char)1>::read()+0x15a>
SA  isStopped       ()          { return reg.EVENTS.STOPPED; }
   1afb6:	f8d4 3104 	ldr.w	r3, [r4, #260]	; 0x104
                        while( not isStopped() ){
   1afba:	2b00      	cmp	r3, #0
   1afbc:	d0f7      	beq.n	1afae <TemperatureTmp117<(unsigned char)1>::read()+0xd2>
SA  txAmount        ()          { return reg.TXD.AMOUNT; }
   1afbe:	f8d4 354c 	ldr.w	r3, [r4, #1356]	; 0x54c
SA  writeRead       (const u8 (&txbuf)[NT], T (&rxbuf)[NR]) {  
                        txBufferSet( txbuf );
                        rxBufferSet( rxbuf );
                        startTxRxStop(); 
                        if( not waitForStop() ) return false;
                        if( (txAmount() == NT) and (rxAmount() == NR) ) return true;
   1afc2:	2b01      	cmp	r3, #1
   1afc4:	d068      	beq.n	1b098 <TemperatureTmp117<(unsigned char)1>::read()+0x1bc>
SA  disable         ()          { reg.ENABLE = 0; }
   1afc6:	2300      	movs	r3, #0
SA  clearError      ()          { reg.ERRORSRC = 7; reg.EVENTS.ERROR = 0; }
   1afc8:	2107      	movs	r1, #7
SA  enable          ()          { reg.ENABLE = 6; }
   1afca:	2206      	movs	r2, #6
SA  disable         ()          { reg.ENABLE = 0; }
   1afcc:	f8c4 3500 	str.w	r3, [r4, #1280]	; 0x500
SA  clearError      ()          { reg.ERRORSRC = 7; reg.EVENTS.ERROR = 0; }
   1afd0:	f8c4 14c4 	str.w	r1, [r4, #1220]	; 0x4c4
   1afd4:	f8c4 3124 	str.w	r3, [r4, #292]	; 0x124
SA  shortsSetup     (SHORTS e)  { reg.SHORTS = e; }
   1afd8:	f8c4 3200 	str.w	r3, [r4, #512]	; 0x200
SA  enable          ()          { reg.ENABLE = 6; }
   1afdc:	f8c4 2500 	str.w	r2, [r4, #1280]	; 0x500
   1afe0:	f44f 407a 	mov.w	r0, #64000	; 0xfa00
   1afe4:	47b0      	blx	r6
                        // while( i and not tmp117.oneShot1() ){ nrf_delay_ms(1); i--; }
                        // nrf_delay_ms(16); //~15.5ms for 1 conversion 
nrf_delay_ms(125);
                        //poll for data ready (up to 20ms)
                        i = 20; //20ms
                        while( i and not tmp117.isDataReady() ){ nrf_delay_ms(1); i--; }
   1afe6:	3d01      	subs	r5, #1
   1afe8:	d1ba      	bne.n	1af60 <TemperatureTmp117<(unsigned char)1>::read()+0x84>
SA  disable         ()          { reg.ENABLE = 0; }
   1afea:	4b90      	ldr	r3, [pc, #576]	; (1b22c <TemperatureTmp117<(unsigned char)1>::read()+0x350>)
                        bool ok = i and tmp117.tempRaw(t);
                        tmp117.deinit(); //turn off power to ic

                        DebugFuncHeader();
                        if( not i )      { Debug(FG RED "  timeout, ready bit not set\n" FG WHITE); return f; }
   1afec:	4c92      	ldr	r4, [pc, #584]	; (1b238 <TemperatureTmp117<(unsigned char)1>::read()+0x35c>)
   1afee:	f8c3 5500 	str.w	r5, [r3, #1280]	; 0x500
SA  low         ()          { reg.OUTCLR = bm_; } //register wide write
   1aff2:	f04f 43a0 	mov.w	r3, #1342177280	; 0x50000000
                    reg.PIN_CNF = it.INIT_CNF;
   1aff6:	2202      	movs	r2, #2
SA  low         ()          { reg.OUTCLR = bm_; } //register wide write
   1aff8:	f44f 3100 	mov.w	r1, #131072	; 0x20000
   1affc:	f8c3 150c 	str.w	r1, [r3, #1292]	; 0x50c
                    reg.PIN_CNF = it.INIT_CNF;
   1b000:	f8c3 2734 	str.w	r2, [r3, #1844]	; 0x734
   1b004:	f8c3 273c 	str.w	r2, [r3, #1852]	; 0x73c

SA  deinit      ()              { twi_.deinit(); isInit_ = false; }
   1b008:	703d      	strb	r5, [r7, #0]
                        DebugFuncHeader();
   1b00a:	f7fe fbf5 	bl	197f8 <app_timer_cnt_get>
   1b00e:	f3c0 030d 	ubfx	r3, r0, #0, #14
   1b012:	4a8a      	ldr	r2, [pc, #552]	; (1b23c <TemperatureTmp117<(unsigned char)1>::read()+0x360>)
   1b014:	9200      	str	r2, [sp, #0]
   1b016:	ebc3 1103 	rsb	r1, r3, r3, lsl #4
   1b01a:	eb03 0181 	add.w	r1, r3, r1, lsl #2
   1b01e:	4a88      	ldr	r2, [pc, #544]	; (1b240 <TemperatureTmp117<(unsigned char)1>::read()+0x364>)
   1b020:	0b80      	lsrs	r0, r0, #14
   1b022:	237b      	movs	r3, #123	; 0x7b
   1b024:	f7ff f922 	bl	1a26c <int Print<DevRtt<0>, unsigned long, unsigned long, char const*, int, char const*>(DevRtt<0>, char const*, unsigned long, unsigned long, char const*, int, char const*) [clone .isra.0] [clone .constprop.0]>
                        if( not i )      { Debug(FG RED "  timeout, ready bit not set\n" FG WHITE); return f; }
   1b028:	4886      	ldr	r0, [pc, #536]	; (1b244 <TemperatureTmp117<(unsigned char)1>::read()+0x368>)
   1b02a:	f7ff f855 	bl	1a0d8 <int Print<DevRtt<0>>(DevRtt<0>, char const*) [clone .isra.0]>

                        f = tmp117.x10F( t );
                        f = tempH.addHistory( f );
                        Debug("  Tmp117 raw: %d  F: %02d.%d\n", t, f/10, f%10);
                        return f;
                    }
   1b02e:	4620      	mov	r0, r4
   1b030:	b005      	add	sp, #20
   1b032:	e8bd 8ff0 	ldmia.w	sp!, {r4, r5, r6, r7, r8, r9, sl, fp, pc}
SA  stop            ()          { reg.TASKS.STOP = 1; } //cannot stop while suspended
   1b036:	f8c4 b014 	str.w	fp, [r4, #20]
SA  isStopped       ()          { return reg.EVENTS.STOPPED; }
   1b03a:	f8d4 3104 	ldr.w	r3, [r4, #260]	; 0x104
                                while( not isStopped() ){}
   1b03e:	2b00      	cmp	r3, #0
   1b040:	d0fb      	beq.n	1b03a <TemperatureTmp117<(unsigned char)1>::read()+0x15e>
   1b042:	e7cd      	b.n	1afe0 <TemperatureTmp117<(unsigned char)1>::read()+0x104>
   1b044:	f04f 43a0 	mov.w	r3, #1342177280	; 0x50000000
SA  frequency       (FREQ e)    { reg.FREQUENCY = e; }
   1b048:	f04f 61c8 	mov.w	r1, #104857600	; 0x6400000
SA  address         (u8 v)      { reg.ADDRESS = v; } //0-127
   1b04c:	f8c4 a588 	str.w	sl, [r4, #1416]	; 0x588
SA  init        (Ts... ts)  { initT it{2}; init_(it, ts...); }
   1b050:	f240 620c 	movw	r2, #1548	; 0x60c
SA  frequency       (FREQ e)    { reg.FREQUENCY = e; }
   1b054:	f8c4 1524 	str.w	r1, [r4, #1316]	; 0x524
                        reg.PSEL_SDA = e;
   1b058:	200d      	movs	r0, #13
                        reg.PSEL_SCL = e;
   1b05a:	210f      	movs	r1, #15
                    reg.PIN_CNF = it.INIT_CNF;
   1b05c:	f8c3 2734 	str.w	r2, [r3, #1844]	; 0x734
   1b060:	f8c3 273c 	str.w	r2, [r3, #1852]	; 0x73c
                        reg.PSEL_SDA = e;
   1b064:	f8c4 050c 	str.w	r0, [r4, #1292]	; 0x50c
SA  low         ()          { reg.OUTCLR = bm_; } //register wide write
   1b068:	f44f 3200 	mov.w	r2, #131072	; 0x20000
                        reg.PSEL_SCL = e;
   1b06c:	f8c4 1508 	str.w	r1, [r4, #1288]	; 0x508
SA  init        (Ts... ts)  { initT it{2}; init_(it, ts...); }
   1b070:	f240 2001 	movw	r0, #513	; 0x201
SA  enable          ()          { reg.ENABLE = 6; }
   1b074:	2106      	movs	r1, #6
SA  low         ()          { reg.OUTCLR = bm_; } //register wide write
   1b076:	f8c3 250c 	str.w	r2, [r3, #1292]	; 0x50c
                    reg.PIN_CNF = it.INIT_CNF;
   1b07a:	f8c3 0744 	str.w	r0, [r3, #1860]	; 0x744
SA  high        ()          { reg.OUTSET = bm_; } //register wide write
   1b07e:	f8c3 2508 	str.w	r2, [r3, #1288]	; 0x508
   1b082:	f44f 407a 	mov.w	r0, #64000	; 0xfa00
   1b086:	f8c4 1500 	str.w	r1, [r4, #1280]	; 0x500
   1b08a:	47b0      	blx	r6
   1b08c:	f44f 407a 	mov.w	r0, #64000	; 0xfa00
   1b090:	47b0      	blx	r6
                                  isInit_ = true;
   1b092:	f887 b000 	strb.w	fp, [r7]
                                }
   1b096:	e766      	b.n	1af66 <TemperatureTmp117<(unsigned char)1>::read()+0x8a>
SA  rxAmount        ()          { return reg.RXD.AMOUNT; }
   1b098:	f8d4 153c 	ldr.w	r1, [r4, #1340]	; 0x53c
                        if( (txAmount() == NT) and (rxAmount() == NR) ) return true;
   1b09c:	2902      	cmp	r1, #2
   1b09e:	d192      	bne.n	1afc6 <TemperatureTmp117<(unsigned char)1>::read()+0xea>
                        v = (rbuf[0]<<8) bitor rbuf[1];
   1b0a0:	f89d 200c 	ldrb.w	r2, [sp, #12]
                        while( i and not tmp117.isDataReady() ){ nrf_delay_ms(1); i--; }
   1b0a4:	0692      	lsls	r2, r2, #26
   1b0a6:	d59b      	bpl.n	1afe0 <TemperatureTmp117<(unsigned char)1>::read()+0x104>
                    u8 tbuf[1] = { r }; //register
   1b0a8:	2000      	movs	r0, #0
SA  clearError      ()          { reg.ERRORSRC = 7; reg.EVENTS.ERROR = 0; }
   1b0aa:	2607      	movs	r6, #7
SA  shortsSetup     (SHORTS e)  { reg.SHORTS = e; }
   1b0ac:	f44f 5584 	mov.w	r5, #4224	; 0x1080
   1b0b0:	f88d 0008 	strb.w	r0, [sp, #8]
SA  isStopped       ()          { return reg.EVENTS.STOPPED; }
   1b0b4:	4a5d      	ldr	r2, [pc, #372]	; (1b22c <TemperatureTmp117<(unsigned char)1>::read()+0x350>)
                        reg.TXD.MAXCNT = len;
   1b0b6:	f8c4 3548 	str.w	r3, [r4, #1352]	; 0x548
                        reg.TXD.PTR = addr;
   1b0ba:	f8c4 9544 	str.w	r9, [r4, #1348]	; 0x544
                        reg.RXD.MAXCNT = len;
   1b0be:	f8c4 1538 	str.w	r1, [r4, #1336]	; 0x538
                        reg.RXD.PTR = addr;
   1b0c2:	f8c4 8534 	str.w	r8, [r4, #1332]	; 0x534
SA  clearError      ()          { reg.ERRORSRC = 7; reg.EVENTS.ERROR = 0; }
   1b0c6:	f8c4 64c4 	str.w	r6, [r4, #1220]	; 0x4c4
   1b0ca:	f8c4 0124 	str.w	r0, [r4, #292]	; 0x124
SA  clearStopped    ()          { reg.EVENTS.STOPPED = 0; }
   1b0ce:	f8c4 0104 	str.w	r0, [r4, #260]	; 0x104
SA  clearSuspended  ()          { reg.EVENTS.SUSPENDED = 0; }
   1b0d2:	f8c4 0148 	str.w	r0, [r4, #328]	; 0x148
SA  clearRxStarted  ()          { reg.EVENTS.RXSTARTED = 0; }
   1b0d6:	f8c4 014c 	str.w	r0, [r4, #332]	; 0x14c
SA  clearTxStarted  ()          { reg.EVENTS.TXSTARTED = 0; }
   1b0da:	f8c4 0150 	str.w	r0, [r4, #336]	; 0x150
SA  clearLastRx     ()          { reg.EVENTS.LASTRX = 0; }
   1b0de:	f8c4 015c 	str.w	r0, [r4, #348]	; 0x15c
SA  clearLastTx     ()          { reg.EVENTS.LASTTX = 0; }
   1b0e2:	f8c4 0160 	str.w	r0, [r4, #352]	; 0x160
SA  shortsSetup     (SHORTS e)  { reg.SHORTS = e; }
   1b0e6:	f8c4 5200 	str.w	r5, [r4, #512]	; 0x200
SA  startTx         ()          { reg.TASKS.STARTTX = 1; } 
   1b0ea:	60a3      	str	r3, [r4, #8]
SA  startTxRxStop   ()          { clearEvents(); shortsSetup(LASTTX_STARTRX_STOP); startTx(); }
   1b0ec:	e004      	b.n	1b0f8 <TemperatureTmp117<(unsigned char)1>::read()+0x21c>
SA  isError         ()          { return reg.EVENTS.ERROR; }
   1b0ee:	f8d2 3124 	ldr.w	r3, [r2, #292]	; 0x124
                            if( isError() ){
   1b0f2:	2b00      	cmp	r3, #0
   1b0f4:	f040 80b4 	bne.w	1b260 <TemperatureTmp117<(unsigned char)1>::read()+0x384>
SA  isStopped       ()          { return reg.EVENTS.STOPPED; }
   1b0f8:	f8d2 3104 	ldr.w	r3, [r2, #260]	; 0x104
                        while( not isStopped() ){
   1b0fc:	2b00      	cmp	r3, #0
   1b0fe:	d0f6      	beq.n	1b0ee <TemperatureTmp117<(unsigned char)1>::read()+0x212>
SA  txAmount        ()          { return reg.TXD.AMOUNT; }
   1b100:	f8d2 654c 	ldr.w	r6, [r2, #1356]	; 0x54c
                        if( (txAmount() == NT) and (rxAmount() == NR) ) return true;
   1b104:	2e01      	cmp	r6, #1
   1b106:	d034      	beq.n	1b172 <TemperatureTmp117<(unsigned char)1>::read()+0x296>
SA  disable         ()          { reg.ENABLE = 0; }
   1b108:	4b48      	ldr	r3, [pc, #288]	; (1b22c <TemperatureTmp117<(unsigned char)1>::read()+0x350>)
   1b10a:	2200      	movs	r2, #0
SA  clearError      ()          { reg.ERRORSRC = 7; reg.EVENTS.ERROR = 0; }
   1b10c:	2007      	movs	r0, #7
SA  enable          ()          { reg.ENABLE = 6; }
   1b10e:	2106      	movs	r1, #6
SA  disable         ()          { reg.ENABLE = 0; }
   1b110:	f8c3 2500 	str.w	r2, [r3, #1280]	; 0x500
SA  clearError      ()          { reg.ERRORSRC = 7; reg.EVENTS.ERROR = 0; }
   1b114:	f8c3 04c4 	str.w	r0, [r3, #1220]	; 0x4c4
   1b118:	f8c3 2124 	str.w	r2, [r3, #292]	; 0x124
SA  shortsSetup     (SHORTS e)  { reg.SHORTS = e; }
   1b11c:	f8c3 2200 	str.w	r2, [r3, #512]	; 0x200
SA  enable          ()          { reg.ENABLE = 6; }
   1b120:	f8c3 1500 	str.w	r1, [r3, #1280]	; 0x500
SA  disable         ()          { reg.ENABLE = 0; }
   1b124:	4941      	ldr	r1, [pc, #260]	; (1b22c <TemperatureTmp117<(unsigned char)1>::read()+0x350>)
                        if( not ok )     { Debug(FG RED "  failed to read temp value\n" FG WHITE); return f; }
   1b126:	4c44      	ldr	r4, [pc, #272]	; (1b238 <TemperatureTmp117<(unsigned char)1>::read()+0x35c>)
SA  low         ()          { reg.OUTCLR = bm_; } //register wide write
   1b128:	f04f 43a0 	mov.w	r3, #1342177280	; 0x50000000
   1b12c:	2200      	movs	r2, #0
   1b12e:	f8c1 2500 	str.w	r2, [r1, #1280]	; 0x500
   1b132:	f44f 3000 	mov.w	r0, #131072	; 0x20000
                    reg.PIN_CNF = it.INIT_CNF;
   1b136:	2102      	movs	r1, #2
SA  low         ()          { reg.OUTCLR = bm_; } //register wide write
   1b138:	f8c3 050c 	str.w	r0, [r3, #1292]	; 0x50c
                    reg.PIN_CNF = it.INIT_CNF;
   1b13c:	f8c3 1734 	str.w	r1, [r3, #1844]	; 0x734
   1b140:	f8c3 173c 	str.w	r1, [r3, #1852]	; 0x73c
SA  deinit      ()              { twi_.deinit(); isInit_ = false; }
   1b144:	703a      	strb	r2, [r7, #0]
                        DebugFuncHeader();
   1b146:	f7fe fb57 	bl	197f8 <app_timer_cnt_get>
   1b14a:	f3c0 030d 	ubfx	r3, r0, #0, #14
   1b14e:	4a3b      	ldr	r2, [pc, #236]	; (1b23c <TemperatureTmp117<(unsigned char)1>::read()+0x360>)
   1b150:	9200      	str	r2, [sp, #0]
   1b152:	ebc3 1103 	rsb	r1, r3, r3, lsl #4
   1b156:	eb03 0181 	add.w	r1, r3, r1, lsl #2
   1b15a:	4a39      	ldr	r2, [pc, #228]	; (1b240 <TemperatureTmp117<(unsigned char)1>::read()+0x364>)
   1b15c:	237b      	movs	r3, #123	; 0x7b
   1b15e:	0b80      	lsrs	r0, r0, #14
   1b160:	f7ff f884 	bl	1a26c <int Print<DevRtt<0>, unsigned long, unsigned long, char const*, int, char const*>(DevRtt<0>, char const*, unsigned long, unsigned long, char const*, int, char const*) [clone .isra.0] [clone .constprop.0]>
                        if( not ok )     { Debug(FG RED "  failed to read temp value\n" FG WHITE); return f; }
   1b164:	4838      	ldr	r0, [pc, #224]	; (1b248 <TemperatureTmp117<(unsigned char)1>::read()+0x36c>)
   1b166:	f7fe ffb7 	bl	1a0d8 <int Print<DevRtt<0>>(DevRtt<0>, char const*) [clone .isra.0]>
                    }
   1b16a:	4620      	mov	r0, r4
   1b16c:	b005      	add	sp, #20
   1b16e:	e8bd 8ff0 	ldmia.w	sp!, {r4, r5, r6, r7, r8, r9, sl, fp, pc}
SA  rxAmount        ()          { return reg.RXD.AMOUNT; }
   1b172:	f8d2 053c 	ldr.w	r0, [r2, #1340]	; 0x53c
                        if( (txAmount() == NT) and (rxAmount() == NR) ) return true;
   1b176:	2802      	cmp	r0, #2
   1b178:	d1c6      	bne.n	1b108 <TemperatureTmp117<(unsigned char)1>::read()+0x22c>
                        v = (rbuf[0]<<8) bitor rbuf[1];
   1b17a:	f89d 400c 	ldrb.w	r4, [sp, #12]
   1b17e:	f89d 500d 	ldrb.w	r5, [sp, #13]
SA  low         ()          { reg.OUTCLR = bm_; } //register wide write
   1b182:	f04f 43a0 	mov.w	r3, #1342177280	; 0x50000000
SA  disable         ()          { reg.ENABLE = 0; }
   1b186:	2100      	movs	r1, #0
   1b188:	ea45 2504 	orr.w	r5, r5, r4, lsl #8
   1b18c:	f44f 3400 	mov.w	r4, #131072	; 0x20000
   1b190:	f8c2 1500 	str.w	r1, [r2, #1280]	; 0x500
   1b194:	f8c3 450c 	str.w	r4, [r3, #1292]	; 0x50c
                    reg.PIN_CNF = it.INIT_CNF;
   1b198:	f8c3 0734 	str.w	r0, [r3, #1844]	; 0x734
   1b19c:	f8c3 073c 	str.w	r0, [r3, #1852]	; 0x73c
SA  deinit      ()              { twi_.deinit(); isInit_ = false; }
   1b1a0:	7039      	strb	r1, [r7, #0]
                        DebugFuncHeader();
   1b1a2:	f7fe fb29 	bl	197f8 <app_timer_cnt_get>
   1b1a6:	f3c0 030d 	ubfx	r3, r0, #0, #14
   1b1aa:	4a24      	ldr	r2, [pc, #144]	; (1b23c <TemperatureTmp117<(unsigned char)1>::read()+0x360>)
   1b1ac:	9200      	str	r2, [sp, #0]
   1b1ae:	ebc3 1103 	rsb	r1, r3, r3, lsl #4
   1b1b2:	eb03 0181 	add.w	r1, r3, r1, lsl #2
   1b1b6:	4a22      	ldr	r2, [pc, #136]	; (1b240 <TemperatureTmp117<(unsigned char)1>::read()+0x364>)
                        v = (rbuf[0]<<8) bitor rbuf[1];
   1b1b8:	b22d      	sxth	r5, r5
   1b1ba:	0b80      	lsrs	r0, r0, #14
   1b1bc:	237b      	movs	r3, #123	; 0x7b
   1b1be:	f7ff f855 	bl	1a26c <int Print<DevRtt<0>, unsigned long, unsigned long, char const*, int, char const*>(DevRtt<0>, char const*, unsigned long, unsigned long, char const*, int, char const*) [clone .isra.0] [clone .constprop.0]>
                        if( t == -32768 ){ Debug("  returned default temp value\n"); return f; }
   1b1c2:	f515 4f00 	cmn.w	r5, #32768	; 0x8000
   1b1c6:	d053      	beq.n	1b270 <TemperatureTmp117<(unsigned char)1>::read()+0x394>
                        if( not isInit ){ //first time, populate all with same value
   1b1c8:	4b20      	ldr	r3, [pc, #128]	; (1b24c <TemperatureTmp117<(unsigned char)1>::read()+0x370>)
    x10 = 5/64 = .078125, x100 = 25/32 = 0.78125, x1000 = 125/16 = 7.8125

    normal mul/div- x100C -> v*78125/100000, x100F -> v*140625/100000 + 3200
    */

SA  x10F    (i16 v) -> i16      { return ((v * 9L)>>6) + 320; }
   1b1ca:	eb05 04c5 	add.w	r4, r5, r5, lsl #3
   1b1ce:	11a4      	asrs	r4, r4, #6
   1b1d0:	781a      	ldrb	r2, [r3, #0]
   1b1d2:	f504 74a0 	add.w	r4, r4, #320	; 0x140
   1b1d6:	b224      	sxth	r4, r4
   1b1d8:	b902      	cbnz	r2, 1b1dc <TemperatureTmp117<(unsigned char)1>::read()+0x300>
                            isInit = true;
   1b1da:	701e      	strb	r6, [r3, #0]
                        tempHistory_[idx++] = v;
   1b1dc:	4a1c      	ldr	r2, [pc, #112]	; (1b250 <TemperatureTmp117<(unsigned char)1>::read()+0x374>)
   1b1de:	4b1d      	ldr	r3, [pc, #116]	; (1b254 <TemperatureTmp117<(unsigned char)1>::read()+0x378>)
   1b1e0:	7811      	ldrb	r1, [r2, #0]
   1b1e2:	481d      	ldr	r0, [pc, #116]	; (1b258 <TemperatureTmp117<(unsigned char)1>::read()+0x37c>)
   1b1e4:	f5b4 6fe1 	cmp.w	r4, #1800	; 0x708
   1b1e8:	bfa8      	it	ge
   1b1ea:	f44f 64e1 	movge.w	r4, #1800	; 0x708
   1b1ee:	429c      	cmp	r4, r3
   1b1f0:	bfb8      	it	lt
   1b1f2:	461c      	movlt	r4, r3
   1b1f4:	1c4b      	adds	r3, r1, #1
   1b1f6:	b2db      	uxtb	r3, r3
   1b1f8:	f820 4011 	strh.w	r4, [r0, r1, lsl #1]
   1b1fc:	7013      	strb	r3, [r2, #0]
                        if( idx >= HistSiz_ ) idx = 0;
   1b1fe:	b10b      	cbz	r3, 1b204 <TemperatureTmp117<(unsigned char)1>::read()+0x328>
   1b200:	2300      	movs	r3, #0
   1b202:	7013      	strb	r3, [r2, #0]
                        Debug("  Tmp117 raw: %d  F: %02d.%d\n", t, f/10, f%10);
   1b204:	4b15      	ldr	r3, [pc, #84]	; (1b25c <TemperatureTmp117<(unsigned char)1>::read()+0x380>)
   1b206:	17e1      	asrs	r1, r4, #31
   1b208:	fb83 2304 	smull	r2, r3, r3, r4
   1b20c:	ebc1 01a3 	rsb	r1, r1, r3, asr #2
   1b210:	eb01 0281 	add.w	r2, r1, r1, lsl #2
   1b214:	eba4 0242 	sub.w	r2, r4, r2, lsl #1
   1b218:	4628      	mov	r0, r5
   1b21a:	b212      	sxth	r2, r2
   1b21c:	b209      	sxth	r1, r1
   1b21e:	f7fe ffdd 	bl	1a1dc <int Print<DevRtt<0>, short, int, int>(DevRtt<0>, char const*, short, int, int) [clone .isra.0] [clone .constprop.0]>
                    }
   1b222:	4620      	mov	r0, r4
   1b224:	b005      	add	sp, #20
   1b226:	e8bd 8ff0 	ldmia.w	sp!, {r4, r5, r6, r7, r8, r9, sl, fp, pc}
   1b22a:	bf00      	nop
   1b22c:	40003000 	.word	0x40003000
   1b230:	0001ef50 	.word	0x0001ef50
   1b234:	20001a15 	.word	0x20001a15
   1b238:	fffffc19 	.word	0xfffffc19
   1b23c:	0001ece0 	.word	0x0001ece0
   1b240:	0001eccc 	.word	0x0001eccc
   1b244:	0001ed48 	.word	0x0001ed48
   1b248:	0001ece8 	.word	0x0001ece8
   1b24c:	200019a7 	.word	0x200019a7
   1b250:	200019a6 	.word	0x200019a6
   1b254:	fffffe70 	.word	0xfffffe70
   1b258:	200019a4 	.word	0x200019a4
   1b25c:	66666667 	.word	0x66666667
SA  stop            ()          { reg.TASKS.STOP = 1; } //cannot stop while suspended
   1b260:	2301      	movs	r3, #1
SA  isStopped       ()          { return reg.EVENTS.STOPPED; }
   1b262:	4906      	ldr	r1, [pc, #24]	; (1b27c <TemperatureTmp117<(unsigned char)1>::read()+0x3a0>)
SA  stop            ()          { reg.TASKS.STOP = 1; } //cannot stop while suspended
   1b264:	6153      	str	r3, [r2, #20]
SA  isStopped       ()          { return reg.EVENTS.STOPPED; }
   1b266:	f8d1 3104 	ldr.w	r3, [r1, #260]	; 0x104
                                while( not isStopped() ){}
   1b26a:	2b00      	cmp	r3, #0
   1b26c:	d0fb      	beq.n	1b266 <TemperatureTmp117<(unsigned char)1>::read()+0x38a>
   1b26e:	e759      	b.n	1b124 <TemperatureTmp117<(unsigned char)1>::read()+0x248>
                        if( t == -32768 ){ Debug("  returned default temp value\n"); return f; }
   1b270:	4803      	ldr	r0, [pc, #12]	; (1b280 <TemperatureTmp117<(unsigned char)1>::read()+0x3a4>)
   1b272:	4c04      	ldr	r4, [pc, #16]	; (1b284 <TemperatureTmp117<(unsigned char)1>::read()+0x3a8>)
   1b274:	f7fe ff30 	bl	1a0d8 <int Print<DevRtt<0>>(DevRtt<0>, char const*) [clone .isra.0]>
   1b278:	e6d9      	b.n	1b02e <TemperatureTmp117<(unsigned char)1>::read()+0x152>
   1b27a:	bf00      	nop
   1b27c:	40003000 	.word	0x40003000
   1b280:	0001ed28 	.word	0x0001ed28
   1b284:	fffffc19 	.word	0xfffffc19

0001b288 <{lambda(void*)#1}::_FUN(void*)>:
// checking all temperature sources to compare
// run every 20 seconds, each function Debug will show info
#if defined(NRF52810_BL651_TEMP) && 1
Timer timerTestTemp{
    20_sec, 
    [](void*){ 
   1b288:	e92d 4ff0 	stmdb	sp!, {r4, r5, r6, r7, r8, r9, sl, fp, lr}
   1b28c:	b085      	sub	sp, #20
                        if( sd_temp_get(&t) ) return f;
   1b28e:	ad03      	add	r5, sp, #12
   1b290:	4628      	mov	r0, r5
   1b292:	f7fe fef7 	bl	1a084 <sd_temp_get>
   1b296:	2800      	cmp	r0, #0
   1b298:	d143      	bne.n	1b322 <{lambda(void*)#1}::_FUN(void*)+0x9a>
                        f = (t*10*9/5+320*4)/4; // Fx10
   1b29a:	9b03      	ldr	r3, [sp, #12]
   1b29c:	eb03 03c3 	add.w	r3, r3, r3, lsl #3
   1b2a0:	005b      	lsls	r3, r3, #1
   1b2a2:	f513 64a0 	adds.w	r4, r3, #1280	; 0x500
   1b2a6:	bf48      	it	mi
   1b2a8:	f203 5403 	addwmi	r4, r3, #1283	; 0x503
                        if( not isInit ){ //first time, populate all with same value
   1b2ac:	4b9f      	ldr	r3, [pc, #636]	; (1b52c <{lambda(void*)#1}::_FUN(void*)+0x2a4>)
   1b2ae:	781a      	ldrb	r2, [r3, #0]
                        f = (t*10*9/5+320*4)/4; // Fx10
   1b2b0:	f344 048f 	sbfx	r4, r4, #2, #16
                        if( not isInit ){ //first time, populate all with same value
   1b2b4:	b90a      	cbnz	r2, 1b2ba <{lambda(void*)#1}::_FUN(void*)+0x32>
                            isInit = true;
   1b2b6:	2201      	movs	r2, #1
   1b2b8:	701a      	strb	r2, [r3, #0]
                        tempHistory_[idx++] = v;
   1b2ba:	499d      	ldr	r1, [pc, #628]	; (1b530 <{lambda(void*)#1}::_FUN(void*)+0x2a8>)
   1b2bc:	4a9d      	ldr	r2, [pc, #628]	; (1b534 <{lambda(void*)#1}::_FUN(void*)+0x2ac>)
   1b2be:	7808      	ldrb	r0, [r1, #0]
   1b2c0:	4e9d      	ldr	r6, [pc, #628]	; (1b538 <{lambda(void*)#1}::_FUN(void*)+0x2b0>)
   1b2c2:	f5b4 6fe1 	cmp.w	r4, #1800	; 0x708
   1b2c6:	bfa8      	it	ge
   1b2c8:	f44f 64e1 	movge.w	r4, #1800	; 0x708
   1b2cc:	b224      	sxth	r4, r4
   1b2ce:	4294      	cmp	r4, r2
   1b2d0:	f100 0301 	add.w	r3, r0, #1
   1b2d4:	bfb8      	it	lt
   1b2d6:	4614      	movlt	r4, r2
   1b2d8:	b2db      	uxtb	r3, r3
   1b2da:	f826 4010 	strh.w	r4, [r6, r0, lsl #1]
   1b2de:	700b      	strb	r3, [r1, #0]
                        if( idx >= HistSiz_ ) idx = 0;
   1b2e0:	2b00      	cmp	r3, #0
   1b2e2:	f040 80b2 	bne.w	1b44a <{lambda(void*)#1}::_FUN(void*)+0x1c2>
                        DebugFuncHeader();
   1b2e6:	f7fe fa87 	bl	197f8 <app_timer_cnt_get>
   1b2ea:	f3c0 030d 	ubfx	r3, r0, #0, #14
   1b2ee:	4a93      	ldr	r2, [pc, #588]	; (1b53c <{lambda(void*)#1}::_FUN(void*)+0x2b4>)
   1b2f0:	9200      	str	r2, [sp, #0]
   1b2f2:	ebc3 1103 	rsb	r1, r3, r3, lsl #4
   1b2f6:	4a92      	ldr	r2, [pc, #584]	; (1b540 <{lambda(void*)#1}::_FUN(void*)+0x2b8>)
   1b2f8:	eb03 0181 	add.w	r1, r3, r1, lsl #2
   1b2fc:	0b80      	lsrs	r0, r0, #14
   1b2fe:	234f      	movs	r3, #79	; 0x4f
   1b300:	f7fe ffb4 	bl	1a26c <int Print<DevRtt<0>, unsigned long, unsigned long, char const*, int, char const*>(DevRtt<0>, char const*, unsigned long, unsigned long, char const*, int, char const*) [clone .isra.0] [clone .constprop.0]>
                        Debug("  internal raw: %d  F: %02d.%d\n", t, f/10, f%10);
   1b304:	4b8f      	ldr	r3, [pc, #572]	; (1b544 <{lambda(void*)#1}::_FUN(void*)+0x2bc>)
   1b306:	9803      	ldr	r0, [sp, #12]
   1b308:	fb83 2304 	smull	r2, r3, r3, r4
   1b30c:	17e1      	asrs	r1, r4, #31
   1b30e:	ebc1 01a3 	rsb	r1, r1, r3, asr #2
   1b312:	eb01 0281 	add.w	r2, r1, r1, lsl #2
   1b316:	eba4 0242 	sub.w	r2, r4, r2, lsl #1
   1b31a:	b212      	sxth	r2, r2
   1b31c:	b209      	sxth	r1, r1
   1b31e:	f7fe ff2f 	bl	1a180 <int Print<DevRtt<0>, long, int, int>(DevRtt<0>, char const*, long, int, int) [clone .isra.0] [clone .constprop.0]>
        TemperatureInternal<1>::read();
        TemperatureTmp117<1>::read();
   1b322:	f7ff fddb 	bl	1aedc <TemperatureTmp117<(unsigned char)1>::read()>
SA  address         (u8 v)      { reg.ADDRESS = v; } //0-127
   1b326:	4e88      	ldr	r6, [pc, #544]	; (1b548 <{lambda(void*)#1}::_FUN(void*)+0x2c0>)
        (delay_func_t)((((uint32_t)delay_machine_code) | 1));
   1b328:	4c88      	ldr	r4, [pc, #544]	; (1b54c <{lambda(void*)#1}::_FUN(void*)+0x2c4>)
SA  init        ()              { 
                                twi_.init( Addr_, twi_.K400 );
                                //startup time 18-25ms, max 80ms
                                //let caller deal with startup time
                                nrf_delay_ms(2); //but will give time for power to come up
                                isInit_ = true;
   1b32a:	4f89      	ldr	r7, [pc, #548]	; (1b550 <{lambda(void*)#1}::_FUN(void*)+0x2c8>)
   1b32c:	f04f 43a0 	mov.w	r3, #1342177280	; 0x50000000
SA  init        (Ts... ts)  { initT it{2}; init_(it, ts...); }
   1b330:	f240 610c 	movw	r1, #1548	; 0x60c
   1b334:	2040      	movs	r0, #64	; 0x40
SA  frequency       (FREQ e)    { reg.FREQUENCY = e; }
   1b336:	f04f 62c8 	mov.w	r2, #104857600	; 0x6400000
SA  address         (u8 v)      { reg.ADDRESS = v; } //0-127
   1b33a:	f8c6 0588 	str.w	r0, [r6, #1416]	; 0x588
                        reg.PSEL_SDA = e;
   1b33e:	f04f 0e0d 	mov.w	lr, #13
SA  frequency       (FREQ e)    { reg.FREQUENCY = e; }
   1b342:	f8c6 2524 	str.w	r2, [r6, #1316]	; 0x524
                        reg.PSEL_SCL = e;
   1b346:	f04f 0c0f 	mov.w	ip, #15
                    reg.PIN_CNF = it.INIT_CNF;
   1b34a:	f8c3 1734 	str.w	r1, [r3, #1844]	; 0x734
SA  low         ()          { reg.OUTCLR = bm_; } //register wide write
   1b34e:	f44f 3200 	mov.w	r2, #131072	; 0x20000
                    reg.PIN_CNF = it.INIT_CNF;
   1b352:	f8c3 173c 	str.w	r1, [r3, #1852]	; 0x73c
SA  init        (Ts... ts)  { initT it{2}; init_(it, ts...); }
   1b356:	f240 2001 	movw	r0, #513	; 0x201
SA  enable          ()          { reg.ENABLE = 6; }
   1b35a:	2106      	movs	r1, #6
                        reg.PSEL_SDA = e;
   1b35c:	f8c6 e50c 	str.w	lr, [r6, #1292]	; 0x50c
   1b360:	f044 0401 	orr.w	r4, r4, #1
                        reg.PSEL_SCL = e;
   1b364:	f8c6 c508 	str.w	ip, [r6, #1288]	; 0x508
SA  low         ()          { reg.OUTCLR = bm_; } //register wide write
   1b368:	f8c3 250c 	str.w	r2, [r3, #1292]	; 0x50c
                    reg.PIN_CNF = it.INIT_CNF;
   1b36c:	f8c3 0744 	str.w	r0, [r3, #1860]	; 0x744
SA  high        ()          { reg.OUTSET = bm_; } //register wide write
   1b370:	f8c3 2508 	str.w	r2, [r3, #1288]	; 0x508
    delay_cycles(cycles);
   1b374:	f44f 407a 	mov.w	r0, #64000	; 0xfa00
SA  enable          ()          { reg.ENABLE = 6; }
   1b378:	f8c6 1500 	str.w	r1, [r6, #1280]	; 0x500
   1b37c:	47a0      	blx	r4
   1b37e:	f44f 407a 	mov.w	r0, #64000	; 0xfa00
   1b382:	47a0      	blx	r4
   1b384:	2301      	movs	r3, #1
                        reg.TXD.MAXCNT = len;
   1b386:	4699      	mov	r9, r3
   1b388:	703b      	strb	r3, [r7, #0]
   1b38a:	4698      	mov	r8, r3
   1b38c:	f10d 0a08 	add.w	sl, sp, #8
   1b390:	f04f 0b5f 	mov.w	fp, #95	; 0x5f
                                return v bitand 0x40; 
                                }

                                //blocking on clock stretch, up to 10.8ms
SA  tempWait    (u16& v)        { 
                                u8 tbuf[1]{ MEASURE_HOLD }; u8 rbuf[2]; 
   1b394:	22e3      	movs	r2, #227	; 0xe3
   1b396:	f88d 2008 	strb.w	r2, [sp, #8]
                        reg.RXD.MAXCNT = len;
   1b39a:	2302      	movs	r3, #2
SA  clearError      ()          { reg.ERRORSRC = 7; reg.EVENTS.ERROR = 0; }
   1b39c:	2207      	movs	r2, #7
                        reg.TXD.MAXCNT = len;
   1b39e:	f8c6 8548 	str.w	r8, [r6, #1352]	; 0x548
                        reg.TXD.PTR = addr;
   1b3a2:	f8c6 a544 	str.w	sl, [r6, #1348]	; 0x544
                        reg.RXD.MAXCNT = len;
   1b3a6:	f8c6 3538 	str.w	r3, [r6, #1336]	; 0x538
                        reg.RXD.PTR = addr;
   1b3aa:	f8c6 5534 	str.w	r5, [r6, #1332]	; 0x534
SA  clearError      ()          { reg.ERRORSRC = 7; reg.EVENTS.ERROR = 0; }
   1b3ae:	2300      	movs	r3, #0
   1b3b0:	f8c6 24c4 	str.w	r2, [r6, #1220]	; 0x4c4
SA  shortsSetup     (SHORTS e)  { reg.SHORTS = e; }
   1b3b4:	f44f 5284 	mov.w	r2, #4224	; 0x1080
SA  clearError      ()          { reg.ERRORSRC = 7; reg.EVENTS.ERROR = 0; }
   1b3b8:	f8c6 3124 	str.w	r3, [r6, #292]	; 0x124
SA  clearStopped    ()          { reg.EVENTS.STOPPED = 0; }
   1b3bc:	f8c6 3104 	str.w	r3, [r6, #260]	; 0x104
SA  clearSuspended  ()          { reg.EVENTS.SUSPENDED = 0; }
   1b3c0:	f8c6 3148 	str.w	r3, [r6, #328]	; 0x148
SA  clearRxStarted  ()          { reg.EVENTS.RXSTARTED = 0; }
   1b3c4:	f8c6 314c 	str.w	r3, [r6, #332]	; 0x14c
SA  clearTxStarted  ()          { reg.EVENTS.TXSTARTED = 0; }
   1b3c8:	f8c6 3150 	str.w	r3, [r6, #336]	; 0x150
SA  clearLastRx     ()          { reg.EVENTS.LASTRX = 0; }
   1b3cc:	f8c6 315c 	str.w	r3, [r6, #348]	; 0x15c
SA  clearLastTx     ()          { reg.EVENTS.LASTTX = 0; }
   1b3d0:	f8c6 3160 	str.w	r3, [r6, #352]	; 0x160
SA  shortsSetup     (SHORTS e)  { reg.SHORTS = e; }
   1b3d4:	f8c6 2200 	str.w	r2, [r6, #512]	; 0x200
SA  startTx         ()          { reg.TASKS.STARTTX = 1; } 
   1b3d8:	f8c6 8008 	str.w	r8, [r6, #8]
SA  startTxRxStop   ()          { clearEvents(); shortsSetup(LASTTX_STARTRX_STOP); startTx(); }
   1b3dc:	e002      	b.n	1b3e4 <{lambda(void*)#1}::_FUN(void*)+0x15c>
SA  isError         ()          { return reg.EVENTS.ERROR; }
   1b3de:	f8d6 3124 	ldr.w	r3, [r6, #292]	; 0x124
                            if( isError() ){
   1b3e2:	bb5b      	cbnz	r3, 1b43c <{lambda(void*)#1}::_FUN(void*)+0x1b4>
SA  isStopped       ()          { return reg.EVENTS.STOPPED; }
   1b3e4:	f8d6 3104 	ldr.w	r3, [r6, #260]	; 0x104
                        while( not isStopped() ){
   1b3e8:	2b00      	cmp	r3, #0
   1b3ea:	d0f8      	beq.n	1b3de <{lambda(void*)#1}::_FUN(void*)+0x156>
SA  txAmount        ()          { return reg.TXD.AMOUNT; }
   1b3ec:	f8d6 154c 	ldr.w	r1, [r6, #1356]	; 0x54c
                        if( (txAmount() == NT) and (rxAmount() == NR) ) return true;
   1b3f0:	2901      	cmp	r1, #1
   1b3f2:	d02d      	beq.n	1b450 <{lambda(void*)#1}::_FUN(void*)+0x1c8>
SA  disable         ()          { reg.ENABLE = 0; }
   1b3f4:	2300      	movs	r3, #0
SA  clearError      ()          { reg.ERRORSRC = 7; reg.EVENTS.ERROR = 0; }
   1b3f6:	2107      	movs	r1, #7
SA  enable          ()          { reg.ENABLE = 6; }
   1b3f8:	2206      	movs	r2, #6
SA  disable         ()          { reg.ENABLE = 0; }
   1b3fa:	f8c6 3500 	str.w	r3, [r6, #1280]	; 0x500
SA  clearError      ()          { reg.ERRORSRC = 7; reg.EVENTS.ERROR = 0; }
   1b3fe:	f8c6 14c4 	str.w	r1, [r6, #1220]	; 0x4c4
   1b402:	f8c6 3124 	str.w	r3, [r6, #292]	; 0x124
SA  shortsSetup     (SHORTS e)  { reg.SHORTS = e; }
   1b406:	f8c6 3200 	str.w	r3, [r6, #512]	; 0x200
SA  enable          ()          { reg.ENABLE = 6; }
   1b40a:	f8c6 2500 	str.w	r2, [r6, #1280]	; 0x500
   1b40e:	f44f 407a 	mov.w	r0, #64000	; 0xfa00
   1b412:	47a0      	blx	r4
                        //will just call tempWait until ack'd (true), then is clock 
                        //stretched and will return a temp value in t,
                        //conversion time for 14bits is ~10ms, so use 95ms as max time to wait
                        SCA TIMEOUT_MS{95};
                        auto ok = false;
                        for( auto ms = 0; ms < TIMEOUT_MS; ms++, nrf_delay_ms(1) ){ 
   1b414:	f1bb 0b01 	subs.w	fp, fp, #1
   1b418:	d1bc      	bne.n	1b394 <{lambda(void*)#1}::_FUN(void*)+0x10c>
SA  low         ()          { reg.OUTCLR = bm_; } //register wide write
   1b41a:	f04f 43a0 	mov.w	r3, #1342177280	; 0x50000000
SA  disable         ()          { reg.ENABLE = 0; }
   1b41e:	484a      	ldr	r0, [pc, #296]	; (1b548 <{lambda(void*)#1}::_FUN(void*)+0x2c0>)
                    reg.PIN_CNF = it.INIT_CNF;
   1b420:	2202      	movs	r2, #2
SA  low         ()          { reg.OUTCLR = bm_; } //register wide write
   1b422:	f44f 3100 	mov.w	r1, #131072	; 0x20000
   1b426:	f8c0 b500 	str.w	fp, [r0, #1280]	; 0x500
   1b42a:	f8c3 150c 	str.w	r1, [r3, #1292]	; 0x50c
                    reg.PIN_CNF = it.INIT_CNF;
   1b42e:	f8c3 2734 	str.w	r2, [r3, #1844]	; 0x734
   1b432:	f8c3 273c 	str.w	r2, [r3, #1852]	; 0x73c
SA  deinit      ()              { twi_.deinit(); isInit_ = false; }
   1b436:	f887 b000 	strb.w	fp, [r7]
   1b43a:	e074      	b.n	1b526 <{lambda(void*)#1}::_FUN(void*)+0x29e>
SA  stop            ()          { reg.TASKS.STOP = 1; } //cannot stop while suspended
   1b43c:	f8c6 9014 	str.w	r9, [r6, #20]
SA  isStopped       ()          { return reg.EVENTS.STOPPED; }
   1b440:	f8d6 3104 	ldr.w	r3, [r6, #260]	; 0x104
                                while( not isStopped() ){}
   1b444:	2b00      	cmp	r3, #0
   1b446:	d0fb      	beq.n	1b440 <{lambda(void*)#1}::_FUN(void*)+0x1b8>
   1b448:	e7e1      	b.n	1b40e <{lambda(void*)#1}::_FUN(void*)+0x186>
                        if( idx >= HistSiz_ ) idx = 0;
   1b44a:	2300      	movs	r3, #0
   1b44c:	700b      	strb	r3, [r1, #0]
   1b44e:	e74a      	b.n	1b2e6 <{lambda(void*)#1}::_FUN(void*)+0x5e>
SA  rxAmount        ()          { return reg.RXD.AMOUNT; }
   1b450:	f8d6 053c 	ldr.w	r0, [r6, #1340]	; 0x53c
                        if( (txAmount() == NT) and (rxAmount() == NR) ) return true;
   1b454:	2802      	cmp	r0, #2
   1b456:	d1cd      	bne.n	1b3f4 <{lambda(void*)#1}::_FUN(void*)+0x16c>
                                if( not twi_.writeRead(tbuf, rbuf) ) return false;
                                v = (rbuf[0]<<8) bitor rbuf[1];
   1b458:	f89d 300c 	ldrb.w	r3, [sp, #12]
   1b45c:	f89d 500d 	ldrb.w	r5, [sp, #13]
26796 = 25.0C = 77.0F
*/

SA  x100C   (u16 v) -> i16      { return ((v * 17572L)>>16) - 4685; }
SA  x10C    (u16 v) -> i16      { return x100C(v) / 10; }
SA  x100F   (u16 v) -> i16      { return x100C(v) * 9L / 5 + 3200; }
   1b460:	4c38      	ldr	r4, [pc, #224]	; (1b544 <{lambda(void*)#1}::_FUN(void*)+0x2bc>)
                        if( not isInit ){ //first time, populate all with same value
   1b462:	4a32      	ldr	r2, [pc, #200]	; (1b52c <{lambda(void*)#1}::_FUN(void*)+0x2a4>)
                                v = (rbuf[0]<<8) bitor rbuf[1];
   1b464:	ea45 2503 	orr.w	r5, r5, r3, lsl #8
SA  x100C   (u16 v) -> i16      { return ((v * 17572L)>>16) - 4685; }
   1b468:	f244 43a4 	movw	r3, #17572	; 0x44a4
   1b46c:	fb03 f305 	mul.w	r3, r3, r5
   1b470:	141b      	asrs	r3, r3, #16
   1b472:	f5a3 5392 	sub.w	r3, r3, #4672	; 0x1240
   1b476:	3b0d      	subs	r3, #13
SA  x100F   (u16 v) -> i16      { return x100C(v) * 9L / 5 + 3200; }
   1b478:	b21b      	sxth	r3, r3
   1b47a:	eb03 03c3 	add.w	r3, r3, r3, lsl #3
   1b47e:	fb84 ec03 	smull	lr, ip, r4, r3
   1b482:	17db      	asrs	r3, r3, #31
   1b484:	ebc3 036c 	rsb	r3, r3, ip, asr #1
SA  disable         ()          { reg.ENABLE = 0; }
   1b488:	f04f 0e00 	mov.w	lr, #0
SA  low         ()          { reg.OUTCLR = bm_; } //register wide write
   1b48c:	f04f 4ca0 	mov.w	ip, #1342177280	; 0x50000000
   1b490:	f8c6 e500 	str.w	lr, [r6, #1280]	; 0x500
   1b494:	f503 6348 	add.w	r3, r3, #3200	; 0xc80
   1b498:	f44f 3600 	mov.w	r6, #131072	; 0x20000
   1b49c:	f8cc 650c 	str.w	r6, [ip, #1292]	; 0x50c
SA  x10F    (u16 v) -> i16      { return x100F(v) / 10; }
   1b4a0:	b21b      	sxth	r3, r3
                    reg.PIN_CNF = it.INIT_CNF;
   1b4a2:	f8cc 0734 	str.w	r0, [ip, #1844]	; 0x734
   1b4a6:	f8cc 073c 	str.w	r0, [ip, #1852]	; 0x73c
   1b4aa:	fb84 4003 	smull	r4, r0, r4, r3
   1b4ae:	17dc      	asrs	r4, r3, #31
   1b4b0:	7813      	ldrb	r3, [r2, #0]
SA  deinit      ()              { twi_.deinit(); isInit_ = false; }
   1b4b2:	f887 e000 	strb.w	lr, [r7]
SA  x10F    (u16 v) -> i16      { return x100F(v) / 10; }
   1b4b6:	ebc4 04a0 	rsb	r4, r4, r0, asr #2
   1b4ba:	b224      	sxth	r4, r4
   1b4bc:	b903      	cbnz	r3, 1b4c0 <{lambda(void*)#1}::_FUN(void*)+0x238>
                            isInit = true;
   1b4be:	7011      	strb	r1, [r2, #0]
                        tempHistory_[idx++] = v;
   1b4c0:	491b      	ldr	r1, [pc, #108]	; (1b530 <{lambda(void*)#1}::_FUN(void*)+0x2a8>)
   1b4c2:	4a1c      	ldr	r2, [pc, #112]	; (1b534 <{lambda(void*)#1}::_FUN(void*)+0x2ac>)
   1b4c4:	7808      	ldrb	r0, [r1, #0]
   1b4c6:	4e23      	ldr	r6, [pc, #140]	; (1b554 <{lambda(void*)#1}::_FUN(void*)+0x2cc>)
   1b4c8:	f5b4 6fe1 	cmp.w	r4, #1800	; 0x708
   1b4cc:	bfa8      	it	ge
   1b4ce:	f44f 64e1 	movge.w	r4, #1800	; 0x708
   1b4d2:	4294      	cmp	r4, r2
   1b4d4:	f100 0301 	add.w	r3, r0, #1
   1b4d8:	bfb8      	it	lt
   1b4da:	4614      	movlt	r4, r2
   1b4dc:	b2db      	uxtb	r3, r3
   1b4de:	f826 4010 	strh.w	r4, [r6, r0, lsl #1]
   1b4e2:	700b      	strb	r3, [r1, #0]
                        if( idx >= HistSiz_ ) idx = 0;
   1b4e4:	b10b      	cbz	r3, 1b4ea <{lambda(void*)#1}::_FUN(void*)+0x262>
   1b4e6:	2300      	movs	r3, #0
   1b4e8:	700b      	strb	r3, [r1, #0]
                        si7051.deinit();
                        if( not ok ) return f; //timeout, return f (-999)

                        f = si7051.x10F(t);                        
                        f = tempH.addHistory( f );
                        DebugFuncHeader();
   1b4ea:	f7fe f985 	bl	197f8 <app_timer_cnt_get>
   1b4ee:	f3c0 030d 	ubfx	r3, r0, #0, #14
   1b4f2:	4a12      	ldr	r2, [pc, #72]	; (1b53c <{lambda(void*)#1}::_FUN(void*)+0x2b4>)
   1b4f4:	9200      	str	r2, [sp, #0]
   1b4f6:	ebc3 1103 	rsb	r1, r3, r3, lsl #4
   1b4fa:	4a11      	ldr	r2, [pc, #68]	; (1b540 <{lambda(void*)#1}::_FUN(void*)+0x2b8>)
   1b4fc:	eb03 0181 	add.w	r1, r3, r1, lsl #2
   1b500:	0b80      	lsrs	r0, r0, #14
   1b502:	23b0      	movs	r3, #176	; 0xb0
   1b504:	f7fe feb2 	bl	1a26c <int Print<DevRtt<0>, unsigned long, unsigned long, char const*, int, char const*>(DevRtt<0>, char const*, unsigned long, unsigned long, char const*, int, char const*) [clone .isra.0] [clone .constprop.0]>
                        Debug("  Si7051 raw: %d  F: %02d.%d\n", t, f/10, f%10);
   1b508:	4b0e      	ldr	r3, [pc, #56]	; (1b544 <{lambda(void*)#1}::_FUN(void*)+0x2bc>)
   1b50a:	17e1      	asrs	r1, r4, #31
   1b50c:	fb83 2304 	smull	r2, r3, r3, r4
   1b510:	ebc1 01a3 	rsb	r1, r1, r3, asr #2
   1b514:	eb01 0281 	add.w	r2, r1, r1, lsl #2
   1b518:	eba4 0242 	sub.w	r2, r4, r2, lsl #1
   1b51c:	4628      	mov	r0, r5
   1b51e:	b212      	sxth	r2, r2
   1b520:	b209      	sxth	r1, r1
   1b522:	f7fe fe15 	bl	1a150 <int Print<DevRtt<0>, unsigned short, int, int>(DevRtt<0>, char const*, unsigned short, int, int) [clone .isra.0] [clone .constprop.0]>
        TemperatureSi7051<1>::read(); 
    }, 
   1b526:	b005      	add	sp, #20
   1b528:	e8bd 8ff0 	ldmia.w	sp!, {r4, r5, r6, r7, r8, r9, sl, fp, pc}
   1b52c:	200019a7 	.word	0x200019a7
   1b530:	200019a6 	.word	0x200019a6
   1b534:	fffffe70 	.word	0xfffffe70
   1b538:	200019a8 	.word	0x200019a8
   1b53c:	0001ece0 	.word	0x0001ece0
   1b540:	0001eccc 	.word	0x0001eccc
   1b544:	66666667 	.word	0x66666667
   1b548:	40003000 	.word	0x40003000
   1b54c:	0001ef50 	.word	0x0001ef50
   1b550:	2000199e 	.word	0x2000199e
   1b554:	200019a0 	.word	0x200019a0

0001b558 <Advertising<MyTemperatureAD<TemperatureTmp117<(unsigned char)5> >, (unsigned short)3000, 20000ul>::stop()>:
                        power( txPower_ );
                        if( battery.isOk() ) board.ok(); else board.caution();

                    }

SA  stop            () -> void {
   1b558:	b510      	push	{r4, lr}
                        if( not isActive_ ) return;
   1b55a:	4c07      	ldr	r4, [pc, #28]	; (1b578 <Advertising<MyTemperatureAD<TemperatureTmp117<(unsigned char)5> >, (unsigned short)3000, 20000ul>::stop()+0x20>)
   1b55c:	7823      	ldrb	r3, [r4, #0]
   1b55e:	b903      	cbnz	r3, 1b562 <Advertising<MyTemperatureAD<TemperatureTmp117<(unsigned char)5> >, (unsigned short)3000, 20000ul>::stop()+0xa>
                        error.check( sd_ble_gap_adv_stop(handle_) );
                        isActive_ = false;
                    }
   1b560:	bd10      	pop	{r4, pc}
                        error.check( sd_ble_gap_adv_stop(handle_) );
   1b562:	4b06      	ldr	r3, [pc, #24]	; (1b57c <Advertising<MyTemperatureAD<TemperatureTmp117<(unsigned char)5> >, (unsigned short)3000, 20000ul>::stop()+0x24>)
   1b564:	7818      	ldrb	r0, [r3, #0]
   1b566:	f7fe fd97 	bl	1a098 <sd_ble_gap_adv_stop>
   1b56a:	b200      	sxth	r0, r0
   1b56c:	f7fe ff12 	bl	1a394 <Errors::check(short, bool) [clone .constprop.0]>
                        isActive_ = false;
   1b570:	2300      	movs	r3, #0
   1b572:	7023      	strb	r3, [r4, #0]
                    }
   1b574:	bd10      	pop	{r4, pc}
   1b576:	bf00      	nop
   1b578:	200019d8 	.word	0x200019d8
   1b57c:	20001830 	.word	0x20001830

0001b580 <TemperatureTmp117<(unsigned char)5>::read()>:
SA  read            () {
   1b580:	e92d 4ff0 	stmdb	sp!, {r4, r5, r6, r7, r8, r9, sl, fp, lr}
SA  address         (u8 v)      { reg.ADDRESS = v; } //0-127
   1b584:	4bd7      	ldr	r3, [pc, #860]	; (1b8e4 <TemperatureTmp117<(unsigned char)5>::read()+0x364>)
        (delay_func_t)((((uint32_t)delay_machine_code) | 1));
   1b586:	4ed8      	ldr	r6, [pc, #864]	; (1b8e8 <TemperatureTmp117<(unsigned char)5>::read()+0x368>)
                                  isInit_ = true;
   1b588:	4fd8      	ldr	r7, [pc, #864]	; (1b8ec <TemperatureTmp117<(unsigned char)5>::read()+0x36c>)
   1b58a:	f04f 42a0 	mov.w	r2, #1342177280	; 0x50000000
   1b58e:	2148      	movs	r1, #72	; 0x48
SA  frequency       (FREQ e)    { reg.FREQUENCY = e; }
   1b590:	f04f 60c8 	mov.w	r0, #104857600	; 0x6400000
SA  address         (u8 v)      { reg.ADDRESS = v; } //0-127
   1b594:	f8c3 1588 	str.w	r1, [r3, #1416]	; 0x588
                        reg.PSEL_SDA = e;
   1b598:	240d      	movs	r4, #13
SA  frequency       (FREQ e)    { reg.FREQUENCY = e; }
   1b59a:	f8c3 0524 	str.w	r0, [r3, #1316]	; 0x524
SA  init        (Ts... ts)  { initT it{2}; init_(it, ts...); }
   1b59e:	f240 610c 	movw	r1, #1548	; 0x60c
                        reg.PSEL_SCL = e;
   1b5a2:	200f      	movs	r0, #15
                    reg.PIN_CNF = it.INIT_CNF;
   1b5a4:	f8c2 1734 	str.w	r1, [r2, #1844]	; 0x734
   1b5a8:	f8c2 173c 	str.w	r1, [r2, #1852]	; 0x73c
                        reg.PSEL_SDA = e;
   1b5ac:	f8c3 450c 	str.w	r4, [r3, #1292]	; 0x50c
SA  low         ()          { reg.OUTCLR = bm_; } //register wide write
   1b5b0:	f44f 3100 	mov.w	r1, #131072	; 0x20000
                        reg.PSEL_SCL = e;
   1b5b4:	f8c3 0508 	str.w	r0, [r3, #1288]	; 0x508
SA  enable          ()          { reg.ENABLE = 6; }
   1b5b8:	2406      	movs	r4, #6
SA  init        (Ts... ts)  { initT it{2}; init_(it, ts...); }
   1b5ba:	f240 2001 	movw	r0, #513	; 0x201
SA  low         ()          { reg.OUTCLR = bm_; } //register wide write
   1b5be:	f8c2 150c 	str.w	r1, [r2, #1292]	; 0x50c
   1b5c2:	b085      	sub	sp, #20
                    reg.PIN_CNF = it.INIT_CNF;
   1b5c4:	f8c2 0744 	str.w	r0, [r2, #1860]	; 0x744
   1b5c8:	f046 0601 	orr.w	r6, r6, #1
SA  high        ()          { reg.OUTSET = bm_; } //register wide write
   1b5cc:	f8c2 1508 	str.w	r1, [r2, #1288]	; 0x508
    delay_cycles(cycles);
   1b5d0:	f44f 407a 	mov.w	r0, #64000	; 0xfa00
   1b5d4:	f8c3 4500 	str.w	r4, [r3, #1280]	; 0x500
   1b5d8:	47b0      	blx	r6
   1b5da:	f44f 407a 	mov.w	r0, #64000	; 0xfa00
   1b5de:	47b0      	blx	r6
   1b5e0:	2301      	movs	r3, #1
   1b5e2:	703b      	strb	r3, [r7, #0]
                                }
   1b5e4:	247d      	movs	r4, #125	; 0x7d
   1b5e6:	f44f 407a 	mov.w	r0, #64000	; 0xfa00
   1b5ea:	47b0      	blx	r6
   1b5ec:	3c01      	subs	r4, #1
   1b5ee:	d1fa      	bne.n	1b5e6 <TemperatureTmp117<(unsigned char)5>::read()+0x66>
SA  address         (u8 v)      { reg.ADDRESS = v; } //0-127
   1b5f0:	4cbc      	ldr	r4, [pc, #752]	; (1b8e4 <TemperatureTmp117<(unsigned char)5>::read()+0x364>)
   1b5f2:	f10d 0908 	add.w	r9, sp, #8
   1b5f6:	f10d 080c 	add.w	r8, sp, #12
   1b5fa:	2514      	movs	r5, #20
   1b5fc:	f04f 0a48 	mov.w	sl, #72	; 0x48
                                  isInit_ = true;
   1b600:	f04f 0b01 	mov.w	fp, #1
                    if( not isInit_ ) init();
   1b604:	783b      	ldrb	r3, [r7, #0]
   1b606:	2b00      	cmp	r3, #0
   1b608:	d06e      	beq.n	1b6e8 <TemperatureTmp117<(unsigned char)5>::read()+0x168>
SA  clearError      ()          { reg.ERRORSRC = 7; reg.EVENTS.ERROR = 0; }
   1b60a:	2300      	movs	r3, #0
                        reg.RXD.MAXCNT = len;
   1b60c:	2002      	movs	r0, #2
SA  clearError      ()          { reg.ERRORSRC = 7; reg.EVENTS.ERROR = 0; }
   1b60e:	2107      	movs	r1, #7
SA  shortsSetup     (SHORTS e)  { reg.SHORTS = e; }
   1b610:	f44f 5284 	mov.w	r2, #4224	; 0x1080
                    u8 tbuf[1] = { r }; //register
   1b614:	f88d b008 	strb.w	fp, [sp, #8]
                        reg.TXD.MAXCNT = len;
   1b618:	f8c4 b548 	str.w	fp, [r4, #1352]	; 0x548
                        reg.TXD.PTR = addr;
   1b61c:	f8c4 9544 	str.w	r9, [r4, #1348]	; 0x544
                        reg.RXD.MAXCNT = len;
   1b620:	f8c4 0538 	str.w	r0, [r4, #1336]	; 0x538
                        reg.RXD.PTR = addr;
   1b624:	f8c4 8534 	str.w	r8, [r4, #1332]	; 0x534
SA  clearError      ()          { reg.ERRORSRC = 7; reg.EVENTS.ERROR = 0; }
   1b628:	f8c4 14c4 	str.w	r1, [r4, #1220]	; 0x4c4
   1b62c:	f8c4 3124 	str.w	r3, [r4, #292]	; 0x124
SA  clearStopped    ()          { reg.EVENTS.STOPPED = 0; }
   1b630:	f8c4 3104 	str.w	r3, [r4, #260]	; 0x104
SA  clearSuspended  ()          { reg.EVENTS.SUSPENDED = 0; }
   1b634:	f8c4 3148 	str.w	r3, [r4, #328]	; 0x148
SA  clearRxStarted  ()          { reg.EVENTS.RXSTARTED = 0; }
   1b638:	f8c4 314c 	str.w	r3, [r4, #332]	; 0x14c
SA  clearTxStarted  ()          { reg.EVENTS.TXSTARTED = 0; }
   1b63c:	f8c4 3150 	str.w	r3, [r4, #336]	; 0x150
SA  clearLastRx     ()          { reg.EVENTS.LASTRX = 0; }
   1b640:	f8c4 315c 	str.w	r3, [r4, #348]	; 0x15c
SA  clearLastTx     ()          { reg.EVENTS.LASTTX = 0; }
   1b644:	f8c4 3160 	str.w	r3, [r4, #352]	; 0x160
SA  shortsSetup     (SHORTS e)  { reg.SHORTS = e; }
   1b648:	f8c4 2200 	str.w	r2, [r4, #512]	; 0x200
SA  startTx         ()          { reg.TASKS.STARTTX = 1; } 
   1b64c:	f8c4 b008 	str.w	fp, [r4, #8]
SA  startTxRxStop   ()          { clearEvents(); shortsSetup(LASTTX_STARTRX_STOP); startTx(); }
   1b650:	e003      	b.n	1b65a <TemperatureTmp117<(unsigned char)5>::read()+0xda>
SA  isError         ()          { return reg.EVENTS.ERROR; }
   1b652:	f8d4 3124 	ldr.w	r3, [r4, #292]	; 0x124
                            if( isError() ){
   1b656:	2b00      	cmp	r3, #0
   1b658:	d13f      	bne.n	1b6da <TemperatureTmp117<(unsigned char)5>::read()+0x15a>
SA  isStopped       ()          { return reg.EVENTS.STOPPED; }
   1b65a:	f8d4 3104 	ldr.w	r3, [r4, #260]	; 0x104
                        while( not isStopped() ){
   1b65e:	2b00      	cmp	r3, #0
   1b660:	d0f7      	beq.n	1b652 <TemperatureTmp117<(unsigned char)5>::read()+0xd2>
SA  txAmount        ()          { return reg.TXD.AMOUNT; }
   1b662:	f8d4 354c 	ldr.w	r3, [r4, #1356]	; 0x54c
                        if( (txAmount() == NT) and (rxAmount() == NR) ) return true;
   1b666:	2b01      	cmp	r3, #1
   1b668:	d068      	beq.n	1b73c <TemperatureTmp117<(unsigned char)5>::read()+0x1bc>
SA  disable         ()          { reg.ENABLE = 0; }
   1b66a:	2300      	movs	r3, #0
SA  clearError      ()          { reg.ERRORSRC = 7; reg.EVENTS.ERROR = 0; }
   1b66c:	2107      	movs	r1, #7
SA  enable          ()          { reg.ENABLE = 6; }
   1b66e:	2206      	movs	r2, #6
SA  disable         ()          { reg.ENABLE = 0; }
   1b670:	f8c4 3500 	str.w	r3, [r4, #1280]	; 0x500
SA  clearError      ()          { reg.ERRORSRC = 7; reg.EVENTS.ERROR = 0; }
   1b674:	f8c4 14c4 	str.w	r1, [r4, #1220]	; 0x4c4
   1b678:	f8c4 3124 	str.w	r3, [r4, #292]	; 0x124
SA  shortsSetup     (SHORTS e)  { reg.SHORTS = e; }
   1b67c:	f8c4 3200 	str.w	r3, [r4, #512]	; 0x200
SA  enable          ()          { reg.ENABLE = 6; }
   1b680:	f8c4 2500 	str.w	r2, [r4, #1280]	; 0x500
   1b684:	f44f 407a 	mov.w	r0, #64000	; 0xfa00
   1b688:	47b0      	blx	r6
                        while( i and not tmp117.isDataReady() ){ nrf_delay_ms(1); i--; }
   1b68a:	3d01      	subs	r5, #1
   1b68c:	d1ba      	bne.n	1b604 <TemperatureTmp117<(unsigned char)5>::read()+0x84>
SA  disable         ()          { reg.ENABLE = 0; }
   1b68e:	4b95      	ldr	r3, [pc, #596]	; (1b8e4 <TemperatureTmp117<(unsigned char)5>::read()+0x364>)
                        if( not i )      { Debug(FG RED "  timeout, ready bit not set\n" FG WHITE); return f; }
   1b690:	4c97      	ldr	r4, [pc, #604]	; (1b8f0 <TemperatureTmp117<(unsigned char)5>::read()+0x370>)
   1b692:	f8c3 5500 	str.w	r5, [r3, #1280]	; 0x500
SA  low         ()          { reg.OUTCLR = bm_; } //register wide write
   1b696:	f04f 43a0 	mov.w	r3, #1342177280	; 0x50000000
                    reg.PIN_CNF = it.INIT_CNF;
   1b69a:	2202      	movs	r2, #2
SA  low         ()          { reg.OUTCLR = bm_; } //register wide write
   1b69c:	f44f 3100 	mov.w	r1, #131072	; 0x20000
   1b6a0:	f8c3 150c 	str.w	r1, [r3, #1292]	; 0x50c
                    reg.PIN_CNF = it.INIT_CNF;
   1b6a4:	f8c3 2734 	str.w	r2, [r3, #1844]	; 0x734
   1b6a8:	f8c3 273c 	str.w	r2, [r3, #1852]	; 0x73c
SA  deinit      ()              { twi_.deinit(); isInit_ = false; }
   1b6ac:	703d      	strb	r5, [r7, #0]
                        DebugFuncHeader();
   1b6ae:	f7fe f8a3 	bl	197f8 <app_timer_cnt_get>
   1b6b2:	f3c0 030d 	ubfx	r3, r0, #0, #14
   1b6b6:	4a8f      	ldr	r2, [pc, #572]	; (1b8f4 <TemperatureTmp117<(unsigned char)5>::read()+0x374>)
   1b6b8:	9200      	str	r2, [sp, #0]
   1b6ba:	ebc3 1103 	rsb	r1, r3, r3, lsl #4
   1b6be:	eb03 0181 	add.w	r1, r3, r1, lsl #2
   1b6c2:	4a8d      	ldr	r2, [pc, #564]	; (1b8f8 <TemperatureTmp117<(unsigned char)5>::read()+0x378>)
   1b6c4:	0b80      	lsrs	r0, r0, #14
   1b6c6:	237b      	movs	r3, #123	; 0x7b
   1b6c8:	f7fe fdd0 	bl	1a26c <int Print<DevRtt<0>, unsigned long, unsigned long, char const*, int, char const*>(DevRtt<0>, char const*, unsigned long, unsigned long, char const*, int, char const*) [clone .isra.0] [clone .constprop.0]>
                        if( not i )      { Debug(FG RED "  timeout, ready bit not set\n" FG WHITE); return f; }
   1b6cc:	488b      	ldr	r0, [pc, #556]	; (1b8fc <TemperatureTmp117<(unsigned char)5>::read()+0x37c>)
   1b6ce:	f7fe fd03 	bl	1a0d8 <int Print<DevRtt<0>>(DevRtt<0>, char const*) [clone .isra.0]>
                    }
   1b6d2:	4620      	mov	r0, r4
   1b6d4:	b005      	add	sp, #20
   1b6d6:	e8bd 8ff0 	ldmia.w	sp!, {r4, r5, r6, r7, r8, r9, sl, fp, pc}
SA  stop            ()          { reg.TASKS.STOP = 1; } //cannot stop while suspended
   1b6da:	f8c4 b014 	str.w	fp, [r4, #20]
SA  isStopped       ()          { return reg.EVENTS.STOPPED; }
   1b6de:	f8d4 3104 	ldr.w	r3, [r4, #260]	; 0x104
                                while( not isStopped() ){}
   1b6e2:	2b00      	cmp	r3, #0
   1b6e4:	d0fb      	beq.n	1b6de <TemperatureTmp117<(unsigned char)5>::read()+0x15e>
   1b6e6:	e7cd      	b.n	1b684 <TemperatureTmp117<(unsigned char)5>::read()+0x104>
   1b6e8:	f04f 43a0 	mov.w	r3, #1342177280	; 0x50000000
SA  frequency       (FREQ e)    { reg.FREQUENCY = e; }
   1b6ec:	f04f 61c8 	mov.w	r1, #104857600	; 0x6400000
SA  address         (u8 v)      { reg.ADDRESS = v; } //0-127
   1b6f0:	f8c4 a588 	str.w	sl, [r4, #1416]	; 0x588
SA  init        (Ts... ts)  { initT it{2}; init_(it, ts...); }
   1b6f4:	f240 620c 	movw	r2, #1548	; 0x60c
SA  frequency       (FREQ e)    { reg.FREQUENCY = e; }
   1b6f8:	f8c4 1524 	str.w	r1, [r4, #1316]	; 0x524
                        reg.PSEL_SDA = e;
   1b6fc:	200d      	movs	r0, #13
                        reg.PSEL_SCL = e;
   1b6fe:	210f      	movs	r1, #15
                    reg.PIN_CNF = it.INIT_CNF;
   1b700:	f8c3 2734 	str.w	r2, [r3, #1844]	; 0x734
   1b704:	f8c3 273c 	str.w	r2, [r3, #1852]	; 0x73c
                        reg.PSEL_SDA = e;
   1b708:	f8c4 050c 	str.w	r0, [r4, #1292]	; 0x50c
SA  low         ()          { reg.OUTCLR = bm_; } //register wide write
   1b70c:	f44f 3200 	mov.w	r2, #131072	; 0x20000
                        reg.PSEL_SCL = e;
   1b710:	f8c4 1508 	str.w	r1, [r4, #1288]	; 0x508
SA  init        (Ts... ts)  { initT it{2}; init_(it, ts...); }
   1b714:	f240 2001 	movw	r0, #513	; 0x201
SA  enable          ()          { reg.ENABLE = 6; }
   1b718:	2106      	movs	r1, #6
SA  low         ()          { reg.OUTCLR = bm_; } //register wide write
   1b71a:	f8c3 250c 	str.w	r2, [r3, #1292]	; 0x50c
                    reg.PIN_CNF = it.INIT_CNF;
   1b71e:	f8c3 0744 	str.w	r0, [r3, #1860]	; 0x744
SA  high        ()          { reg.OUTSET = bm_; } //register wide write
   1b722:	f8c3 2508 	str.w	r2, [r3, #1288]	; 0x508
   1b726:	f44f 407a 	mov.w	r0, #64000	; 0xfa00
   1b72a:	f8c4 1500 	str.w	r1, [r4, #1280]	; 0x500
   1b72e:	47b0      	blx	r6
   1b730:	f44f 407a 	mov.w	r0, #64000	; 0xfa00
   1b734:	47b0      	blx	r6
                                  isInit_ = true;
   1b736:	f887 b000 	strb.w	fp, [r7]
                                }
   1b73a:	e766      	b.n	1b60a <TemperatureTmp117<(unsigned char)5>::read()+0x8a>
SA  rxAmount        ()          { return reg.RXD.AMOUNT; }
   1b73c:	f8d4 153c 	ldr.w	r1, [r4, #1340]	; 0x53c
                        if( (txAmount() == NT) and (rxAmount() == NR) ) return true;
   1b740:	2902      	cmp	r1, #2
   1b742:	d192      	bne.n	1b66a <TemperatureTmp117<(unsigned char)5>::read()+0xea>
                        v = (rbuf[0]<<8) bitor rbuf[1];
   1b744:	f89d 200c 	ldrb.w	r2, [sp, #12]
                        while( i and not tmp117.isDataReady() ){ nrf_delay_ms(1); i--; }
   1b748:	0692      	lsls	r2, r2, #26
   1b74a:	d59b      	bpl.n	1b684 <TemperatureTmp117<(unsigned char)5>::read()+0x104>
                    u8 tbuf[1] = { r }; //register
   1b74c:	2000      	movs	r0, #0
SA  clearError      ()          { reg.ERRORSRC = 7; reg.EVENTS.ERROR = 0; }
   1b74e:	2607      	movs	r6, #7
SA  shortsSetup     (SHORTS e)  { reg.SHORTS = e; }
   1b750:	f44f 5584 	mov.w	r5, #4224	; 0x1080
   1b754:	f88d 0008 	strb.w	r0, [sp, #8]
SA  isStopped       ()          { return reg.EVENTS.STOPPED; }
   1b758:	4a62      	ldr	r2, [pc, #392]	; (1b8e4 <TemperatureTmp117<(unsigned char)5>::read()+0x364>)
                        reg.TXD.MAXCNT = len;
   1b75a:	f8c4 3548 	str.w	r3, [r4, #1352]	; 0x548
                        reg.TXD.PTR = addr;
   1b75e:	f8c4 9544 	str.w	r9, [r4, #1348]	; 0x544
                        reg.RXD.MAXCNT = len;
   1b762:	f8c4 1538 	str.w	r1, [r4, #1336]	; 0x538
                        reg.RXD.PTR = addr;
   1b766:	f8c4 8534 	str.w	r8, [r4, #1332]	; 0x534
SA  clearError      ()          { reg.ERRORSRC = 7; reg.EVENTS.ERROR = 0; }
   1b76a:	f8c4 64c4 	str.w	r6, [r4, #1220]	; 0x4c4
   1b76e:	f8c4 0124 	str.w	r0, [r4, #292]	; 0x124
SA  clearStopped    ()          { reg.EVENTS.STOPPED = 0; }
   1b772:	f8c4 0104 	str.w	r0, [r4, #260]	; 0x104
SA  clearSuspended  ()          { reg.EVENTS.SUSPENDED = 0; }
   1b776:	f8c4 0148 	str.w	r0, [r4, #328]	; 0x148
SA  clearRxStarted  ()          { reg.EVENTS.RXSTARTED = 0; }
   1b77a:	f8c4 014c 	str.w	r0, [r4, #332]	; 0x14c
SA  clearTxStarted  ()          { reg.EVENTS.TXSTARTED = 0; }
   1b77e:	f8c4 0150 	str.w	r0, [r4, #336]	; 0x150
SA  clearLastRx     ()          { reg.EVENTS.LASTRX = 0; }
   1b782:	f8c4 015c 	str.w	r0, [r4, #348]	; 0x15c
SA  clearLastTx     ()          { reg.EVENTS.LASTTX = 0; }
   1b786:	f8c4 0160 	str.w	r0, [r4, #352]	; 0x160
SA  shortsSetup     (SHORTS e)  { reg.SHORTS = e; }
   1b78a:	f8c4 5200 	str.w	r5, [r4, #512]	; 0x200
SA  startTx         ()          { reg.TASKS.STARTTX = 1; } 
   1b78e:	60a3      	str	r3, [r4, #8]
SA  startTxRxStop   ()          { clearEvents(); shortsSetup(LASTTX_STARTRX_STOP); startTx(); }
   1b790:	e004      	b.n	1b79c <TemperatureTmp117<(unsigned char)5>::read()+0x21c>
SA  isError         ()          { return reg.EVENTS.ERROR; }
   1b792:	f8d2 3124 	ldr.w	r3, [r2, #292]	; 0x124
                            if( isError() ){
   1b796:	2b00      	cmp	r3, #0
   1b798:	f040 80be 	bne.w	1b918 <TemperatureTmp117<(unsigned char)5>::read()+0x398>
SA  isStopped       ()          { return reg.EVENTS.STOPPED; }
   1b79c:	f8d2 3104 	ldr.w	r3, [r2, #260]	; 0x104
                        while( not isStopped() ){
   1b7a0:	2b00      	cmp	r3, #0
   1b7a2:	d0f6      	beq.n	1b792 <TemperatureTmp117<(unsigned char)5>::read()+0x212>
SA  txAmount        ()          { return reg.TXD.AMOUNT; }
   1b7a4:	f8d2 454c 	ldr.w	r4, [r2, #1356]	; 0x54c
                        if( (txAmount() == NT) and (rxAmount() == NR) ) return true;
   1b7a8:	2c01      	cmp	r4, #1
   1b7aa:	d034      	beq.n	1b816 <TemperatureTmp117<(unsigned char)5>::read()+0x296>
SA  disable         ()          { reg.ENABLE = 0; }
   1b7ac:	4b4d      	ldr	r3, [pc, #308]	; (1b8e4 <TemperatureTmp117<(unsigned char)5>::read()+0x364>)
   1b7ae:	2200      	movs	r2, #0
SA  clearError      ()          { reg.ERRORSRC = 7; reg.EVENTS.ERROR = 0; }
   1b7b0:	2007      	movs	r0, #7
SA  enable          ()          { reg.ENABLE = 6; }
   1b7b2:	2106      	movs	r1, #6
SA  disable         ()          { reg.ENABLE = 0; }
   1b7b4:	f8c3 2500 	str.w	r2, [r3, #1280]	; 0x500
SA  clearError      ()          { reg.ERRORSRC = 7; reg.EVENTS.ERROR = 0; }
   1b7b8:	f8c3 04c4 	str.w	r0, [r3, #1220]	; 0x4c4
   1b7bc:	f8c3 2124 	str.w	r2, [r3, #292]	; 0x124
SA  shortsSetup     (SHORTS e)  { reg.SHORTS = e; }
   1b7c0:	f8c3 2200 	str.w	r2, [r3, #512]	; 0x200
SA  enable          ()          { reg.ENABLE = 6; }
   1b7c4:	f8c3 1500 	str.w	r1, [r3, #1280]	; 0x500
SA  disable         ()          { reg.ENABLE = 0; }
   1b7c8:	4946      	ldr	r1, [pc, #280]	; (1b8e4 <TemperatureTmp117<(unsigned char)5>::read()+0x364>)
                        if( not ok )     { Debug(FG RED "  failed to read temp value\n" FG WHITE); return f; }
   1b7ca:	4c49      	ldr	r4, [pc, #292]	; (1b8f0 <TemperatureTmp117<(unsigned char)5>::read()+0x370>)
SA  low         ()          { reg.OUTCLR = bm_; } //register wide write
   1b7cc:	f04f 43a0 	mov.w	r3, #1342177280	; 0x50000000
   1b7d0:	2200      	movs	r2, #0
   1b7d2:	f8c1 2500 	str.w	r2, [r1, #1280]	; 0x500
   1b7d6:	f44f 3000 	mov.w	r0, #131072	; 0x20000
                    reg.PIN_CNF = it.INIT_CNF;
   1b7da:	2102      	movs	r1, #2
SA  low         ()          { reg.OUTCLR = bm_; } //register wide write
   1b7dc:	f8c3 050c 	str.w	r0, [r3, #1292]	; 0x50c
                    reg.PIN_CNF = it.INIT_CNF;
   1b7e0:	f8c3 1734 	str.w	r1, [r3, #1844]	; 0x734
   1b7e4:	f8c3 173c 	str.w	r1, [r3, #1852]	; 0x73c
SA  deinit      ()              { twi_.deinit(); isInit_ = false; }
   1b7e8:	703a      	strb	r2, [r7, #0]
                        DebugFuncHeader();
   1b7ea:	f7fe f805 	bl	197f8 <app_timer_cnt_get>
   1b7ee:	f3c0 030d 	ubfx	r3, r0, #0, #14
   1b7f2:	4a40      	ldr	r2, [pc, #256]	; (1b8f4 <TemperatureTmp117<(unsigned char)5>::read()+0x374>)
   1b7f4:	9200      	str	r2, [sp, #0]
   1b7f6:	ebc3 1103 	rsb	r1, r3, r3, lsl #4
   1b7fa:	eb03 0181 	add.w	r1, r3, r1, lsl #2
   1b7fe:	4a3e      	ldr	r2, [pc, #248]	; (1b8f8 <TemperatureTmp117<(unsigned char)5>::read()+0x378>)
   1b800:	237b      	movs	r3, #123	; 0x7b
   1b802:	0b80      	lsrs	r0, r0, #14
   1b804:	f7fe fd32 	bl	1a26c <int Print<DevRtt<0>, unsigned long, unsigned long, char const*, int, char const*>(DevRtt<0>, char const*, unsigned long, unsigned long, char const*, int, char const*) [clone .isra.0] [clone .constprop.0]>
                        if( not ok )     { Debug(FG RED "  failed to read temp value\n" FG WHITE); return f; }
   1b808:	483d      	ldr	r0, [pc, #244]	; (1b900 <TemperatureTmp117<(unsigned char)5>::read()+0x380>)
   1b80a:	f7fe fc65 	bl	1a0d8 <int Print<DevRtt<0>>(DevRtt<0>, char const*) [clone .isra.0]>
                    }
   1b80e:	4620      	mov	r0, r4
   1b810:	b005      	add	sp, #20
   1b812:	e8bd 8ff0 	ldmia.w	sp!, {r4, r5, r6, r7, r8, r9, sl, fp, pc}
SA  rxAmount        ()          { return reg.RXD.AMOUNT; }
   1b816:	f8d2 053c 	ldr.w	r0, [r2, #1340]	; 0x53c
                        if( (txAmount() == NT) and (rxAmount() == NR) ) return true;
   1b81a:	2802      	cmp	r0, #2
   1b81c:	d1c6      	bne.n	1b7ac <TemperatureTmp117<(unsigned char)5>::read()+0x22c>
                        v = (rbuf[0]<<8) bitor rbuf[1];
   1b81e:	f89d 600c 	ldrb.w	r6, [sp, #12]
   1b822:	f89d 500d 	ldrb.w	r5, [sp, #13]
SA  low         ()          { reg.OUTCLR = bm_; } //register wide write
   1b826:	f04f 43a0 	mov.w	r3, #1342177280	; 0x50000000
SA  disable         ()          { reg.ENABLE = 0; }
   1b82a:	2100      	movs	r1, #0
   1b82c:	ea45 2506 	orr.w	r5, r5, r6, lsl #8
   1b830:	f44f 3600 	mov.w	r6, #131072	; 0x20000
   1b834:	f8c2 1500 	str.w	r1, [r2, #1280]	; 0x500
   1b838:	f8c3 650c 	str.w	r6, [r3, #1292]	; 0x50c
                    reg.PIN_CNF = it.INIT_CNF;
   1b83c:	f8c3 0734 	str.w	r0, [r3, #1844]	; 0x734
   1b840:	f8c3 073c 	str.w	r0, [r3, #1852]	; 0x73c
SA  deinit      ()              { twi_.deinit(); isInit_ = false; }
   1b844:	7039      	strb	r1, [r7, #0]
                        DebugFuncHeader();
   1b846:	f7fd ffd7 	bl	197f8 <app_timer_cnt_get>
   1b84a:	f3c0 030d 	ubfx	r3, r0, #0, #14
   1b84e:	4a29      	ldr	r2, [pc, #164]	; (1b8f4 <TemperatureTmp117<(unsigned char)5>::read()+0x374>)
   1b850:	9200      	str	r2, [sp, #0]
   1b852:	ebc3 1103 	rsb	r1, r3, r3, lsl #4
   1b856:	eb03 0181 	add.w	r1, r3, r1, lsl #2
   1b85a:	4a27      	ldr	r2, [pc, #156]	; (1b8f8 <TemperatureTmp117<(unsigned char)5>::read()+0x378>)
                        v = (rbuf[0]<<8) bitor rbuf[1];
   1b85c:	b22d      	sxth	r5, r5
   1b85e:	0b80      	lsrs	r0, r0, #14
   1b860:	237b      	movs	r3, #123	; 0x7b
   1b862:	f7fe fd03 	bl	1a26c <int Print<DevRtt<0>, unsigned long, unsigned long, char const*, int, char const*>(DevRtt<0>, char const*, unsigned long, unsigned long, char const*, int, char const*) [clone .isra.0] [clone .constprop.0]>
                        if( t == -32768 ){ Debug("  returned default temp value\n"); return f; }
   1b866:	f515 4f00 	cmn.w	r5, #32768	; 0x8000
   1b86a:	d05d      	beq.n	1b928 <TemperatureTmp117<(unsigned char)5>::read()+0x3a8>
                        if( not isInit ){ //first time, populate all with same value
   1b86c:	4825      	ldr	r0, [pc, #148]	; (1b904 <TemperatureTmp117<(unsigned char)5>::read()+0x384>)
SA  x10F    (i16 v) -> i16      { return ((v * 9L)>>6) + 320; }
   1b86e:	eb05 03c5 	add.w	r3, r5, r5, lsl #3
   1b872:	119b      	asrs	r3, r3, #6
   1b874:	7802      	ldrb	r2, [r0, #0]
   1b876:	f503 73a0 	add.w	r3, r3, #320	; 0x140
   1b87a:	b21b      	sxth	r3, r3
   1b87c:	b33a      	cbz	r2, 1b8ce <TemperatureTmp117<(unsigned char)5>::read()+0x34e>
   1b87e:	4922      	ldr	r1, [pc, #136]	; (1b908 <TemperatureTmp117<(unsigned char)5>::read()+0x388>)
                        tempHistory_[idx++] = v;
   1b880:	4a22      	ldr	r2, [pc, #136]	; (1b90c <TemperatureTmp117<(unsigned char)5>::read()+0x38c>)
   1b882:	4c23      	ldr	r4, [pc, #140]	; (1b910 <TemperatureTmp117<(unsigned char)5>::read()+0x390>)
   1b884:	7810      	ldrb	r0, [r2, #0]
   1b886:	f5b3 6fe1 	cmp.w	r3, #1800	; 0x708
   1b88a:	bfa8      	it	ge
   1b88c:	f44f 63e1 	movge.w	r3, #1800	; 0x708
   1b890:	429c      	cmp	r4, r3
   1b892:	bfb8      	it	lt
   1b894:	461c      	movlt	r4, r3
   1b896:	1c43      	adds	r3, r0, #1
   1b898:	b2db      	uxtb	r3, r3
                        if( idx >= HistSiz_ ) idx = 0;
   1b89a:	2b04      	cmp	r3, #4
                        tempHistory_[idx++] = v;
   1b89c:	7013      	strb	r3, [r2, #0]
                        if( idx >= HistSiz_ ) idx = 0;
   1b89e:	bf84      	itt	hi
   1b8a0:	2300      	movhi	r3, #0
   1b8a2:	7013      	strbhi	r3, [r2, #0]
                        Debug("  Tmp117 raw: %d  F: %02d.%d\n", t, f/10, f%10);
   1b8a4:	4b1b      	ldr	r3, [pc, #108]	; (1b914 <TemperatureTmp117<(unsigned char)5>::read()+0x394>)
                        tempHistory_[idx++] = v;
   1b8a6:	f821 4010 	strh.w	r4, [r1, r0, lsl #1]
                        Debug("  Tmp117 raw: %d  F: %02d.%d\n", t, f/10, f%10);
   1b8aa:	fb83 2304 	smull	r2, r3, r3, r4
   1b8ae:	17e1      	asrs	r1, r4, #31
   1b8b0:	ebc1 01a3 	rsb	r1, r1, r3, asr #2
   1b8b4:	eb01 0281 	add.w	r2, r1, r1, lsl #2
   1b8b8:	eba4 0242 	sub.w	r2, r4, r2, lsl #1
   1b8bc:	4628      	mov	r0, r5
   1b8be:	b212      	sxth	r2, r2
   1b8c0:	b209      	sxth	r1, r1
   1b8c2:	f7fe fc8b 	bl	1a1dc <int Print<DevRtt<0>, short, int, int>(DevRtt<0>, char const*, short, int, int) [clone .isra.0] [clone .constprop.0]>
                    }
   1b8c6:	4620      	mov	r0, r4
   1b8c8:	b005      	add	sp, #20
   1b8ca:	e8bd 8ff0 	ldmia.w	sp!, {r4, r5, r6, r7, r8, r9, sl, fp, pc}
                            for( auto& i : tempHistory_ ) i = v;
   1b8ce:	490e      	ldr	r1, [pc, #56]	; (1b908 <TemperatureTmp117<(unsigned char)5>::read()+0x388>)
                            isInit = true;
   1b8d0:	7004      	strb	r4, [r0, #0]
   1b8d2:	f363 020f 	bfi	r2, r3, #0, #16
   1b8d6:	f363 421f 	bfi	r2, r3, #16, #16
                            for( auto& i : tempHistory_ ) i = v;
   1b8da:	600a      	str	r2, [r1, #0]
   1b8dc:	604a      	str	r2, [r1, #4]
   1b8de:	810b      	strh	r3, [r1, #8]
   1b8e0:	e7ce      	b.n	1b880 <TemperatureTmp117<(unsigned char)5>::read()+0x300>
   1b8e2:	bf00      	nop
   1b8e4:	40003000 	.word	0x40003000
   1b8e8:	0001ef50 	.word	0x0001ef50
   1b8ec:	20001a15 	.word	0x20001a15
   1b8f0:	fffffc19 	.word	0xfffffc19
   1b8f4:	0001ece0 	.word	0x0001ece0
   1b8f8:	0001eccc 	.word	0x0001eccc
   1b8fc:	0001ed48 	.word	0x0001ed48
   1b900:	0001ece8 	.word	0x0001ece8
   1b904:	2000199d 	.word	0x2000199d
   1b908:	20001a18 	.word	0x20001a18
   1b90c:	2000199c 	.word	0x2000199c
   1b910:	fffffe70 	.word	0xfffffe70
   1b914:	66666667 	.word	0x66666667
SA  stop            ()          { reg.TASKS.STOP = 1; } //cannot stop while suspended
   1b918:	2301      	movs	r3, #1
SA  isStopped       ()          { return reg.EVENTS.STOPPED; }
   1b91a:	4906      	ldr	r1, [pc, #24]	; (1b934 <TemperatureTmp117<(unsigned char)5>::read()+0x3b4>)
SA  stop            ()          { reg.TASKS.STOP = 1; } //cannot stop while suspended
   1b91c:	6153      	str	r3, [r2, #20]
SA  isStopped       ()          { return reg.EVENTS.STOPPED; }
   1b91e:	f8d1 3104 	ldr.w	r3, [r1, #260]	; 0x104
                                while( not isStopped() ){}
   1b922:	2b00      	cmp	r3, #0
   1b924:	d0fb      	beq.n	1b91e <TemperatureTmp117<(unsigned char)5>::read()+0x39e>
   1b926:	e74f      	b.n	1b7c8 <TemperatureTmp117<(unsigned char)5>::read()+0x248>
                        if( t == -32768 ){ Debug("  returned default temp value\n"); return f; }
   1b928:	4803      	ldr	r0, [pc, #12]	; (1b938 <TemperatureTmp117<(unsigned char)5>::read()+0x3b8>)
   1b92a:	4c04      	ldr	r4, [pc, #16]	; (1b93c <TemperatureTmp117<(unsigned char)5>::read()+0x3bc>)
   1b92c:	f7fe fbd4 	bl	1a0d8 <int Print<DevRtt<0>>(DevRtt<0>, char const*) [clone .isra.0]>
   1b930:	e6cf      	b.n	1b6d2 <TemperatureTmp117<(unsigned char)5>::read()+0x152>
   1b932:	bf00      	nop
   1b934:	40003000 	.word	0x40003000
   1b938:	0001ed28 	.word	0x0001ed28
   1b93c:	fffffc19 	.word	0xfffffc19

0001b940 <MyTemperatureAD<TemperatureTmp117<(unsigned char)5> >::update(unsigned char (&) [31])>:
SA  update          ( u8 (&buf)[31] ) -> void {
   1b940:	e92d 4ff0 	stmdb	sp!, {r4, r5, r6, r7, r8, r9, sl, fp, lr}
   1b944:	b08b      	sub	sp, #44	; 0x2c
   1b946:	4607      	mov	r7, r0
                        i16 f = temp_.read(); //~50us
   1b948:	f7ff fe1a 	bl	1b580 <TemperatureTmp117<(unsigned char)5>::read()>
                        u8 f10 = (f < 0) ? -f%10 : f%10;
   1b94c:	2800      	cmp	r0, #0
   1b94e:	db36      	blt.n	1b9be <MyTemperatureAD<TemperatureTmp117<(unsigned char)5> >::update(unsigned char (&) [31])+0x7e>
   1b950:	4c64      	ldr	r4, [pc, #400]	; (1bae4 <MyTemperatureAD<TemperatureTmp117<(unsigned char)5> >::update(unsigned char (&) [31])+0x1a4>)
   1b952:	17c6      	asrs	r6, r0, #31
   1b954:	fb84 3400 	smull	r3, r4, r4, r0
   1b958:	ebc6 04a4 	rsb	r4, r6, r4, asr #2
   1b95c:	eb04 0484 	add.w	r4, r4, r4, lsl #2
   1b960:	eba0 0444 	sub.w	r4, r0, r4, lsl #1
   1b964:	b224      	sxth	r4, r4
                        f = f/10;
   1b966:	4b5f      	ldr	r3, [pc, #380]	; (1bae4 <MyTemperatureAD<TemperatureTmp117<(unsigned char)5> >::update(unsigned char (&) [31])+0x1a4>)
                        if( saveName_ ) saveName();                        
   1b968:	f8df 91b0 	ldr.w	r9, [pc, #432]	; 1bb1c <MyTemperatureAD<TemperatureTmp117<(unsigned char)5> >::update(unsigned char (&) [31])+0x1dc>
   1b96c:	fb83 3000 	smull	r3, r0, r3, r0
   1b970:	f899 3000 	ldrb.w	r3, [r9]
   1b974:	ebc6 00a0 	rsb	r0, r6, r0, asr #2
                        snprintf( nambuf, 23, "%d.%uF %s", f, f10, flash.readName() );
   1b978:	b206      	sxth	r6, r0
   1b97a:	bb5b      	cbnz	r3, 1b9d4 <MyTemperatureAD<TemperatureTmp117<(unsigned char)5> >::update(unsigned char (&) [31])+0x94>
   1b97c:	4a5a      	ldr	r2, [pc, #360]	; (1bae8 <MyTemperatureAD<TemperatureTmp117<(unsigned char)5> >::update(unsigned char (&) [31])+0x1a8>)
   1b97e:	9400      	str	r4, [sp, #0]
   1b980:	4633      	mov	r3, r6
   1b982:	9201      	str	r2, [sp, #4]
   1b984:	2117      	movs	r1, #23
   1b986:	4a59      	ldr	r2, [pc, #356]	; (1baec <MyTemperatureAD<TemperatureTmp117<(unsigned char)5> >::update(unsigned char (&) [31])+0x1ac>)
   1b988:	a804      	add	r0, sp, #16
   1b98a:	f000 ffd7 	bl	1c93c <sniprintf>
                        u8 idx = Flags01::make( buf, BLE_GAP_ADV_FLAG_BR_EDR_NOT_SUPPORTED ); //3
   1b98e:	2104      	movs	r1, #4
   1b990:	4638      	mov	r0, r7
   1b992:	f7ff f82d 	bl	1a9f0 <Flags01::make(unsigned char*, unsigned char)>
   1b996:	b2c4      	uxtb	r4, r0
                        idx += BatteryService180F::make( &buf[idx] ); //4
   1b998:	1938      	adds	r0, r7, r4
   1b99a:	f7ff f847 	bl	1aa2c <BatteryService180F::make(unsigned char*)>
   1b99e:	4404      	add	r4, r0
   1b9a0:	b2e4      	uxtb	r4, r4
                        idx += CompleteName09::make( &buf[idx], nambuf, 31-7-2 ); // up to 22 chars
   1b9a2:	1938      	adds	r0, r7, r4
   1b9a4:	a904      	add	r1, sp, #16
   1b9a6:	2216      	movs	r2, #22
   1b9a8:	f7ff f82a 	bl	1aa00 <CompleteName09::make(unsigned char*, char const*, unsigned char)>
   1b9ac:	4404      	add	r4, r0
   1b9ae:	b2e4      	uxtb	r4, r4
                        if( idx < 31 ) buf[idx] = 0;
   1b9b0:	2c1e      	cmp	r4, #30
   1b9b2:	d801      	bhi.n	1b9b8 <MyTemperatureAD<TemperatureTmp117<(unsigned char)5> >::update(unsigned char (&) [31])+0x78>
   1b9b4:	2300      	movs	r3, #0
   1b9b6:	553b      	strb	r3, [r7, r4]
                    }
   1b9b8:	b00b      	add	sp, #44	; 0x2c
   1b9ba:	e8bd 8ff0 	ldmia.w	sp!, {r4, r5, r6, r7, r8, r9, sl, fp, pc}
                        u8 f10 = (f < 0) ? -f%10 : f%10;
   1b9be:	4c4c      	ldr	r4, [pc, #304]	; (1baf0 <MyTemperatureAD<TemperatureTmp117<(unsigned char)5> >::update(unsigned char (&) [31])+0x1b0>)
   1b9c0:	4243      	negs	r3, r0
   1b9c2:	fba4 2403 	umull	r2, r4, r4, r3
   1b9c6:	08e4      	lsrs	r4, r4, #3
   1b9c8:	eb04 0484 	add.w	r4, r4, r4, lsl #2
   1b9cc:	eba3 0444 	sub.w	r4, r3, r4, lsl #1
   1b9d0:	17c6      	asrs	r6, r0, #31
   1b9d2:	e7c8      	b.n	1b966 <MyTemperatureAD<TemperatureTmp117<(unsigned char)5> >::update(unsigned char (&) [31])+0x26>
                        Debug( "Flash::saveName : %s\n", fullnameRam_ );          
   1b9d4:	4944      	ldr	r1, [pc, #272]	; (1bae8 <MyTemperatureAD<TemperatureTmp117<(unsigned char)5> >::update(unsigned char (&) [31])+0x1a8>)
   1b9d6:	4847      	ldr	r0, [pc, #284]	; (1baf4 <MyTemperatureAD<TemperatureTmp117<(unsigned char)5> >::update(unsigned char (&) [31])+0x1b4>)
   1b9d8:	f7fe fb92 	bl	1a100 <int Print<DevRtt<0>, char const*>(DevRtt<0>, char const*, char const*) [clone .isra.0]>
                        if( not nrf_sdh_is_enabled() ) return; //these functions use sd
   1b9dc:	f000 fe88 	bl	1c6f0 <nrf_sdh_is_enabled>
   1b9e0:	4682      	mov	sl, r0
   1b9e2:	2800      	cmp	r0, #0
   1b9e4:	d0ca      	beq.n	1b97c <MyTemperatureAD<TemperatureTmp117<(unsigned char)5> >::update(unsigned char (&) [31])+0x3c>
                            if( fullnameFlash_[i] != 0xFF ) return false;
   1b9e6:	f8df 8138 	ldr.w	r8, [pc, #312]	; 1bb20 <MyTemperatureAD<TemperatureTmp117<(unsigned char)5> >::update(unsigned char (&) [31])+0x1e0>
   1b9ea:	f8d8 1000 	ldr.w	r1, [r8]
   1b9ee:	1e4b      	subs	r3, r1, #1
   1b9f0:	311f      	adds	r1, #31
   1b9f2:	e001      	b.n	1b9f8 <MyTemperatureAD<TemperatureTmp117<(unsigned char)5> >::update(unsigned char (&) [31])+0xb8>
                        for( auto i = 0; i < fullnameSiz_; i++ ){
   1b9f4:	428b      	cmp	r3, r1
   1b9f6:	d040      	beq.n	1ba7a <MyTemperatureAD<TemperatureTmp117<(unsigned char)5> >::update(unsigned char (&) [31])+0x13a>
                            if( fullnameFlash_[i] != 0xFF ) return false;
   1b9f8:	f813 2f01 	ldrb.w	r2, [r3, #1]!
   1b9fc:	2aff      	cmp	r2, #255	; 0xff
   1b9fe:	d0f9      	beq.n	1b9f4 <MyTemperatureAD<TemperatureTmp117<(unsigned char)5> >::update(unsigned char (&) [31])+0xb4>
                        if( busy_ ){
   1ba00:	4b3d      	ldr	r3, [pc, #244]	; (1baf8 <MyTemperatureAD<TemperatureTmp117<(unsigned char)5> >::update(unsigned char (&) [31])+0x1b8>)
                        Debug( "Flash::sdErasePage\n" );
   1ba02:	483e      	ldr	r0, [pc, #248]	; (1bafc <MyTemperatureAD<TemperatureTmp117<(unsigned char)5> >::update(unsigned char (&) [31])+0x1bc>)
                        if( busy_ ){
   1ba04:	9302      	str	r3, [sp, #8]
   1ba06:	461d      	mov	r5, r3
                        Debug( "Flash::sdErasePage\n" );
   1ba08:	f7fe fb66 	bl	1a0d8 <int Print<DevRtt<0>>(DevRtt<0>, char const*) [clone .isra.0]>
                        if( busy_ ){
   1ba0c:	782b      	ldrb	r3, [r5, #0]
   1ba0e:	2b00      	cmp	r3, #0
   1ba10:	d164      	bne.n	1badc <MyTemperatureAD<TemperatureTmp117<(unsigned char)5> >::update(unsigned char (&) [31])+0x19c>
                        Debug( "fullname flash values:\n    " );
   1ba12:	483b      	ldr	r0, [pc, #236]	; (1bb00 <MyTemperatureAD<TemperatureTmp117<(unsigned char)5> >::update(unsigned char (&) [31])+0x1c0>)
   1ba14:	f7fe fb60 	bl	1a0d8 <int Print<DevRtt<0>>(DevRtt<0>, char const*) [clone .isra.0]>
                            Debug( "%02X", fullnameFlash_[i] );
   1ba18:	f8d8 3000 	ldr.w	r3, [r8]
   1ba1c:	7818      	ldrb	r0, [r3, #0]
   1ba1e:	f7fe fc49 	bl	1a2b4 <int Print<DevRtt<0>, char>(DevRtt<0>, char const*, char) [clone .isra.0] [clone .constprop.0]>
                        for( auto i = 0; i < fullnameSiz_; i++ ){
   1ba22:	2501      	movs	r5, #1
   1ba24:	e002      	b.n	1ba2c <MyTemperatureAD<TemperatureTmp117<(unsigned char)5> >::update(unsigned char (&) [31])+0xec>
   1ba26:	3501      	adds	r5, #1
   1ba28:	2d20      	cmp	r5, #32
   1ba2a:	d042      	beq.n	1bab2 <MyTemperatureAD<TemperatureTmp117<(unsigned char)5> >::update(unsigned char (&) [31])+0x172>
                            Debug( "%02X", fullnameFlash_[i] );
   1ba2c:	f8d8 3000 	ldr.w	r3, [r8]
   1ba30:	5d58      	ldrb	r0, [r3, r5]
   1ba32:	f7fe fc3f 	bl	1a2b4 <int Print<DevRtt<0>, char>(DevRtt<0>, char const*, char) [clone .isra.0] [clone .constprop.0]>
                            if( (i bitand 15) == 15 ){
   1ba36:	f005 030f 	and.w	r3, r5, #15
   1ba3a:	2b0f      	cmp	r3, #15
   1ba3c:	d1f3      	bne.n	1ba26 <MyTemperatureAD<TemperatureTmp117<(unsigned char)5> >::update(unsigned char (&) [31])+0xe6>
                                Debug(" ");
   1ba3e:	4831      	ldr	r0, [pc, #196]	; (1bb04 <MyTemperatureAD<TemperatureTmp117<(unsigned char)5> >::update(unsigned char (&) [31])+0x1c4>)
   1ba40:	f7fe fb4a 	bl	1a0d8 <int Print<DevRtt<0>>(DevRtt<0>, char const*) [clone .isra.0]>
                                for( auto j = i-15; j <= i; j++ ){
   1ba44:	f1a5 0b0f 	sub.w	fp, r5, #15
   1ba48:	3501      	adds	r5, #1
                                    Debug("%c", fullnameFlash_[j] > ' ' and fullnameFlash_[j] < 128 ? 
   1ba4a:	f8d8 2000 	ldr.w	r2, [r8]
   1ba4e:	f812 000b 	ldrb.w	r0, [r2, fp]
   1ba52:	f1a0 0221 	sub.w	r2, r0, #33	; 0x21
   1ba56:	2a5e      	cmp	r2, #94	; 0x5e
                                for( auto j = i-15; j <= i; j++ ){
   1ba58:	f10b 0b01 	add.w	fp, fp, #1
                                    Debug("%c", fullnameFlash_[j] > ' ' and fullnameFlash_[j] < 128 ? 
   1ba5c:	d807      	bhi.n	1ba6e <MyTemperatureAD<TemperatureTmp117<(unsigned char)5> >::update(unsigned char (&) [31])+0x12e>
   1ba5e:	f7fe fc3f 	bl	1a2e0 <int Print<DevRtt<0>, char>(DevRtt<0>, char const*, char) [clone .isra.0] [clone .constprop.1]>
                                for( auto j = i-15; j <= i; j++ ){
   1ba62:	455d      	cmp	r5, fp
   1ba64:	d1f1      	bne.n	1ba4a <MyTemperatureAD<TemperatureTmp117<(unsigned char)5> >::update(unsigned char (&) [31])+0x10a>
                                Debug("\n    ");
   1ba66:	4828      	ldr	r0, [pc, #160]	; (1bb08 <MyTemperatureAD<TemperatureTmp117<(unsigned char)5> >::update(unsigned char (&) [31])+0x1c8>)
   1ba68:	f7fe fb36 	bl	1a0d8 <int Print<DevRtt<0>>(DevRtt<0>, char const*) [clone .isra.0]>
   1ba6c:	e7dc      	b.n	1ba28 <MyTemperatureAD<TemperatureTmp117<(unsigned char)5> >::update(unsigned char (&) [31])+0xe8>
                                    Debug("%c", fullnameFlash_[j] > ' ' and fullnameFlash_[j] < 128 ? 
   1ba6e:	202e      	movs	r0, #46	; 0x2e
   1ba70:	f7fe fc36 	bl	1a2e0 <int Print<DevRtt<0>, char>(DevRtt<0>, char const*, char) [clone .isra.0] [clone .constprop.1]>
                                for( auto j = i-15; j <= i; j++ ){
   1ba74:	45ab      	cmp	fp, r5
   1ba76:	d1e8      	bne.n	1ba4a <MyTemperatureAD<TemperatureTmp117<(unsigned char)5> >::update(unsigned char (&) [31])+0x10a>
   1ba78:	e7f5      	b.n	1ba66 <MyTemperatureAD<TemperatureTmp117<(unsigned char)5> >::update(unsigned char (&) [31])+0x126>
   1ba7a:	4b1f      	ldr	r3, [pc, #124]	; (1baf8 <MyTemperatureAD<TemperatureTmp117<(unsigned char)5> >::update(unsigned char (&) [31])+0x1b8>)
   1ba7c:	9302      	str	r3, [sp, #8]
                        Debug( "Flash::sdFlashWrite32\n" );
   1ba7e:	4823      	ldr	r0, [pc, #140]	; (1bb0c <MyTemperatureAD<TemperatureTmp117<(unsigned char)5> >::update(unsigned char (&) [31])+0x1cc>)
   1ba80:	f7fe fb2a 	bl	1a0d8 <int Print<DevRtt<0>>(DevRtt<0>, char const*) [clone .isra.0]>
                        if( busy_ ){
   1ba84:	9b02      	ldr	r3, [sp, #8]
   1ba86:	781b      	ldrb	r3, [r3, #0]
   1ba88:	bb13      	cbnz	r3, 1bad0 <MyTemperatureAD<TemperatureTmp117<(unsigned char)5> >::update(unsigned char (&) [31])+0x190>
                        u32 err = sd_flash_write((u32*)fullnameFlash_, vals, valsN );
   1ba8a:	4917      	ldr	r1, [pc, #92]	; (1bae8 <MyTemperatureAD<TemperatureTmp117<(unsigned char)5> >::update(unsigned char (&) [31])+0x1a8>)
   1ba8c:	f8d8 0000 	ldr.w	r0, [r8]
   1ba90:	9303      	str	r3, [sp, #12]
   1ba92:	2208      	movs	r2, #8
   1ba94:	f7fe faf8 	bl	1a088 <sd_flash_write>
   1ba98:	4605      	mov	r5, r0
                        Debug( "    return val: %u\n", err );
   1ba9a:	4601      	mov	r1, r0
   1ba9c:	481c      	ldr	r0, [pc, #112]	; (1bb10 <MyTemperatureAD<TemperatureTmp117<(unsigned char)5> >::update(unsigned char (&) [31])+0x1d0>)
   1ba9e:	f7fe fb07 	bl	1a0b0 <int Print<DevRtt<0>, unsigned long>(DevRtt<0>, char const*, unsigned long) [clone .isra.0]>
                        if( err != NRF_SUCCESS ) return false;
   1baa2:	b99d      	cbnz	r5, 1bacc <MyTemperatureAD<TemperatureTmp117<(unsigned char)5> >::update(unsigned char (&) [31])+0x18c>
                        busy_ = true;
   1baa4:	9b02      	ldr	r3, [sp, #8]
   1baa6:	2201      	movs	r2, #1
   1baa8:	701a      	strb	r2, [r3, #0]
                        return true;                       
   1baaa:	9b03      	ldr	r3, [sp, #12]
                        saveName_ = not sdFlashWrite32( (const u32*)fullnameRam_, fullnameSiz_/4 );
   1baac:	f889 3000 	strb.w	r3, [r9]
   1bab0:	e764      	b.n	1b97c <MyTemperatureAD<TemperatureTmp117<(unsigned char)5> >::update(unsigned char (&) [31])+0x3c>
                        Debug( "\n" );
   1bab2:	4818      	ldr	r0, [pc, #96]	; (1bb14 <MyTemperatureAD<TemperatureTmp117<(unsigned char)5> >::update(unsigned char (&) [31])+0x1d4>)
   1bab4:	f7fe fb10 	bl	1a0d8 <int Print<DevRtt<0>>(DevRtt<0>, char const*) [clone .isra.0]>
                        u32 err = sd_flash_page_erase(lastPageFlash_);
   1bab8:	202f      	movs	r0, #47	; 0x2f
   1baba:	f7fe fae7 	bl	1a08c <sd_flash_page_erase>
                        if( err != NRF_SUCCESS ) return false;
   1babe:	2800      	cmp	r0, #0
   1bac0:	f47f af5c 	bne.w	1b97c <MyTemperatureAD<TemperatureTmp117<(unsigned char)5> >::update(unsigned char (&) [31])+0x3c>
                        busy_ = true;
   1bac4:	9a02      	ldr	r2, [sp, #8]
   1bac6:	2301      	movs	r3, #1
   1bac8:	7013      	strb	r3, [r2, #0]
                        return true;
   1baca:	e7d8      	b.n	1ba7e <MyTemperatureAD<TemperatureTmp117<(unsigned char)5> >::update(unsigned char (&) [31])+0x13e>
   1bacc:	4653      	mov	r3, sl
   1bace:	e7ed      	b.n	1baac <MyTemperatureAD<TemperatureTmp117<(unsigned char)5> >::update(unsigned char (&) [31])+0x16c>
                            Debug( "    flash busy\n" );
   1bad0:	4811      	ldr	r0, [pc, #68]	; (1bb18 <MyTemperatureAD<TemperatureTmp117<(unsigned char)5> >::update(unsigned char (&) [31])+0x1d8>)
   1bad2:	9302      	str	r3, [sp, #8]
   1bad4:	f7fe fb00 	bl	1a0d8 <int Print<DevRtt<0>>(DevRtt<0>, char const*) [clone .isra.0]>
                            return false;
   1bad8:	9b02      	ldr	r3, [sp, #8]
   1bada:	e7e7      	b.n	1baac <MyTemperatureAD<TemperatureTmp117<(unsigned char)5> >::update(unsigned char (&) [31])+0x16c>
                            Debug( "    flash busy\n" );
   1badc:	480e      	ldr	r0, [pc, #56]	; (1bb18 <MyTemperatureAD<TemperatureTmp117<(unsigned char)5> >::update(unsigned char (&) [31])+0x1d8>)
   1bade:	f7fe fafb 	bl	1a0d8 <int Print<DevRtt<0>>(DevRtt<0>, char const*) [clone .isra.0]>
                            return false;
   1bae2:	e74b      	b.n	1b97c <MyTemperatureAD<TemperatureTmp117<(unsigned char)5> >::update(unsigned char (&) [31])+0x3c>
   1bae4:	66666667 	.word	0x66666667
   1bae8:	20001a24 	.word	0x20001a24
   1baec:	0001ed88 	.word	0x0001ed88
   1baf0:	cccccccd 	.word	0xcccccccd
   1baf4:	0001ec64 	.word	0x0001ec64
   1baf8:	20001a22 	.word	0x20001a22
   1bafc:	0001ecb8 	.word	0x0001ecb8
   1bb00:	0001eb88 	.word	0x0001eb88
   1bb04:	0001eba8 	.word	0x0001eba8
   1bb08:	0001eba4 	.word	0x0001eba4
   1bb0c:	0001ec8c 	.word	0x0001ec8c
   1bb10:	0001eca4 	.word	0x0001eca4
   1bb14:	0001ec38 	.word	0x0001ec38
   1bb18:	0001ec7c 	.word	0x0001ec7c
   1bb1c:	20001a23 	.word	0x20001a23
   1bb20:	20001834 	.word	0x20001834

0001bb24 <Advertising<MyTemperatureAD<TemperatureTmp117<(unsigned char)5> >, (unsigned short)3000, 20000ul>::power(unsigned char)>:
SA  power           (u8 v) {
   1bb24:	b508      	push	{r3, lr}
                        error.check( sd_ble_gap_tx_power_set(BLE_GAP_TX_POWER_ROLE_ADV, handle_, SD_TX_LEVELS[v] ) );
   1bb26:	2809      	cmp	r0, #9
   1bb28:	4b06      	ldr	r3, [pc, #24]	; (1bb44 <Advertising<MyTemperatureAD<TemperatureTmp117<(unsigned char)5> >, (unsigned short)3000, 20000ul>::power(unsigned char)+0x20>)
   1bb2a:	4a07      	ldr	r2, [pc, #28]	; (1bb48 <Advertising<MyTemperatureAD<TemperatureTmp117<(unsigned char)5> >, (unsigned short)3000, 20000ul>::power(unsigned char)+0x24>)
   1bb2c:	7819      	ldrb	r1, [r3, #0]
   1bb2e:	bf28      	it	cs
   1bb30:	2009      	movcs	r0, #9
   1bb32:	5612      	ldrsb	r2, [r2, r0]
   1bb34:	2001      	movs	r0, #1
   1bb36:	f7fe fab1 	bl	1a09c <sd_ble_gap_tx_power_set>
                    }
   1bb3a:	e8bd 4008 	ldmia.w	sp!, {r3, lr}
                        error.check( sd_ble_gap_tx_power_set(BLE_GAP_TX_POWER_ROLE_ADV, handle_, SD_TX_LEVELS[v] ) );
   1bb3e:	b200      	sxth	r0, r0
   1bb40:	f7fe bc28 	b.w	1a394 <Errors::check(short, bool) [clone .constprop.0]>
   1bb44:	20001830 	.word	0x20001830
   1bb48:	0001ef44 	.word	0x0001ef44

0001bb4c <Advertising<MyTemperatureAD<TemperatureTmp117<(unsigned char)5> >, (unsigned short)3000, 20000ul>::start()>:
SA  start           () -> void {
   1bb4c:	b538      	push	{r3, r4, r5, lr}
                        if( isActive_ ) return;
   1bb4e:	4c46      	ldr	r4, [pc, #280]	; (1bc68 <Advertising<MyTemperatureAD<TemperatureTmp117<(unsigned char)5> >, (unsigned short)3000, 20000ul>::start()+0x11c>)
   1bb50:	7823      	ldrb	r3, [r4, #0]
   1bb52:	2b00      	cmp	r3, #0
   1bb54:	d158      	bne.n	1bc08 <Advertising<MyTemperatureAD<TemperatureTmp117<(unsigned char)5> >, (unsigned short)3000, 20000ul>::start()+0xbc>
                        if( connectableTimeout_ and not --connectableTimeout_ ) connectable( false );
   1bb56:	4b45      	ldr	r3, [pc, #276]	; (1bc6c <Advertising<MyTemperatureAD<TemperatureTmp117<(unsigned char)5> >, (unsigned short)3000, 20000ul>::start()+0x120>)
   1bb58:	7818      	ldrb	r0, [r3, #0]
   1bb5a:	b120      	cbz	r0, 1bb66 <Advertising<MyTemperatureAD<TemperatureTmp117<(unsigned char)5> >, (unsigned short)3000, 20000ul>::start()+0x1a>
   1bb5c:	3801      	subs	r0, #1
   1bb5e:	b2c0      	uxtb	r0, r0
   1bb60:	7018      	strb	r0, [r3, #0]
   1bb62:	2800      	cmp	r0, #0
   1bb64:	d07d      	beq.n	1bc62 <Advertising<MyTemperatureAD<TemperatureTmp117<(unsigned char)5> >, (unsigned short)3000, 20000ul>::start()+0x116>
                        params_.properties.type = isConnectable_ ?
   1bb66:	4b42      	ldr	r3, [pc, #264]	; (1bc70 <Advertising<MyTemperatureAD<TemperatureTmp117<(unsigned char)5> >, (unsigned short)3000, 20000ul>::start()+0x124>)
                        error.check( sd_ble_gap_adv_set_configure(&handle_, &pdata_, &params_) );
   1bb68:	4d42      	ldr	r5, [pc, #264]	; (1bc74 <Advertising<MyTemperatureAD<TemperatureTmp117<(unsigned char)5> >, (unsigned short)3000, 20000ul>::start()+0x128>)
                        params_.properties.type = isConnectable_ ?
   1bb6a:	781b      	ldrb	r3, [r3, #0]
   1bb6c:	4a42      	ldr	r2, [pc, #264]	; (1bc78 <Advertising<MyTemperatureAD<TemperatureTmp117<(unsigned char)5> >, (unsigned short)3000, 20000ul>::start()+0x12c>)
                        error.check( sd_ble_gap_adv_set_configure(&handle_, &pdata_, &params_) );
   1bb6e:	4943      	ldr	r1, [pc, #268]	; (1bc7c <Advertising<MyTemperatureAD<TemperatureTmp117<(unsigned char)5> >, (unsigned short)3000, 20000ul>::start()+0x130>)
                        params_.properties.type = isConnectable_ ?
   1bb70:	2b00      	cmp	r3, #0
   1bb72:	bf14      	ite	ne
   1bb74:	2301      	movne	r3, #1
   1bb76:	2305      	moveq	r3, #5
                        error.check( sd_ble_gap_adv_set_configure(&handle_, &pdata_, &params_) );
   1bb78:	4628      	mov	r0, r5
                        params_.properties.type = isConnectable_ ?
   1bb7a:	7013      	strb	r3, [r2, #0]
                        error.check( sd_ble_gap_adv_set_configure(&handle_, &pdata_, &params_) );
   1bb7c:	f7fe fa88 	bl	1a090 <sd_ble_gap_adv_set_configure>
   1bb80:	b200      	sxth	r0, r0
   1bb82:	f7fe fc07 	bl	1a394 <Errors::check(short, bool) [clone .constprop.0]>
                        error.check( sd_ble_gap_adv_start(handle_, BLE_CONN_CFG_TAG_DEFAULT) );
   1bb86:	2100      	movs	r1, #0
   1bb88:	7828      	ldrb	r0, [r5, #0]
   1bb8a:	f7fe fa83 	bl	1a094 <sd_ble_gap_adv_start>
   1bb8e:	b200      	sxth	r0, r0
   1bb90:	f7fe fc00 	bl	1a394 <Errors::check(short, bool) [clone .constprop.0]>
                        power( txPower_ );
   1bb94:	4a3a      	ldr	r2, [pc, #232]	; (1bc80 <Advertising<MyTemperatureAD<TemperatureTmp117<(unsigned char)5> >, (unsigned short)3000, 20000ul>::start()+0x134>)
                        isActive_ = true;
   1bb96:	2301      	movs	r3, #1
                        power( txPower_ );
   1bb98:	7810      	ldrb	r0, [r2, #0]
                        isActive_ = true;
   1bb9a:	7023      	strb	r3, [r4, #0]
                        power( txPower_ );
   1bb9c:	f7ff ffc2 	bl	1bb24 <Advertising<MyTemperatureAD<TemperatureTmp117<(unsigned char)5> >, (unsigned short)3000, 20000ul>::power(unsigned char)>
    public:
//============

SA  read            () { return update(); }

SA  isOk            () { return voltage_ > 2100 ; }
   1bba0:	4b38      	ldr	r3, [pc, #224]	; (1bc84 <Advertising<MyTemperatureAD<TemperatureTmp117<(unsigned char)5> >, (unsigned short)3000, 20000ul>::start()+0x138>)
                        if( battery.isOk() ) board.ok(); else board.caution();
   1bba2:	f9b3 2000 	ldrsh.w	r2, [r3]
   1bba6:	f640 0334 	movw	r3, #2100	; 0x834
   1bbaa:	429a      	cmp	r2, r3
SA  isOutput    ()          { return reg.DIRP; }
   1bbac:	f04f 43a0 	mov.w	r3, #1342177280	; 0x50000000
   1bbb0:	dd2b      	ble.n	1bc0a <Advertising<MyTemperatureAD<TemperatureTmp117<(unsigned char)5> >, (unsigned short)3000, 20000ul>::start()+0xbe>
   1bbb2:	f8d3 2720 	ldr.w	r2, [r3, #1824]	; 0x720
                    if( not isOutput() ) return;
   1bbb6:	07d1      	lsls	r1, r2, #31
   1bbb8:	d526      	bpl.n	1bc08 <Advertising<MyTemperatureAD<TemperatureTmp117<(unsigned char)5> >, (unsigned short)3000, 20000ul>::start()+0xbc>
SA  toggle      ()          { if( reg.OUT ) low(); else high(); }
   1bbba:	f8d3 2504 	ldr.w	r2, [r3, #1284]	; 0x504
   1bbbe:	4c32      	ldr	r4, [pc, #200]	; (1bc88 <Advertising<MyTemperatureAD<TemperatureTmp117<(unsigned char)5> >, (unsigned short)3000, 20000ul>::start()+0x13c>)
   1bbc0:	f412 7f80 	tst.w	r2, #256	; 0x100
SA  low         ()          { reg.OUTCLR = bm_; } //register wide write
   1bbc4:	f44f 7280 	mov.w	r2, #256	; 0x100
   1bbc8:	bf14      	ite	ne
   1bbca:	f8c3 250c 	strne.w	r2, [r3, #1292]	; 0x50c
SA  high        ()          { reg.OUTSET = bm_; } //register wide write
   1bbce:	f8c3 2508 	streq.w	r2, [r3, #1288]	; 0x508
                        params_.properties.type = isConnectable_ ?
   1bbd2:	2505      	movs	r5, #5
   1bbd4:	f044 0401 	orr.w	r4, r4, #1
   1bbd8:	f44f 407a 	mov.w	r0, #64000	; 0xfa00
   1bbdc:	47a0      	blx	r4
   1bbde:	3d01      	subs	r5, #1
   1bbe0:	d1fa      	bne.n	1bbd8 <Advertising<MyTemperatureAD<TemperatureTmp117<(unsigned char)5> >, (unsigned short)3000, 20000ul>::start()+0x8c>
SA  toggle      ()          { if( reg.OUT ) low(); else high(); }
   1bbe2:	f04f 43a0 	mov.w	r3, #1342177280	; 0x50000000
   1bbe6:	2505      	movs	r5, #5
   1bbe8:	f8d3 2504 	ldr.w	r2, [r3, #1284]	; 0x504
   1bbec:	f412 7f80 	tst.w	r2, #256	; 0x100
SA  low         ()          { reg.OUTCLR = bm_; } //register wide write
   1bbf0:	f44f 7280 	mov.w	r2, #256	; 0x100
   1bbf4:	bf14      	ite	ne
   1bbf6:	f8c3 250c 	strne.w	r2, [r3, #1292]	; 0x50c
SA  high        ()          { reg.OUTSET = bm_; } //register wide write
   1bbfa:	f8c3 2508 	streq.w	r2, [r3, #1288]	; 0x508
   1bbfe:	f44f 407a 	mov.w	r0, #64000	; 0xfa00
   1bc02:	47a0      	blx	r4
   1bc04:	3d01      	subs	r5, #1
   1bc06:	d1fa      	bne.n	1bbfe <Advertising<MyTemperatureAD<TemperatureTmp117<(unsigned char)5> >, (unsigned short)3000, 20000ul>::start()+0xb2>
                    }
   1bc08:	bd38      	pop	{r3, r4, r5, pc}
SA  isOutput    ()          { return reg.DIRP; }
   1bc0a:	f8d3 271c 	ldr.w	r2, [r3, #1820]	; 0x71c
                    if( not isOutput() ) return;
   1bc0e:	07d2      	lsls	r2, r2, #31
   1bc10:	d5fa      	bpl.n	1bc08 <Advertising<MyTemperatureAD<TemperatureTmp117<(unsigned char)5> >, (unsigned short)3000, 20000ul>::start()+0xbc>
SA  toggle      ()          { if( reg.OUT ) low(); else high(); }
   1bc12:	f8d3 2504 	ldr.w	r2, [r3, #1284]	; 0x504
   1bc16:	4c1c      	ldr	r4, [pc, #112]	; (1bc88 <Advertising<MyTemperatureAD<TemperatureTmp117<(unsigned char)5> >, (unsigned short)3000, 20000ul>::start()+0x13c>)
   1bc18:	f012 0f80 	tst.w	r2, #128	; 0x80
SA  low         ()          { reg.OUTCLR = bm_; } //register wide write
   1bc1c:	f04f 0280 	mov.w	r2, #128	; 0x80
   1bc20:	bf14      	ite	ne
   1bc22:	f8c3 250c 	strne.w	r2, [r3, #1292]	; 0x50c
SA  high        ()          { reg.OUTSET = bm_; } //register wide write
   1bc26:	f8c3 2508 	streq.w	r2, [r3, #1288]	; 0x508
                        params_.properties.type = isConnectable_ ?
   1bc2a:	2505      	movs	r5, #5
   1bc2c:	f044 0401 	orr.w	r4, r4, #1
   1bc30:	f44f 407a 	mov.w	r0, #64000	; 0xfa00
   1bc34:	47a0      	blx	r4
   1bc36:	3d01      	subs	r5, #1
   1bc38:	d1fa      	bne.n	1bc30 <Advertising<MyTemperatureAD<TemperatureTmp117<(unsigned char)5> >, (unsigned short)3000, 20000ul>::start()+0xe4>
SA  toggle      ()          { if( reg.OUT ) low(); else high(); }
   1bc3a:	f04f 43a0 	mov.w	r3, #1342177280	; 0x50000000
   1bc3e:	2505      	movs	r5, #5
   1bc40:	f8d3 2504 	ldr.w	r2, [r3, #1284]	; 0x504
   1bc44:	f012 0f80 	tst.w	r2, #128	; 0x80
SA  low         ()          { reg.OUTCLR = bm_; } //register wide write
   1bc48:	f04f 0280 	mov.w	r2, #128	; 0x80
   1bc4c:	bf14      	ite	ne
   1bc4e:	f8c3 250c 	strne.w	r2, [r3, #1292]	; 0x50c
SA  high        ()          { reg.OUTSET = bm_; } //register wide write
   1bc52:	f8c3 2508 	streq.w	r2, [r3, #1288]	; 0x508
   1bc56:	f44f 407a 	mov.w	r0, #64000	; 0xfa00
   1bc5a:	47a0      	blx	r4
   1bc5c:	3d01      	subs	r5, #1
   1bc5e:	d1fa      	bne.n	1bc56 <Advertising<MyTemperatureAD<TemperatureTmp117<(unsigned char)5> >, (unsigned short)3000, 20000ul>::start()+0x10a>
                    }
   1bc60:	bd38      	pop	{r3, r4, r5, pc}
                        if( connectableTimeout_ and not --connectableTimeout_ ) connectable( false );
   1bc62:	f7fe ff81 	bl	1ab68 <Advertising<MyTemperatureAD<TemperatureTmp117<(unsigned char)5> >, (unsigned short)3000, 20000ul>::connectable(bool)>
   1bc66:	e77e      	b.n	1bb66 <Advertising<MyTemperatureAD<TemperatureTmp117<(unsigned char)5> >, (unsigned short)3000, 20000ul>::start()+0x1a>
   1bc68:	200019d8 	.word	0x200019d8
   1bc6c:	20001810 	.word	0x20001810
   1bc70:	20001811 	.word	0x20001811
   1bc74:	20001830 	.word	0x20001830
   1bc78:	200019fc 	.word	0x200019fc
   1bc7c:	20001820 	.word	0x20001820
   1bc80:	20001a14 	.word	0x20001a14
   1bc84:	20001a46 	.word	0x20001a46
   1bc88:	0001ef50 	.word	0x0001ef50

0001bc8c <Advertising<MyTemperatureAD<TemperatureTmp117<(unsigned char)5> >, (unsigned short)3000, 20000ul>::update(void*)>:
SA  update          (void* pcontext = nullptr) -> void {
   1bc8c:	e92d 47f0 	stmdb	sp!, {r4, r5, r6, r7, r8, r9, sl, lr}
                        ADdata_.update(buffer_);
   1bc90:	4f29      	ldr	r7, [pc, #164]	; (1bd38 <Advertising<MyTemperatureAD<TemperatureTmp117<(unsigned char)5> >, (unsigned short)3000, 20000ul>::update(void*)+0xac>)
SA  update          (void* pcontext = nullptr) -> void {
   1bc92:	b082      	sub	sp, #8
                        stop();
   1bc94:	f7ff fc60 	bl	1b558 <Advertising<MyTemperatureAD<TemperatureTmp117<(unsigned char)5> >, (unsigned short)3000, 20000ul>::stop()>
                        ADdata_.update(buffer_);
   1bc98:	4638      	mov	r0, r7
   1bc9a:	f7ff fe51 	bl	1b940 <MyTemperatureAD<TemperatureTmp117<(unsigned char)5> >::update(unsigned char (&) [31])>
                        DebugFuncHeader();
   1bc9e:	f7fd fdab 	bl	197f8 <app_timer_cnt_get>
   1bca2:	f3c0 030d 	ubfx	r3, r0, #0, #14
   1bca6:	4a25      	ldr	r2, [pc, #148]	; (1bd3c <Advertising<MyTemperatureAD<TemperatureTmp117<(unsigned char)5> >, (unsigned short)3000, 20000ul>::update(void*)+0xb0>)
   1bca8:	9200      	str	r2, [sp, #0]
   1bcaa:	ebc3 1103 	rsb	r1, r3, r3, lsl #4
   1bcae:	eb03 0181 	add.w	r1, r3, r1, lsl #2
   1bcb2:	4a23      	ldr	r2, [pc, #140]	; (1bd40 <Advertising<MyTemperatureAD<TemperatureTmp117<(unsigned char)5> >, (unsigned short)3000, 20000ul>::update(void*)+0xb4>)
   1bcb4:	23d2      	movs	r3, #210	; 0xd2
   1bcb6:	0b80      	lsrs	r0, r0, #14
   1bcb8:	f7fe fad8 	bl	1a26c <int Print<DevRtt<0>, unsigned long, unsigned long, char const*, int, char const*>(DevRtt<0>, char const*, unsigned long, unsigned long, char const*, int, char const*) [clone .isra.0] [clone .constprop.0]>
                        Debug( FG CYAN "  -advertising packet-\n" FG WHITE );
   1bcbc:	4821      	ldr	r0, [pc, #132]	; (1bd44 <Advertising<MyTemperatureAD<TemperatureTmp117<(unsigned char)5> >, (unsigned short)3000, 20000ul>::update(void*)+0xb8>)
   1bcbe:	f7fe fa0b 	bl	1a0d8 <int Print<DevRtt<0>>(DevRtt<0>, char const*) [clone .isra.0]>
                        while( buffer_[i] ){
   1bcc2:	7838      	ldrb	r0, [r7, #0]
   1bcc4:	b310      	cbz	r0, 1bd0c <Advertising<MyTemperatureAD<TemperatureTmp117<(unsigned char)5> >, (unsigned short)3000, 20000ul>::update(void*)+0x80>
                            Debug( "\n" );
   1bcc6:	f8df 9080 	ldr.w	r9, [pc, #128]	; 1bd48 <Advertising<MyTemperatureAD<TemperatureTmp117<(unsigned char)5> >, (unsigned short)3000, 20000ul>::update(void*)+0xbc>
                        auto i = 0;
   1bcca:	2500      	movs	r5, #0
   1bccc:	f107 0a02 	add.w	sl, r7, #2
                            auto typ = buffer_[i++];
   1bcd0:	197b      	adds	r3, r7, r5
                            Debug( "  len: %2u  type: %02x  data: ", len--, typ );
   1bcd2:	1e46      	subs	r6, r0, #1
                            auto typ = buffer_[i++];
   1bcd4:	785c      	ldrb	r4, [r3, #1]
                            Debug( "  len: %2u  type: %02x  data: ", len--, typ );
   1bcd6:	4621      	mov	r1, r4
   1bcd8:	f7fe fa98 	bl	1a20c <int Print<DevRtt<0>, unsigned char, unsigned char>(DevRtt<0>, char const*, unsigned char, unsigned char) [clone .isra.0] [clone .constprop.0]>
                            if( typ == 9 ){ Debug( "%.*s ", len, &buffer_[i] ); }
   1bcdc:	2c09      	cmp	r4, #9
                            Debug( "  len: %2u  type: %02x  data: ", len--, typ );
   1bcde:	b2f6      	uxtb	r6, r6
                            auto typ = buffer_[i++];
   1bce0:	f105 0802 	add.w	r8, r5, #2
                            if( typ == 9 ){ Debug( "%.*s ", len, &buffer_[i] ); }
   1bce4:	d01a      	beq.n	1bd1c <Advertising<MyTemperatureAD<TemperatureTmp117<(unsigned char)5> >, (unsigned short)3000, 20000ul>::update(void*)+0x90>
                                for( auto j = 0; j < len; j++ ){ Debug( "%02X ", buffer_[i+j] ); }
   1bce6:	b14e      	cbz	r6, 1bcfc <Advertising<MyTemperatureAD<TemperatureTmp117<(unsigned char)5> >, (unsigned short)3000, 20000ul>::update(void*)+0x70>
   1bce8:	4455      	add	r5, sl
   1bcea:	4435      	add	r5, r6
   1bcec:	eb07 0408 	add.w	r4, r7, r8
   1bcf0:	f814 0b01 	ldrb.w	r0, [r4], #1
   1bcf4:	f7fe fb0a 	bl	1a30c <int Print<DevRtt<0>, char>(DevRtt<0>, char const*, char) [clone .isra.0] [clone .constprop.2]>
   1bcf8:	42ac      	cmp	r4, r5
   1bcfa:	d1f9      	bne.n	1bcf0 <Advertising<MyTemperatureAD<TemperatureTmp117<(unsigned char)5> >, (unsigned short)3000, 20000ul>::update(void*)+0x64>
                            i += len;
   1bcfc:	eb08 0506 	add.w	r5, r8, r6
                            Debug( "\n" );
   1bd00:	4648      	mov	r0, r9
   1bd02:	f7fe f9e9 	bl	1a0d8 <int Print<DevRtt<0>>(DevRtt<0>, char const*) [clone .isra.0]>
                        while( buffer_[i] ){
   1bd06:	5d78      	ldrb	r0, [r7, r5]
   1bd08:	2800      	cmp	r0, #0
   1bd0a:	d1e1      	bne.n	1bcd0 <Advertising<MyTemperatureAD<TemperatureTmp117<(unsigned char)5> >, (unsigned short)3000, 20000ul>::update(void*)+0x44>
                        Debug( "\n" );
   1bd0c:	480e      	ldr	r0, [pc, #56]	; (1bd48 <Advertising<MyTemperatureAD<TemperatureTmp117<(unsigned char)5> >, (unsigned short)3000, 20000ul>::update(void*)+0xbc>)
   1bd0e:	f7fe f9e3 	bl	1a0d8 <int Print<DevRtt<0>>(DevRtt<0>, char const*) [clone .isra.0]>
                        start();
   1bd12:	f7ff ff1b 	bl	1bb4c <Advertising<MyTemperatureAD<TemperatureTmp117<(unsigned char)5> >, (unsigned short)3000, 20000ul>::start()>
                    }
   1bd16:	b002      	add	sp, #8
   1bd18:	e8bd 87f0 	ldmia.w	sp!, {r4, r5, r6, r7, r8, r9, sl, pc}
                            if( typ == 9 ){ Debug( "%.*s ", len, &buffer_[i] ); }
   1bd1c:	eb07 0108 	add.w	r1, r7, r8
   1bd20:	4630      	mov	r0, r6
                            i += len;
   1bd22:	eb08 0506 	add.w	r5, r8, r6
                            if( typ == 9 ){ Debug( "%.*s ", len, &buffer_[i] ); }
   1bd26:	f7fe fa89 	bl	1a23c <int Print<DevRtt<0>, unsigned char, unsigned char*>(DevRtt<0>, char const*, unsigned char, unsigned char*) [clone .isra.0] [clone .constprop.0]>
                            Debug( "\n" );
   1bd2a:	4648      	mov	r0, r9
   1bd2c:	f7fe f9d4 	bl	1a0d8 <int Print<DevRtt<0>>(DevRtt<0>, char const*) [clone .isra.0]>
                        while( buffer_[i] ){
   1bd30:	5d78      	ldrb	r0, [r7, r5]
   1bd32:	2800      	cmp	r0, #0
   1bd34:	d1cc      	bne.n	1bcd0 <Advertising<MyTemperatureAD<TemperatureTmp117<(unsigned char)5> >, (unsigned short)3000, 20000ul>::update(void*)+0x44>
   1bd36:	e7e9      	b.n	1bd0c <Advertising<MyTemperatureAD<TemperatureTmp117<(unsigned char)5> >, (unsigned short)3000, 20000ul>::update(void*)+0x80>
   1bd38:	200019dc 	.word	0x200019dc
   1bd3c:	0001ed94 	.word	0x0001ed94
   1bd40:	0001ebfc 	.word	0x0001ebfc
   1bd44:	0001ed9c 	.word	0x0001ed9c
   1bd48:	0001ec38 	.word	0x0001ec38

0001bd4c <Ble::eventHandler(ble_evt_t const*, void*)>:
SA  eventHandler    (ble_evt_t const * p_ble_evt, void * p_context) {
   1bd4c:	b5f0      	push	{r4, r5, r6, r7, lr}
   1bd4e:	b085      	sub	sp, #20
   1bd50:	af02      	add	r7, sp, #8
   1bd52:	4604      	mov	r4, r0
                        DebugFuncHeader();
   1bd54:	f7fd fd50 	bl	197f8 <app_timer_cnt_get>
   1bd58:	f3c0 030d 	ubfx	r3, r0, #0, #14
   1bd5c:	4a57      	ldr	r2, [pc, #348]	; (1bebc <Ble::eventHandler(ble_evt_t const*, void*)+0x170>)
   1bd5e:	9200      	str	r2, [sp, #0]
   1bd60:	ebc3 1103 	rsb	r1, r3, r3, lsl #4
   1bd64:	eb03 0181 	add.w	r1, r3, r1, lsl #2
   1bd68:	4a55      	ldr	r2, [pc, #340]	; (1bec0 <Ble::eventHandler(ble_evt_t const*, void*)+0x174>)
   1bd6a:	2318      	movs	r3, #24
   1bd6c:	0b80      	lsrs	r0, r0, #14
   1bd6e:	f7fe fa7d 	bl	1a26c <int Print<DevRtt<0>, unsigned long, unsigned long, char const*, int, char const*>(DevRtt<0>, char const*, unsigned long, unsigned long, char const*, int, char const*) [clone .isra.0] [clone .constprop.0]>
                        Debug( ANSI_NORMAL "header.event_id: %d\n", p_ble_evt->header.evt_id );
   1bd72:	8821      	ldrh	r1, [r4, #0]
   1bd74:	4853      	ldr	r0, [pc, #332]	; (1bec4 <Ble::eventHandler(ble_evt_t const*, void*)+0x178>)
   1bd76:	f7fe f9d7 	bl	1a128 <int Print<DevRtt<0>, unsigned short>(DevRtt<0>, char const*, unsigned short) [clone .isra.0]>
                        switch (p_ble_evt->header.evt_id){
   1bd7a:	8823      	ldrh	r3, [r4, #0]
   1bd7c:	2b21      	cmp	r3, #33	; 0x21
   1bd7e:	d051      	beq.n	1be24 <Ble::eventHandler(ble_evt_t const*, void*)+0xd8>
   1bd80:	d816      	bhi.n	1bdb0 <Ble::eventHandler(ble_evt_t const*, void*)+0x64>
   1bd82:	2b10      	cmp	r3, #16
   1bd84:	d05d      	beq.n	1be42 <Ble::eventHandler(ble_evt_t const*, void*)+0xf6>
   1bd86:	2b11      	cmp	r3, #17
   1bd88:	d165      	bne.n	1be56 <Ble::eventHandler(ble_evt_t const*, void*)+0x10a>
                                Debug( "disconnected\n" );
   1bd8a:	484f      	ldr	r0, [pc, #316]	; (1bec8 <Ble::eventHandler(ble_evt_t const*, void*)+0x17c>)
   1bd8c:	f7fe f9a4 	bl	1a0d8 <int Print<DevRtt<0>>(DevRtt<0>, char const*) [clone .isra.0]>
                    cp_init.disconnect_on_fail             = true;

                    error.check( ble_conn_params_init(&cp_init) );
                }

SA  stop        () { error.check( ble_conn_params_stop() ); }
   1bd90:	f000 faf6 	bl	1c380 <ble_conn_params_stop>
   1bd94:	b200      	sxth	r0, r0
   1bd96:	f7fe fafd 	bl	1a394 <Errors::check(short, bool) [clone .constprop.0]>
                                adv.connectable( false ); //no longer need to be connectable
   1bd9a:	2000      	movs	r0, #0
   1bd9c:	f7fe fee4 	bl	1ab68 <Advertising<MyTemperatureAD<TemperatureTmp117<(unsigned char)5> >, (unsigned short)3000, 20000ul>::connectable(bool)>
                                adv.update(); //restart advertising
   1bda0:	2000      	movs	r0, #0
   1bda2:	f7ff ff73 	bl	1bc8c <Advertising<MyTemperatureAD<TemperatureTmp117<(unsigned char)5> >, (unsigned short)3000, 20000ul>::update(void*)>
                                adv.timerOn(); //restart adv update timer
   1bda6:	f7fe fee7 	bl	1ab78 <Advertising<MyTemperatureAD<TemperatureTmp117<(unsigned char)5> >, (unsigned short)3000, 20000ul>::timerOn()>
                    }
   1bdaa:	370c      	adds	r7, #12
   1bdac:	46bd      	mov	sp, r7
   1bdae:	bdf0      	pop	{r4, r5, r6, r7, pc}
                        switch (p_ble_evt->header.evt_id){
   1bdb0:	2b50      	cmp	r3, #80	; 0x50
   1bdb2:	d150      	bne.n	1be56 <Ble::eventHandler(ble_evt_t const*, void*)+0x10a>
                                Debug( "BLE_GATTS_EVT_WRITE: \n" );
   1bdb4:	4845      	ldr	r0, [pc, #276]	; (1becc <Ble::eventHandler(ble_evt_t const*, void*)+0x180>)
   1bdb6:	f7fe f98f 	bl	1a0d8 <int Print<DevRtt<0>>(DevRtt<0>, char const*) [clone .isra.0]>
                                if( p_ble_evt->evt.gatts_evt.params.write.uuid.uuid == BLE_UUID_GAP_CHARACTERISTIC_DEVICE_NAME ){
   1bdba:	8923      	ldrh	r3, [r4, #8]
   1bdbc:	f5b3 5f28 	cmp.w	r3, #10752	; 0x2a00
   1bdc0:	d1f3      	bne.n	1bdaa <Ble::eventHandler(ble_evt_t const*, void*)+0x5e>
                                    uint16_t len = 0;
   1bdc2:	2500      	movs	r5, #0
                                    sd_ble_gap_device_name_get( NULL, &len );
   1bdc4:	4628      	mov	r0, r5
   1bdc6:	1d39      	adds	r1, r7, #4
                                    uint16_t len = 0;
   1bdc8:	80bd      	strh	r5, [r7, #4]
                                    sd_ble_gap_device_name_get( NULL, &len );
   1bdca:	f7fe f96d 	bl	1a0a8 <sd_ble_gap_device_name_get>
                                    uint8_t buf[len+1];
   1bdce:	88bb      	ldrh	r3, [r7, #4]
   1bdd0:	3308      	adds	r3, #8
                                    Debug("%s\n", buf);
   1bdd2:	466e      	mov	r6, sp
                                    uint8_t buf[len+1];
   1bdd4:	08db      	lsrs	r3, r3, #3
   1bdd6:	eba6 03c3 	sub.w	r3, r6, r3, lsl #3
   1bdda:	469d      	mov	sp, r3
   1bddc:	ac02      	add	r4, sp, #8
                                    sd_ble_gap_device_name_get( buf, &len );
   1bdde:	1d39      	adds	r1, r7, #4
   1bde0:	4620      	mov	r0, r4
   1bde2:	f7fe f961 	bl	1a0a8 <sd_ble_gap_device_name_get>
                                    buf[len] = 0; //0 terminate string
   1bde6:	88bb      	ldrh	r3, [r7, #4]
                        Debug( "Flash::updateName : %s\n", str );
   1bde8:	4839      	ldr	r0, [pc, #228]	; (1bed0 <Ble::eventHandler(ble_evt_t const*, void*)+0x184>)
   1bdea:	54e5      	strb	r5, [r4, r3]
   1bdec:	4621      	mov	r1, r4
   1bdee:	f7fe f987 	bl	1a100 <int Print<DevRtt<0>, char const*>(DevRtt<0>, char const*, char const*) [clone .isra.0]>
                        auto len = strlen(str);
   1bdf2:	4620      	mov	r0, r4
   1bdf4:	f000 fdde 	bl	1c9b4 <strlen>
                        memset( (void*)fullnameRam_, 0, fullnameSiz_ ); //clear all
   1bdf8:	4629      	mov	r1, r5
   1bdfa:	2220      	movs	r2, #32
                        auto len = strlen(str);
   1bdfc:	4605      	mov	r5, r0
                        memset( (void*)fullnameRam_, 0, fullnameSiz_ ); //clear all
   1bdfe:	4835      	ldr	r0, [pc, #212]	; (1bed4 <Ble::eventHandler(ble_evt_t const*, void*)+0x188>)
   1be00:	f000 fd94 	bl	1c92c <memset>
                        memcpy( (void*)fullnameRam_, (void*)str, len );
   1be04:	2d1f      	cmp	r5, #31
   1be06:	462a      	mov	r2, r5
   1be08:	4621      	mov	r1, r4
   1be0a:	bf28      	it	cs
   1be0c:	221f      	movcs	r2, #31
   1be0e:	4831      	ldr	r0, [pc, #196]	; (1bed4 <Ble::eventHandler(ble_evt_t const*, void*)+0x188>)
   1be10:	f000 fd7e 	bl	1c910 <memcpy>
                        saveName_ = true;
   1be14:	4b30      	ldr	r3, [pc, #192]	; (1bed8 <Ble::eventHandler(ble_evt_t const*, void*)+0x18c>)
   1be16:	2201      	movs	r2, #1
                                    Debug("%s\n", buf);
   1be18:	4620      	mov	r0, r4
   1be1a:	701a      	strb	r2, [r3, #0]
   1be1c:	f7fe f9c8 	bl	1a1b0 <int Print<DevRtt<0>, unsigned char*>(DevRtt<0>, char const*, unsigned char*) [clone .isra.0] [clone .constprop.0]>
   1be20:	46b5      	mov	sp, r6
   1be22:	e7c2      	b.n	1bdaa <Ble::eventHandler(ble_evt_t const*, void*)+0x5e>
                                Debug( "BLE_GAP_EVT_PHY_UPDATE_REQUEST\n" );
   1be24:	482d      	ldr	r0, [pc, #180]	; (1bedc <Ble::eventHandler(ble_evt_t const*, void*)+0x190>)
   1be26:	f7fe f957 	bl	1a0d8 <int Print<DevRtt<0>>(DevRtt<0>, char const*) [clone .isra.0]>
                                ble_gap_phys_t const phys{ BLE_GAP_PHY_AUTO, BLE_GAP_PHY_AUTO, };
   1be2a:	2300      	movs	r3, #0
                                error.check( sd_ble_gap_phy_update(p_ble_evt->evt.gap_evt.conn_handle, &phys) );
   1be2c:	1d39      	adds	r1, r7, #4
   1be2e:	88a0      	ldrh	r0, [r4, #4]
                                ble_gap_phys_t const phys{ BLE_GAP_PHY_AUTO, BLE_GAP_PHY_AUTO, };
   1be30:	80bb      	strh	r3, [r7, #4]
                                error.check( sd_ble_gap_phy_update(p_ble_evt->evt.gap_evt.conn_handle, &phys) );
   1be32:	f7fe f93b 	bl	1a0ac <sd_ble_gap_phy_update>
   1be36:	b200      	sxth	r0, r0
   1be38:	f7fe faac 	bl	1a394 <Errors::check(short, bool) [clone .constprop.0]>
                    }
   1be3c:	370c      	adds	r7, #12
   1be3e:	46bd      	mov	sp, r7
   1be40:	bdf0      	pop	{r4, r5, r6, r7, pc}
                                Debug( "connected\n" );
   1be42:	4827      	ldr	r0, [pc, #156]	; (1bee0 <Ble::eventHandler(ble_evt_t const*, void*)+0x194>)
   1be44:	f7fe f948 	bl	1a0d8 <int Print<DevRtt<0>>(DevRtt<0>, char const*) [clone .isra.0]>
                                adv.timerOff(); //stop the adv update timer
   1be48:	f7fe fe7c 	bl	1ab44 <Advertising<MyTemperatureAD<TemperatureTmp117<(unsigned char)5> >, (unsigned short)3000, 20000ul>::timerOff()>
                                adv.isStopped(); //and let adv know it is stopped
   1be4c:	f7fe fe86 	bl	1ab5c <Advertising<MyTemperatureAD<TemperatureTmp117<(unsigned char)5> >, (unsigned short)3000, 20000ul>::isStopped()>
                    }
   1be50:	370c      	adds	r7, #12
   1be52:	46bd      	mov	sp, r7
   1be54:	bdf0      	pop	{r4, r5, r6, r7, pc}
                                Debug( FG RED "unhandled event\n" ANSI_NORMAL );
   1be56:	4823      	ldr	r0, [pc, #140]	; (1bee4 <Ble::eventHandler(ble_evt_t const*, void*)+0x198>)
   1be58:	f7fe f93e 	bl	1a0d8 <int Print<DevRtt<0>>(DevRtt<0>, char const*) [clone .isra.0]>
SA  isOutput    ()          { return reg.DIRP; }
   1be5c:	f04f 43a0 	mov.w	r3, #1342177280	; 0x50000000
   1be60:	f8d3 271c 	ldr.w	r2, [r3, #1820]	; 0x71c
                    if( not isOutput() ) return;
   1be64:	07d2      	lsls	r2, r2, #31
   1be66:	d5a0      	bpl.n	1bdaa <Ble::eventHandler(ble_evt_t const*, void*)+0x5e>
SA  toggle      ()          { if( reg.OUT ) low(); else high(); }
   1be68:	f8d3 2504 	ldr.w	r2, [r3, #1284]	; 0x504
   1be6c:	4c1e      	ldr	r4, [pc, #120]	; (1bee8 <Ble::eventHandler(ble_evt_t const*, void*)+0x19c>)
   1be6e:	f012 0f80 	tst.w	r2, #128	; 0x80
SA  low         ()          { reg.OUTCLR = bm_; } //register wide write
   1be72:	f04f 0280 	mov.w	r2, #128	; 0x80
   1be76:	bf14      	ite	ne
   1be78:	f8c3 250c 	strne.w	r2, [r3, #1292]	; 0x50c
SA  high        ()          { reg.OUTSET = bm_; } //register wide write
   1be7c:	f8c3 2508 	streq.w	r2, [r3, #1288]	; 0x508
SA  eventHandler    (ble_evt_t const * p_ble_evt, void * p_context) {
   1be80:	2505      	movs	r5, #5
   1be82:	f044 0401 	orr.w	r4, r4, #1
   1be86:	f44f 407a 	mov.w	r0, #64000	; 0xfa00
   1be8a:	47a0      	blx	r4
   1be8c:	3d01      	subs	r5, #1
   1be8e:	d1fa      	bne.n	1be86 <Ble::eventHandler(ble_evt_t const*, void*)+0x13a>
SA  toggle      ()          { if( reg.OUT ) low(); else high(); }
   1be90:	f04f 43a0 	mov.w	r3, #1342177280	; 0x50000000
   1be94:	2505      	movs	r5, #5
   1be96:	f8d3 2504 	ldr.w	r2, [r3, #1284]	; 0x504
   1be9a:	f012 0f80 	tst.w	r2, #128	; 0x80
SA  low         ()          { reg.OUTCLR = bm_; } //register wide write
   1be9e:	f04f 0280 	mov.w	r2, #128	; 0x80
   1bea2:	bf14      	ite	ne
   1bea4:	f8c3 250c 	strne.w	r2, [r3, #1292]	; 0x50c
SA  high        ()          { reg.OUTSET = bm_; } //register wide write
   1bea8:	f8c3 2508 	streq.w	r2, [r3, #1288]	; 0x508
   1beac:	f44f 407a 	mov.w	r0, #64000	; 0xfa00
   1beb0:	47a0      	blx	r4
   1beb2:	3d01      	subs	r5, #1
   1beb4:	d1fa      	bne.n	1beac <Ble::eventHandler(ble_evt_t const*, void*)+0x160>
                    }
   1beb6:	370c      	adds	r7, #12
   1beb8:	46bd      	mov	sp, r7
   1beba:	bdf0      	pop	{r4, r5, r6, r7, pc}
   1bebc:	0001ede4 	.word	0x0001ede4
   1bec0:	0001edd8 	.word	0x0001edd8
   1bec4:	0001edf4 	.word	0x0001edf4
   1bec8:	0001ee4c 	.word	0x0001ee4c
   1becc:	0001ee10 	.word	0x0001ee10
   1bed0:	0001ee28 	.word	0x0001ee28
   1bed4:	20001a24 	.word	0x20001a24
   1bed8:	20001a23 	.word	0x20001a23
   1bedc:	0001ee5c 	.word	0x0001ee5c
   1bee0:	0001ee40 	.word	0x0001ee40
   1bee4:	0001ee7c 	.word	0x0001ee7c
   1bee8:	0001ef50 	.word	0x0001ef50

0001beec <Advertising<MyTemperatureAD<TemperatureTmp117<(unsigned char)5> >, (unsigned short)3000, 20000ul>::init()>:
SA  init            () {
   1beec:	b510      	push	{r4, lr}
                        Debug( "Advertising::init...\n" );
   1beee:	4808      	ldr	r0, [pc, #32]	; (1bf10 <Advertising<MyTemperatureAD<TemperatureTmp117<(unsigned char)5> >, (unsigned short)3000, 20000ul>::init()+0x24>)
                        params_.interval = paramInterval_;
   1bef0:	4c08      	ldr	r4, [pc, #32]	; (1bf14 <Advertising<MyTemperatureAD<TemperatureTmp117<(unsigned char)5> >, (unsigned short)3000, 20000ul>::init()+0x28>)
                        Debug( "Advertising::init...\n" );
   1bef2:	f7fe f8f1 	bl	1a0d8 <int Print<DevRtt<0>>(DevRtt<0>, char const*) [clone .isra.0]>
                        params_.interval = paramInterval_;
   1bef6:	4b08      	ldr	r3, [pc, #32]	; (1bf18 <Advertising<MyTemperatureAD<TemperatureTmp117<(unsigned char)5> >, (unsigned short)3000, 20000ul>::init()+0x2c>)
   1bef8:	e9d3 0100 	ldrd	r0, r1, [r3]
   1befc:	f001 fdb2 	bl	1da64 <__aeabi_d2uiz>
   1bf00:	4603      	mov	r3, r0
                        update();
   1bf02:	2000      	movs	r0, #0
                        params_.interval = paramInterval_;
   1bf04:	60a3      	str	r3, [r4, #8]
                        update();
   1bf06:	f7ff fec1 	bl	1bc8c <Advertising<MyTemperatureAD<TemperatureTmp117<(unsigned char)5> >, (unsigned short)3000, 20000ul>::update(void*)>
                        timerOn();
   1bf0a:	f7fe fe35 	bl	1ab78 <Advertising<MyTemperatureAD<TemperatureTmp117<(unsigned char)5> >, (unsigned short)3000, 20000ul>::timerOn()>
                    }
   1bf0e:	bd10      	pop	{r4, pc}
   1bf10:	0001eea0 	.word	0x0001eea0
   1bf14:	200019fc 	.word	0x200019fc
   1bf18:	20001818 	.word	0x20001818

0001bf1c <main>:


/*-----------------------------------------------------------------------------
    functions
-----------------------------------------------------------------------------*/
int main() {
   1bf1c:	b530      	push	{r4, r5, lr}

    Debug( ANSI_NORMAL FG HOT_PINK "\nBoot start...\n\n" ANSI_NORMAL );
   1bf1e:	4826      	ldr	r0, [pc, #152]	; (1bfb8 <main+0x9c>)
   1bf20:	4d26      	ldr	r5, [pc, #152]	; (1bfbc <main+0xa0>)
int main() {
   1bf22:	b08b      	sub	sp, #44	; 0x2c
    Debug( ANSI_NORMAL FG HOT_PINK "\nBoot start...\n\n" ANSI_NORMAL );
   1bf24:	f7fe f8d8 	bl	1a0d8 <int Print<DevRtt<0>>(DevRtt<0>, char const*) [clone .isra.0]>

    board.init();           //init board pins
   1bf28:	f7fe fb2c 	bl	1a584 <BL651tempBoard::init()>
    board.alive();          //blink led's to show boot
   1bf2c:	f7fe fb42 	bl	1a5b4 <BL651tempBoard::alive()>
    Power
------------------------------------------------------------------------------*/
struct Power {

SA  init        () {
                    Debug( "Power::init...\n" );                    
   1bf30:	4823      	ldr	r0, [pc, #140]	; (1bfc0 <main+0xa4>)
   1bf32:	f7fe f8d1 	bl	1a0d8 <int Print<DevRtt<0>>(DevRtt<0>, char const*) [clone .isra.0]>
                    error.check( nrf_pwr_mgmt_init() );
   1bf36:	f7fd fe7f 	bl	19c38 <nrf_pwr_mgmt_init>
   1bf3a:	b200      	sxth	r0, r0
   1bf3c:	f7fe fa2a 	bl	1a394 <Errors::check(short, bool) [clone .constprop.0]>
#endif

#if NRF_POWER_HAS_DCDCEN
__STATIC_INLINE void nrf_power_dcdcen_set(bool enable)
{
    NRF_POWER->DCDCEN = (enable ?
   1bf40:	f04f 4380 	mov.w	r3, #1073741824	; 0x40000000
   1bf44:	2401      	movs	r4, #1
   1bf46:	f8c3 4578 	str.w	r4, [r3, #1400]	; 0x578
    power.init();           //start power management
    flash.init();           //get name from flash
   1bf4a:	f7fe fd1b 	bl	1a984 <Flash::init()>
    ble.init();             //ble stack init
   1bf4e:	f7fe fe4f 	bl	1abf0 <Ble::init()>
    ////// now can use sd_* functions //////
    gap.init();             //gap init
   1bf52:	f7fe fe71 	bl	1ac38 <Gap::init()>
                    Debug( "Conn::init...\n" );                    
   1bf56:	481b      	ldr	r0, [pc, #108]	; (1bfc4 <main+0xa8>)
   1bf58:	f7fe f8be 	bl	1a0d8 <int Print<DevRtt<0>>(DevRtt<0>, char const*) [clone .isra.0]>
                    memset(&cp_init, 0, sizeof(cp_init));
   1bf5c:	221c      	movs	r2, #28
   1bf5e:	2100      	movs	r1, #0
   1bf60:	a803      	add	r0, sp, #12
   1bf62:	f000 fce3 	bl	1c92c <memset>
                    cp_init.first_conn_params_update_delay = APP_TIMER_TICKS(20000);
   1bf66:	f44f 21a0 	mov.w	r1, #327680	; 0x50000
                    cp_init.next_conn_params_update_delay  = APP_TIMER_TICKS(5000);
   1bf6a:	f44f 32a0 	mov.w	r2, #81920	; 0x14000
                    cp_init.max_conn_params_update_count   = 3;
   1bf6e:	2303      	movs	r3, #3
                    error.check( ble_conn_params_init(&cp_init) );
   1bf70:	a803      	add	r0, sp, #12
                    cp_init.next_conn_params_update_delay  = APP_TIMER_TICKS(5000);
   1bf72:	e9cd 1204 	strd	r1, r2, [sp, #16]
                    cp_init.max_conn_params_update_count   = 3;
   1bf76:	f88d 3018 	strb.w	r3, [sp, #24]
                    cp_init.disconnect_on_fail             = true;
   1bf7a:	f88d 401c 	strb.w	r4, [sp, #28]
                    error.check( ble_conn_params_init(&cp_init) );
   1bf7e:	f000 f9c3 	bl	1c308 <ble_conn_params_init>
   1bf82:	b200      	sxth	r0, r0
   1bf84:	f7fe fa06 	bl	1a394 <Errors::check(short, bool) [clone .constprop.0]>
    conn.init();            //connection init
    adv.init();             //advertising init
   1bf88:	f7ff ffb0 	bl	1beec <Advertising<MyTemperatureAD<TemperatureTmp117<(unsigned char)5> >, (unsigned short)3000, 20000ul>::init()>

    Debug( FG HOT_PINK "\nBoot end...\n\n" ANSI_NORMAL );
   1bf8c:	480e      	ldr	r0, [pc, #56]	; (1bfc8 <main+0xac>)
                    //enable REG1 Dc-Dc (instead of LDO, for 1.8v system)
                    nrf_power_dcdcen_set( true );
                }
SA  sleep       () { 
                    DebugFuncHeader();
   1bf8e:	4c0f      	ldr	r4, [pc, #60]	; (1bfcc <main+0xb0>)
   1bf90:	f7fe f8a2 	bl	1a0d8 <int Print<DevRtt<0>>(DevRtt<0>, char const*) [clone .isra.0]>
   1bf94:	f7fd fc30 	bl	197f8 <app_timer_cnt_get>
   1bf98:	f3c0 030d 	ubfx	r3, r0, #0, #14
   1bf9c:	ebc3 1103 	rsb	r1, r3, r3, lsl #4
   1bfa0:	eb03 0181 	add.w	r1, r3, r1, lsl #2
   1bfa4:	4622      	mov	r2, r4
   1bfa6:	231a      	movs	r3, #26
   1bfa8:	9500      	str	r5, [sp, #0]
   1bfaa:	0b80      	lsrs	r0, r0, #14
   1bfac:	f7fe f95e 	bl	1a26c <int Print<DevRtt<0>, unsigned long, unsigned long, char const*, int, char const*>(DevRtt<0>, char const*, unsigned long, unsigned long, char const*, int, char const*) [clone .isra.0] [clone .constprop.0]>
                    nrf_pwr_mgmt_run(); 
   1bfb0:	f7fd fe58 	bl	19c64 <nrf_pwr_mgmt_run>
   1bfb4:	e7ee      	b.n	1bf94 <main+0x78>
   1bfb6:	bf00      	nop
   1bfb8:	0001eeb8 	.word	0x0001eeb8
   1bfbc:	0001ef3c 	.word	0x0001ef3c
   1bfc0:	0001eee4 	.word	0x0001eee4
   1bfc4:	0001eef4 	.word	0x0001eef4
   1bfc8:	0001ef04 	.word	0x0001ef04
   1bfcc:	0001ef2c 	.word	0x0001ef2c

0001bfd0 <_GLOBAL__sub_I_timerTestTemp>:

    power.loop();           //power.sleep() loop

    //power.loop will not return

}
   1bfd0:	b538      	push	{r3, r4, r5, lr}
    SI Gpio<P0_7>  ledRed; //board label 1
   1bfd2:	4b27      	ldr	r3, [pc, #156]	; (1c070 <_GLOBAL__sub_I_timerTestTemp+0xa0>)
   1bfd4:	681a      	ldr	r2, [r3, #0]
   1bfd6:	07d5      	lsls	r5, r2, #31
   1bfd8:	bf5c      	itt	pl
   1bfda:	2201      	movpl	r2, #1
   1bfdc:	601a      	strpl	r2, [r3, #0]
    SI Gpio<P0_8>  ledGreen; //board label 2
   1bfde:	4b25      	ldr	r3, [pc, #148]	; (1c074 <_GLOBAL__sub_I_timerTestTemp+0xa4>)
   1bfe0:	681a      	ldr	r2, [r3, #0]
   1bfe2:	07d4      	lsls	r4, r2, #31
   1bfe4:	bf5c      	itt	pl
   1bfe6:	2201      	movpl	r2, #1
   1bfe8:	601a      	strpl	r2, [r3, #0]
    SI Gpio<P0_27, LOWISON>  sw1; //SW1
   1bfea:	4b23      	ldr	r3, [pc, #140]	; (1c078 <_GLOBAL__sub_I_timerTestTemp+0xa8>)
   1bfec:	681a      	ldr	r2, [r3, #0]
   1bfee:	07d0      	lsls	r0, r2, #31
   1bff0:	bf5c      	itt	pl
   1bff2:	2201      	movpl	r2, #1
   1bff4:	601a      	strpl	r2, [r3, #0]
#ifdef NRF52840_DONGLE
inline Pca10059 board;
#endif

#ifdef NRF52810_BL651_TEMP
inline BL651tempBoard board;
   1bff6:	4b21      	ldr	r3, [pc, #132]	; (1c07c <_GLOBAL__sub_I_timerTestTemp+0xac>)
   1bff8:	681a      	ldr	r2, [r3, #0]
   1bffa:	07d1      	lsls	r1, r2, #31
   1bffc:	bf5c      	itt	pl
   1bffe:	2201      	movpl	r2, #1
   1c000:	601a      	strpl	r2, [r3, #0]
    SI SaadcChan vdd_{ SaadcChan::VDD };
   1c002:	4a1f      	ldr	r2, [pc, #124]	; (1c080 <_GLOBAL__sub_I_timerTestTemp+0xb0>)
   1c004:	6813      	ldr	r3, [r2, #0]
   1c006:	f013 0301 	ands.w	r3, r3, #1
   1c00a:	d10c      	bne.n	1c026 <_GLOBAL__sub_I_timerTestTemp+0x56>
                        ch_ = ch;
   1c00c:	4c1d      	ldr	r4, [pc, #116]	; (1c084 <_GLOBAL__sub_I_timerTestTemp+0xb4>)
                        pselP_ = (PSEL)it.PSELP;
   1c00e:	491e      	ldr	r1, [pc, #120]	; (1c088 <_GLOBAL__sub_I_timerTestTemp+0xb8>)
                        pselN_ = (PSEL)it.PSELN;
   1c010:	4d1e      	ldr	r5, [pc, #120]	; (1c08c <_GLOBAL__sub_I_timerTestTemp+0xbc>)
                        config_ = it.CONFIG;
   1c012:	481f      	ldr	r0, [pc, #124]	; (1c090 <_GLOBAL__sub_I_timerTestTemp+0xc0>)
                        ch_ = ch;
   1c014:	7023      	strb	r3, [r4, #0]
                        pselP_ = (PSEL)it.PSELP;
   1c016:	2409      	movs	r4, #9
   1c018:	700c      	strb	r4, [r1, #0]
                        config_ = it.CONFIG;
   1c01a:	f44f 3400 	mov.w	r4, #131072	; 0x20000
   1c01e:	2101      	movs	r1, #1
                        pselN_ = (PSEL)it.PSELN;
   1c020:	702b      	strb	r3, [r5, #0]
                        config_ = it.CONFIG;
   1c022:	6004      	str	r4, [r0, #0]
   1c024:	6011      	str	r1, [r2, #0]
    SI Timer timerAdvUpdate_;
   1c026:	4b1b      	ldr	r3, [pc, #108]	; (1c094 <_GLOBAL__sub_I_timerTestTemp+0xc4>)
   1c028:	681a      	ldr	r2, [r3, #0]
   1c02a:	07d2      	lsls	r2, r2, #31
   1c02c:	d403      	bmi.n	1c036 <_GLOBAL__sub_I_timerTestTemp+0x66>
    Timer           (){}
   1c02e:	4a1a      	ldr	r2, [pc, #104]	; (1c098 <_GLOBAL__sub_I_timerTestTemp+0xc8>)
   1c030:	2101      	movs	r1, #1
   1c032:	6212      	str	r2, [r2, #32]
   1c034:	6019      	str	r1, [r3, #0]
                        if( isTimerModuleInit_ ) return;
   1c036:	4d19      	ldr	r5, [pc, #100]	; (1c09c <_GLOBAL__sub_I_timerTestTemp+0xcc>)
    Timer           (u32 ms, void(*cb)(void*), TIMER_TYPE typ = ONCE){ 
   1c038:	4c19      	ldr	r4, [pc, #100]	; (1c0a0 <_GLOBAL__sub_I_timerTestTemp+0xd0>)
                        if( isTimerModuleInit_ ) return;
   1c03a:	782b      	ldrb	r3, [r5, #0]
    Timer           (u32 ms, void(*cb)(void*), TIMER_TYPE typ = ONCE){ 
   1c03c:	6224      	str	r4, [r4, #32]
                        if( isTimerModuleInit_ ) return;
   1c03e:	b91b      	cbnz	r3, 1c048 <_GLOBAL__sub_I_timerTestTemp+0x78>
                        app_timer_init(); //always success
   1c040:	f7fd fb2e 	bl	196a0 <app_timer_init>
                        isTimerModuleInit_ = true;
   1c044:	2301      	movs	r3, #1
   1c046:	702b      	strb	r3, [r5, #0]
                        error.check( app_timer_create(&ptimerId_, 
   1c048:	4a16      	ldr	r2, [pc, #88]	; (1c0a4 <_GLOBAL__sub_I_timerTestTemp+0xd4>)
   1c04a:	4817      	ldr	r0, [pc, #92]	; (1c0a8 <_GLOBAL__sub_I_timerTestTemp+0xd8>)
   1c04c:	2101      	movs	r1, #1
   1c04e:	f7fd fb5d 	bl	1970c <app_timer_create>
   1c052:	b200      	sxth	r0, r0
   1c054:	f7fe f99e 	bl	1a394 <Errors::check(short, bool) [clone .constprop.0]>
                        error.check( app_timer_start(ptimerId_, appTimerTicks(ms), NULL) );
   1c058:	6a20      	ldr	r0, [r4, #32]
   1c05a:	2200      	movs	r2, #0
   1c05c:	f44f 21a0 	mov.w	r1, #327680	; 0x50000
   1c060:	f7fd fb62 	bl	19728 <app_timer_start>
   1c064:	e8bd 4038 	ldmia.w	sp!, {r3, r4, r5, lr}
   1c068:	b200      	sxth	r0, r0
   1c06a:	f7fe b993 	b.w	1a394 <Errors::check(short, bool) [clone .constprop.0]>
   1c06e:	bf00      	nop
   1c070:	20001998 	.word	0x20001998
   1c074:	20001994 	.word	0x20001994
   1c078:	20001990 	.word	0x20001990
   1c07c:	2000198c 	.word	0x2000198c
   1c080:	20001988 	.word	0x20001988
   1c084:	20001a4e 	.word	0x20001a4e
   1c088:	20001a4d 	.word	0x20001a4d
   1c08c:	20001a4c 	.word	0x20001a4c
   1c090:	20001a48 	.word	0x20001a48
   1c094:	20001984 	.word	0x20001984
   1c098:	200019b0 	.word	0x200019b0
   1c09c:	20001a50 	.word	0x20001a50
   1c0a0:	20001a58 	.word	0x20001a58
   1c0a4:	0001b289 	.word	0x0001b289
   1c0a8:	20001a78 	.word	0x20001a78

0001c0ac <sd_ble_gap_conn_param_update>:
SVCALL(SD_BLE_GAP_CONN_PARAM_UPDATE, uint32_t, sd_ble_gap_conn_param_update(uint16_t conn_handle, ble_gap_conn_params_t const *p_conn_params));
   1c0ac:	df75      	svc	117	; 0x75
   1c0ae:	4770      	bx	lr

0001c0b0 <sd_ble_gap_disconnect>:
SVCALL(SD_BLE_GAP_DISCONNECT, uint32_t, sd_ble_gap_disconnect(uint16_t conn_handle, uint8_t hci_status_code));
   1c0b0:	df76      	svc	118	; 0x76
   1c0b2:	4770      	bx	lr

0001c0b4 <sd_ble_gap_ppcp_set>:
SVCALL(SD_BLE_GAP_PPCP_SET, uint32_t, sd_ble_gap_ppcp_set(ble_gap_conn_params_t const *p_conn_params));
   1c0b4:	df7a      	svc	122	; 0x7a
   1c0b6:	4770      	bx	lr

0001c0b8 <sd_ble_gap_ppcp_get>:
SVCALL(SD_BLE_GAP_PPCP_GET, uint32_t, sd_ble_gap_ppcp_get(ble_gap_conn_params_t *p_conn_params));
   1c0b8:	df7b      	svc	123	; 0x7b
   1c0ba:	4770      	bx	lr

0001c0bc <update_timeout_handler>:
/**@brief Function called after conn_params_update_delay has happened. This is triggered by app_timer.
 *
 * @param[in]  p_context  Context identifying which connection this is for.
 */
static void update_timeout_handler(void * p_context)
{
   1c0bc:	b570      	push	{r4, r5, r6, lr}
        if (m_conn_params_instances[i].conn_handle == conn_handle)
   1c0be:	4d1b      	ldr	r5, [pc, #108]	; (1c12c <update_timeout_handler+0x70>)
   1c0c0:	882b      	ldrh	r3, [r5, #0]
    uint32_t                     conn_handle = (uint32_t)p_context;
    ble_conn_params_instance_t * p_instance  = instance_get(conn_handle);
   1c0c2:	b284      	uxth	r4, r0
        if (m_conn_params_instances[i].conn_handle == conn_handle)
   1c0c4:	42a3      	cmp	r3, r4
{
   1c0c6:	b082      	sub	sp, #8
        if (m_conn_params_instances[i].conn_handle == conn_handle)
   1c0c8:	d111      	bne.n	1c0ee <update_timeout_handler+0x32>

    if (p_instance != NULL)
    {
        // Check if we have reached the maximum number of attempts
        if (p_instance->update_count < m_conn_params_config.max_conn_params_update_count)
   1c0ca:	4e19      	ldr	r6, [pc, #100]	; (1c130 <update_timeout_handler+0x74>)
   1c0cc:	7a29      	ldrb	r1, [r5, #8]
   1c0ce:	7b32      	ldrb	r2, [r6, #12]
   1c0d0:	4291      	cmp	r1, r2
   1c0d2:	d30e      	bcc.n	1c0f2 <update_timeout_handler+0x36>
        else
        {
            p_instance->update_count = 0;

            // Negotiation failed, disconnect automatically if this has been configured
            if (m_conn_params_config.disconnect_on_fail)
   1c0d4:	7c33      	ldrb	r3, [r6, #16]
            p_instance->update_count = 0;
   1c0d6:	2200      	movs	r2, #0
   1c0d8:	722a      	strb	r2, [r5, #8]
            if (m_conn_params_config.disconnect_on_fail)
   1c0da:	b9db      	cbnz	r3, 1c114 <update_timeout_handler+0x58>
                    send_error_evt(err_code);
                }
            }

            // Notify the application that the procedure has failed
            if (m_conn_params_config.evt_handler != NULL)
   1c0dc:	6973      	ldr	r3, [r6, #20]
   1c0de:	b133      	cbz	r3, 1c0ee <update_timeout_handler+0x32>
            {
                ble_conn_params_evt_t evt;

                evt.evt_type = BLE_CONN_PARAMS_EVT_FAILED;
   1c0e0:	2200      	movs	r2, #0
                evt.conn_handle = conn_handle;
   1c0e2:	f8ad 4006 	strh.w	r4, [sp, #6]
                evt.evt_type = BLE_CONN_PARAMS_EVT_FAILED;
   1c0e6:	f88d 2004 	strb.w	r2, [sp, #4]
                m_conn_params_config.evt_handler(&evt);
   1c0ea:	a801      	add	r0, sp, #4
   1c0ec:	4798      	blx	r3
            }
        }
    }
}
   1c0ee:	b002      	add	sp, #8
   1c0f0:	bd70      	pop	{r4, r5, r6, pc}
    err_code = sd_ble_gap_conn_param_update(conn_handle, p_new_conn_params);
   1c0f2:	4618      	mov	r0, r3
   1c0f4:	f105 010a 	add.w	r1, r5, #10
   1c0f8:	f7ff ffd8 	bl	1c0ac <sd_ble_gap_conn_param_update>
    if ((err_code != NRF_SUCCESS) && (err_code != NRF_ERROR_BUSY)) // NRF_ERROR_BUSY means another conn_param_update request is pending.
   1c0fc:	b128      	cbz	r0, 1c10a <update_timeout_handler+0x4e>
   1c0fe:	2811      	cmp	r0, #17
   1c100:	d0f5      	beq.n	1c0ee <update_timeout_handler+0x32>
    if (m_conn_params_config.error_handler != NULL)
   1c102:	69b3      	ldr	r3, [r6, #24]
   1c104:	2b00      	cmp	r3, #0
   1c106:	d1f1      	bne.n	1c0ec <update_timeout_handler+0x30>
   1c108:	e7f1      	b.n	1c0ee <update_timeout_handler+0x32>
                p_instance->update_count++;
   1c10a:	7a2b      	ldrb	r3, [r5, #8]
   1c10c:	3301      	adds	r3, #1
   1c10e:	722b      	strb	r3, [r5, #8]
}
   1c110:	b002      	add	sp, #8
   1c112:	bd70      	pop	{r4, r5, r6, pc}
                err_code = sd_ble_gap_disconnect(conn_handle, BLE_HCI_CONN_INTERVAL_UNACCEPTABLE);
   1c114:	213b      	movs	r1, #59	; 0x3b
   1c116:	4620      	mov	r0, r4
   1c118:	f7ff ffca 	bl	1c0b0 <sd_ble_gap_disconnect>
                if ((err_code != NRF_SUCCESS) && (err_code != NRF_ERROR_INVALID_STATE)) // NRF_ERROR_INVALID_STATE means disconnect is already in progress.
   1c11c:	f030 0308 	bics.w	r3, r0, #8
   1c120:	d0dc      	beq.n	1c0dc <update_timeout_handler+0x20>
    if (m_conn_params_config.error_handler != NULL)
   1c122:	69b3      	ldr	r3, [r6, #24]
   1c124:	2b00      	cmp	r3, #0
   1c126:	d0d9      	beq.n	1c0dc <update_timeout_handler+0x20>
        m_conn_params_config.error_handler(err_code);
   1c128:	4798      	blx	r3
   1c12a:	e7d7      	b.n	1c0dc <update_timeout_handler+0x20>
   1c12c:	20001a9c 	.word	0x20001a9c
   1c130:	20001a80 	.word	0x20001a80

0001c134 <ble_evt_handler>:
 *
 * @param[in]   p_ble_evt       Event received from the BLE stack.
 * @param[in]   p_context       Context.
 */
static void ble_evt_handler(ble_evt_t const * p_ble_evt, void * p_context)
{
   1c134:	b5f0      	push	{r4, r5, r6, r7, lr}
    switch (p_ble_evt->header.evt_id)
   1c136:	8802      	ldrh	r2, [r0, #0]
   1c138:	2a12      	cmp	r2, #18
{
   1c13a:	b083      	sub	sp, #12
   1c13c:	4603      	mov	r3, r0
    switch (p_ble_evt->header.evt_id)
   1c13e:	d03e      	beq.n	1c1be <ble_evt_handler+0x8a>
   1c140:	d815      	bhi.n	1c16e <ble_evt_handler+0x3a>
   1c142:	2a10      	cmp	r2, #16
   1c144:	d073      	beq.n	1c22e <ble_evt_handler+0xfa>
   1c146:	2a11      	cmp	r2, #17
   1c148:	d10f      	bne.n	1c16a <ble_evt_handler+0x36>
        if (m_conn_params_instances[i].conn_handle == conn_handle)
   1c14a:	4c6c      	ldr	r4, [pc, #432]	; (1c2fc <ble_evt_handler+0x1c8>)
   1c14c:	8882      	ldrh	r2, [r0, #4]
   1c14e:	8823      	ldrh	r3, [r4, #0]
   1c150:	429a      	cmp	r2, r3
   1c152:	d10a      	bne.n	1c16a <ble_evt_handler+0x36>
        err_code = app_timer_stop(p_instance->timer_id);
   1c154:	6860      	ldr	r0, [r4, #4]
   1c156:	f7fd fb2d 	bl	197b4 <app_timer_stop>
        if (err_code != NRF_SUCCESS)
   1c15a:	b118      	cbz	r0, 1c164 <ble_evt_handler+0x30>
    if (m_conn_params_config.error_handler != NULL)
   1c15c:	4b68      	ldr	r3, [pc, #416]	; (1c300 <ble_evt_handler+0x1cc>)
   1c15e:	699b      	ldr	r3, [r3, #24]
   1c160:	b103      	cbz	r3, 1c164 <ble_evt_handler+0x30>
        m_conn_params_config.error_handler(err_code);
   1c162:	4798      	blx	r3
    p_instance->conn_handle = BLE_CONN_HANDLE_INVALID;
   1c164:	f64f 73ff 	movw	r3, #65535	; 0xffff
   1c168:	8023      	strh	r3, [r4, #0]

        default:
            // No implementation needed.
            break;
    }
}
   1c16a:	b003      	add	sp, #12
   1c16c:	bdf0      	pop	{r4, r5, r6, r7, pc}
    switch (p_ble_evt->header.evt_id)
   1c16e:	2a50      	cmp	r2, #80	; 0x50
   1c170:	d1fb      	bne.n	1c16a <ble_evt_handler+0x36>
        (p_evt_write->handle == m_conn_params_config.start_on_notify_cccd_handle)
   1c172:	4d63      	ldr	r5, [pc, #396]	; (1c300 <ble_evt_handler+0x1cc>)
    if (
   1c174:	88c1      	ldrh	r1, [r0, #6]
   1c176:	89ea      	ldrh	r2, [r5, #14]
   1c178:	4291      	cmp	r1, r2
   1c17a:	d1f6      	bne.n	1c16a <ble_evt_handler+0x36>
        &&
   1c17c:	8a02      	ldrh	r2, [r0, #16]
   1c17e:	2a02      	cmp	r2, #2
   1c180:	d1f3      	bne.n	1c16a <ble_evt_handler+0x36>
        if (m_conn_params_instances[i].conn_handle == conn_handle)
   1c182:	4c5e      	ldr	r4, [pc, #376]	; (1c2fc <ble_evt_handler+0x1c8>)
        uint16_t                     conn_handle = p_ble_evt->evt.gap_evt.conn_handle;
   1c184:	8882      	ldrh	r2, [r0, #4]
        if (m_conn_params_instances[i].conn_handle == conn_handle)
   1c186:	8826      	ldrh	r6, [r4, #0]
   1c188:	4296      	cmp	r6, r2
   1c18a:	d1ee      	bne.n	1c16a <ble_evt_handler+0x36>
            if (ble_srv_is_notification_enabled(p_evt_write->data))
   1c18c:	3012      	adds	r0, #18
   1c18e:	f000 fa1d 	bl	1c5cc <ble_srv_is_notification_enabled>
   1c192:	2800      	cmp	r0, #0
   1c194:	f000 809c 	beq.w	1c2d0 <ble_evt_handler+0x19c>
    if (!p_instance->params_ok)
   1c198:	7a63      	ldrb	r3, [r4, #9]
   1c19a:	2b00      	cmp	r3, #0
   1c19c:	f040 809f 	bne.w	1c2de <ble_evt_handler+0x1aa>
                timeout_ticks = m_conn_params_config.next_conn_params_update_delay;
   1c1a0:	e9d5 1301 	ldrd	r1, r3, [r5, #4]
        if (p_instance->update_count == 0)
   1c1a4:	7a27      	ldrb	r7, [r4, #8]
        err_code = app_timer_start(p_instance->timer_id, timeout_ticks, (void *)(uint32_t)conn_handle);
   1c1a6:	6860      	ldr	r0, [r4, #4]
   1c1a8:	4632      	mov	r2, r6
   1c1aa:	2f00      	cmp	r7, #0
   1c1ac:	bf18      	it	ne
   1c1ae:	4619      	movne	r1, r3
   1c1b0:	f7fd faba 	bl	19728 <app_timer_start>
        if (err_code != NRF_SUCCESS)
   1c1b4:	2800      	cmp	r0, #0
   1c1b6:	d0d8      	beq.n	1c16a <ble_evt_handler+0x36>
    if (m_conn_params_config.error_handler != NULL)
   1c1b8:	69ab      	ldr	r3, [r5, #24]
   1c1ba:	bb3b      	cbnz	r3, 1c20c <ble_evt_handler+0xd8>
   1c1bc:	e7d5      	b.n	1c16a <ble_evt_handler+0x36>
        if (m_conn_params_instances[i].conn_handle == conn_handle)
   1c1be:	4c4f      	ldr	r4, [pc, #316]	; (1c2fc <ble_evt_handler+0x1c8>)
    uint16_t                     conn_handle = p_ble_evt->evt.gap_evt.conn_handle;
   1c1c0:	8882      	ldrh	r2, [r0, #4]
        if (m_conn_params_instances[i].conn_handle == conn_handle)
   1c1c2:	8821      	ldrh	r1, [r4, #0]
   1c1c4:	4291      	cmp	r1, r2
   1c1c6:	d1d0      	bne.n	1c16a <ble_evt_handler+0x36>
    if   ((p_actual_conn_params->max_conn_interval < p_preferred_conn_params->min_conn_interval)
   1c1c8:	8940      	ldrh	r0, [r0, #10]
   1c1ca:	8965      	ldrh	r5, [r4, #10]
   1c1cc:	4285      	cmp	r5, r0
   1c1ce:	d81f      	bhi.n	1c210 <ble_evt_handler+0xdc>
       || (p_actual_conn_params->max_conn_interval > p_preferred_conn_params->max_conn_interval))
   1c1d0:	89a5      	ldrh	r5, [r4, #12]
   1c1d2:	4285      	cmp	r5, r0
   1c1d4:	d31c      	bcc.n	1c210 <ble_evt_handler+0xdc>
    uint32_t max_allowed_sl = p_preferred_conn_params->slave_latency + max_slave_latency_err;
   1c1d6:	89e0      	ldrh	r0, [r4, #14]
    if   ((p_actual_conn_params->slave_latency < min_allowed_sl)
   1c1d8:	899d      	ldrh	r5, [r3, #12]
                              - MIN(max_slave_latency_err, p_preferred_conn_params->slave_latency);
   1c1da:	f240 13f3 	movw	r3, #499	; 0x1f3
   1c1de:	4298      	cmp	r0, r3
   1c1e0:	bf94      	ite	ls
   1c1e2:	1a03      	subls	r3, r0, r0
   1c1e4:	1ac3      	subhi	r3, r0, r3
    if   ((p_actual_conn_params->slave_latency < min_allowed_sl)
   1c1e6:	42ab      	cmp	r3, r5
   1c1e8:	d812      	bhi.n	1c210 <ble_evt_handler+0xdc>
    uint32_t max_allowed_sl = p_preferred_conn_params->slave_latency + max_slave_latency_err;
   1c1ea:	f200 10f3 	addw	r0, r0, #499	; 0x1f3
       || (p_actual_conn_params->slave_latency > max_allowed_sl))
   1c1ee:	42a8      	cmp	r0, r5
   1c1f0:	d30e      	bcc.n	1c210 <ble_evt_handler+0xdc>
        if (m_conn_params_config.evt_handler != NULL)
   1c1f2:	4b43      	ldr	r3, [pc, #268]	; (1c300 <ble_evt_handler+0x1cc>)
   1c1f4:	695b      	ldr	r3, [r3, #20]
        p_instance->update_count = 0;
   1c1f6:	f44f 7280 	mov.w	r2, #256	; 0x100
   1c1fa:	8122      	strh	r2, [r4, #8]
        if (m_conn_params_config.evt_handler != NULL)
   1c1fc:	2b00      	cmp	r3, #0
   1c1fe:	d0b4      	beq.n	1c16a <ble_evt_handler+0x36>
            evt.evt_type = BLE_CONN_PARAMS_EVT_SUCCEEDED;
   1c200:	2201      	movs	r2, #1
            evt.conn_handle = conn_handle;
   1c202:	f8ad 1006 	strh.w	r1, [sp, #6]
            evt.evt_type = BLE_CONN_PARAMS_EVT_SUCCEEDED;
   1c206:	f88d 2004 	strb.w	r2, [sp, #4]
            m_conn_params_config.evt_handler(&evt);
   1c20a:	a801      	add	r0, sp, #4
   1c20c:	4798      	blx	r3
}
   1c20e:	e7ac      	b.n	1c16a <ble_evt_handler+0x36>
                timeout_ticks = m_conn_params_config.first_conn_params_update_delay;
   1c210:	4d3b      	ldr	r5, [pc, #236]	; (1c300 <ble_evt_handler+0x1cc>)
        if (p_instance->update_count == 0)
   1c212:	7a26      	ldrb	r6, [r4, #8]
        err_code = app_timer_start(p_instance->timer_id, timeout_ticks, (void *)(uint32_t)conn_handle);
   1c214:	6860      	ldr	r0, [r4, #4]
                timeout_ticks = m_conn_params_config.next_conn_params_update_delay;
   1c216:	e9d5 1301 	ldrd	r1, r3, [r5, #4]
        err_code = app_timer_start(p_instance->timer_id, timeout_ticks, (void *)(uint32_t)conn_handle);
   1c21a:	2e00      	cmp	r6, #0
   1c21c:	bf18      	it	ne
   1c21e:	4619      	movne	r1, r3
        p_instance->params_ok = is_conn_params_ok(
   1c220:	2300      	movs	r3, #0
   1c222:	7263      	strb	r3, [r4, #9]
        err_code = app_timer_start(p_instance->timer_id, timeout_ticks, (void *)(uint32_t)conn_handle);
   1c224:	f7fd fa80 	bl	19728 <app_timer_start>
        if (err_code != NRF_SUCCESS)
   1c228:	2800      	cmp	r0, #0
   1c22a:	d1c5      	bne.n	1c1b8 <ble_evt_handler+0x84>
   1c22c:	e79d      	b.n	1c16a <ble_evt_handler+0x36>
    if (role != BLE_GAP_ROLE_PERIPH)
   1c22e:	7bc6      	ldrb	r6, [r0, #15]
   1c230:	2e01      	cmp	r6, #1
   1c232:	d19a      	bne.n	1c16a <ble_evt_handler+0x36>
        if (m_conn_params_instances[i].conn_handle == conn_handle)
   1c234:	4c31      	ldr	r4, [pc, #196]	; (1c2fc <ble_evt_handler+0x1c8>)
   1c236:	8821      	ldrh	r1, [r4, #0]
   1c238:	f64f 72ff 	movw	r2, #65535	; 0xffff
   1c23c:	4291      	cmp	r1, r2
   1c23e:	d13f      	bne.n	1c2c0 <ble_evt_handler+0x18c>
    p_instance->preferred_conn_params = m_preferred_conn_params;
   1c240:	4d30      	ldr	r5, [pc, #192]	; (1c304 <ble_evt_handler+0x1d0>)
    uint16_t conn_handle = p_ble_evt->evt.gap_evt.conn_handle;
   1c242:	8882      	ldrh	r2, [r0, #4]
    p_instance->conn_handle           = conn_handle;
   1c244:	8022      	strh	r2, [r4, #0]
    p_instance->preferred_conn_params = m_preferred_conn_params;
   1c246:	cd03      	ldmia	r5!, {r0, r1}
   1c248:	f8c4 000a 	str.w	r0, [r4, #10]
   1c24c:	f8c4 100e 	str.w	r1, [r4, #14]
    if   ((p_actual_conn_params->max_conn_interval < p_preferred_conn_params->min_conn_interval)
   1c250:	8a59      	ldrh	r1, [r3, #18]
   1c252:	8960      	ldrh	r0, [r4, #10]
    p_instance->update_count          = 0;
   1c254:	2500      	movs	r5, #0
    if   ((p_actual_conn_params->max_conn_interval < p_preferred_conn_params->min_conn_interval)
   1c256:	4288      	cmp	r0, r1
    p_instance->update_count          = 0;
   1c258:	7225      	strb	r5, [r4, #8]
    if   ((p_actual_conn_params->max_conn_interval < p_preferred_conn_params->min_conn_interval)
   1c25a:	d822      	bhi.n	1c2a2 <ble_evt_handler+0x16e>
       || (p_actual_conn_params->max_conn_interval > p_preferred_conn_params->max_conn_interval))
   1c25c:	89a0      	ldrh	r0, [r4, #12]
   1c25e:	4288      	cmp	r0, r1
   1c260:	d31f      	bcc.n	1c2a2 <ble_evt_handler+0x16e>
    uint32_t max_allowed_sl = p_preferred_conn_params->slave_latency + max_slave_latency_err;
   1c262:	89e1      	ldrh	r1, [r4, #14]
    if   ((p_actual_conn_params->slave_latency < min_allowed_sl)
   1c264:	8a98      	ldrh	r0, [r3, #20]
                              - MIN(max_slave_latency_err, p_preferred_conn_params->slave_latency);
   1c266:	f240 13f3 	movw	r3, #499	; 0x1f3
   1c26a:	4299      	cmp	r1, r3
   1c26c:	bf94      	ite	ls
   1c26e:	1a4b      	subls	r3, r1, r1
   1c270:	1acb      	subhi	r3, r1, r3
    if   ((p_actual_conn_params->slave_latency < min_allowed_sl)
   1c272:	4283      	cmp	r3, r0
   1c274:	d815      	bhi.n	1c2a2 <ble_evt_handler+0x16e>
    uint32_t max_allowed_sl = p_preferred_conn_params->slave_latency + max_slave_latency_err;
   1c276:	f201 11f3 	addw	r1, r1, #499	; 0x1f3
       || (p_actual_conn_params->slave_latency > max_allowed_sl))
   1c27a:	4281      	cmp	r1, r0
   1c27c:	d311      	bcc.n	1c2a2 <ble_evt_handler+0x16e>
    if (m_conn_params_config.start_on_notify_cccd_handle == BLE_GATT_HANDLE_INVALID)
   1c27e:	4d20      	ldr	r5, [pc, #128]	; (1c300 <ble_evt_handler+0x1cc>)
    p_instance->params_ok = is_conn_params_ok(&p_instance->preferred_conn_params,
   1c280:	7266      	strb	r6, [r4, #9]
    if (m_conn_params_config.start_on_notify_cccd_handle == BLE_GATT_HANDLE_INVALID)
   1c282:	89eb      	ldrh	r3, [r5, #14]
   1c284:	2b00      	cmp	r3, #0
   1c286:	f47f af70 	bne.w	1c16a <ble_evt_handler+0x36>
        if (m_conn_params_config.evt_handler != NULL)
   1c28a:	696b      	ldr	r3, [r5, #20]
   1c28c:	2b00      	cmp	r3, #0
   1c28e:	f43f af6c 	beq.w	1c16a <ble_evt_handler+0x36>
            evt.evt_type = BLE_CONN_PARAMS_EVT_SUCCEEDED;
   1c292:	2101      	movs	r1, #1
            evt.conn_handle = conn_handle;
   1c294:	f8ad 2006 	strh.w	r2, [sp, #6]
            evt.evt_type = BLE_CONN_PARAMS_EVT_SUCCEEDED;
   1c298:	f88d 1004 	strb.w	r1, [sp, #4]
            m_conn_params_config.evt_handler(&evt);
   1c29c:	a801      	add	r0, sp, #4
   1c29e:	4798      	blx	r3
   1c2a0:	e763      	b.n	1c16a <ble_evt_handler+0x36>
    if (m_conn_params_config.start_on_notify_cccd_handle == BLE_GATT_HANDLE_INVALID)
   1c2a2:	4d17      	ldr	r5, [pc, #92]	; (1c300 <ble_evt_handler+0x1cc>)
   1c2a4:	89eb      	ldrh	r3, [r5, #14]
    p_instance->params_ok = is_conn_params_ok(&p_instance->preferred_conn_params,
   1c2a6:	2100      	movs	r1, #0
   1c2a8:	7261      	strb	r1, [r4, #9]
    if (m_conn_params_config.start_on_notify_cccd_handle == BLE_GATT_HANDLE_INVALID)
   1c2aa:	2b00      	cmp	r3, #0
   1c2ac:	f47f af5d 	bne.w	1c16a <ble_evt_handler+0x36>
        err_code = app_timer_start(p_instance->timer_id, timeout_ticks, (void *)(uint32_t)conn_handle);
   1c2b0:	6860      	ldr	r0, [r4, #4]
   1c2b2:	6869      	ldr	r1, [r5, #4]
   1c2b4:	f7fd fa38 	bl	19728 <app_timer_start>
        if (err_code != NRF_SUCCESS)
   1c2b8:	2800      	cmp	r0, #0
   1c2ba:	f43f af56 	beq.w	1c16a <ble_evt_handler+0x36>
   1c2be:	e77b      	b.n	1c1b8 <ble_evt_handler+0x84>
    if (m_conn_params_config.error_handler != NULL)
   1c2c0:	4b0f      	ldr	r3, [pc, #60]	; (1c300 <ble_evt_handler+0x1cc>)
   1c2c2:	699b      	ldr	r3, [r3, #24]
   1c2c4:	2b00      	cmp	r3, #0
   1c2c6:	f43f af50 	beq.w	1c16a <ble_evt_handler+0x36>
        m_conn_params_config.error_handler(err_code);
   1c2ca:	2004      	movs	r0, #4
   1c2cc:	4798      	blx	r3
   1c2ce:	e74c      	b.n	1c16a <ble_evt_handler+0x36>
                err_code = app_timer_stop(p_instance->timer_id);
   1c2d0:	6860      	ldr	r0, [r4, #4]
   1c2d2:	f7fd fa6f 	bl	197b4 <app_timer_stop>
                if (err_code != NRF_SUCCESS)
   1c2d6:	2800      	cmp	r0, #0
   1c2d8:	f43f af47 	beq.w	1c16a <ble_evt_handler+0x36>
   1c2dc:	e76c      	b.n	1c1b8 <ble_evt_handler+0x84>
        if (m_conn_params_config.evt_handler != NULL)
   1c2de:	696b      	ldr	r3, [r5, #20]
        p_instance->update_count = 0;
   1c2e0:	2200      	movs	r2, #0
   1c2e2:	7222      	strb	r2, [r4, #8]
        if (m_conn_params_config.evt_handler != NULL)
   1c2e4:	2b00      	cmp	r3, #0
   1c2e6:	f43f af40 	beq.w	1c16a <ble_evt_handler+0x36>
            evt.evt_type = BLE_CONN_PARAMS_EVT_SUCCEEDED;
   1c2ea:	2201      	movs	r2, #1
            evt.conn_handle = conn_handle;
   1c2ec:	f8ad 6006 	strh.w	r6, [sp, #6]
            evt.evt_type = BLE_CONN_PARAMS_EVT_SUCCEEDED;
   1c2f0:	f88d 2004 	strb.w	r2, [sp, #4]
            m_conn_params_config.evt_handler(&evt);
   1c2f4:	a801      	add	r0, sp, #4
   1c2f6:	4798      	blx	r3
   1c2f8:	e737      	b.n	1c16a <ble_evt_handler+0x36>
   1c2fa:	bf00      	nop
   1c2fc:	20001a9c 	.word	0x20001a9c
   1c300:	20001a80 	.word	0x20001a80
   1c304:	20001ab0 	.word	0x20001ab0

0001c308 <ble_conn_params_init>:
    VERIFY_PARAM_NOT_NULL(p_init);
   1c308:	b370      	cbz	r0, 1c368 <ble_conn_params_init+0x60>
{
   1c30a:	b5f8      	push	{r3, r4, r5, r6, r7, lr}
    m_conn_params_config = *p_init;
   1c30c:	4605      	mov	r5, r0
   1c30e:	4606      	mov	r6, r0
   1c310:	cd0f      	ldmia	r5!, {r0, r1, r2, r3}
   1c312:	4f16      	ldr	r7, [pc, #88]	; (1c36c <ble_conn_params_init+0x64>)
   1c314:	463c      	mov	r4, r7
   1c316:	c40f      	stmia	r4!, {r0, r1, r2, r3}
    if (p_init->p_conn_params != NULL)
   1c318:	4684      	mov	ip, r0
    m_conn_params_config = *p_init;
   1c31a:	e895 0007 	ldmia.w	r5, {r0, r1, r2}
    m_conn_params_config.p_conn_params = &m_preferred_conn_params;
   1c31e:	4d14      	ldr	r5, [pc, #80]	; (1c370 <ble_conn_params_init+0x68>)
   1c320:	603d      	str	r5, [r7, #0]
    m_conn_params_config = *p_init;
   1c322:	e884 0007 	stmia.w	r4, {r0, r1, r2}
    if (p_init->p_conn_params != NULL)
   1c326:	f1bc 0f00 	cmp.w	ip, #0
   1c32a:	d017      	beq.n	1c35c <ble_conn_params_init+0x54>
        err_code = sd_ble_gap_ppcp_set(p_init->p_conn_params);
   1c32c:	4660      	mov	r0, ip
   1c32e:	f7ff fec1 	bl	1c0b4 <sd_ble_gap_ppcp_set>
        if (err_code != NRF_SUCCESS)
   1c332:	b990      	cbnz	r0, 1c35a <ble_conn_params_init+0x52>
        m_preferred_conn_params = *p_init->p_conn_params;
   1c334:	6833      	ldr	r3, [r6, #0]
   1c336:	6818      	ldr	r0, [r3, #0]
   1c338:	6859      	ldr	r1, [r3, #4]
   1c33a:	c503      	stmia	r5!, {r0, r1}
    p_instance->conn_handle = BLE_CONN_HANDLE_INVALID;
   1c33c:	4b0d      	ldr	r3, [pc, #52]	; (1c374 <ble_conn_params_init+0x6c>)
        p_instance->timer_id = &m_timer_data[i];
   1c33e:	490e      	ldr	r1, [pc, #56]	; (1c378 <ble_conn_params_init+0x70>)
        err_code = app_timer_create(&p_instance->timer_id,
   1c340:	4a0e      	ldr	r2, [pc, #56]	; (1c37c <ble_conn_params_init+0x74>)
        p_instance->timer_id = &m_timer_data[i];
   1c342:	4618      	mov	r0, r3
    p_instance->conn_handle = BLE_CONN_HANDLE_INVALID;
   1c344:	f64f 74ff 	movw	r4, #65535	; 0xffff
        p_instance->timer_id = &m_timer_data[i];
   1c348:	f840 1f04 	str.w	r1, [r0, #4]!
    p_instance->conn_handle = BLE_CONN_HANDLE_INVALID;
   1c34c:	801c      	strh	r4, [r3, #0]
        err_code = app_timer_create(&p_instance->timer_id,
   1c34e:	2100      	movs	r1, #0
   1c350:	f7fd f9dc 	bl	1970c <app_timer_create>
            return NRF_ERROR_INTERNAL;
   1c354:	2800      	cmp	r0, #0
   1c356:	bf18      	it	ne
   1c358:	2003      	movne	r0, #3
}
   1c35a:	bdf8      	pop	{r3, r4, r5, r6, r7, pc}
        err_code = sd_ble_gap_ppcp_get(&m_preferred_conn_params);
   1c35c:	4628      	mov	r0, r5
   1c35e:	f7ff feab 	bl	1c0b8 <sd_ble_gap_ppcp_get>
        if (err_code != NRF_SUCCESS)
   1c362:	2800      	cmp	r0, #0
   1c364:	d0ea      	beq.n	1c33c <ble_conn_params_init+0x34>
}
   1c366:	bdf8      	pop	{r3, r4, r5, r6, r7, pc}
    VERIFY_PARAM_NOT_NULL(p_init);
   1c368:	200e      	movs	r0, #14
}
   1c36a:	4770      	bx	lr
   1c36c:	20001a80 	.word	0x20001a80
   1c370:	20001ab0 	.word	0x20001ab0
   1c374:	20001a9c 	.word	0x20001a9c
   1c378:	20001ab8 	.word	0x20001ab8
   1c37c:	0001c0bd 	.word	0x0001c0bd

0001c380 <ble_conn_params_stop>:
{
   1c380:	b508      	push	{r3, lr}
        err_code = app_timer_stop(m_conn_params_instances[i].timer_id);
   1c382:	4b06      	ldr	r3, [pc, #24]	; (1c39c <ble_conn_params_stop+0x1c>)
   1c384:	6858      	ldr	r0, [r3, #4]
   1c386:	f7fd fa15 	bl	197b4 <app_timer_stop>
        switch (err_code)
   1c38a:	2804      	cmp	r0, #4
   1c38c:	d004      	beq.n	1c398 <ble_conn_params_stop+0x18>
   1c38e:	f030 0008 	bics.w	r0, r0, #8
   1c392:	bf18      	it	ne
   1c394:	2003      	movne	r0, #3
}
   1c396:	bd08      	pop	{r3, pc}
                return NRF_ERROR_BUSY;
   1c398:	2011      	movs	r0, #17
}
   1c39a:	bd08      	pop	{r3, pc}
   1c39c:	20001a9c 	.word	0x20001a9c

0001c3a0 <SEGGER_RTT_WriteString>:
*  Notes
*    (1) Data is stored according to buffer flags.
*    (2) String passed to this function has to be \0 terminated
*    (3) \0 termination character is *not* stored in RTT buffer
*/
unsigned SEGGER_RTT_WriteString(unsigned BufferIndex, const char* s) {
   1c3a0:	e92d 4ff0 	stmdb	sp!, {r4, r5, r6, r7, r8, r9, sl, fp, lr}
  INIT();
   1c3a4:	4f83      	ldr	r7, [pc, #524]	; (1c5b4 <SEGGER_RTT_WriteString+0x214>)
unsigned SEGGER_RTT_WriteString(unsigned BufferIndex, const char* s) {
   1c3a6:	b085      	sub	sp, #20
   1c3a8:	4680      	mov	r8, r0
  unsigned Len;

  Len = STRLEN(s);
   1c3aa:	4608      	mov	r0, r1
unsigned SEGGER_RTT_WriteString(unsigned BufferIndex, const char* s) {
   1c3ac:	468a      	mov	sl, r1
  Len = STRLEN(s);
   1c3ae:	f000 fb01 	bl	1c9b4 <strlen>
  INIT();
   1c3b2:	783b      	ldrb	r3, [r7, #0]
  Len = STRLEN(s);
   1c3b4:	4681      	mov	r9, r0
  INIT();
   1c3b6:	b1eb      	cbz	r3, 1c3f4 <SEGGER_RTT_WriteString+0x54>
  switch (pRing->Flags) {
   1c3b8:	eb08 0548 	add.w	r5, r8, r8, lsl #1
   1c3bc:	eb07 05c5 	add.w	r5, r7, r5, lsl #3
  SEGGER_RTT_LOCK();
   1c3c0:	f04f 0b00 	mov.w	fp, #0
   1c3c4:	f10d 000f 	add.w	r0, sp, #15
   1c3c8:	f88d b00f 	strb.w	fp, [sp, #15]
   1c3cc:	f7fd fa1a 	bl	19804 <app_util_critical_region_enter>
  switch (pRing->Flags) {
   1c3d0:	6aee      	ldr	r6, [r5, #44]	; 0x2c
   1c3d2:	2e01      	cmp	r6, #1
   1c3d4:	ea4f 0448 	mov.w	r4, r8, lsl #1
   1c3d8:	f000 808d 	beq.w	1c4f6 <SEGGER_RTT_WriteString+0x156>
   1c3dc:	2e02      	cmp	r6, #2
   1c3de:	d04f      	beq.n	1c480 <SEGGER_RTT_WriteString+0xe0>
   1c3e0:	b346      	cbz	r6, 1c434 <SEGGER_RTT_WriteString+0x94>
   1c3e2:	465e      	mov	r6, fp
  SEGGER_RTT_UNLOCK();
   1c3e4:	f89d 000f 	ldrb.w	r0, [sp, #15]
   1c3e8:	f7fd fa32 	bl	19850 <app_util_critical_region_exit>
  return SEGGER_RTT_Write(BufferIndex, s, Len);
}
   1c3ec:	4630      	mov	r0, r6
   1c3ee:	b005      	add	sp, #20
   1c3f0:	e8bd 8ff0 	ldmia.w	sp!, {r4, r5, r6, r7, r8, r9, sl, fp, pc}
  p->MaxNumUpBuffers    = SEGGER_RTT_MAX_NUM_UP_BUFFERS;
   1c3f4:	2202      	movs	r2, #2
  p->aUp[0].RdOff         = 0u;
   1c3f6:	62bb      	str	r3, [r7, #40]	; 0x28
  p->aUp[0].WrOff         = 0u;
   1c3f8:	627b      	str	r3, [r7, #36]	; 0x24
  p->aDown[0].RdOff         = 0u;
   1c3fa:	65bb      	str	r3, [r7, #88]	; 0x58
  p->aDown[0].WrOff         = 0u;
   1c3fc:	657b      	str	r3, [r7, #84]	; 0x54
  p->aUp[0].pBuffer       = _acUpBuffer;
   1c3fe:	4b6e      	ldr	r3, [pc, #440]	; (1c5b8 <SEGGER_RTT_WriteString+0x218>)
  p->aUp[0].sName         = "Terminal";
   1c400:	496e      	ldr	r1, [pc, #440]	; (1c5bc <SEGGER_RTT_WriteString+0x21c>)
  p->aUp[0].Flags         = SEGGER_RTT_MODE_DEFAULT;
   1c402:	62fa      	str	r2, [r7, #44]	; 0x2c
  p->MaxNumDownBuffers  = SEGGER_RTT_MAX_NUM_DOWN_BUFFERS;
   1c404:	e9c7 2204 	strd	r2, r2, [r7, #16]
  p->aDown[0].Flags         = SEGGER_RTT_MODE_DEFAULT;
   1c408:	65fa      	str	r2, [r7, #92]	; 0x5c
  p->aUp[0].SizeOfBuffer  = sizeof(_acUpBuffer);
   1c40a:	f44f 7000 	mov.w	r0, #512	; 0x200
  p->aDown[0].pBuffer       = _acDownBuffer;
   1c40e:	4a6c      	ldr	r2, [pc, #432]	; (1c5c0 <SEGGER_RTT_WriteString+0x220>)
  p->aUp[0].pBuffer       = _acUpBuffer;
   1c410:	61fb      	str	r3, [r7, #28]
  p->aDown[0].SizeOfBuffer  = sizeof(_acDownBuffer);
   1c412:	2310      	movs	r3, #16
   1c414:	653b      	str	r3, [r7, #80]	; 0x50
  p->aUp[0].sName         = "Terminal";
   1c416:	61b9      	str	r1, [r7, #24]
  p->aDown[0].sName         = "Terminal";
   1c418:	64b9      	str	r1, [r7, #72]	; 0x48
  p->aUp[0].SizeOfBuffer  = sizeof(_acUpBuffer);
   1c41a:	6238      	str	r0, [r7, #32]
  strcpy(&p->acID[7], "RTT");
   1c41c:	4969      	ldr	r1, [pc, #420]	; (1c5c4 <SEGGER_RTT_WriteString+0x224>)
  p->aDown[0].pBuffer       = _acDownBuffer;
   1c41e:	64fa      	str	r2, [r7, #76]	; 0x4c
  strcpy(&p->acID[7], "RTT");
   1c420:	1df8      	adds	r0, r7, #7
   1c422:	f000 fabf 	bl	1c9a4 <strcpy>
  strcpy(&p->acID[0], "SEGGER");
   1c426:	4968      	ldr	r1, [pc, #416]	; (1c5c8 <SEGGER_RTT_WriteString+0x228>)
   1c428:	4638      	mov	r0, r7
   1c42a:	f000 fabb 	bl	1c9a4 <strcpy>
  p->acID[6] = ' ';
   1c42e:	2320      	movs	r3, #32
   1c430:	71bb      	strb	r3, [r7, #6]
}
   1c432:	e7c1      	b.n	1c3b8 <SEGGER_RTT_WriteString+0x18>
  RdOff = pRing->RdOff;
   1c434:	6aab      	ldr	r3, [r5, #40]	; 0x28
  WrOff = pRing->WrOff;
   1c436:	f8d5 b024 	ldr.w	fp, [r5, #36]	; 0x24
  if (RdOff <= WrOff) {
   1c43a:	455b      	cmp	r3, fp
    r = pRing->SizeOfBuffer - 1u - WrOff + RdOff;
   1c43c:	bf9c      	itt	ls
   1c43e:	6a2a      	ldrls	r2, [r5, #32]
   1c440:	189b      	addls	r3, r3, r2
    r = RdOff - WrOff - 1u;
   1c442:	3b01      	subs	r3, #1
   1c444:	eba3 030b 	sub.w	r3, r3, fp
    if (Avail < NumBytes) {
   1c448:	4599      	cmp	r9, r3
   1c44a:	d8cb      	bhi.n	1c3e4 <SEGGER_RTT_WriteString+0x44>
  Rem = pRing->SizeOfBuffer - WrOff;
   1c44c:	4444      	add	r4, r8
   1c44e:	eb07 04c4 	add.w	r4, r7, r4, lsl #3
    SEGGER_RTT_MEMCPY(pRing->pBuffer + WrOff, pData, NumBytes);
   1c452:	f108 0801 	add.w	r8, r8, #1
  Rem = pRing->SizeOfBuffer - WrOff;
   1c456:	6a25      	ldr	r5, [r4, #32]
   1c458:	eba5 060b 	sub.w	r6, r5, fp
    SEGGER_RTT_MEMCPY(pRing->pBuffer + WrOff, pData, NumBytes);
   1c45c:	eb08 0848 	add.w	r8, r8, r8, lsl #1
  if (Rem > NumBytes) {
   1c460:	45b1      	cmp	r9, r6
    SEGGER_RTT_MEMCPY(pRing->pBuffer + WrOff, pData, NumBytes);
   1c462:	eb07 07c8 	add.w	r7, r7, r8, lsl #3
  if (Rem > NumBytes) {
   1c466:	f080 8091 	bcs.w	1c58c <SEGGER_RTT_WriteString+0x1ec>
    SEGGER_RTT_MEMCPY(pRing->pBuffer + WrOff, pData, NumBytes);
   1c46a:	6878      	ldr	r0, [r7, #4]
   1c46c:	4651      	mov	r1, sl
   1c46e:	464a      	mov	r2, r9
   1c470:	4458      	add	r0, fp
   1c472:	f000 fa4d 	bl	1c910 <memcpy>
    pRing->WrOff = WrOff + NumBytes;
   1c476:	eb09 030b 	add.w	r3, r9, fp
   1c47a:	6263      	str	r3, [r4, #36]	; 0x24
   1c47c:	464e      	mov	r6, r9
   1c47e:	e7b1      	b.n	1c3e4 <SEGGER_RTT_WriteString+0x44>
  WrOff = pRing->WrOff;
   1c480:	f108 0801 	add.w	r8, r8, #1
    SEGGER_RTT_MEMCPY(pRing->pBuffer + WrOff, pBuffer, NumBytesToWrite);
   1c484:	eb08 0848 	add.w	r8, r8, r8, lsl #1
  WrOff = pRing->WrOff;
   1c488:	6a6c      	ldr	r4, [r5, #36]	; 0x24
    SEGGER_RTT_MEMCPY(pRing->pBuffer + WrOff, pBuffer, NumBytesToWrite);
   1c48a:	ea4f 08c8 	mov.w	r8, r8, lsl #3
  NumBytesWritten = 0u;
   1c48e:	465e      	mov	r6, fp
    RdOff = pRing->RdOff;                         // May be changed by host (debug probe) in the meantime
   1c490:	6aab      	ldr	r3, [r5, #40]	; 0x28
    if (RdOff > WrOff) {
   1c492:	42a3      	cmp	r3, r4
      NumBytesToWrite = RdOff - WrOff - 1u;
   1c494:	f103 32ff 	add.w	r2, r3, #4294967295	; 0xffffffff
    if (RdOff > WrOff) {
   1c498:	d922      	bls.n	1c4e0 <SEGGER_RTT_WriteString+0x140>
   1c49a:	6a29      	ldr	r1, [r5, #32]
      NumBytesToWrite = RdOff - WrOff - 1u;
   1c49c:	1b12      	subs	r2, r2, r4
    NumBytesToWrite = MIN(NumBytesToWrite, (pRing->SizeOfBuffer - WrOff));      // Number of bytes that can be written until buffer wrap-around
   1c49e:	454a      	cmp	r2, r9
    SEGGER_RTT_MEMCPY(pRing->pBuffer + WrOff, pBuffer, NumBytesToWrite);
   1c4a0:	eb07 0308 	add.w	r3, r7, r8
    NumBytesToWrite = MIN(NumBytesToWrite, (pRing->SizeOfBuffer - WrOff));      // Number of bytes that can be written until buffer wrap-around
   1c4a4:	eba1 0b04 	sub.w	fp, r1, r4
   1c4a8:	bf28      	it	cs
   1c4aa:	464a      	movcs	r2, r9
    NumBytesToWrite = MIN(NumBytesToWrite, NumBytes);
   1c4ac:	4593      	cmp	fp, r2
    SEGGER_RTT_MEMCPY(pRing->pBuffer + WrOff, pBuffer, NumBytesToWrite);
   1c4ae:	6858      	ldr	r0, [r3, #4]
    NumBytesToWrite = MIN(NumBytesToWrite, NumBytes);
   1c4b0:	bf28      	it	cs
   1c4b2:	4693      	movcs	fp, r2
    SEGGER_RTT_MEMCPY(pRing->pBuffer + WrOff, pBuffer, NumBytesToWrite);
   1c4b4:	4420      	add	r0, r4
   1c4b6:	4651      	mov	r1, sl
   1c4b8:	465a      	mov	r2, fp
   1c4ba:	f000 fa29 	bl	1c910 <memcpy>
    if (WrOff == pRing->SizeOfBuffer) {
   1c4be:	6a2b      	ldr	r3, [r5, #32]
    WrOff           += NumBytesToWrite;
   1c4c0:	445c      	add	r4, fp
    if (WrOff == pRing->SizeOfBuffer) {
   1c4c2:	429c      	cmp	r4, r3
    NumBytesWritten += NumBytesToWrite;
   1c4c4:	445e      	add	r6, fp
    NumBytes        -= NumBytesToWrite;
   1c4c6:	eba9 090b 	sub.w	r9, r9, fp
    pBuffer         += NumBytesToWrite;
   1c4ca:	44da      	add	sl, fp
    if (WrOff == pRing->SizeOfBuffer) {
   1c4cc:	d00d      	beq.n	1c4ea <SEGGER_RTT_WriteString+0x14a>
    pRing->WrOff = WrOff;
   1c4ce:	626c      	str	r4, [r5, #36]	; 0x24
  } while (NumBytes);
   1c4d0:	f1b9 0f00 	cmp.w	r9, #0
   1c4d4:	d086      	beq.n	1c3e4 <SEGGER_RTT_WriteString+0x44>
    RdOff = pRing->RdOff;                         // May be changed by host (debug probe) in the meantime
   1c4d6:	6aab      	ldr	r3, [r5, #40]	; 0x28
    if (RdOff > WrOff) {
   1c4d8:	42a3      	cmp	r3, r4
      NumBytesToWrite = RdOff - WrOff - 1u;
   1c4da:	f103 32ff 	add.w	r2, r3, #4294967295	; 0xffffffff
    if (RdOff > WrOff) {
   1c4de:	d8dc      	bhi.n	1c49a <SEGGER_RTT_WriteString+0xfa>
      NumBytesToWrite = pRing->SizeOfBuffer - (WrOff - RdOff + 1u);
   1c4e0:	6a29      	ldr	r1, [r5, #32]
   1c4e2:	185a      	adds	r2, r3, r1
   1c4e4:	3a01      	subs	r2, #1
   1c4e6:	1b12      	subs	r2, r2, r4
   1c4e8:	e7d9      	b.n	1c49e <SEGGER_RTT_WriteString+0xfe>
    pRing->WrOff = WrOff;
   1c4ea:	2400      	movs	r4, #0
   1c4ec:	626c      	str	r4, [r5, #36]	; 0x24
  } while (NumBytes);
   1c4ee:	f1b9 0f00 	cmp.w	r9, #0
   1c4f2:	d1cd      	bne.n	1c490 <SEGGER_RTT_WriteString+0xf0>
   1c4f4:	e776      	b.n	1c3e4 <SEGGER_RTT_WriteString+0x44>
  RdOff = pRing->RdOff;
   1c4f6:	6aae      	ldr	r6, [r5, #40]	; 0x28
  WrOff = pRing->WrOff;
   1c4f8:	f8d5 b024 	ldr.w	fp, [r5, #36]	; 0x24
  if (RdOff <= WrOff) {
   1c4fc:	455e      	cmp	r6, fp
   1c4fe:	d91d      	bls.n	1c53c <SEGGER_RTT_WriteString+0x19c>
    r = RdOff - WrOff - 1u;
   1c500:	3e01      	subs	r6, #1
   1c502:	eba6 060b 	sub.w	r6, r6, fp
    Status = Avail < NumBytes ? Avail : NumBytes;
   1c506:	6a2d      	ldr	r5, [r5, #32]
   1c508:	454e      	cmp	r6, r9
   1c50a:	bf28      	it	cs
   1c50c:	464e      	movcs	r6, r9
  Rem = pRing->SizeOfBuffer - WrOff;
   1c50e:	eba5 020b 	sub.w	r2, r5, fp
  if (Rem > NumBytes) {
   1c512:	4296      	cmp	r6, r2
   1c514:	d21e      	bcs.n	1c554 <SEGGER_RTT_WriteString+0x1b4>
    SEGGER_RTT_MEMCPY(pRing->pBuffer + WrOff, pData, NumBytes);
   1c516:	f108 0301 	add.w	r3, r8, #1
   1c51a:	eb03 0343 	add.w	r3, r3, r3, lsl #1
   1c51e:	eb07 03c3 	add.w	r3, r7, r3, lsl #3
    pRing->WrOff = WrOff + NumBytes;
   1c522:	44a0      	add	r8, r4
    SEGGER_RTT_MEMCPY(pRing->pBuffer + WrOff, pData, NumBytes);
   1c524:	6858      	ldr	r0, [r3, #4]
   1c526:	4632      	mov	r2, r6
   1c528:	4651      	mov	r1, sl
   1c52a:	4458      	add	r0, fp
    pRing->WrOff = WrOff + NumBytes;
   1c52c:	eb07 07c8 	add.w	r7, r7, r8, lsl #3
    SEGGER_RTT_MEMCPY(pRing->pBuffer + WrOff, pData, NumBytes);
   1c530:	f000 f9ee 	bl	1c910 <memcpy>
    pRing->WrOff = WrOff + NumBytes;
   1c534:	eb0b 0206 	add.w	r2, fp, r6
   1c538:	627a      	str	r2, [r7, #36]	; 0x24
   1c53a:	e753      	b.n	1c3e4 <SEGGER_RTT_WriteString+0x44>
    r = pRing->SizeOfBuffer - 1u - WrOff + RdOff;
   1c53c:	6a2d      	ldr	r5, [r5, #32]
   1c53e:	442e      	add	r6, r5
   1c540:	3e01      	subs	r6, #1
   1c542:	eba6 060b 	sub.w	r6, r6, fp
    Status = Avail < NumBytes ? Avail : NumBytes;
   1c546:	454e      	cmp	r6, r9
   1c548:	bf28      	it	cs
   1c54a:	464e      	movcs	r6, r9
  Rem = pRing->SizeOfBuffer - WrOff;
   1c54c:	eba5 020b 	sub.w	r2, r5, fp
  if (Rem > NumBytes) {
   1c550:	4296      	cmp	r6, r2
   1c552:	d3e0      	bcc.n	1c516 <SEGGER_RTT_WriteString+0x176>
    SEGGER_RTT_MEMCPY(pRing->pBuffer + WrOff, pData, NumBytesAtOnce);
   1c554:	f108 0901 	add.w	r9, r8, #1
   1c558:	eb09 0949 	add.w	r9, r9, r9, lsl #1
   1c55c:	eb07 09c9 	add.w	r9, r7, r9, lsl #3
   1c560:	4651      	mov	r1, sl
   1c562:	f8d9 0004 	ldr.w	r0, [r9, #4]
   1c566:	9201      	str	r2, [sp, #4]
   1c568:	4458      	add	r0, fp
   1c56a:	f000 f9d1 	bl	1c910 <memcpy>
    NumBytesAtOnce = NumBytes - Rem;
   1c56e:	1b75      	subs	r5, r6, r5
    SEGGER_RTT_MEMCPY(pRing->pBuffer, pData + Rem, NumBytesAtOnce);
   1c570:	9a01      	ldr	r2, [sp, #4]
   1c572:	f8d9 0004 	ldr.w	r0, [r9, #4]
    pRing->WrOff = NumBytesAtOnce;
   1c576:	44a0      	add	r8, r4
    NumBytesAtOnce = NumBytes - Rem;
   1c578:	445d      	add	r5, fp
    pRing->WrOff = NumBytesAtOnce;
   1c57a:	eb07 07c8 	add.w	r7, r7, r8, lsl #3
    SEGGER_RTT_MEMCPY(pRing->pBuffer, pData + Rem, NumBytesAtOnce);
   1c57e:	eb0a 0102 	add.w	r1, sl, r2
   1c582:	462a      	mov	r2, r5
   1c584:	f000 f9c4 	bl	1c910 <memcpy>
    pRing->WrOff = NumBytesAtOnce;
   1c588:	627d      	str	r5, [r7, #36]	; 0x24
   1c58a:	e72b      	b.n	1c3e4 <SEGGER_RTT_WriteString+0x44>
    SEGGER_RTT_MEMCPY(pRing->pBuffer + WrOff, pData, NumBytesAtOnce);
   1c58c:	6878      	ldr	r0, [r7, #4]
   1c58e:	4458      	add	r0, fp
    NumBytesAtOnce = NumBytes - Rem;
   1c590:	ebab 0b05 	sub.w	fp, fp, r5
    SEGGER_RTT_MEMCPY(pRing->pBuffer + WrOff, pData, NumBytesAtOnce);
   1c594:	4632      	mov	r2, r6
   1c596:	4651      	mov	r1, sl
    NumBytesAtOnce = NumBytes - Rem;
   1c598:	eb0b 0509 	add.w	r5, fp, r9
    SEGGER_RTT_MEMCPY(pRing->pBuffer + WrOff, pData, NumBytesAtOnce);
   1c59c:	f000 f9b8 	bl	1c910 <memcpy>
    SEGGER_RTT_MEMCPY(pRing->pBuffer, pData + Rem, NumBytesAtOnce);
   1c5a0:	eb0a 0106 	add.w	r1, sl, r6
   1c5a4:	6878      	ldr	r0, [r7, #4]
   1c5a6:	462a      	mov	r2, r5
   1c5a8:	f000 f9b2 	bl	1c910 <memcpy>
    pRing->WrOff = NumBytesAtOnce;
   1c5ac:	464e      	mov	r6, r9
   1c5ae:	6265      	str	r5, [r4, #36]	; 0x24
   1c5b0:	e718      	b.n	1c3e4 <SEGGER_RTT_WriteString+0x44>
   1c5b2:	bf00      	nop
   1c5b4:	20001d04 	.word	0x20001d04
   1c5b8:	20001ae8 	.word	0x20001ae8
   1c5bc:	0001ef58 	.word	0x0001ef58
   1c5c0:	20001ad8 	.word	0x20001ad8
   1c5c4:	0001ef64 	.word	0x0001ef64
   1c5c8:	0001ef68 	.word	0x0001ef68

0001c5cc <ble_srv_is_notification_enabled>:
 *
 * @return      Decoded value.
 */
static __INLINE uint16_t uint16_decode(const uint8_t * p_encoded_data)
{
        return ( (((uint16_t)((uint8_t *)p_encoded_data)[0])) |
   1c5cc:	7800      	ldrb	r0, [r0, #0]

bool ble_srv_is_notification_enabled(uint8_t const * p_encoded_data)
{
    uint16_t cccd_value = uint16_decode(p_encoded_data);
    return ((cccd_value & BLE_GATT_HVX_NOTIFICATION) != 0);
}
   1c5ce:	f000 0001 	and.w	r0, r0, #1
   1c5d2:	4770      	bx	lr

0001c5d4 <sd_softdevice_enable>:
 * @retval ::NRF_ERROR_INVALID_STATE SoftDevice is already enabled, and the clock source and fault handler cannot be updated.
 * @retval ::NRF_ERROR_SDM_INCORRECT_INTERRUPT_CONFIGURATION SoftDevice interrupt is already enabled, or an enabled interrupt has an illegal priority level.
 * @retval ::NRF_ERROR_SDM_LFCLK_SOURCE_UNKNOWN Unknown low frequency clock source selected.
 * @retval ::NRF_ERROR_INVALID_PARAM Invalid clock source configuration supplied in p_clock_lf_cfg.
 */
SVCALL(SD_SOFTDEVICE_ENABLE, uint32_t, sd_softdevice_enable(nrf_clock_lf_cfg_t const * p_clock_lf_cfg, nrf_fault_handler_t fault_handler));
   1c5d4:	df10      	svc	16
   1c5d6:	4770      	bx	lr

0001c5d8 <nrf_sdh_enable_request>:
#endif
}


ret_code_t nrf_sdh_enable_request(void)
{
   1c5d8:	b570      	push	{r4, r5, r6, lr}
    ret_code_t ret_code;

    if (m_nrf_sdh_enabled)
   1c5da:	4d3c      	ldr	r5, [pc, #240]	; (1c6cc <nrf_sdh_enable_request+0xf4>)
   1c5dc:	782b      	ldrb	r3, [r5, #0]
{
   1c5de:	b084      	sub	sp, #16
    if (m_nrf_sdh_enabled)
   1c5e0:	2b00      	cmp	r3, #0
   1c5e2:	d166      	bne.n	1c6b2 <nrf_sdh_enable_request+0xda>
    {
        return NRF_ERROR_INVALID_STATE;
    }

    m_nrf_sdh_continue = true;
   1c5e4:	4e3a      	ldr	r6, [pc, #232]	; (1c6d0 <nrf_sdh_enable_request+0xf8>)
    for (nrf_section_iter_init(&iter, &sdh_req_observers);
   1c5e6:	493b      	ldr	r1, [pc, #236]	; (1c6d4 <nrf_sdh_enable_request+0xfc>)
    m_nrf_sdh_continue = true;
   1c5e8:	2301      	movs	r3, #1
    for (nrf_section_iter_init(&iter, &sdh_req_observers);
   1c5ea:	a802      	add	r0, sp, #8
    m_nrf_sdh_continue = true;
   1c5ec:	7033      	strb	r3, [r6, #0]
    for (nrf_section_iter_init(&iter, &sdh_req_observers);
   1c5ee:	f7fd fb45 	bl	19c7c <nrf_section_iter_init>
         nrf_section_iter_get(&iter) != NULL;
   1c5f2:	9b03      	ldr	r3, [sp, #12]
    for (nrf_section_iter_init(&iter, &sdh_req_observers);
   1c5f4:	b923      	cbnz	r3, 1c600 <nrf_sdh_enable_request+0x28>
   1c5f6:	e00e      	b.n	1c616 <nrf_sdh_enable_request+0x3e>
         nrf_section_iter_next(&iter))
   1c5f8:	f7fd fb4a 	bl	19c90 <nrf_section_iter_next>
         nrf_section_iter_get(&iter) != NULL;
   1c5fc:	9b03      	ldr	r3, [sp, #12]
    for (nrf_section_iter_init(&iter, &sdh_req_observers);
   1c5fe:	b153      	cbz	r3, 1c616 <nrf_sdh_enable_request+0x3e>
        if (handler(req, p_observer->p_context))
   1c600:	e9d3 2100 	ldrd	r2, r1, [r3]
   1c604:	2000      	movs	r0, #0
   1c606:	4790      	blx	r2
   1c608:	4604      	mov	r4, r0
         nrf_section_iter_next(&iter))
   1c60a:	a802      	add	r0, sp, #8
        if (handler(req, p_observer->p_context))
   1c60c:	2c00      	cmp	r4, #0
   1c60e:	d1f3      	bne.n	1c5f8 <nrf_sdh_enable_request+0x20>

    // Notify observers about a finished SoftDevice enable process.
    sdh_state_observer_notify(NRF_SDH_EVT_STATE_ENABLED);

    return NRF_SUCCESS;
}
   1c610:	4620      	mov	r0, r4
   1c612:	b004      	add	sp, #16
   1c614:	bd70      	pop	{r4, r5, r6, pc}
    for (nrf_section_iter_init(&iter, &sdh_state_observers);
   1c616:	4930      	ldr	r1, [pc, #192]	; (1c6d8 <nrf_sdh_enable_request+0x100>)
   1c618:	a802      	add	r0, sp, #8
   1c61a:	f7fd fb2f 	bl	19c7c <nrf_section_iter_init>
         nrf_section_iter_get(&iter) != NULL;
   1c61e:	9b03      	ldr	r3, [sp, #12]
    for (nrf_section_iter_init(&iter, &sdh_state_observers);
   1c620:	b14b      	cbz	r3, 1c636 <nrf_sdh_enable_request+0x5e>
        handler(evt, p_observer->p_context);
   1c622:	e9d3 2100 	ldrd	r2, r1, [r3]
   1c626:	2000      	movs	r0, #0
   1c628:	4790      	blx	r2
         nrf_section_iter_next(&iter))
   1c62a:	a802      	add	r0, sp, #8
   1c62c:	f7fd fb30 	bl	19c90 <nrf_section_iter_next>
         nrf_section_iter_get(&iter) != NULL;
   1c630:	9b03      	ldr	r3, [sp, #12]
    for (nrf_section_iter_init(&iter, &sdh_state_observers);
   1c632:	2b00      	cmp	r3, #0
   1c634:	d1f5      	bne.n	1c622 <nrf_sdh_enable_request+0x4a>
    nrf_clock_lf_cfg_t const clock_lf_cfg =
   1c636:	4a29      	ldr	r2, [pc, #164]	; (1c6dc <nrf_sdh_enable_request+0x104>)
    CRITICAL_REGION_ENTER();
   1c638:	2300      	movs	r3, #0
    nrf_clock_lf_cfg_t const clock_lf_cfg =
   1c63a:	6812      	ldr	r2, [r2, #0]
    CRITICAL_REGION_ENTER();
   1c63c:	f88d 3008 	strb.w	r3, [sp, #8]
   1c640:	a802      	add	r0, sp, #8
    nrf_clock_lf_cfg_t const clock_lf_cfg =
   1c642:	9201      	str	r2, [sp, #4]
    CRITICAL_REGION_ENTER();
   1c644:	f7fd f8de 	bl	19804 <app_util_critical_region_enter>
    ret_code = sd_softdevice_enable(&clock_lf_cfg, app_error_fault_handler);
   1c648:	4925      	ldr	r1, [pc, #148]	; (1c6e0 <nrf_sdh_enable_request+0x108>)
   1c64a:	a801      	add	r0, sp, #4
   1c64c:	f7ff ffc2 	bl	1c5d4 <sd_softdevice_enable>
    m_nrf_sdh_enabled = (ret_code == NRF_SUCCESS);
   1c650:	fab0 f380 	clz	r3, r0
   1c654:	4604      	mov	r4, r0
   1c656:	095b      	lsrs	r3, r3, #5
    CRITICAL_REGION_EXIT();
   1c658:	f89d 0008 	ldrb.w	r0, [sp, #8]
    m_nrf_sdh_enabled = (ret_code == NRF_SUCCESS);
   1c65c:	702b      	strb	r3, [r5, #0]
    CRITICAL_REGION_EXIT();
   1c65e:	f7fd f8f7 	bl	19850 <app_util_critical_region_exit>
    if (ret_code != NRF_SUCCESS)
   1c662:	2c00      	cmp	r4, #0
   1c664:	d1d4      	bne.n	1c610 <nrf_sdh_enable_request+0x38>
    m_nrf_sdh_suspended = false;
   1c666:	4b1f      	ldr	r3, [pc, #124]	; (1c6e4 <nrf_sdh_enable_request+0x10c>)
    return(((uint32_t)NVIC->IP[((uint32_t)(int32_t)IRQn)]               >> (8U - __NVIC_PRIO_BITS)));
   1c668:	491f      	ldr	r1, [pc, #124]	; (1c6e8 <nrf_sdh_enable_request+0x110>)
   1c66a:	701c      	strb	r4, [r3, #0]
    m_nrf_sdh_continue  = false;
   1c66c:	7034      	strb	r4, [r6, #0]
   1c66e:	f891 2316 	ldrb.w	r2, [r1, #790]	; 0x316
   || (((1 << priority) & __NRF_NVIC_APP_IRQ_PRIOS) == 0)
   1c672:	23ec      	movs	r3, #236	; 0xec
   1c674:	0952      	lsrs	r2, r2, #5
   1c676:	4113      	asrs	r3, r2
   1c678:	07db      	lsls	r3, r3, #31
   1c67a:	d51e      	bpl.n	1c6ba <nrf_sdh_enable_request+0xe2>
  if (nrf_nvic_state.__cr_flag)
   1c67c:	4b1b      	ldr	r3, [pc, #108]	; (1c6ec <nrf_sdh_enable_request+0x114>)
   1c67e:	689a      	ldr	r2, [r3, #8]
   1c680:	b302      	cbz	r2, 1c6c4 <nrf_sdh_enable_request+0xec>
    nrf_nvic_state.__irq_masks[(uint32_t)((int32_t)IRQn) >> 5] |= (uint32_t)(1 << ((uint32_t)((int32_t)IRQn) & (uint32_t)0x1F));
   1c682:	681a      	ldr	r2, [r3, #0]
   1c684:	f442 0280 	orr.w	r2, r2, #4194304	; 0x400000
   1c688:	601a      	str	r2, [r3, #0]
    for (nrf_section_iter_init(&iter, &sdh_state_observers);
   1c68a:	4913      	ldr	r1, [pc, #76]	; (1c6d8 <nrf_sdh_enable_request+0x100>)
   1c68c:	a802      	add	r0, sp, #8
   1c68e:	f7fd faf5 	bl	19c7c <nrf_section_iter_init>
         nrf_section_iter_get(&iter) != NULL;
   1c692:	9b03      	ldr	r3, [sp, #12]
    for (nrf_section_iter_init(&iter, &sdh_state_observers);
   1c694:	2b00      	cmp	r3, #0
   1c696:	d0bb      	beq.n	1c610 <nrf_sdh_enable_request+0x38>
        handler(evt, p_observer->p_context);
   1c698:	e9d3 2100 	ldrd	r2, r1, [r3]
   1c69c:	2001      	movs	r0, #1
   1c69e:	4790      	blx	r2
         nrf_section_iter_next(&iter))
   1c6a0:	a802      	add	r0, sp, #8
   1c6a2:	f7fd faf5 	bl	19c90 <nrf_section_iter_next>
         nrf_section_iter_get(&iter) != NULL;
   1c6a6:	9b03      	ldr	r3, [sp, #12]
    for (nrf_section_iter_init(&iter, &sdh_state_observers);
   1c6a8:	2b00      	cmp	r3, #0
   1c6aa:	d1f5      	bne.n	1c698 <nrf_sdh_enable_request+0xc0>
}
   1c6ac:	4620      	mov	r0, r4
   1c6ae:	b004      	add	sp, #16
   1c6b0:	bd70      	pop	{r4, r5, r6, pc}
        return NRF_ERROR_INVALID_STATE;
   1c6b2:	2408      	movs	r4, #8
}
   1c6b4:	4620      	mov	r0, r4
   1c6b6:	b004      	add	sp, #16
   1c6b8:	bd70      	pop	{r4, r5, r6, pc}
    APP_ERROR_CHECK(ret_code);
   1c6ba:	f242 0002 	movw	r0, #8194	; 0x2002
   1c6be:	f7fc fe31 	bl	19324 <app_error_handler_bare>
   1c6c2:	e7e2      	b.n	1c68a <nrf_sdh_enable_request+0xb2>
  NVIC->ISER[(((uint32_t)(int32_t)IRQn) >> 5UL)] = (uint32_t)(1UL << (((uint32_t)(int32_t)IRQn) & 0x1FUL));
   1c6c4:	f44f 0380 	mov.w	r3, #4194304	; 0x400000
   1c6c8:	600b      	str	r3, [r1, #0]
   1c6ca:	e7de      	b.n	1c68a <nrf_sdh_enable_request+0xb2>
   1c6cc:	20001ce9 	.word	0x20001ce9
   1c6d0:	20001ce8 	.word	0x20001ce8
   1c6d4:	0001ef74 	.word	0x0001ef74
   1c6d8:	0001ef8c 	.word	0x0001ef8c
   1c6dc:	0001ef70 	.word	0x0001ef70
   1c6e0:	00019345 	.word	0x00019345
   1c6e4:	20001cea 	.word	0x20001cea
   1c6e8:	e000e100 	.word	0xe000e100
   1c6ec:	20001cf8 	.word	0x20001cf8

0001c6f0 <nrf_sdh_is_enabled>:
}


bool nrf_sdh_is_enabled(void)
{
    return m_nrf_sdh_enabled;
   1c6f0:	4b01      	ldr	r3, [pc, #4]	; (1c6f8 <nrf_sdh_is_enabled+0x8>)
}
   1c6f2:	7818      	ldrb	r0, [r3, #0]
   1c6f4:	4770      	bx	lr
   1c6f6:	bf00      	nop
   1c6f8:	20001ce9 	.word	0x20001ce9

0001c6fc <SWI2_IRQHandler>:


#if (NRF_SDH_DISPATCH_MODEL == NRF_SDH_DISPATCH_MODEL_INTERRUPT)

void SD_EVT_IRQHandler(void)
{
   1c6fc:	b500      	push	{lr}
   1c6fe:	b083      	sub	sp, #12
    for (nrf_section_iter_init(&iter, &sdh_stack_observers);
   1c700:	4908      	ldr	r1, [pc, #32]	; (1c724 <SWI2_IRQHandler+0x28>)
   1c702:	4668      	mov	r0, sp
   1c704:	f7fd faba 	bl	19c7c <nrf_section_iter_init>
         nrf_section_iter_get(&iter) != NULL;
   1c708:	9b01      	ldr	r3, [sp, #4]
    for (nrf_section_iter_init(&iter, &sdh_stack_observers);
   1c70a:	b143      	cbz	r3, 1c71e <SWI2_IRQHandler+0x22>
        handler(p_observer->p_context);
   1c70c:	e9d3 2000 	ldrd	r2, r0, [r3]
   1c710:	4790      	blx	r2
         nrf_section_iter_next(&iter))
   1c712:	4668      	mov	r0, sp
   1c714:	f7fd fabc 	bl	19c90 <nrf_section_iter_next>
         nrf_section_iter_get(&iter) != NULL;
   1c718:	9b01      	ldr	r3, [sp, #4]
    for (nrf_section_iter_init(&iter, &sdh_stack_observers);
   1c71a:	2b00      	cmp	r3, #0
   1c71c:	d1f6      	bne.n	1c70c <SWI2_IRQHandler+0x10>
    nrf_sdh_evts_poll();
}
   1c71e:	b003      	add	sp, #12
   1c720:	f85d fb04 	ldr.w	pc, [sp], #4
   1c724:	0001ef80 	.word	0x0001ef80

0001c728 <sd_ble_enable>:
 *                                      and set the start address of the application RAM region accordingly.
 *                                    - Dynamic part of the SoftDevice RAM region is larger then 64 kB which
 *                                      is currently not supported.
 * @retval ::NRF_ERROR_RESOURCES      The total number of L2CAP Channels configured using @ref sd_ble_cfg_set is too large.
 */
SVCALL(SD_BLE_ENABLE, uint32_t, sd_ble_enable(uint32_t * p_app_ram_base));
   1c728:	df60      	svc	96	; 0x60
   1c72a:	4770      	bx	lr

0001c72c <sd_ble_cfg_set>:
 * @retval ::NRF_ERROR_INVALID_ADDR   Invalid or not sufficiently aligned pointer supplied.
 * @retval ::NRF_ERROR_INVALID_PARAM  Invalid cfg_id supplied.
 * @retval ::NRF_ERROR_NO_MEM         The amount of memory assigned to the SoftDevice by app_ram_base is not
 *                                    large enough to fit this configuration's memory requirement.
 */
SVCALL(SD_BLE_CFG_SET, uint32_t, sd_ble_cfg_set(uint32_t cfg_id, ble_cfg_t const * p_cfg, uint32_t app_ram_base));
   1c72c:	df69      	svc	105	; 0x69
   1c72e:	4770      	bx	lr

0001c730 <sd_ble_evt_get>:
 * @retval ::NRF_SUCCESS Event pulled and stored into the supplied buffer.
 * @retval ::NRF_ERROR_INVALID_ADDR Invalid or not sufficiently aligned pointer supplied.
 * @retval ::NRF_ERROR_NOT_FOUND No events ready to be pulled.
 * @retval ::NRF_ERROR_DATA_SIZE Event ready but could not fit into the supplied buffer.
 */
SVCALL(SD_BLE_EVT_GET, uint32_t, sd_ble_evt_get(uint8_t *p_dest, uint16_t *p_len));
   1c730:	df61      	svc	97	; 0x61
   1c732:	4770      	bx	lr

0001c734 <nrf_sdh_ble_evts_poll>:
{
    UNUSED_VARIABLE(p_context);

    ret_code_t ret_code;

    if (!m_stack_is_enabled)
   1c734:	4b14      	ldr	r3, [pc, #80]	; (1c788 <nrf_sdh_ble_evts_poll+0x54>)
   1c736:	781b      	ldrb	r3, [r3, #0]
   1c738:	b32b      	cbz	r3, 1c786 <nrf_sdh_ble_evts_poll+0x52>
{
   1c73a:	b530      	push	{r4, r5, lr}

        NRF_LOG_DEBUG("BLE event: 0x%x.", p_ble_evt->header.evt_id);

        // Forward the event to BLE observers.
        nrf_section_iter_t  iter;
        for (nrf_section_iter_init(&iter, &sdh_ble_observers);
   1c73c:	4d13      	ldr	r5, [pc, #76]	; (1c78c <nrf_sdh_ble_evts_poll+0x58>)
{
   1c73e:	b091      	sub	sp, #68	; 0x44
        uint16_t    evt_len = (uint16_t)sizeof(evt_buffer);
   1c740:	2434      	movs	r4, #52	; 0x34
        ret_code = sd_ble_evt_get(evt_buffer, &evt_len);
   1c742:	f10d 0102 	add.w	r1, sp, #2
   1c746:	a803      	add	r0, sp, #12
        uint16_t    evt_len = (uint16_t)sizeof(evt_buffer);
   1c748:	f8ad 4002 	strh.w	r4, [sp, #2]
        ret_code = sd_ble_evt_get(evt_buffer, &evt_len);
   1c74c:	f7ff fff0 	bl	1c730 <sd_ble_evt_get>
        if (ret_code != NRF_SUCCESS)
   1c750:	b988      	cbnz	r0, 1c776 <nrf_sdh_ble_evts_poll+0x42>
        for (nrf_section_iter_init(&iter, &sdh_ble_observers);
   1c752:	4629      	mov	r1, r5
   1c754:	a801      	add	r0, sp, #4
   1c756:	f7fd fa91 	bl	19c7c <nrf_section_iter_init>
             nrf_section_iter_get(&iter) != NULL;
   1c75a:	9b02      	ldr	r3, [sp, #8]
        for (nrf_section_iter_init(&iter, &sdh_ble_observers);
   1c75c:	2b00      	cmp	r3, #0
   1c75e:	d0f0      	beq.n	1c742 <nrf_sdh_ble_evts_poll+0xe>
            nrf_sdh_ble_evt_handler_t    handler;

            p_observer = (nrf_sdh_ble_evt_observer_t *)nrf_section_iter_get(&iter);
            handler    = p_observer->handler;

            handler(p_ble_evt, p_observer->p_context);
   1c760:	e9d3 2100 	ldrd	r2, r1, [r3]
   1c764:	a803      	add	r0, sp, #12
   1c766:	4790      	blx	r2
             nrf_section_iter_next(&iter))
   1c768:	a801      	add	r0, sp, #4
   1c76a:	f7fd fa91 	bl	19c90 <nrf_section_iter_next>
             nrf_section_iter_get(&iter) != NULL;
   1c76e:	9b02      	ldr	r3, [sp, #8]
        for (nrf_section_iter_init(&iter, &sdh_ble_observers);
   1c770:	2b00      	cmp	r3, #0
   1c772:	d1f5      	bne.n	1c760 <nrf_sdh_ble_evts_poll+0x2c>
   1c774:	e7e5      	b.n	1c742 <nrf_sdh_ble_evts_poll+0xe>
        }
    }

    if (ret_code != NRF_ERROR_NOT_FOUND)
   1c776:	2805      	cmp	r0, #5
   1c778:	d101      	bne.n	1c77e <nrf_sdh_ble_evts_poll+0x4a>
    {
        APP_ERROR_HANDLER(ret_code);
    }
}
   1c77a:	b011      	add	sp, #68	; 0x44
   1c77c:	bd30      	pop	{r4, r5, pc}
        APP_ERROR_HANDLER(ret_code);
   1c77e:	f7fc fdd1 	bl	19324 <app_error_handler_bare>
}
   1c782:	b011      	add	sp, #68	; 0x44
   1c784:	bd30      	pop	{r4, r5, pc}
   1c786:	4770      	bx	lr
   1c788:	20001ceb 	.word	0x20001ceb
   1c78c:	0001ef98 	.word	0x0001ef98

0001c790 <nrf_sdh_ble_default_cfg_set>:
    if (p_app_ram_start == NULL)
   1c790:	2900      	cmp	r1, #0
   1c792:	d04f      	beq.n	1c834 <nrf_sdh_ble_default_cfg_set+0xa4>
{
   1c794:	b570      	push	{r4, r5, r6, lr}
    *p_app_ram_start = APP_RAM_START;
   1c796:	4b28      	ldr	r3, [pc, #160]	; (1c838 <nrf_sdh_ble_default_cfg_set+0xa8>)
   1c798:	600b      	str	r3, [r1, #0]
{
   1c79a:	b084      	sub	sp, #16
   1c79c:	460c      	mov	r4, r1
   1c79e:	4605      	mov	r5, r0
    memset(&ble_cfg, 0, sizeof(ble_cfg));
   1c7a0:	220c      	movs	r2, #12
   1c7a2:	a801      	add	r0, sp, #4
   1c7a4:	2100      	movs	r1, #0
   1c7a6:	f000 f8c1 	bl	1c92c <memset>
    ble_cfg.conn_cfg.params.gap_conn_cfg.conn_count   = NRF_SDH_BLE_TOTAL_LINK_COUNT;
   1c7aa:	2601      	movs	r6, #1
    ble_cfg.conn_cfg.params.gap_conn_cfg.event_length = NRF_SDH_BLE_GAP_EVENT_LENGTH;
   1c7ac:	2306      	movs	r3, #6
    ret_code = sd_ble_cfg_set(BLE_CONN_CFG_GAP, &ble_cfg, *p_ram_start);
   1c7ae:	6822      	ldr	r2, [r4, #0]
    ble_cfg.conn_cfg.params.gap_conn_cfg.event_length = NRF_SDH_BLE_GAP_EVENT_LENGTH;
   1c7b0:	f8ad 3008 	strh.w	r3, [sp, #8]
    ret_code = sd_ble_cfg_set(BLE_CONN_CFG_GAP, &ble_cfg, *p_ram_start);
   1c7b4:	a901      	add	r1, sp, #4
   1c7b6:	2020      	movs	r0, #32
    ble_cfg.conn_cfg.conn_cfg_tag                     = conn_cfg_tag;
   1c7b8:	f88d 5004 	strb.w	r5, [sp, #4]
    ble_cfg.conn_cfg.params.gap_conn_cfg.conn_count   = NRF_SDH_BLE_TOTAL_LINK_COUNT;
   1c7bc:	f88d 6006 	strb.w	r6, [sp, #6]
    ret_code = sd_ble_cfg_set(BLE_CONN_CFG_GAP, &ble_cfg, *p_ram_start);
   1c7c0:	f7ff ffb4 	bl	1c72c <sd_ble_cfg_set>
    memset(&ble_cfg, 0, sizeof(ble_cfg));
   1c7c4:	a801      	add	r0, sp, #4
   1c7c6:	220c      	movs	r2, #12
   1c7c8:	2100      	movs	r1, #0
   1c7ca:	f000 f8af 	bl	1c92c <memset>
    ret_code = sd_ble_cfg_set(BLE_GAP_CFG_ROLE_COUNT, &ble_cfg, *p_ram_start);
   1c7ce:	6822      	ldr	r2, [r4, #0]
    ble_cfg.gap_cfg.role_count_cfg.periph_role_count  = NRF_SDH_BLE_PERIPHERAL_LINK_COUNT;
   1c7d0:	f88d 6005 	strb.w	r6, [sp, #5]
    ret_code = sd_ble_cfg_set(BLE_GAP_CFG_ROLE_COUNT, &ble_cfg, *p_ram_start);
   1c7d4:	a901      	add	r1, sp, #4
   1c7d6:	2040      	movs	r0, #64	; 0x40
   1c7d8:	f7ff ffa8 	bl	1c72c <sd_ble_cfg_set>
    memset(&ble_cfg, 0, sizeof(ble_cfg));
   1c7dc:	a801      	add	r0, sp, #4
   1c7de:	220c      	movs	r2, #12
   1c7e0:	2100      	movs	r1, #0
   1c7e2:	f000 f8a3 	bl	1c92c <memset>
    ble_cfg.common_cfg.vs_uuid_cfg.vs_uuid_count = NRF_SDH_BLE_VS_UUID_COUNT;
   1c7e6:	2500      	movs	r5, #0
    ret_code = sd_ble_cfg_set(BLE_COMMON_CFG_VS_UUID, &ble_cfg, *p_ram_start);
   1c7e8:	6822      	ldr	r2, [r4, #0]
    ble_cfg.common_cfg.vs_uuid_cfg.vs_uuid_count = NRF_SDH_BLE_VS_UUID_COUNT;
   1c7ea:	f88d 5004 	strb.w	r5, [sp, #4]
    ret_code = sd_ble_cfg_set(BLE_COMMON_CFG_VS_UUID, &ble_cfg, *p_ram_start);
   1c7ee:	a901      	add	r1, sp, #4
   1c7f0:	4630      	mov	r0, r6
   1c7f2:	f7ff ff9b 	bl	1c72c <sd_ble_cfg_set>
    memset(&ble_cfg, 0x00, sizeof(ble_cfg));
   1c7f6:	4629      	mov	r1, r5
   1c7f8:	a801      	add	r0, sp, #4
   1c7fa:	220c      	movs	r2, #12
   1c7fc:	f000 f896 	bl	1c92c <memset>
    ble_cfg.gatts_cfg.attr_tab_size.attr_tab_size = NRF_SDH_BLE_GATTS_ATTR_TAB_SIZE;
   1c800:	23f8      	movs	r3, #248	; 0xf8
    ret_code = sd_ble_cfg_set(BLE_GATTS_CFG_ATTR_TAB_SIZE, &ble_cfg, *p_ram_start);
   1c802:	6822      	ldr	r2, [r4, #0]
    ble_cfg.gatts_cfg.attr_tab_size.attr_tab_size = NRF_SDH_BLE_GATTS_ATTR_TAB_SIZE;
   1c804:	9301      	str	r3, [sp, #4]
    ret_code = sd_ble_cfg_set(BLE_GATTS_CFG_ATTR_TAB_SIZE, &ble_cfg, *p_ram_start);
   1c806:	a901      	add	r1, sp, #4
   1c808:	20a1      	movs	r0, #161	; 0xa1
   1c80a:	f7ff ff8f 	bl	1c72c <sd_ble_cfg_set>
    memset(&ble_cfg, 0x00, sizeof(ble_cfg));
   1c80e:	4629      	mov	r1, r5
   1c810:	a801      	add	r0, sp, #4
   1c812:	220c      	movs	r2, #12
   1c814:	f000 f88a 	bl	1c92c <memset>
    ble_cfg.gatts_cfg.service_changed.service_changed = NRF_SDH_BLE_SERVICE_CHANGED;
   1c818:	f89d 3004 	ldrb.w	r3, [sp, #4]
    ret_code = sd_ble_cfg_set(BLE_GATTS_CFG_SERVICE_CHANGED, &ble_cfg, *p_ram_start);
   1c81c:	6822      	ldr	r2, [r4, #0]
    ble_cfg.gatts_cfg.service_changed.service_changed = NRF_SDH_BLE_SERVICE_CHANGED;
   1c81e:	f365 0300 	bfi	r3, r5, #0, #1
    ret_code = sd_ble_cfg_set(BLE_GATTS_CFG_SERVICE_CHANGED, &ble_cfg, *p_ram_start);
   1c822:	a901      	add	r1, sp, #4
   1c824:	20a0      	movs	r0, #160	; 0xa0
    ble_cfg.gatts_cfg.service_changed.service_changed = NRF_SDH_BLE_SERVICE_CHANGED;
   1c826:	f88d 3004 	strb.w	r3, [sp, #4]
    ret_code = sd_ble_cfg_set(BLE_GATTS_CFG_SERVICE_CHANGED, &ble_cfg, *p_ram_start);
   1c82a:	f7ff ff7f 	bl	1c72c <sd_ble_cfg_set>
    return NRF_SUCCESS;
   1c82e:	4628      	mov	r0, r5
}
   1c830:	b004      	add	sp, #16
   1c832:	bd70      	pop	{r4, r5, r6, pc}
        return NRF_ERROR_NULL;
   1c834:	200e      	movs	r0, #14
}
   1c836:	4770      	bx	lr
   1c838:	20001800 	.word	0x20001800

0001c83c <nrf_sdh_ble_enable>:
{
   1c83c:	b508      	push	{r3, lr}
    ret_code_t ret_code = sd_ble_enable(p_app_ram_start);
   1c83e:	f7ff ff73 	bl	1c728 <sd_ble_enable>
    if (ret_code == NRF_SUCCESS)
   1c842:	b910      	cbnz	r0, 1c84a <nrf_sdh_ble_enable+0xe>
        m_stack_is_enabled = true;
   1c844:	4b01      	ldr	r3, [pc, #4]	; (1c84c <nrf_sdh_ble_enable+0x10>)
   1c846:	2201      	movs	r2, #1
   1c848:	701a      	strb	r2, [r3, #0]
}
   1c84a:	bd08      	pop	{r3, pc}
   1c84c:	20001ceb 	.word	0x20001ceb

0001c850 <sd_evt_get>:
SVCALL(SD_EVT_GET, uint32_t, sd_evt_get(uint32_t * p_evt_id));
   1c850:	df4b      	svc	75	; 0x4b
   1c852:	4770      	bx	lr

0001c854 <nrf_sdh_soc_evts_poll>:
/**@brief   Function for polling SoC events.
 *
 * @param[in]   p_context   Context of the observer.
 */
static void nrf_sdh_soc_evts_poll(void * p_context)
{
   1c854:	b510      	push	{r4, lr}

        NRF_LOG_DEBUG("SoC event: 0x%x.", evt_id);

        // Forward the event to SoC observers.
        nrf_section_iter_t  iter;
        for (nrf_section_iter_init(&iter, &sdh_soc_observers);
   1c856:	4c11      	ldr	r4, [pc, #68]	; (1c89c <nrf_sdh_soc_evts_poll+0x48>)
{
   1c858:	b084      	sub	sp, #16
        ret_code = sd_evt_get(&evt_id);
   1c85a:	a801      	add	r0, sp, #4
   1c85c:	f7ff fff8 	bl	1c850 <sd_evt_get>
        if (ret_code != NRF_SUCCESS)
   1c860:	b9a8      	cbnz	r0, 1c88e <nrf_sdh_soc_evts_poll+0x3a>
        for (nrf_section_iter_init(&iter, &sdh_soc_observers);
   1c862:	4621      	mov	r1, r4
   1c864:	a802      	add	r0, sp, #8
   1c866:	f7fd fa09 	bl	19c7c <nrf_section_iter_init>
             nrf_section_iter_get(&iter) != NULL;
   1c86a:	9b03      	ldr	r3, [sp, #12]
        for (nrf_section_iter_init(&iter, &sdh_soc_observers);
   1c86c:	2b00      	cmp	r3, #0
   1c86e:	d0f4      	beq.n	1c85a <nrf_sdh_soc_evts_poll+0x6>
            nrf_sdh_soc_evt_handler_t    handler;

            p_observer = (nrf_sdh_soc_evt_observer_t *) nrf_section_iter_get(&iter);
            handler    = p_observer->handler;

            handler(evt_id, p_observer->p_context);
   1c870:	e9d3 2100 	ldrd	r2, r1, [r3]
   1c874:	9801      	ldr	r0, [sp, #4]
   1c876:	4790      	blx	r2
             nrf_section_iter_next(&iter))
   1c878:	a802      	add	r0, sp, #8
   1c87a:	f7fd fa09 	bl	19c90 <nrf_section_iter_next>
             nrf_section_iter_get(&iter) != NULL;
   1c87e:	9b03      	ldr	r3, [sp, #12]
        for (nrf_section_iter_init(&iter, &sdh_soc_observers);
   1c880:	2b00      	cmp	r3, #0
   1c882:	d1f5      	bne.n	1c870 <nrf_sdh_soc_evts_poll+0x1c>
        ret_code = sd_evt_get(&evt_id);
   1c884:	a801      	add	r0, sp, #4
   1c886:	f7ff ffe3 	bl	1c850 <sd_evt_get>
        if (ret_code != NRF_SUCCESS)
   1c88a:	2800      	cmp	r0, #0
   1c88c:	d0e9      	beq.n	1c862 <nrf_sdh_soc_evts_poll+0xe>
        }
    }

    if (ret_code != NRF_ERROR_NOT_FOUND)
   1c88e:	2805      	cmp	r0, #5
   1c890:	d001      	beq.n	1c896 <nrf_sdh_soc_evts_poll+0x42>
    {
        APP_ERROR_HANDLER(ret_code);
   1c892:	f7fc fd47 	bl	19324 <app_error_handler_bare>
    }
}
   1c896:	b004      	add	sp, #16
   1c898:	bd10      	pop	{r4, pc}
   1c89a:	bf00      	nop
   1c89c:	0001efa4 	.word	0x0001efa4

0001c8a0 <exit>:
   1c8a0:	b508      	push	{r3, lr}
   1c8a2:	4b07      	ldr	r3, [pc, #28]	; (1c8c0 <exit+0x20>)
   1c8a4:	4604      	mov	r4, r0
   1c8a6:	b113      	cbz	r3, 1c8ae <exit+0xe>
   1c8a8:	2100      	movs	r1, #0
   1c8aa:	f3af 8000 	nop.w
   1c8ae:	4b05      	ldr	r3, [pc, #20]	; (1c8c4 <exit+0x24>)
   1c8b0:	6818      	ldr	r0, [r3, #0]
   1c8b2:	6a83      	ldr	r3, [r0, #40]	; 0x28
   1c8b4:	b103      	cbz	r3, 1c8b8 <exit+0x18>
   1c8b6:	4798      	blx	r3
   1c8b8:	4620      	mov	r0, r4
   1c8ba:	f000 fce5 	bl	1d288 <_exit>
   1c8be:	bf00      	nop
   1c8c0:	00000000 	.word	0x00000000
   1c8c4:	0001efb0 	.word	0x0001efb0

0001c8c8 <__libc_init_array>:
   1c8c8:	b570      	push	{r4, r5, r6, lr}
   1c8ca:	4d0d      	ldr	r5, [pc, #52]	; (1c900 <__libc_init_array+0x38>)
   1c8cc:	4c0d      	ldr	r4, [pc, #52]	; (1c904 <__libc_init_array+0x3c>)
   1c8ce:	1b64      	subs	r4, r4, r5
   1c8d0:	10a4      	asrs	r4, r4, #2
   1c8d2:	2600      	movs	r6, #0
   1c8d4:	42a6      	cmp	r6, r4
   1c8d6:	d109      	bne.n	1c8ec <__libc_init_array+0x24>
   1c8d8:	4d0b      	ldr	r5, [pc, #44]	; (1c908 <__libc_init_array+0x40>)
   1c8da:	4c0c      	ldr	r4, [pc, #48]	; (1c90c <__libc_init_array+0x44>)
   1c8dc:	f002 f890 	bl	1ea00 <_init>
   1c8e0:	1b64      	subs	r4, r4, r5
   1c8e2:	10a4      	asrs	r4, r4, #2
   1c8e4:	2600      	movs	r6, #0
   1c8e6:	42a6      	cmp	r6, r4
   1c8e8:	d105      	bne.n	1c8f6 <__libc_init_array+0x2e>
   1c8ea:	bd70      	pop	{r4, r5, r6, pc}
   1c8ec:	f855 3b04 	ldr.w	r3, [r5], #4
   1c8f0:	4798      	blx	r3
   1c8f2:	3601      	adds	r6, #1
   1c8f4:	e7ee      	b.n	1c8d4 <__libc_init_array+0xc>
   1c8f6:	f855 3b04 	ldr.w	r3, [r5], #4
   1c8fa:	4798      	blx	r3
   1c8fc:	3601      	adds	r6, #1
   1c8fe:	e7f2      	b.n	1c8e6 <__libc_init_array+0x1e>
   1c900:	2000189c 	.word	0x2000189c
   1c904:	2000189c 	.word	0x2000189c
   1c908:	2000189c 	.word	0x2000189c
   1c90c:	200018a4 	.word	0x200018a4

0001c910 <memcpy>:
   1c910:	440a      	add	r2, r1
   1c912:	4291      	cmp	r1, r2
   1c914:	f100 33ff 	add.w	r3, r0, #4294967295	; 0xffffffff
   1c918:	d100      	bne.n	1c91c <memcpy+0xc>
   1c91a:	4770      	bx	lr
   1c91c:	b510      	push	{r4, lr}
   1c91e:	f811 4b01 	ldrb.w	r4, [r1], #1
   1c922:	f803 4f01 	strb.w	r4, [r3, #1]!
   1c926:	4291      	cmp	r1, r2
   1c928:	d1f9      	bne.n	1c91e <memcpy+0xe>
   1c92a:	bd10      	pop	{r4, pc}

0001c92c <memset>:
   1c92c:	4402      	add	r2, r0
   1c92e:	4603      	mov	r3, r0
   1c930:	4293      	cmp	r3, r2
   1c932:	d100      	bne.n	1c936 <memset+0xa>
   1c934:	4770      	bx	lr
   1c936:	f803 1b01 	strb.w	r1, [r3], #1
   1c93a:	e7f9      	b.n	1c930 <memset+0x4>

0001c93c <sniprintf>:
   1c93c:	b40c      	push	{r2, r3}
   1c93e:	b530      	push	{r4, r5, lr}
   1c940:	4b17      	ldr	r3, [pc, #92]	; (1c9a0 <sniprintf+0x64>)
   1c942:	1e0c      	subs	r4, r1, #0
   1c944:	681d      	ldr	r5, [r3, #0]
   1c946:	b09d      	sub	sp, #116	; 0x74
   1c948:	da08      	bge.n	1c95c <sniprintf+0x20>
   1c94a:	238b      	movs	r3, #139	; 0x8b
   1c94c:	602b      	str	r3, [r5, #0]
   1c94e:	f04f 30ff 	mov.w	r0, #4294967295	; 0xffffffff
   1c952:	b01d      	add	sp, #116	; 0x74
   1c954:	e8bd 4030 	ldmia.w	sp!, {r4, r5, lr}
   1c958:	b002      	add	sp, #8
   1c95a:	4770      	bx	lr
   1c95c:	f44f 7302 	mov.w	r3, #520	; 0x208
   1c960:	f8ad 3014 	strh.w	r3, [sp, #20]
   1c964:	bf14      	ite	ne
   1c966:	f104 33ff 	addne.w	r3, r4, #4294967295	; 0xffffffff
   1c96a:	4623      	moveq	r3, r4
   1c96c:	9304      	str	r3, [sp, #16]
   1c96e:	9307      	str	r3, [sp, #28]
   1c970:	f64f 73ff 	movw	r3, #65535	; 0xffff
   1c974:	9002      	str	r0, [sp, #8]
   1c976:	9006      	str	r0, [sp, #24]
   1c978:	f8ad 3016 	strh.w	r3, [sp, #22]
   1c97c:	9a20      	ldr	r2, [sp, #128]	; 0x80
   1c97e:	ab21      	add	r3, sp, #132	; 0x84
   1c980:	a902      	add	r1, sp, #8
   1c982:	4628      	mov	r0, r5
   1c984:	9301      	str	r3, [sp, #4]
   1c986:	f000 f879 	bl	1ca7c <_svfiprintf_r>
   1c98a:	1c43      	adds	r3, r0, #1
   1c98c:	bfbc      	itt	lt
   1c98e:	238b      	movlt	r3, #139	; 0x8b
   1c990:	602b      	strlt	r3, [r5, #0]
   1c992:	2c00      	cmp	r4, #0
   1c994:	d0dd      	beq.n	1c952 <sniprintf+0x16>
   1c996:	9b02      	ldr	r3, [sp, #8]
   1c998:	2200      	movs	r2, #0
   1c99a:	701a      	strb	r2, [r3, #0]
   1c99c:	e7d9      	b.n	1c952 <sniprintf+0x16>
   1c99e:	bf00      	nop
   1c9a0:	20001838 	.word	0x20001838

0001c9a4 <strcpy>:
   1c9a4:	4603      	mov	r3, r0
   1c9a6:	f811 2b01 	ldrb.w	r2, [r1], #1
   1c9aa:	f803 2b01 	strb.w	r2, [r3], #1
   1c9ae:	2a00      	cmp	r2, #0
   1c9b0:	d1f9      	bne.n	1c9a6 <strcpy+0x2>
   1c9b2:	4770      	bx	lr

0001c9b4 <strlen>:
   1c9b4:	4603      	mov	r3, r0
   1c9b6:	f813 2b01 	ldrb.w	r2, [r3], #1
   1c9ba:	2a00      	cmp	r2, #0
   1c9bc:	d1fb      	bne.n	1c9b6 <strlen+0x2>
   1c9be:	1a18      	subs	r0, r3, r0
   1c9c0:	3801      	subs	r0, #1
   1c9c2:	4770      	bx	lr

0001c9c4 <__ssputs_r>:
   1c9c4:	e92d 47f0 	stmdb	sp!, {r4, r5, r6, r7, r8, r9, sl, lr}
   1c9c8:	688e      	ldr	r6, [r1, #8]
   1c9ca:	429e      	cmp	r6, r3
   1c9cc:	4682      	mov	sl, r0
   1c9ce:	460c      	mov	r4, r1
   1c9d0:	4690      	mov	r8, r2
   1c9d2:	461f      	mov	r7, r3
   1c9d4:	d838      	bhi.n	1ca48 <__ssputs_r+0x84>
   1c9d6:	898a      	ldrh	r2, [r1, #12]
   1c9d8:	f412 6f90 	tst.w	r2, #1152	; 0x480
   1c9dc:	d032      	beq.n	1ca44 <__ssputs_r+0x80>
   1c9de:	6825      	ldr	r5, [r4, #0]
   1c9e0:	6909      	ldr	r1, [r1, #16]
   1c9e2:	eba5 0901 	sub.w	r9, r5, r1
   1c9e6:	6965      	ldr	r5, [r4, #20]
   1c9e8:	eb05 0545 	add.w	r5, r5, r5, lsl #1
   1c9ec:	eb05 75d5 	add.w	r5, r5, r5, lsr #31
   1c9f0:	3301      	adds	r3, #1
   1c9f2:	444b      	add	r3, r9
   1c9f4:	106d      	asrs	r5, r5, #1
   1c9f6:	429d      	cmp	r5, r3
   1c9f8:	bf38      	it	cc
   1c9fa:	461d      	movcc	r5, r3
   1c9fc:	0553      	lsls	r3, r2, #21
   1c9fe:	d531      	bpl.n	1ca64 <__ssputs_r+0xa0>
   1ca00:	4629      	mov	r1, r5
   1ca02:	f000 fb8d 	bl	1d120 <_malloc_r>
   1ca06:	4606      	mov	r6, r0
   1ca08:	b950      	cbnz	r0, 1ca20 <__ssputs_r+0x5c>
   1ca0a:	230c      	movs	r3, #12
   1ca0c:	f8ca 3000 	str.w	r3, [sl]
   1ca10:	89a3      	ldrh	r3, [r4, #12]
   1ca12:	f043 0340 	orr.w	r3, r3, #64	; 0x40
   1ca16:	81a3      	strh	r3, [r4, #12]
   1ca18:	f04f 30ff 	mov.w	r0, #4294967295	; 0xffffffff
   1ca1c:	e8bd 87f0 	ldmia.w	sp!, {r4, r5, r6, r7, r8, r9, sl, pc}
   1ca20:	6921      	ldr	r1, [r4, #16]
   1ca22:	464a      	mov	r2, r9
   1ca24:	f7ff ff74 	bl	1c910 <memcpy>
   1ca28:	89a3      	ldrh	r3, [r4, #12]
   1ca2a:	f423 6390 	bic.w	r3, r3, #1152	; 0x480
   1ca2e:	f043 0380 	orr.w	r3, r3, #128	; 0x80
   1ca32:	81a3      	strh	r3, [r4, #12]
   1ca34:	6126      	str	r6, [r4, #16]
   1ca36:	6165      	str	r5, [r4, #20]
   1ca38:	444e      	add	r6, r9
   1ca3a:	eba5 0509 	sub.w	r5, r5, r9
   1ca3e:	6026      	str	r6, [r4, #0]
   1ca40:	60a5      	str	r5, [r4, #8]
   1ca42:	463e      	mov	r6, r7
   1ca44:	42be      	cmp	r6, r7
   1ca46:	d900      	bls.n	1ca4a <__ssputs_r+0x86>
   1ca48:	463e      	mov	r6, r7
   1ca4a:	4632      	mov	r2, r6
   1ca4c:	6820      	ldr	r0, [r4, #0]
   1ca4e:	4641      	mov	r1, r8
   1ca50:	f000 fafe 	bl	1d050 <memmove>
   1ca54:	68a3      	ldr	r3, [r4, #8]
   1ca56:	6822      	ldr	r2, [r4, #0]
   1ca58:	1b9b      	subs	r3, r3, r6
   1ca5a:	4432      	add	r2, r6
   1ca5c:	60a3      	str	r3, [r4, #8]
   1ca5e:	6022      	str	r2, [r4, #0]
   1ca60:	2000      	movs	r0, #0
   1ca62:	e7db      	b.n	1ca1c <__ssputs_r+0x58>
   1ca64:	462a      	mov	r2, r5
   1ca66:	f000 fbb5 	bl	1d1d4 <_realloc_r>
   1ca6a:	4606      	mov	r6, r0
   1ca6c:	2800      	cmp	r0, #0
   1ca6e:	d1e1      	bne.n	1ca34 <__ssputs_r+0x70>
   1ca70:	6921      	ldr	r1, [r4, #16]
   1ca72:	4650      	mov	r0, sl
   1ca74:	f000 fb06 	bl	1d084 <_free_r>
   1ca78:	e7c7      	b.n	1ca0a <__ssputs_r+0x46>
	...

0001ca7c <_svfiprintf_r>:
   1ca7c:	e92d 4ff0 	stmdb	sp!, {r4, r5, r6, r7, r8, r9, sl, fp, lr}
   1ca80:	4698      	mov	r8, r3
   1ca82:	898b      	ldrh	r3, [r1, #12]
   1ca84:	061b      	lsls	r3, r3, #24
   1ca86:	b09d      	sub	sp, #116	; 0x74
   1ca88:	4607      	mov	r7, r0
   1ca8a:	460d      	mov	r5, r1
   1ca8c:	4614      	mov	r4, r2
   1ca8e:	d50e      	bpl.n	1caae <_svfiprintf_r+0x32>
   1ca90:	690b      	ldr	r3, [r1, #16]
   1ca92:	b963      	cbnz	r3, 1caae <_svfiprintf_r+0x32>
   1ca94:	2140      	movs	r1, #64	; 0x40
   1ca96:	f000 fb43 	bl	1d120 <_malloc_r>
   1ca9a:	6028      	str	r0, [r5, #0]
   1ca9c:	6128      	str	r0, [r5, #16]
   1ca9e:	b920      	cbnz	r0, 1caaa <_svfiprintf_r+0x2e>
   1caa0:	230c      	movs	r3, #12
   1caa2:	603b      	str	r3, [r7, #0]
   1caa4:	f04f 30ff 	mov.w	r0, #4294967295	; 0xffffffff
   1caa8:	e0d1      	b.n	1cc4e <_svfiprintf_r+0x1d2>
   1caaa:	2340      	movs	r3, #64	; 0x40
   1caac:	616b      	str	r3, [r5, #20]
   1caae:	2300      	movs	r3, #0
   1cab0:	9309      	str	r3, [sp, #36]	; 0x24
   1cab2:	2320      	movs	r3, #32
   1cab4:	f88d 3029 	strb.w	r3, [sp, #41]	; 0x29
   1cab8:	f8cd 800c 	str.w	r8, [sp, #12]
   1cabc:	2330      	movs	r3, #48	; 0x30
   1cabe:	f8df 81a8 	ldr.w	r8, [pc, #424]	; 1cc68 <_svfiprintf_r+0x1ec>
   1cac2:	f88d 302a 	strb.w	r3, [sp, #42]	; 0x2a
   1cac6:	f04f 0901 	mov.w	r9, #1
   1caca:	4623      	mov	r3, r4
   1cacc:	469a      	mov	sl, r3
   1cace:	f813 2b01 	ldrb.w	r2, [r3], #1
   1cad2:	b10a      	cbz	r2, 1cad8 <_svfiprintf_r+0x5c>
   1cad4:	2a25      	cmp	r2, #37	; 0x25
   1cad6:	d1f9      	bne.n	1cacc <_svfiprintf_r+0x50>
   1cad8:	ebba 0b04 	subs.w	fp, sl, r4
   1cadc:	d00b      	beq.n	1caf6 <_svfiprintf_r+0x7a>
   1cade:	465b      	mov	r3, fp
   1cae0:	4622      	mov	r2, r4
   1cae2:	4629      	mov	r1, r5
   1cae4:	4638      	mov	r0, r7
   1cae6:	f7ff ff6d 	bl	1c9c4 <__ssputs_r>
   1caea:	3001      	adds	r0, #1
   1caec:	f000 80aa 	beq.w	1cc44 <_svfiprintf_r+0x1c8>
   1caf0:	9a09      	ldr	r2, [sp, #36]	; 0x24
   1caf2:	445a      	add	r2, fp
   1caf4:	9209      	str	r2, [sp, #36]	; 0x24
   1caf6:	f89a 3000 	ldrb.w	r3, [sl]
   1cafa:	2b00      	cmp	r3, #0
   1cafc:	f000 80a2 	beq.w	1cc44 <_svfiprintf_r+0x1c8>
   1cb00:	2300      	movs	r3, #0
   1cb02:	f04f 32ff 	mov.w	r2, #4294967295	; 0xffffffff
   1cb06:	e9cd 2305 	strd	r2, r3, [sp, #20]
   1cb0a:	f10a 0a01 	add.w	sl, sl, #1
   1cb0e:	9304      	str	r3, [sp, #16]
   1cb10:	9307      	str	r3, [sp, #28]
   1cb12:	f88d 3053 	strb.w	r3, [sp, #83]	; 0x53
   1cb16:	931a      	str	r3, [sp, #104]	; 0x68
   1cb18:	4654      	mov	r4, sl
   1cb1a:	2205      	movs	r2, #5
   1cb1c:	f814 1b01 	ldrb.w	r1, [r4], #1
   1cb20:	4851      	ldr	r0, [pc, #324]	; (1cc68 <_svfiprintf_r+0x1ec>)
   1cb22:	f000 fa45 	bl	1cfb0 <memchr>
   1cb26:	9a04      	ldr	r2, [sp, #16]
   1cb28:	b9d8      	cbnz	r0, 1cb62 <_svfiprintf_r+0xe6>
   1cb2a:	06d0      	lsls	r0, r2, #27
   1cb2c:	bf44      	itt	mi
   1cb2e:	2320      	movmi	r3, #32
   1cb30:	f88d 3053 	strbmi.w	r3, [sp, #83]	; 0x53
   1cb34:	0711      	lsls	r1, r2, #28
   1cb36:	bf44      	itt	mi
   1cb38:	232b      	movmi	r3, #43	; 0x2b
   1cb3a:	f88d 3053 	strbmi.w	r3, [sp, #83]	; 0x53
   1cb3e:	f89a 3000 	ldrb.w	r3, [sl]
   1cb42:	2b2a      	cmp	r3, #42	; 0x2a
   1cb44:	d015      	beq.n	1cb72 <_svfiprintf_r+0xf6>
   1cb46:	9a07      	ldr	r2, [sp, #28]
   1cb48:	4654      	mov	r4, sl
   1cb4a:	2000      	movs	r0, #0
   1cb4c:	f04f 0c0a 	mov.w	ip, #10
   1cb50:	4621      	mov	r1, r4
   1cb52:	f811 3b01 	ldrb.w	r3, [r1], #1
   1cb56:	3b30      	subs	r3, #48	; 0x30
   1cb58:	2b09      	cmp	r3, #9
   1cb5a:	d94e      	bls.n	1cbfa <_svfiprintf_r+0x17e>
   1cb5c:	b1b0      	cbz	r0, 1cb8c <_svfiprintf_r+0x110>
   1cb5e:	9207      	str	r2, [sp, #28]
   1cb60:	e014      	b.n	1cb8c <_svfiprintf_r+0x110>
   1cb62:	eba0 0308 	sub.w	r3, r0, r8
   1cb66:	fa09 f303 	lsl.w	r3, r9, r3
   1cb6a:	4313      	orrs	r3, r2
   1cb6c:	9304      	str	r3, [sp, #16]
   1cb6e:	46a2      	mov	sl, r4
   1cb70:	e7d2      	b.n	1cb18 <_svfiprintf_r+0x9c>
   1cb72:	9b03      	ldr	r3, [sp, #12]
   1cb74:	1d19      	adds	r1, r3, #4
   1cb76:	681b      	ldr	r3, [r3, #0]
   1cb78:	9103      	str	r1, [sp, #12]
   1cb7a:	2b00      	cmp	r3, #0
   1cb7c:	bfbb      	ittet	lt
   1cb7e:	425b      	neglt	r3, r3
   1cb80:	f042 0202 	orrlt.w	r2, r2, #2
   1cb84:	9307      	strge	r3, [sp, #28]
   1cb86:	9307      	strlt	r3, [sp, #28]
   1cb88:	bfb8      	it	lt
   1cb8a:	9204      	strlt	r2, [sp, #16]
   1cb8c:	7823      	ldrb	r3, [r4, #0]
   1cb8e:	2b2e      	cmp	r3, #46	; 0x2e
   1cb90:	d10c      	bne.n	1cbac <_svfiprintf_r+0x130>
   1cb92:	7863      	ldrb	r3, [r4, #1]
   1cb94:	2b2a      	cmp	r3, #42	; 0x2a
   1cb96:	d135      	bne.n	1cc04 <_svfiprintf_r+0x188>
   1cb98:	9b03      	ldr	r3, [sp, #12]
   1cb9a:	1d1a      	adds	r2, r3, #4
   1cb9c:	681b      	ldr	r3, [r3, #0]
   1cb9e:	9203      	str	r2, [sp, #12]
   1cba0:	2b00      	cmp	r3, #0
   1cba2:	bfb8      	it	lt
   1cba4:	f04f 33ff 	movlt.w	r3, #4294967295	; 0xffffffff
   1cba8:	3402      	adds	r4, #2
   1cbaa:	9305      	str	r3, [sp, #20]
   1cbac:	f8df a0c8 	ldr.w	sl, [pc, #200]	; 1cc78 <_svfiprintf_r+0x1fc>
   1cbb0:	7821      	ldrb	r1, [r4, #0]
   1cbb2:	2203      	movs	r2, #3
   1cbb4:	4650      	mov	r0, sl
   1cbb6:	f000 f9fb 	bl	1cfb0 <memchr>
   1cbba:	b140      	cbz	r0, 1cbce <_svfiprintf_r+0x152>
   1cbbc:	2340      	movs	r3, #64	; 0x40
   1cbbe:	eba0 000a 	sub.w	r0, r0, sl
   1cbc2:	fa03 f000 	lsl.w	r0, r3, r0
   1cbc6:	9b04      	ldr	r3, [sp, #16]
   1cbc8:	4303      	orrs	r3, r0
   1cbca:	3401      	adds	r4, #1
   1cbcc:	9304      	str	r3, [sp, #16]
   1cbce:	f814 1b01 	ldrb.w	r1, [r4], #1
   1cbd2:	4826      	ldr	r0, [pc, #152]	; (1cc6c <_svfiprintf_r+0x1f0>)
   1cbd4:	f88d 1028 	strb.w	r1, [sp, #40]	; 0x28
   1cbd8:	2206      	movs	r2, #6
   1cbda:	f000 f9e9 	bl	1cfb0 <memchr>
   1cbde:	2800      	cmp	r0, #0
   1cbe0:	d038      	beq.n	1cc54 <_svfiprintf_r+0x1d8>
   1cbe2:	4b23      	ldr	r3, [pc, #140]	; (1cc70 <_svfiprintf_r+0x1f4>)
   1cbe4:	bb1b      	cbnz	r3, 1cc2e <_svfiprintf_r+0x1b2>
   1cbe6:	9b03      	ldr	r3, [sp, #12]
   1cbe8:	3307      	adds	r3, #7
   1cbea:	f023 0307 	bic.w	r3, r3, #7
   1cbee:	3308      	adds	r3, #8
   1cbf0:	9303      	str	r3, [sp, #12]
   1cbf2:	9b09      	ldr	r3, [sp, #36]	; 0x24
   1cbf4:	4433      	add	r3, r6
   1cbf6:	9309      	str	r3, [sp, #36]	; 0x24
   1cbf8:	e767      	b.n	1caca <_svfiprintf_r+0x4e>
   1cbfa:	fb0c 3202 	mla	r2, ip, r2, r3
   1cbfe:	460c      	mov	r4, r1
   1cc00:	2001      	movs	r0, #1
   1cc02:	e7a5      	b.n	1cb50 <_svfiprintf_r+0xd4>
   1cc04:	2300      	movs	r3, #0
   1cc06:	3401      	adds	r4, #1
   1cc08:	9305      	str	r3, [sp, #20]
   1cc0a:	4619      	mov	r1, r3
   1cc0c:	f04f 0c0a 	mov.w	ip, #10
   1cc10:	4620      	mov	r0, r4
   1cc12:	f810 2b01 	ldrb.w	r2, [r0], #1
   1cc16:	3a30      	subs	r2, #48	; 0x30
   1cc18:	2a09      	cmp	r2, #9
   1cc1a:	d903      	bls.n	1cc24 <_svfiprintf_r+0x1a8>
   1cc1c:	2b00      	cmp	r3, #0
   1cc1e:	d0c5      	beq.n	1cbac <_svfiprintf_r+0x130>
   1cc20:	9105      	str	r1, [sp, #20]
   1cc22:	e7c3      	b.n	1cbac <_svfiprintf_r+0x130>
   1cc24:	fb0c 2101 	mla	r1, ip, r1, r2
   1cc28:	4604      	mov	r4, r0
   1cc2a:	2301      	movs	r3, #1
   1cc2c:	e7f0      	b.n	1cc10 <_svfiprintf_r+0x194>
   1cc2e:	ab03      	add	r3, sp, #12
   1cc30:	9300      	str	r3, [sp, #0]
   1cc32:	462a      	mov	r2, r5
   1cc34:	4b0f      	ldr	r3, [pc, #60]	; (1cc74 <_svfiprintf_r+0x1f8>)
   1cc36:	a904      	add	r1, sp, #16
   1cc38:	4638      	mov	r0, r7
   1cc3a:	f3af 8000 	nop.w
   1cc3e:	1c42      	adds	r2, r0, #1
   1cc40:	4606      	mov	r6, r0
   1cc42:	d1d6      	bne.n	1cbf2 <_svfiprintf_r+0x176>
   1cc44:	89ab      	ldrh	r3, [r5, #12]
   1cc46:	065b      	lsls	r3, r3, #25
   1cc48:	f53f af2c 	bmi.w	1caa4 <_svfiprintf_r+0x28>
   1cc4c:	9809      	ldr	r0, [sp, #36]	; 0x24
   1cc4e:	b01d      	add	sp, #116	; 0x74
   1cc50:	e8bd 8ff0 	ldmia.w	sp!, {r4, r5, r6, r7, r8, r9, sl, fp, pc}
   1cc54:	ab03      	add	r3, sp, #12
   1cc56:	9300      	str	r3, [sp, #0]
   1cc58:	462a      	mov	r2, r5
   1cc5a:	4b06      	ldr	r3, [pc, #24]	; (1cc74 <_svfiprintf_r+0x1f8>)
   1cc5c:	a904      	add	r1, sp, #16
   1cc5e:	4638      	mov	r0, r7
   1cc60:	f000 f87a 	bl	1cd58 <_printf_i>
   1cc64:	e7eb      	b.n	1cc3e <_svfiprintf_r+0x1c2>
   1cc66:	bf00      	nop
   1cc68:	0001efb4 	.word	0x0001efb4
   1cc6c:	0001efbe 	.word	0x0001efbe
   1cc70:	00000000 	.word	0x00000000
   1cc74:	0001c9c5 	.word	0x0001c9c5
   1cc78:	0001efba 	.word	0x0001efba

0001cc7c <_printf_common>:
   1cc7c:	e92d 47f0 	stmdb	sp!, {r4, r5, r6, r7, r8, r9, sl, lr}
   1cc80:	4616      	mov	r6, r2
   1cc82:	4699      	mov	r9, r3
   1cc84:	688a      	ldr	r2, [r1, #8]
   1cc86:	690b      	ldr	r3, [r1, #16]
   1cc88:	f8dd 8020 	ldr.w	r8, [sp, #32]
   1cc8c:	4293      	cmp	r3, r2
   1cc8e:	bfb8      	it	lt
   1cc90:	4613      	movlt	r3, r2
   1cc92:	6033      	str	r3, [r6, #0]
   1cc94:	f891 2043 	ldrb.w	r2, [r1, #67]	; 0x43
   1cc98:	4607      	mov	r7, r0
   1cc9a:	460c      	mov	r4, r1
   1cc9c:	b10a      	cbz	r2, 1cca2 <_printf_common+0x26>
   1cc9e:	3301      	adds	r3, #1
   1cca0:	6033      	str	r3, [r6, #0]
   1cca2:	6823      	ldr	r3, [r4, #0]
   1cca4:	0699      	lsls	r1, r3, #26
   1cca6:	bf42      	ittt	mi
   1cca8:	6833      	ldrmi	r3, [r6, #0]
   1ccaa:	3302      	addmi	r3, #2
   1ccac:	6033      	strmi	r3, [r6, #0]
   1ccae:	6825      	ldr	r5, [r4, #0]
   1ccb0:	f015 0506 	ands.w	r5, r5, #6
   1ccb4:	d106      	bne.n	1ccc4 <_printf_common+0x48>
   1ccb6:	f104 0a19 	add.w	sl, r4, #25
   1ccba:	68e3      	ldr	r3, [r4, #12]
   1ccbc:	6832      	ldr	r2, [r6, #0]
   1ccbe:	1a9b      	subs	r3, r3, r2
   1ccc0:	42ab      	cmp	r3, r5
   1ccc2:	dc26      	bgt.n	1cd12 <_printf_common+0x96>
   1ccc4:	f894 2043 	ldrb.w	r2, [r4, #67]	; 0x43
   1ccc8:	1e13      	subs	r3, r2, #0
   1ccca:	6822      	ldr	r2, [r4, #0]
   1cccc:	bf18      	it	ne
   1ccce:	2301      	movne	r3, #1
   1ccd0:	0692      	lsls	r2, r2, #26
   1ccd2:	d42b      	bmi.n	1cd2c <_printf_common+0xb0>
   1ccd4:	f104 0243 	add.w	r2, r4, #67	; 0x43
   1ccd8:	4649      	mov	r1, r9
   1ccda:	4638      	mov	r0, r7
   1ccdc:	47c0      	blx	r8
   1ccde:	3001      	adds	r0, #1
   1cce0:	d01e      	beq.n	1cd20 <_printf_common+0xa4>
   1cce2:	6823      	ldr	r3, [r4, #0]
   1cce4:	68e5      	ldr	r5, [r4, #12]
   1cce6:	6832      	ldr	r2, [r6, #0]
   1cce8:	f003 0306 	and.w	r3, r3, #6
   1ccec:	2b04      	cmp	r3, #4
   1ccee:	bf08      	it	eq
   1ccf0:	1aad      	subeq	r5, r5, r2
   1ccf2:	68a3      	ldr	r3, [r4, #8]
   1ccf4:	6922      	ldr	r2, [r4, #16]
   1ccf6:	bf0c      	ite	eq
   1ccf8:	ea25 75e5 	biceq.w	r5, r5, r5, asr #31
   1ccfc:	2500      	movne	r5, #0
   1ccfe:	4293      	cmp	r3, r2
   1cd00:	bfc4      	itt	gt
   1cd02:	1a9b      	subgt	r3, r3, r2
   1cd04:	18ed      	addgt	r5, r5, r3
   1cd06:	2600      	movs	r6, #0
   1cd08:	341a      	adds	r4, #26
   1cd0a:	42b5      	cmp	r5, r6
   1cd0c:	d11a      	bne.n	1cd44 <_printf_common+0xc8>
   1cd0e:	2000      	movs	r0, #0
   1cd10:	e008      	b.n	1cd24 <_printf_common+0xa8>
   1cd12:	2301      	movs	r3, #1
   1cd14:	4652      	mov	r2, sl
   1cd16:	4649      	mov	r1, r9
   1cd18:	4638      	mov	r0, r7
   1cd1a:	47c0      	blx	r8
   1cd1c:	3001      	adds	r0, #1
   1cd1e:	d103      	bne.n	1cd28 <_printf_common+0xac>
   1cd20:	f04f 30ff 	mov.w	r0, #4294967295	; 0xffffffff
   1cd24:	e8bd 87f0 	ldmia.w	sp!, {r4, r5, r6, r7, r8, r9, sl, pc}
   1cd28:	3501      	adds	r5, #1
   1cd2a:	e7c6      	b.n	1ccba <_printf_common+0x3e>
   1cd2c:	18e1      	adds	r1, r4, r3
   1cd2e:	1c5a      	adds	r2, r3, #1
   1cd30:	2030      	movs	r0, #48	; 0x30
   1cd32:	f881 0043 	strb.w	r0, [r1, #67]	; 0x43
   1cd36:	4422      	add	r2, r4
   1cd38:	f894 1045 	ldrb.w	r1, [r4, #69]	; 0x45
   1cd3c:	f882 1043 	strb.w	r1, [r2, #67]	; 0x43
   1cd40:	3302      	adds	r3, #2
   1cd42:	e7c7      	b.n	1ccd4 <_printf_common+0x58>
   1cd44:	2301      	movs	r3, #1
   1cd46:	4622      	mov	r2, r4
   1cd48:	4649      	mov	r1, r9
   1cd4a:	4638      	mov	r0, r7
   1cd4c:	47c0      	blx	r8
   1cd4e:	3001      	adds	r0, #1
   1cd50:	d0e6      	beq.n	1cd20 <_printf_common+0xa4>
   1cd52:	3601      	adds	r6, #1
   1cd54:	e7d9      	b.n	1cd0a <_printf_common+0x8e>
	...

0001cd58 <_printf_i>:
   1cd58:	e92d 47ff 	stmdb	sp!, {r0, r1, r2, r3, r4, r5, r6, r7, r8, r9, sl, lr}
   1cd5c:	460c      	mov	r4, r1
   1cd5e:	4691      	mov	r9, r2
   1cd60:	7e27      	ldrb	r7, [r4, #24]
   1cd62:	990c      	ldr	r1, [sp, #48]	; 0x30
   1cd64:	2f78      	cmp	r7, #120	; 0x78
   1cd66:	4680      	mov	r8, r0
   1cd68:	469a      	mov	sl, r3
   1cd6a:	f104 0243 	add.w	r2, r4, #67	; 0x43
   1cd6e:	d807      	bhi.n	1cd80 <_printf_i+0x28>
   1cd70:	2f62      	cmp	r7, #98	; 0x62
   1cd72:	d80a      	bhi.n	1cd8a <_printf_i+0x32>
   1cd74:	2f00      	cmp	r7, #0
   1cd76:	f000 80d8 	beq.w	1cf2a <_printf_i+0x1d2>
   1cd7a:	2f58      	cmp	r7, #88	; 0x58
   1cd7c:	f000 80a3 	beq.w	1cec6 <_printf_i+0x16e>
   1cd80:	f104 0642 	add.w	r6, r4, #66	; 0x42
   1cd84:	f884 7042 	strb.w	r7, [r4, #66]	; 0x42
   1cd88:	e03a      	b.n	1ce00 <_printf_i+0xa8>
   1cd8a:	f1a7 0363 	sub.w	r3, r7, #99	; 0x63
   1cd8e:	2b15      	cmp	r3, #21
   1cd90:	d8f6      	bhi.n	1cd80 <_printf_i+0x28>
   1cd92:	a001      	add	r0, pc, #4	; (adr r0, 1cd98 <_printf_i+0x40>)
   1cd94:	f850 f023 	ldr.w	pc, [r0, r3, lsl #2]
   1cd98:	0001cdf1 	.word	0x0001cdf1
   1cd9c:	0001ce05 	.word	0x0001ce05
   1cda0:	0001cd81 	.word	0x0001cd81
   1cda4:	0001cd81 	.word	0x0001cd81
   1cda8:	0001cd81 	.word	0x0001cd81
   1cdac:	0001cd81 	.word	0x0001cd81
   1cdb0:	0001ce05 	.word	0x0001ce05
   1cdb4:	0001cd81 	.word	0x0001cd81
   1cdb8:	0001cd81 	.word	0x0001cd81
   1cdbc:	0001cd81 	.word	0x0001cd81
   1cdc0:	0001cd81 	.word	0x0001cd81
   1cdc4:	0001cf11 	.word	0x0001cf11
   1cdc8:	0001ce35 	.word	0x0001ce35
   1cdcc:	0001cef3 	.word	0x0001cef3
   1cdd0:	0001cd81 	.word	0x0001cd81
   1cdd4:	0001cd81 	.word	0x0001cd81
   1cdd8:	0001cf33 	.word	0x0001cf33
   1cddc:	0001cd81 	.word	0x0001cd81
   1cde0:	0001ce35 	.word	0x0001ce35
   1cde4:	0001cd81 	.word	0x0001cd81
   1cde8:	0001cd81 	.word	0x0001cd81
   1cdec:	0001cefb 	.word	0x0001cefb
   1cdf0:	680b      	ldr	r3, [r1, #0]
   1cdf2:	1d1a      	adds	r2, r3, #4
   1cdf4:	681b      	ldr	r3, [r3, #0]
   1cdf6:	600a      	str	r2, [r1, #0]
   1cdf8:	f104 0642 	add.w	r6, r4, #66	; 0x42
   1cdfc:	f884 3042 	strb.w	r3, [r4, #66]	; 0x42
   1ce00:	2301      	movs	r3, #1
   1ce02:	e0a3      	b.n	1cf4c <_printf_i+0x1f4>
   1ce04:	6825      	ldr	r5, [r4, #0]
   1ce06:	6808      	ldr	r0, [r1, #0]
   1ce08:	062e      	lsls	r6, r5, #24
   1ce0a:	f100 0304 	add.w	r3, r0, #4
   1ce0e:	d50a      	bpl.n	1ce26 <_printf_i+0xce>
   1ce10:	6805      	ldr	r5, [r0, #0]
   1ce12:	600b      	str	r3, [r1, #0]
   1ce14:	2d00      	cmp	r5, #0
   1ce16:	da03      	bge.n	1ce20 <_printf_i+0xc8>
   1ce18:	232d      	movs	r3, #45	; 0x2d
   1ce1a:	426d      	negs	r5, r5
   1ce1c:	f884 3043 	strb.w	r3, [r4, #67]	; 0x43
   1ce20:	485e      	ldr	r0, [pc, #376]	; (1cf9c <_printf_i+0x244>)
   1ce22:	230a      	movs	r3, #10
   1ce24:	e019      	b.n	1ce5a <_printf_i+0x102>
   1ce26:	f015 0f40 	tst.w	r5, #64	; 0x40
   1ce2a:	6805      	ldr	r5, [r0, #0]
   1ce2c:	600b      	str	r3, [r1, #0]
   1ce2e:	bf18      	it	ne
   1ce30:	b22d      	sxthne	r5, r5
   1ce32:	e7ef      	b.n	1ce14 <_printf_i+0xbc>
   1ce34:	680b      	ldr	r3, [r1, #0]
   1ce36:	6825      	ldr	r5, [r4, #0]
   1ce38:	1d18      	adds	r0, r3, #4
   1ce3a:	6008      	str	r0, [r1, #0]
   1ce3c:	0628      	lsls	r0, r5, #24
   1ce3e:	d501      	bpl.n	1ce44 <_printf_i+0xec>
   1ce40:	681d      	ldr	r5, [r3, #0]
   1ce42:	e002      	b.n	1ce4a <_printf_i+0xf2>
   1ce44:	0669      	lsls	r1, r5, #25
   1ce46:	d5fb      	bpl.n	1ce40 <_printf_i+0xe8>
   1ce48:	881d      	ldrh	r5, [r3, #0]
   1ce4a:	4854      	ldr	r0, [pc, #336]	; (1cf9c <_printf_i+0x244>)
   1ce4c:	2f6f      	cmp	r7, #111	; 0x6f
   1ce4e:	bf0c      	ite	eq
   1ce50:	2308      	moveq	r3, #8
   1ce52:	230a      	movne	r3, #10
   1ce54:	2100      	movs	r1, #0
   1ce56:	f884 1043 	strb.w	r1, [r4, #67]	; 0x43
   1ce5a:	6866      	ldr	r6, [r4, #4]
   1ce5c:	60a6      	str	r6, [r4, #8]
   1ce5e:	2e00      	cmp	r6, #0
   1ce60:	bfa2      	ittt	ge
   1ce62:	6821      	ldrge	r1, [r4, #0]
   1ce64:	f021 0104 	bicge.w	r1, r1, #4
   1ce68:	6021      	strge	r1, [r4, #0]
   1ce6a:	b90d      	cbnz	r5, 1ce70 <_printf_i+0x118>
   1ce6c:	2e00      	cmp	r6, #0
   1ce6e:	d04d      	beq.n	1cf0c <_printf_i+0x1b4>
   1ce70:	4616      	mov	r6, r2
   1ce72:	fbb5 f1f3 	udiv	r1, r5, r3
   1ce76:	fb03 5711 	mls	r7, r3, r1, r5
   1ce7a:	5dc7      	ldrb	r7, [r0, r7]
   1ce7c:	f806 7d01 	strb.w	r7, [r6, #-1]!
   1ce80:	462f      	mov	r7, r5
   1ce82:	42bb      	cmp	r3, r7
   1ce84:	460d      	mov	r5, r1
   1ce86:	d9f4      	bls.n	1ce72 <_printf_i+0x11a>
   1ce88:	2b08      	cmp	r3, #8
   1ce8a:	d10b      	bne.n	1cea4 <_printf_i+0x14c>
   1ce8c:	6823      	ldr	r3, [r4, #0]
   1ce8e:	07df      	lsls	r7, r3, #31
   1ce90:	d508      	bpl.n	1cea4 <_printf_i+0x14c>
   1ce92:	6923      	ldr	r3, [r4, #16]
   1ce94:	6861      	ldr	r1, [r4, #4]
   1ce96:	4299      	cmp	r1, r3
   1ce98:	bfde      	ittt	le
   1ce9a:	2330      	movle	r3, #48	; 0x30
   1ce9c:	f806 3c01 	strble.w	r3, [r6, #-1]
   1cea0:	f106 36ff 	addle.w	r6, r6, #4294967295	; 0xffffffff
   1cea4:	1b92      	subs	r2, r2, r6
   1cea6:	6122      	str	r2, [r4, #16]
   1cea8:	f8cd a000 	str.w	sl, [sp]
   1ceac:	464b      	mov	r3, r9
   1ceae:	aa03      	add	r2, sp, #12
   1ceb0:	4621      	mov	r1, r4
   1ceb2:	4640      	mov	r0, r8
   1ceb4:	f7ff fee2 	bl	1cc7c <_printf_common>
   1ceb8:	3001      	adds	r0, #1
   1ceba:	d14c      	bne.n	1cf56 <_printf_i+0x1fe>
   1cebc:	f04f 30ff 	mov.w	r0, #4294967295	; 0xffffffff
   1cec0:	b004      	add	sp, #16
   1cec2:	e8bd 87f0 	ldmia.w	sp!, {r4, r5, r6, r7, r8, r9, sl, pc}
   1cec6:	4835      	ldr	r0, [pc, #212]	; (1cf9c <_printf_i+0x244>)
   1cec8:	f884 7045 	strb.w	r7, [r4, #69]	; 0x45
   1cecc:	6823      	ldr	r3, [r4, #0]
   1cece:	680e      	ldr	r6, [r1, #0]
   1ced0:	061f      	lsls	r7, r3, #24
   1ced2:	f856 5b04 	ldr.w	r5, [r6], #4
   1ced6:	600e      	str	r6, [r1, #0]
   1ced8:	d514      	bpl.n	1cf04 <_printf_i+0x1ac>
   1ceda:	07d9      	lsls	r1, r3, #31
   1cedc:	bf44      	itt	mi
   1cede:	f043 0320 	orrmi.w	r3, r3, #32
   1cee2:	6023      	strmi	r3, [r4, #0]
   1cee4:	b91d      	cbnz	r5, 1ceee <_printf_i+0x196>
   1cee6:	6823      	ldr	r3, [r4, #0]
   1cee8:	f023 0320 	bic.w	r3, r3, #32
   1ceec:	6023      	str	r3, [r4, #0]
   1ceee:	2310      	movs	r3, #16
   1cef0:	e7b0      	b.n	1ce54 <_printf_i+0xfc>
   1cef2:	6823      	ldr	r3, [r4, #0]
   1cef4:	f043 0320 	orr.w	r3, r3, #32
   1cef8:	6023      	str	r3, [r4, #0]
   1cefa:	2378      	movs	r3, #120	; 0x78
   1cefc:	4828      	ldr	r0, [pc, #160]	; (1cfa0 <_printf_i+0x248>)
   1cefe:	f884 3045 	strb.w	r3, [r4, #69]	; 0x45
   1cf02:	e7e3      	b.n	1cecc <_printf_i+0x174>
   1cf04:	065e      	lsls	r6, r3, #25
   1cf06:	bf48      	it	mi
   1cf08:	b2ad      	uxthmi	r5, r5
   1cf0a:	e7e6      	b.n	1ceda <_printf_i+0x182>
   1cf0c:	4616      	mov	r6, r2
   1cf0e:	e7bb      	b.n	1ce88 <_printf_i+0x130>
   1cf10:	680b      	ldr	r3, [r1, #0]
   1cf12:	6826      	ldr	r6, [r4, #0]
   1cf14:	6960      	ldr	r0, [r4, #20]
   1cf16:	1d1d      	adds	r5, r3, #4
   1cf18:	600d      	str	r5, [r1, #0]
   1cf1a:	0635      	lsls	r5, r6, #24
   1cf1c:	681b      	ldr	r3, [r3, #0]
   1cf1e:	d501      	bpl.n	1cf24 <_printf_i+0x1cc>
   1cf20:	6018      	str	r0, [r3, #0]
   1cf22:	e002      	b.n	1cf2a <_printf_i+0x1d2>
   1cf24:	0671      	lsls	r1, r6, #25
   1cf26:	d5fb      	bpl.n	1cf20 <_printf_i+0x1c8>
   1cf28:	8018      	strh	r0, [r3, #0]
   1cf2a:	2300      	movs	r3, #0
   1cf2c:	6123      	str	r3, [r4, #16]
   1cf2e:	4616      	mov	r6, r2
   1cf30:	e7ba      	b.n	1cea8 <_printf_i+0x150>
   1cf32:	680b      	ldr	r3, [r1, #0]
   1cf34:	1d1a      	adds	r2, r3, #4
   1cf36:	600a      	str	r2, [r1, #0]
   1cf38:	681e      	ldr	r6, [r3, #0]
   1cf3a:	6862      	ldr	r2, [r4, #4]
   1cf3c:	2100      	movs	r1, #0
   1cf3e:	4630      	mov	r0, r6
   1cf40:	f000 f836 	bl	1cfb0 <memchr>
   1cf44:	b108      	cbz	r0, 1cf4a <_printf_i+0x1f2>
   1cf46:	1b80      	subs	r0, r0, r6
   1cf48:	6060      	str	r0, [r4, #4]
   1cf4a:	6863      	ldr	r3, [r4, #4]
   1cf4c:	6123      	str	r3, [r4, #16]
   1cf4e:	2300      	movs	r3, #0
   1cf50:	f884 3043 	strb.w	r3, [r4, #67]	; 0x43
   1cf54:	e7a8      	b.n	1cea8 <_printf_i+0x150>
   1cf56:	6923      	ldr	r3, [r4, #16]
   1cf58:	4632      	mov	r2, r6
   1cf5a:	4649      	mov	r1, r9
   1cf5c:	4640      	mov	r0, r8
   1cf5e:	47d0      	blx	sl
   1cf60:	3001      	adds	r0, #1
   1cf62:	d0ab      	beq.n	1cebc <_printf_i+0x164>
   1cf64:	6823      	ldr	r3, [r4, #0]
   1cf66:	079b      	lsls	r3, r3, #30
   1cf68:	d413      	bmi.n	1cf92 <_printf_i+0x23a>
   1cf6a:	68e0      	ldr	r0, [r4, #12]
   1cf6c:	9b03      	ldr	r3, [sp, #12]
   1cf6e:	4298      	cmp	r0, r3
   1cf70:	bfb8      	it	lt
   1cf72:	4618      	movlt	r0, r3
   1cf74:	e7a4      	b.n	1cec0 <_printf_i+0x168>
   1cf76:	2301      	movs	r3, #1
   1cf78:	4632      	mov	r2, r6
   1cf7a:	4649      	mov	r1, r9
   1cf7c:	4640      	mov	r0, r8
   1cf7e:	47d0      	blx	sl
   1cf80:	3001      	adds	r0, #1
   1cf82:	d09b      	beq.n	1cebc <_printf_i+0x164>
   1cf84:	3501      	adds	r5, #1
   1cf86:	68e3      	ldr	r3, [r4, #12]
   1cf88:	9903      	ldr	r1, [sp, #12]
   1cf8a:	1a5b      	subs	r3, r3, r1
   1cf8c:	42ab      	cmp	r3, r5
   1cf8e:	dcf2      	bgt.n	1cf76 <_printf_i+0x21e>
   1cf90:	e7eb      	b.n	1cf6a <_printf_i+0x212>
   1cf92:	2500      	movs	r5, #0
   1cf94:	f104 0619 	add.w	r6, r4, #25
   1cf98:	e7f5      	b.n	1cf86 <_printf_i+0x22e>
   1cf9a:	bf00      	nop
   1cf9c:	0001efc5 	.word	0x0001efc5
   1cfa0:	0001efd6 	.word	0x0001efd6
	...

0001cfb0 <memchr>:
   1cfb0:	f001 01ff 	and.w	r1, r1, #255	; 0xff
   1cfb4:	2a10      	cmp	r2, #16
   1cfb6:	db2b      	blt.n	1d010 <memchr+0x60>
   1cfb8:	f010 0f07 	tst.w	r0, #7
   1cfbc:	d008      	beq.n	1cfd0 <memchr+0x20>
   1cfbe:	f810 3b01 	ldrb.w	r3, [r0], #1
   1cfc2:	3a01      	subs	r2, #1
   1cfc4:	428b      	cmp	r3, r1
   1cfc6:	d02d      	beq.n	1d024 <memchr+0x74>
   1cfc8:	f010 0f07 	tst.w	r0, #7
   1cfcc:	b342      	cbz	r2, 1d020 <memchr+0x70>
   1cfce:	d1f6      	bne.n	1cfbe <memchr+0xe>
   1cfd0:	b4f0      	push	{r4, r5, r6, r7}
   1cfd2:	ea41 2101 	orr.w	r1, r1, r1, lsl #8
   1cfd6:	ea41 4101 	orr.w	r1, r1, r1, lsl #16
   1cfda:	f022 0407 	bic.w	r4, r2, #7
   1cfde:	f07f 0700 	mvns.w	r7, #0
   1cfe2:	2300      	movs	r3, #0
   1cfe4:	e8f0 5602 	ldrd	r5, r6, [r0], #8
   1cfe8:	3c08      	subs	r4, #8
   1cfea:	ea85 0501 	eor.w	r5, r5, r1
   1cfee:	ea86 0601 	eor.w	r6, r6, r1
   1cff2:	fa85 f547 	uadd8	r5, r5, r7
   1cff6:	faa3 f587 	sel	r5, r3, r7
   1cffa:	fa86 f647 	uadd8	r6, r6, r7
   1cffe:	faa5 f687 	sel	r6, r5, r7
   1d002:	b98e      	cbnz	r6, 1d028 <memchr+0x78>
   1d004:	d1ee      	bne.n	1cfe4 <memchr+0x34>
   1d006:	bcf0      	pop	{r4, r5, r6, r7}
   1d008:	f001 01ff 	and.w	r1, r1, #255	; 0xff
   1d00c:	f002 0207 	and.w	r2, r2, #7
   1d010:	b132      	cbz	r2, 1d020 <memchr+0x70>
   1d012:	f810 3b01 	ldrb.w	r3, [r0], #1
   1d016:	3a01      	subs	r2, #1
   1d018:	ea83 0301 	eor.w	r3, r3, r1
   1d01c:	b113      	cbz	r3, 1d024 <memchr+0x74>
   1d01e:	d1f8      	bne.n	1d012 <memchr+0x62>
   1d020:	2000      	movs	r0, #0
   1d022:	4770      	bx	lr
   1d024:	3801      	subs	r0, #1
   1d026:	4770      	bx	lr
   1d028:	2d00      	cmp	r5, #0
   1d02a:	bf06      	itte	eq
   1d02c:	4635      	moveq	r5, r6
   1d02e:	3803      	subeq	r0, #3
   1d030:	3807      	subne	r0, #7
   1d032:	f015 0f01 	tst.w	r5, #1
   1d036:	d107      	bne.n	1d048 <memchr+0x98>
   1d038:	3001      	adds	r0, #1
   1d03a:	f415 7f80 	tst.w	r5, #256	; 0x100
   1d03e:	bf02      	ittt	eq
   1d040:	3001      	addeq	r0, #1
   1d042:	f415 3fc0 	tsteq.w	r5, #98304	; 0x18000
   1d046:	3001      	addeq	r0, #1
   1d048:	bcf0      	pop	{r4, r5, r6, r7}
   1d04a:	3801      	subs	r0, #1
   1d04c:	4770      	bx	lr
   1d04e:	bf00      	nop

0001d050 <memmove>:
   1d050:	4288      	cmp	r0, r1
   1d052:	b510      	push	{r4, lr}
   1d054:	eb01 0402 	add.w	r4, r1, r2
   1d058:	d902      	bls.n	1d060 <memmove+0x10>
   1d05a:	4284      	cmp	r4, r0
   1d05c:	4623      	mov	r3, r4
   1d05e:	d807      	bhi.n	1d070 <memmove+0x20>
   1d060:	1e43      	subs	r3, r0, #1
   1d062:	42a1      	cmp	r1, r4
   1d064:	d008      	beq.n	1d078 <memmove+0x28>
   1d066:	f811 2b01 	ldrb.w	r2, [r1], #1
   1d06a:	f803 2f01 	strb.w	r2, [r3, #1]!
   1d06e:	e7f8      	b.n	1d062 <memmove+0x12>
   1d070:	4402      	add	r2, r0
   1d072:	4601      	mov	r1, r0
   1d074:	428a      	cmp	r2, r1
   1d076:	d100      	bne.n	1d07a <memmove+0x2a>
   1d078:	bd10      	pop	{r4, pc}
   1d07a:	f813 4d01 	ldrb.w	r4, [r3, #-1]!
   1d07e:	f802 4d01 	strb.w	r4, [r2, #-1]!
   1d082:	e7f7      	b.n	1d074 <memmove+0x24>

0001d084 <_free_r>:
   1d084:	b538      	push	{r3, r4, r5, lr}
   1d086:	4605      	mov	r5, r0
   1d088:	2900      	cmp	r1, #0
   1d08a:	d045      	beq.n	1d118 <_free_r+0x94>
   1d08c:	f851 3c04 	ldr.w	r3, [r1, #-4]
   1d090:	1f0c      	subs	r4, r1, #4
   1d092:	2b00      	cmp	r3, #0
   1d094:	bfb8      	it	lt
   1d096:	18e4      	addlt	r4, r4, r3
   1d098:	f000 f8d2 	bl	1d240 <__malloc_lock>
   1d09c:	4a1f      	ldr	r2, [pc, #124]	; (1d11c <_free_r+0x98>)
   1d09e:	6813      	ldr	r3, [r2, #0]
   1d0a0:	4610      	mov	r0, r2
   1d0a2:	b933      	cbnz	r3, 1d0b2 <_free_r+0x2e>
   1d0a4:	6063      	str	r3, [r4, #4]
   1d0a6:	6014      	str	r4, [r2, #0]
   1d0a8:	4628      	mov	r0, r5
   1d0aa:	e8bd 4038 	ldmia.w	sp!, {r3, r4, r5, lr}
   1d0ae:	f000 b8cd 	b.w	1d24c <__malloc_unlock>
   1d0b2:	42a3      	cmp	r3, r4
   1d0b4:	d90b      	bls.n	1d0ce <_free_r+0x4a>
   1d0b6:	6821      	ldr	r1, [r4, #0]
   1d0b8:	1862      	adds	r2, r4, r1
   1d0ba:	4293      	cmp	r3, r2
   1d0bc:	bf04      	itt	eq
   1d0be:	681a      	ldreq	r2, [r3, #0]
   1d0c0:	685b      	ldreq	r3, [r3, #4]
   1d0c2:	6063      	str	r3, [r4, #4]
   1d0c4:	bf04      	itt	eq
   1d0c6:	1852      	addeq	r2, r2, r1
   1d0c8:	6022      	streq	r2, [r4, #0]
   1d0ca:	6004      	str	r4, [r0, #0]
   1d0cc:	e7ec      	b.n	1d0a8 <_free_r+0x24>
   1d0ce:	461a      	mov	r2, r3
   1d0d0:	685b      	ldr	r3, [r3, #4]
   1d0d2:	b10b      	cbz	r3, 1d0d8 <_free_r+0x54>
   1d0d4:	42a3      	cmp	r3, r4
   1d0d6:	d9fa      	bls.n	1d0ce <_free_r+0x4a>
   1d0d8:	6811      	ldr	r1, [r2, #0]
   1d0da:	1850      	adds	r0, r2, r1
   1d0dc:	42a0      	cmp	r0, r4
   1d0de:	d10b      	bne.n	1d0f8 <_free_r+0x74>
   1d0e0:	6820      	ldr	r0, [r4, #0]
   1d0e2:	4401      	add	r1, r0
   1d0e4:	1850      	adds	r0, r2, r1
   1d0e6:	4283      	cmp	r3, r0
   1d0e8:	6011      	str	r1, [r2, #0]
   1d0ea:	d1dd      	bne.n	1d0a8 <_free_r+0x24>
   1d0ec:	6818      	ldr	r0, [r3, #0]
   1d0ee:	685b      	ldr	r3, [r3, #4]
   1d0f0:	6053      	str	r3, [r2, #4]
   1d0f2:	4401      	add	r1, r0
   1d0f4:	6011      	str	r1, [r2, #0]
   1d0f6:	e7d7      	b.n	1d0a8 <_free_r+0x24>
   1d0f8:	d902      	bls.n	1d100 <_free_r+0x7c>
   1d0fa:	230c      	movs	r3, #12
   1d0fc:	602b      	str	r3, [r5, #0]
   1d0fe:	e7d3      	b.n	1d0a8 <_free_r+0x24>
   1d100:	6820      	ldr	r0, [r4, #0]
   1d102:	1821      	adds	r1, r4, r0
   1d104:	428b      	cmp	r3, r1
   1d106:	bf04      	itt	eq
   1d108:	6819      	ldreq	r1, [r3, #0]
   1d10a:	685b      	ldreq	r3, [r3, #4]
   1d10c:	6063      	str	r3, [r4, #4]
   1d10e:	bf04      	itt	eq
   1d110:	1809      	addeq	r1, r1, r0
   1d112:	6021      	streq	r1, [r4, #0]
   1d114:	6054      	str	r4, [r2, #4]
   1d116:	e7c7      	b.n	1d0a8 <_free_r+0x24>
   1d118:	bd38      	pop	{r3, r4, r5, pc}
   1d11a:	bf00      	nop
   1d11c:	20001cec 	.word	0x20001cec

0001d120 <_malloc_r>:
   1d120:	b5f8      	push	{r3, r4, r5, r6, r7, lr}
   1d122:	1ccd      	adds	r5, r1, #3
   1d124:	f025 0503 	bic.w	r5, r5, #3
   1d128:	3508      	adds	r5, #8
   1d12a:	2d0c      	cmp	r5, #12
   1d12c:	bf38      	it	cc
   1d12e:	250c      	movcc	r5, #12
   1d130:	2d00      	cmp	r5, #0
   1d132:	4606      	mov	r6, r0
   1d134:	db01      	blt.n	1d13a <_malloc_r+0x1a>
   1d136:	42a9      	cmp	r1, r5
   1d138:	d903      	bls.n	1d142 <_malloc_r+0x22>
   1d13a:	230c      	movs	r3, #12
   1d13c:	6033      	str	r3, [r6, #0]
   1d13e:	2000      	movs	r0, #0
   1d140:	bdf8      	pop	{r3, r4, r5, r6, r7, pc}
   1d142:	f000 f87d 	bl	1d240 <__malloc_lock>
   1d146:	4921      	ldr	r1, [pc, #132]	; (1d1cc <_malloc_r+0xac>)
   1d148:	680a      	ldr	r2, [r1, #0]
   1d14a:	4614      	mov	r4, r2
   1d14c:	b99c      	cbnz	r4, 1d176 <_malloc_r+0x56>
   1d14e:	4f20      	ldr	r7, [pc, #128]	; (1d1d0 <_malloc_r+0xb0>)
   1d150:	683b      	ldr	r3, [r7, #0]
   1d152:	b923      	cbnz	r3, 1d15e <_malloc_r+0x3e>
   1d154:	4621      	mov	r1, r4
   1d156:	4630      	mov	r0, r6
   1d158:	f000 f862 	bl	1d220 <_sbrk_r>
   1d15c:	6038      	str	r0, [r7, #0]
   1d15e:	4629      	mov	r1, r5
   1d160:	4630      	mov	r0, r6
   1d162:	f000 f85d 	bl	1d220 <_sbrk_r>
   1d166:	1c43      	adds	r3, r0, #1
   1d168:	d123      	bne.n	1d1b2 <_malloc_r+0x92>
   1d16a:	230c      	movs	r3, #12
   1d16c:	6033      	str	r3, [r6, #0]
   1d16e:	4630      	mov	r0, r6
   1d170:	f000 f86c 	bl	1d24c <__malloc_unlock>
   1d174:	e7e3      	b.n	1d13e <_malloc_r+0x1e>
   1d176:	6823      	ldr	r3, [r4, #0]
   1d178:	1b5b      	subs	r3, r3, r5
   1d17a:	d417      	bmi.n	1d1ac <_malloc_r+0x8c>
   1d17c:	2b0b      	cmp	r3, #11
   1d17e:	d903      	bls.n	1d188 <_malloc_r+0x68>
   1d180:	6023      	str	r3, [r4, #0]
   1d182:	441c      	add	r4, r3
   1d184:	6025      	str	r5, [r4, #0]
   1d186:	e004      	b.n	1d192 <_malloc_r+0x72>
   1d188:	6863      	ldr	r3, [r4, #4]
   1d18a:	42a2      	cmp	r2, r4
   1d18c:	bf0c      	ite	eq
   1d18e:	600b      	streq	r3, [r1, #0]
   1d190:	6053      	strne	r3, [r2, #4]
   1d192:	4630      	mov	r0, r6
   1d194:	f000 f85a 	bl	1d24c <__malloc_unlock>
   1d198:	f104 000b 	add.w	r0, r4, #11
   1d19c:	1d23      	adds	r3, r4, #4
   1d19e:	f020 0007 	bic.w	r0, r0, #7
   1d1a2:	1ac2      	subs	r2, r0, r3
   1d1a4:	d0cc      	beq.n	1d140 <_malloc_r+0x20>
   1d1a6:	1a1b      	subs	r3, r3, r0
   1d1a8:	50a3      	str	r3, [r4, r2]
   1d1aa:	e7c9      	b.n	1d140 <_malloc_r+0x20>
   1d1ac:	4622      	mov	r2, r4
   1d1ae:	6864      	ldr	r4, [r4, #4]
   1d1b0:	e7cc      	b.n	1d14c <_malloc_r+0x2c>
   1d1b2:	1cc4      	adds	r4, r0, #3
   1d1b4:	f024 0403 	bic.w	r4, r4, #3
   1d1b8:	42a0      	cmp	r0, r4
   1d1ba:	d0e3      	beq.n	1d184 <_malloc_r+0x64>
   1d1bc:	1a21      	subs	r1, r4, r0
   1d1be:	4630      	mov	r0, r6
   1d1c0:	f000 f82e 	bl	1d220 <_sbrk_r>
   1d1c4:	3001      	adds	r0, #1
   1d1c6:	d1dd      	bne.n	1d184 <_malloc_r+0x64>
   1d1c8:	e7cf      	b.n	1d16a <_malloc_r+0x4a>
   1d1ca:	bf00      	nop
   1d1cc:	20001cec 	.word	0x20001cec
   1d1d0:	20001cf0 	.word	0x20001cf0

0001d1d4 <_realloc_r>:
   1d1d4:	b5f8      	push	{r3, r4, r5, r6, r7, lr}
   1d1d6:	4607      	mov	r7, r0
   1d1d8:	4614      	mov	r4, r2
   1d1da:	460e      	mov	r6, r1
   1d1dc:	b921      	cbnz	r1, 1d1e8 <_realloc_r+0x14>
   1d1de:	e8bd 40f8 	ldmia.w	sp!, {r3, r4, r5, r6, r7, lr}
   1d1e2:	4611      	mov	r1, r2
   1d1e4:	f7ff bf9c 	b.w	1d120 <_malloc_r>
   1d1e8:	b922      	cbnz	r2, 1d1f4 <_realloc_r+0x20>
   1d1ea:	f7ff ff4b 	bl	1d084 <_free_r>
   1d1ee:	4625      	mov	r5, r4
   1d1f0:	4628      	mov	r0, r5
   1d1f2:	bdf8      	pop	{r3, r4, r5, r6, r7, pc}
   1d1f4:	f000 f830 	bl	1d258 <_malloc_usable_size_r>
   1d1f8:	42a0      	cmp	r0, r4
   1d1fa:	d20f      	bcs.n	1d21c <_realloc_r+0x48>
   1d1fc:	4621      	mov	r1, r4
   1d1fe:	4638      	mov	r0, r7
   1d200:	f7ff ff8e 	bl	1d120 <_malloc_r>
   1d204:	4605      	mov	r5, r0
   1d206:	2800      	cmp	r0, #0
   1d208:	d0f2      	beq.n	1d1f0 <_realloc_r+0x1c>
   1d20a:	4631      	mov	r1, r6
   1d20c:	4622      	mov	r2, r4
   1d20e:	f7ff fb7f 	bl	1c910 <memcpy>
   1d212:	4631      	mov	r1, r6
   1d214:	4638      	mov	r0, r7
   1d216:	f7ff ff35 	bl	1d084 <_free_r>
   1d21a:	e7e9      	b.n	1d1f0 <_realloc_r+0x1c>
   1d21c:	4635      	mov	r5, r6
   1d21e:	e7e7      	b.n	1d1f0 <_realloc_r+0x1c>

0001d220 <_sbrk_r>:
   1d220:	b538      	push	{r3, r4, r5, lr}
   1d222:	4d06      	ldr	r5, [pc, #24]	; (1d23c <_sbrk_r+0x1c>)
   1d224:	2300      	movs	r3, #0
   1d226:	4604      	mov	r4, r0
   1d228:	4608      	mov	r0, r1
   1d22a:	602b      	str	r3, [r5, #0]
   1d22c:	f000 f81e 	bl	1d26c <_sbrk>
   1d230:	1c43      	adds	r3, r0, #1
   1d232:	d102      	bne.n	1d23a <_sbrk_r+0x1a>
   1d234:	682b      	ldr	r3, [r5, #0]
   1d236:	b103      	cbz	r3, 1d23a <_sbrk_r+0x1a>
   1d238:	6023      	str	r3, [r4, #0]
   1d23a:	bd38      	pop	{r3, r4, r5, pc}
   1d23c:	20001d7c 	.word	0x20001d7c

0001d240 <__malloc_lock>:
   1d240:	4801      	ldr	r0, [pc, #4]	; (1d248 <__malloc_lock+0x8>)
   1d242:	f000 b811 	b.w	1d268 <__retarget_lock_acquire_recursive>
   1d246:	bf00      	nop
   1d248:	20001d84 	.word	0x20001d84

0001d24c <__malloc_unlock>:
   1d24c:	4801      	ldr	r0, [pc, #4]	; (1d254 <__malloc_unlock+0x8>)
   1d24e:	f000 b80c 	b.w	1d26a <__retarget_lock_release_recursive>
   1d252:	bf00      	nop
   1d254:	20001d84 	.word	0x20001d84

0001d258 <_malloc_usable_size_r>:
   1d258:	f851 3c04 	ldr.w	r3, [r1, #-4]
   1d25c:	1f18      	subs	r0, r3, #4
   1d25e:	2b00      	cmp	r3, #0
   1d260:	bfbc      	itt	lt
   1d262:	580b      	ldrlt	r3, [r1, r0]
   1d264:	18c0      	addlt	r0, r0, r3
   1d266:	4770      	bx	lr

0001d268 <__retarget_lock_acquire_recursive>:
   1d268:	4770      	bx	lr

0001d26a <__retarget_lock_release_recursive>:
   1d26a:	4770      	bx	lr

0001d26c <_sbrk>:
   1d26c:	4a04      	ldr	r2, [pc, #16]	; (1d280 <_sbrk+0x14>)
   1d26e:	4905      	ldr	r1, [pc, #20]	; (1d284 <_sbrk+0x18>)
   1d270:	6813      	ldr	r3, [r2, #0]
   1d272:	2b00      	cmp	r3, #0
   1d274:	bf08      	it	eq
   1d276:	460b      	moveq	r3, r1
   1d278:	4418      	add	r0, r3
   1d27a:	6010      	str	r0, [r2, #0]
   1d27c:	4618      	mov	r0, r3
   1d27e:	4770      	bx	lr
   1d280:	20001cf4 	.word	0x20001cf4
   1d284:	20001d90 	.word	0x20001d90

0001d288 <_exit>:
   1d288:	e7fe      	b.n	1d288 <_exit>
   1d28a:	bf00      	nop
   1d28c:	0000      	movs	r0, r0
	...

0001d290 <ceil>:
   1d290:	b5f8      	push	{r3, r4, r5, r6, r7, lr}
   1d292:	f3c1 570a 	ubfx	r7, r1, #20, #11
   1d296:	f2a7 35ff 	subw	r5, r7, #1023	; 0x3ff
   1d29a:	2d13      	cmp	r5, #19
   1d29c:	460b      	mov	r3, r1
   1d29e:	460c      	mov	r4, r1
   1d2a0:	4602      	mov	r2, r0
   1d2a2:	4606      	mov	r6, r0
   1d2a4:	dc32      	bgt.n	1d30c <ceil+0x7c>
   1d2a6:	2d00      	cmp	r5, #0
   1d2a8:	db1e      	blt.n	1d2e8 <ceil+0x58>
   1d2aa:	4f35      	ldr	r7, [pc, #212]	; (1d380 <ceil+0xf0>)
   1d2ac:	412f      	asrs	r7, r5
   1d2ae:	ea01 0c07 	and.w	ip, r1, r7
   1d2b2:	ea5c 0c00 	orrs.w	ip, ip, r0
   1d2b6:	d014      	beq.n	1d2e2 <ceil+0x52>
   1d2b8:	a32f      	add	r3, pc, #188	; (adr r3, 1d378 <ceil+0xe8>)
   1d2ba:	e9d3 2300 	ldrd	r2, r3, [r3]
   1d2be:	f000 f993 	bl	1d5e8 <__adddf3>
   1d2c2:	2200      	movs	r2, #0
   1d2c4:	2300      	movs	r3, #0
   1d2c6:	f000 fbc3 	bl	1da50 <__aeabi_dcmpgt>
   1d2ca:	b140      	cbz	r0, 1d2de <ceil+0x4e>
   1d2cc:	2c00      	cmp	r4, #0
   1d2ce:	dd03      	ble.n	1d2d8 <ceil+0x48>
   1d2d0:	f44f 1380 	mov.w	r3, #1048576	; 0x100000
   1d2d4:	412b      	asrs	r3, r5
   1d2d6:	441c      	add	r4, r3
   1d2d8:	ea24 0407 	bic.w	r4, r4, r7
   1d2dc:	2600      	movs	r6, #0
   1d2de:	4632      	mov	r2, r6
   1d2e0:	4623      	mov	r3, r4
   1d2e2:	4610      	mov	r0, r2
   1d2e4:	4619      	mov	r1, r3
   1d2e6:	bdf8      	pop	{r3, r4, r5, r6, r7, pc}
   1d2e8:	a323      	add	r3, pc, #140	; (adr r3, 1d378 <ceil+0xe8>)
   1d2ea:	e9d3 2300 	ldrd	r2, r3, [r3]
   1d2ee:	f000 f97b 	bl	1d5e8 <__adddf3>
   1d2f2:	2200      	movs	r2, #0
   1d2f4:	2300      	movs	r3, #0
   1d2f6:	f000 fbab 	bl	1da50 <__aeabi_dcmpgt>
   1d2fa:	2800      	cmp	r0, #0
   1d2fc:	d0ef      	beq.n	1d2de <ceil+0x4e>
   1d2fe:	2c00      	cmp	r4, #0
   1d300:	db34      	blt.n	1d36c <ceil+0xdc>
   1d302:	4326      	orrs	r6, r4
   1d304:	d02e      	beq.n	1d364 <ceil+0xd4>
   1d306:	4c1f      	ldr	r4, [pc, #124]	; (1d384 <ceil+0xf4>)
   1d308:	2600      	movs	r6, #0
   1d30a:	e7e8      	b.n	1d2de <ceil+0x4e>
   1d30c:	2d33      	cmp	r5, #51	; 0x33
   1d30e:	dd07      	ble.n	1d320 <ceil+0x90>
   1d310:	f5b5 6f80 	cmp.w	r5, #1024	; 0x400
   1d314:	d1e5      	bne.n	1d2e2 <ceil+0x52>
   1d316:	f000 f967 	bl	1d5e8 <__adddf3>
   1d31a:	4602      	mov	r2, r0
   1d31c:	460b      	mov	r3, r1
   1d31e:	e7e0      	b.n	1d2e2 <ceil+0x52>
   1d320:	f2a7 4713 	subw	r7, r7, #1043	; 0x413
   1d324:	f04f 3cff 	mov.w	ip, #4294967295	; 0xffffffff
   1d328:	fa2c f707 	lsr.w	r7, ip, r7
   1d32c:	4207      	tst	r7, r0
   1d32e:	d0d8      	beq.n	1d2e2 <ceil+0x52>
   1d330:	a311      	add	r3, pc, #68	; (adr r3, 1d378 <ceil+0xe8>)
   1d332:	e9d3 2300 	ldrd	r2, r3, [r3]
   1d336:	f000 f957 	bl	1d5e8 <__adddf3>
   1d33a:	2200      	movs	r2, #0
   1d33c:	2300      	movs	r3, #0
   1d33e:	f000 fb87 	bl	1da50 <__aeabi_dcmpgt>
   1d342:	2800      	cmp	r0, #0
   1d344:	d0cb      	beq.n	1d2de <ceil+0x4e>
   1d346:	2c00      	cmp	r4, #0
   1d348:	dd09      	ble.n	1d35e <ceil+0xce>
   1d34a:	2d14      	cmp	r5, #20
   1d34c:	d00c      	beq.n	1d368 <ceil+0xd8>
   1d34e:	2201      	movs	r2, #1
   1d350:	f1c5 0334 	rsb	r3, r5, #52	; 0x34
   1d354:	fa02 f303 	lsl.w	r3, r2, r3
   1d358:	199e      	adds	r6, r3, r6
   1d35a:	bf28      	it	cs
   1d35c:	18a4      	addcs	r4, r4, r2
   1d35e:	ea26 0607 	bic.w	r6, r6, r7
   1d362:	e7bc      	b.n	1d2de <ceil+0x4e>
   1d364:	4634      	mov	r4, r6
   1d366:	e7ba      	b.n	1d2de <ceil+0x4e>
   1d368:	3401      	adds	r4, #1
   1d36a:	e7f8      	b.n	1d35e <ceil+0xce>
   1d36c:	2600      	movs	r6, #0
   1d36e:	f04f 4400 	mov.w	r4, #2147483648	; 0x80000000
   1d372:	e7b4      	b.n	1d2de <ceil+0x4e>
   1d374:	f3af 8000 	nop.w
   1d378:	8800759c 	.word	0x8800759c
   1d37c:	7e37e43c 	.word	0x7e37e43c
   1d380:	000fffff 	.word	0x000fffff
   1d384:	3ff00000 	.word	0x3ff00000

0001d388 <__aeabi_dmul>:
   1d388:	b570      	push	{r4, r5, r6, lr}
   1d38a:	f04f 0cff 	mov.w	ip, #255	; 0xff
   1d38e:	f44c 6ce0 	orr.w	ip, ip, #1792	; 0x700
   1d392:	ea1c 5411 	ands.w	r4, ip, r1, lsr #20
   1d396:	bf1d      	ittte	ne
   1d398:	ea1c 5513 	andsne.w	r5, ip, r3, lsr #20
   1d39c:	ea94 0f0c 	teqne	r4, ip
   1d3a0:	ea95 0f0c 	teqne	r5, ip
   1d3a4:	f000 f8de 	bleq	1d564 <__aeabi_dmul+0x1dc>
   1d3a8:	442c      	add	r4, r5
   1d3aa:	ea81 0603 	eor.w	r6, r1, r3
   1d3ae:	ea21 514c 	bic.w	r1, r1, ip, lsl #21
   1d3b2:	ea23 534c 	bic.w	r3, r3, ip, lsl #21
   1d3b6:	ea50 3501 	orrs.w	r5, r0, r1, lsl #12
   1d3ba:	bf18      	it	ne
   1d3bc:	ea52 3503 	orrsne.w	r5, r2, r3, lsl #12
   1d3c0:	f441 1180 	orr.w	r1, r1, #1048576	; 0x100000
   1d3c4:	f443 1380 	orr.w	r3, r3, #1048576	; 0x100000
   1d3c8:	d038      	beq.n	1d43c <__aeabi_dmul+0xb4>
   1d3ca:	fba0 ce02 	umull	ip, lr, r0, r2
   1d3ce:	f04f 0500 	mov.w	r5, #0
   1d3d2:	fbe1 e502 	umlal	lr, r5, r1, r2
   1d3d6:	f006 4200 	and.w	r2, r6, #2147483648	; 0x80000000
   1d3da:	fbe0 e503 	umlal	lr, r5, r0, r3
   1d3de:	f04f 0600 	mov.w	r6, #0
   1d3e2:	fbe1 5603 	umlal	r5, r6, r1, r3
   1d3e6:	f09c 0f00 	teq	ip, #0
   1d3ea:	bf18      	it	ne
   1d3ec:	f04e 0e01 	orrne.w	lr, lr, #1
   1d3f0:	f1a4 04ff 	sub.w	r4, r4, #255	; 0xff
   1d3f4:	f5b6 7f00 	cmp.w	r6, #512	; 0x200
   1d3f8:	f564 7440 	sbc.w	r4, r4, #768	; 0x300
   1d3fc:	d204      	bcs.n	1d408 <__aeabi_dmul+0x80>
   1d3fe:	ea5f 0e4e 	movs.w	lr, lr, lsl #1
   1d402:	416d      	adcs	r5, r5
   1d404:	eb46 0606 	adc.w	r6, r6, r6
   1d408:	ea42 21c6 	orr.w	r1, r2, r6, lsl #11
   1d40c:	ea41 5155 	orr.w	r1, r1, r5, lsr #21
   1d410:	ea4f 20c5 	mov.w	r0, r5, lsl #11
   1d414:	ea40 505e 	orr.w	r0, r0, lr, lsr #21
   1d418:	ea4f 2ece 	mov.w	lr, lr, lsl #11
   1d41c:	f1b4 0cfd 	subs.w	ip, r4, #253	; 0xfd
   1d420:	bf88      	it	hi
   1d422:	f5bc 6fe0 	cmphi.w	ip, #1792	; 0x700
   1d426:	d81e      	bhi.n	1d466 <__aeabi_dmul+0xde>
   1d428:	f1be 4f00 	cmp.w	lr, #2147483648	; 0x80000000
   1d42c:	bf08      	it	eq
   1d42e:	ea5f 0e50 	movseq.w	lr, r0, lsr #1
   1d432:	f150 0000 	adcs.w	r0, r0, #0
   1d436:	eb41 5104 	adc.w	r1, r1, r4, lsl #20
   1d43a:	bd70      	pop	{r4, r5, r6, pc}
   1d43c:	f006 4600 	and.w	r6, r6, #2147483648	; 0x80000000
   1d440:	ea46 0101 	orr.w	r1, r6, r1
   1d444:	ea40 0002 	orr.w	r0, r0, r2
   1d448:	ea81 0103 	eor.w	r1, r1, r3
   1d44c:	ebb4 045c 	subs.w	r4, r4, ip, lsr #1
   1d450:	bfc2      	ittt	gt
   1d452:	ebd4 050c 	rsbsgt	r5, r4, ip
   1d456:	ea41 5104 	orrgt.w	r1, r1, r4, lsl #20
   1d45a:	bd70      	popgt	{r4, r5, r6, pc}
   1d45c:	f441 1180 	orr.w	r1, r1, #1048576	; 0x100000
   1d460:	f04f 0e00 	mov.w	lr, #0
   1d464:	3c01      	subs	r4, #1
   1d466:	f300 80ab 	bgt.w	1d5c0 <__aeabi_dmul+0x238>
   1d46a:	f114 0f36 	cmn.w	r4, #54	; 0x36
   1d46e:	bfde      	ittt	le
   1d470:	2000      	movle	r0, #0
   1d472:	f001 4100 	andle.w	r1, r1, #2147483648	; 0x80000000
   1d476:	bd70      	pople	{r4, r5, r6, pc}
   1d478:	f1c4 0400 	rsb	r4, r4, #0
   1d47c:	3c20      	subs	r4, #32
   1d47e:	da35      	bge.n	1d4ec <__aeabi_dmul+0x164>
   1d480:	340c      	adds	r4, #12
   1d482:	dc1b      	bgt.n	1d4bc <__aeabi_dmul+0x134>
   1d484:	f104 0414 	add.w	r4, r4, #20
   1d488:	f1c4 0520 	rsb	r5, r4, #32
   1d48c:	fa00 f305 	lsl.w	r3, r0, r5
   1d490:	fa20 f004 	lsr.w	r0, r0, r4
   1d494:	fa01 f205 	lsl.w	r2, r1, r5
   1d498:	ea40 0002 	orr.w	r0, r0, r2
   1d49c:	f001 4200 	and.w	r2, r1, #2147483648	; 0x80000000
   1d4a0:	f021 4100 	bic.w	r1, r1, #2147483648	; 0x80000000
   1d4a4:	eb10 70d3 	adds.w	r0, r0, r3, lsr #31
   1d4a8:	fa21 f604 	lsr.w	r6, r1, r4
   1d4ac:	eb42 0106 	adc.w	r1, r2, r6
   1d4b0:	ea5e 0e43 	orrs.w	lr, lr, r3, lsl #1
   1d4b4:	bf08      	it	eq
   1d4b6:	ea20 70d3 	biceq.w	r0, r0, r3, lsr #31
   1d4ba:	bd70      	pop	{r4, r5, r6, pc}
   1d4bc:	f1c4 040c 	rsb	r4, r4, #12
   1d4c0:	f1c4 0520 	rsb	r5, r4, #32
   1d4c4:	fa00 f304 	lsl.w	r3, r0, r4
   1d4c8:	fa20 f005 	lsr.w	r0, r0, r5
   1d4cc:	fa01 f204 	lsl.w	r2, r1, r4
   1d4d0:	ea40 0002 	orr.w	r0, r0, r2
   1d4d4:	f001 4100 	and.w	r1, r1, #2147483648	; 0x80000000
   1d4d8:	eb10 70d3 	adds.w	r0, r0, r3, lsr #31
   1d4dc:	f141 0100 	adc.w	r1, r1, #0
   1d4e0:	ea5e 0e43 	orrs.w	lr, lr, r3, lsl #1
   1d4e4:	bf08      	it	eq
   1d4e6:	ea20 70d3 	biceq.w	r0, r0, r3, lsr #31
   1d4ea:	bd70      	pop	{r4, r5, r6, pc}
   1d4ec:	f1c4 0520 	rsb	r5, r4, #32
   1d4f0:	fa00 f205 	lsl.w	r2, r0, r5
   1d4f4:	ea4e 0e02 	orr.w	lr, lr, r2
   1d4f8:	fa20 f304 	lsr.w	r3, r0, r4
   1d4fc:	fa01 f205 	lsl.w	r2, r1, r5
   1d500:	ea43 0302 	orr.w	r3, r3, r2
   1d504:	fa21 f004 	lsr.w	r0, r1, r4
   1d508:	f001 4100 	and.w	r1, r1, #2147483648	; 0x80000000
   1d50c:	fa21 f204 	lsr.w	r2, r1, r4
   1d510:	ea20 0002 	bic.w	r0, r0, r2
   1d514:	eb00 70d3 	add.w	r0, r0, r3, lsr #31
   1d518:	ea5e 0e43 	orrs.w	lr, lr, r3, lsl #1
   1d51c:	bf08      	it	eq
   1d51e:	ea20 70d3 	biceq.w	r0, r0, r3, lsr #31
   1d522:	bd70      	pop	{r4, r5, r6, pc}
   1d524:	f094 0f00 	teq	r4, #0
   1d528:	d10f      	bne.n	1d54a <__aeabi_dmul+0x1c2>
   1d52a:	f001 4600 	and.w	r6, r1, #2147483648	; 0x80000000
   1d52e:	0040      	lsls	r0, r0, #1
   1d530:	eb41 0101 	adc.w	r1, r1, r1
   1d534:	f411 1f80 	tst.w	r1, #1048576	; 0x100000
   1d538:	bf08      	it	eq
   1d53a:	3c01      	subeq	r4, #1
   1d53c:	d0f7      	beq.n	1d52e <__aeabi_dmul+0x1a6>
   1d53e:	ea41 0106 	orr.w	r1, r1, r6
   1d542:	f095 0f00 	teq	r5, #0
   1d546:	bf18      	it	ne
   1d548:	4770      	bxne	lr
   1d54a:	f003 4600 	and.w	r6, r3, #2147483648	; 0x80000000
   1d54e:	0052      	lsls	r2, r2, #1
   1d550:	eb43 0303 	adc.w	r3, r3, r3
   1d554:	f413 1f80 	tst.w	r3, #1048576	; 0x100000
   1d558:	bf08      	it	eq
   1d55a:	3d01      	subeq	r5, #1
   1d55c:	d0f7      	beq.n	1d54e <__aeabi_dmul+0x1c6>
   1d55e:	ea43 0306 	orr.w	r3, r3, r6
   1d562:	4770      	bx	lr
   1d564:	ea94 0f0c 	teq	r4, ip
   1d568:	ea0c 5513 	and.w	r5, ip, r3, lsr #20
   1d56c:	bf18      	it	ne
   1d56e:	ea95 0f0c 	teqne	r5, ip
   1d572:	d00c      	beq.n	1d58e <__aeabi_dmul+0x206>
   1d574:	ea50 0641 	orrs.w	r6, r0, r1, lsl #1
   1d578:	bf18      	it	ne
   1d57a:	ea52 0643 	orrsne.w	r6, r2, r3, lsl #1
   1d57e:	d1d1      	bne.n	1d524 <__aeabi_dmul+0x19c>
   1d580:	ea81 0103 	eor.w	r1, r1, r3
   1d584:	f001 4100 	and.w	r1, r1, #2147483648	; 0x80000000
   1d588:	f04f 0000 	mov.w	r0, #0
   1d58c:	bd70      	pop	{r4, r5, r6, pc}
   1d58e:	ea50 0641 	orrs.w	r6, r0, r1, lsl #1
   1d592:	bf06      	itte	eq
   1d594:	4610      	moveq	r0, r2
   1d596:	4619      	moveq	r1, r3
   1d598:	ea52 0643 	orrsne.w	r6, r2, r3, lsl #1
   1d59c:	d019      	beq.n	1d5d2 <__aeabi_dmul+0x24a>
   1d59e:	ea94 0f0c 	teq	r4, ip
   1d5a2:	d102      	bne.n	1d5aa <__aeabi_dmul+0x222>
   1d5a4:	ea50 3601 	orrs.w	r6, r0, r1, lsl #12
   1d5a8:	d113      	bne.n	1d5d2 <__aeabi_dmul+0x24a>
   1d5aa:	ea95 0f0c 	teq	r5, ip
   1d5ae:	d105      	bne.n	1d5bc <__aeabi_dmul+0x234>
   1d5b0:	ea52 3603 	orrs.w	r6, r2, r3, lsl #12
   1d5b4:	bf1c      	itt	ne
   1d5b6:	4610      	movne	r0, r2
   1d5b8:	4619      	movne	r1, r3
   1d5ba:	d10a      	bne.n	1d5d2 <__aeabi_dmul+0x24a>
   1d5bc:	ea81 0103 	eor.w	r1, r1, r3
   1d5c0:	f001 4100 	and.w	r1, r1, #2147483648	; 0x80000000
   1d5c4:	f041 41fe 	orr.w	r1, r1, #2130706432	; 0x7f000000
   1d5c8:	f441 0170 	orr.w	r1, r1, #15728640	; 0xf00000
   1d5cc:	f04f 0000 	mov.w	r0, #0
   1d5d0:	bd70      	pop	{r4, r5, r6, pc}
   1d5d2:	f041 41fe 	orr.w	r1, r1, #2130706432	; 0x7f000000
   1d5d6:	f441 0178 	orr.w	r1, r1, #16252928	; 0xf80000
   1d5da:	bd70      	pop	{r4, r5, r6, pc}

0001d5dc <__aeabi_drsub>:
   1d5dc:	f081 4100 	eor.w	r1, r1, #2147483648	; 0x80000000
   1d5e0:	e002      	b.n	1d5e8 <__adddf3>
   1d5e2:	bf00      	nop

0001d5e4 <__aeabi_dsub>:
   1d5e4:	f083 4300 	eor.w	r3, r3, #2147483648	; 0x80000000

0001d5e8 <__adddf3>:
   1d5e8:	b530      	push	{r4, r5, lr}
   1d5ea:	ea4f 0441 	mov.w	r4, r1, lsl #1
   1d5ee:	ea4f 0543 	mov.w	r5, r3, lsl #1
   1d5f2:	ea94 0f05 	teq	r4, r5
   1d5f6:	bf08      	it	eq
   1d5f8:	ea90 0f02 	teqeq	r0, r2
   1d5fc:	bf1f      	itttt	ne
   1d5fe:	ea54 0c00 	orrsne.w	ip, r4, r0
   1d602:	ea55 0c02 	orrsne.w	ip, r5, r2
   1d606:	ea7f 5c64 	mvnsne.w	ip, r4, asr #21
   1d60a:	ea7f 5c65 	mvnsne.w	ip, r5, asr #21
   1d60e:	f000 80e2 	beq.w	1d7d6 <__adddf3+0x1ee>
   1d612:	ea4f 5454 	mov.w	r4, r4, lsr #21
   1d616:	ebd4 5555 	rsbs	r5, r4, r5, lsr #21
   1d61a:	bfb8      	it	lt
   1d61c:	426d      	neglt	r5, r5
   1d61e:	dd0c      	ble.n	1d63a <__adddf3+0x52>
   1d620:	442c      	add	r4, r5
   1d622:	ea80 0202 	eor.w	r2, r0, r2
   1d626:	ea81 0303 	eor.w	r3, r1, r3
   1d62a:	ea82 0000 	eor.w	r0, r2, r0
   1d62e:	ea83 0101 	eor.w	r1, r3, r1
   1d632:	ea80 0202 	eor.w	r2, r0, r2
   1d636:	ea81 0303 	eor.w	r3, r1, r3
   1d63a:	2d36      	cmp	r5, #54	; 0x36
   1d63c:	bf88      	it	hi
   1d63e:	bd30      	pophi	{r4, r5, pc}
   1d640:	f011 4f00 	tst.w	r1, #2147483648	; 0x80000000
   1d644:	ea4f 3101 	mov.w	r1, r1, lsl #12
   1d648:	f44f 1c80 	mov.w	ip, #1048576	; 0x100000
   1d64c:	ea4c 3111 	orr.w	r1, ip, r1, lsr #12
   1d650:	d002      	beq.n	1d658 <__adddf3+0x70>
   1d652:	4240      	negs	r0, r0
   1d654:	eb61 0141 	sbc.w	r1, r1, r1, lsl #1
   1d658:	f013 4f00 	tst.w	r3, #2147483648	; 0x80000000
   1d65c:	ea4f 3303 	mov.w	r3, r3, lsl #12
   1d660:	ea4c 3313 	orr.w	r3, ip, r3, lsr #12
   1d664:	d002      	beq.n	1d66c <__adddf3+0x84>
   1d666:	4252      	negs	r2, r2
   1d668:	eb63 0343 	sbc.w	r3, r3, r3, lsl #1
   1d66c:	ea94 0f05 	teq	r4, r5
   1d670:	f000 80a7 	beq.w	1d7c2 <__adddf3+0x1da>
   1d674:	f1a4 0401 	sub.w	r4, r4, #1
   1d678:	f1d5 0e20 	rsbs	lr, r5, #32
   1d67c:	db0d      	blt.n	1d69a <__adddf3+0xb2>
   1d67e:	fa02 fc0e 	lsl.w	ip, r2, lr
   1d682:	fa22 f205 	lsr.w	r2, r2, r5
   1d686:	1880      	adds	r0, r0, r2
   1d688:	f141 0100 	adc.w	r1, r1, #0
   1d68c:	fa03 f20e 	lsl.w	r2, r3, lr
   1d690:	1880      	adds	r0, r0, r2
   1d692:	fa43 f305 	asr.w	r3, r3, r5
   1d696:	4159      	adcs	r1, r3
   1d698:	e00e      	b.n	1d6b8 <__adddf3+0xd0>
   1d69a:	f1a5 0520 	sub.w	r5, r5, #32
   1d69e:	f10e 0e20 	add.w	lr, lr, #32
   1d6a2:	2a01      	cmp	r2, #1
   1d6a4:	fa03 fc0e 	lsl.w	ip, r3, lr
   1d6a8:	bf28      	it	cs
   1d6aa:	f04c 0c02 	orrcs.w	ip, ip, #2
   1d6ae:	fa43 f305 	asr.w	r3, r3, r5
   1d6b2:	18c0      	adds	r0, r0, r3
   1d6b4:	eb51 71e3 	adcs.w	r1, r1, r3, asr #31
   1d6b8:	f001 4500 	and.w	r5, r1, #2147483648	; 0x80000000
   1d6bc:	d507      	bpl.n	1d6ce <__adddf3+0xe6>
   1d6be:	f04f 0e00 	mov.w	lr, #0
   1d6c2:	f1dc 0c00 	rsbs	ip, ip, #0
   1d6c6:	eb7e 0000 	sbcs.w	r0, lr, r0
   1d6ca:	eb6e 0101 	sbc.w	r1, lr, r1
   1d6ce:	f5b1 1f80 	cmp.w	r1, #1048576	; 0x100000
   1d6d2:	d31b      	bcc.n	1d70c <__adddf3+0x124>
   1d6d4:	f5b1 1f00 	cmp.w	r1, #2097152	; 0x200000
   1d6d8:	d30c      	bcc.n	1d6f4 <__adddf3+0x10c>
   1d6da:	0849      	lsrs	r1, r1, #1
   1d6dc:	ea5f 0030 	movs.w	r0, r0, rrx
   1d6e0:	ea4f 0c3c 	mov.w	ip, ip, rrx
   1d6e4:	f104 0401 	add.w	r4, r4, #1
   1d6e8:	ea4f 5244 	mov.w	r2, r4, lsl #21
   1d6ec:	f512 0f80 	cmn.w	r2, #4194304	; 0x400000
   1d6f0:	f080 809a 	bcs.w	1d828 <__adddf3+0x240>
   1d6f4:	f1bc 4f00 	cmp.w	ip, #2147483648	; 0x80000000
   1d6f8:	bf08      	it	eq
   1d6fa:	ea5f 0c50 	movseq.w	ip, r0, lsr #1
   1d6fe:	f150 0000 	adcs.w	r0, r0, #0
   1d702:	eb41 5104 	adc.w	r1, r1, r4, lsl #20
   1d706:	ea41 0105 	orr.w	r1, r1, r5
   1d70a:	bd30      	pop	{r4, r5, pc}
   1d70c:	ea5f 0c4c 	movs.w	ip, ip, lsl #1
   1d710:	4140      	adcs	r0, r0
   1d712:	eb41 0101 	adc.w	r1, r1, r1
   1d716:	3c01      	subs	r4, #1
   1d718:	bf28      	it	cs
   1d71a:	f5b1 1f80 	cmpcs.w	r1, #1048576	; 0x100000
   1d71e:	d2e9      	bcs.n	1d6f4 <__adddf3+0x10c>
   1d720:	f091 0f00 	teq	r1, #0
   1d724:	bf04      	itt	eq
   1d726:	4601      	moveq	r1, r0
   1d728:	2000      	moveq	r0, #0
   1d72a:	fab1 f381 	clz	r3, r1
   1d72e:	bf08      	it	eq
   1d730:	3320      	addeq	r3, #32
   1d732:	f1a3 030b 	sub.w	r3, r3, #11
   1d736:	f1b3 0220 	subs.w	r2, r3, #32
   1d73a:	da0c      	bge.n	1d756 <__adddf3+0x16e>
   1d73c:	320c      	adds	r2, #12
   1d73e:	dd08      	ble.n	1d752 <__adddf3+0x16a>
   1d740:	f102 0c14 	add.w	ip, r2, #20
   1d744:	f1c2 020c 	rsb	r2, r2, #12
   1d748:	fa01 f00c 	lsl.w	r0, r1, ip
   1d74c:	fa21 f102 	lsr.w	r1, r1, r2
   1d750:	e00c      	b.n	1d76c <__adddf3+0x184>
   1d752:	f102 0214 	add.w	r2, r2, #20
   1d756:	bfd8      	it	le
   1d758:	f1c2 0c20 	rsble	ip, r2, #32
   1d75c:	fa01 f102 	lsl.w	r1, r1, r2
   1d760:	fa20 fc0c 	lsr.w	ip, r0, ip
   1d764:	bfdc      	itt	le
   1d766:	ea41 010c 	orrle.w	r1, r1, ip
   1d76a:	4090      	lslle	r0, r2
   1d76c:	1ae4      	subs	r4, r4, r3
   1d76e:	bfa2      	ittt	ge
   1d770:	eb01 5104 	addge.w	r1, r1, r4, lsl #20
   1d774:	4329      	orrge	r1, r5
   1d776:	bd30      	popge	{r4, r5, pc}
   1d778:	ea6f 0404 	mvn.w	r4, r4
   1d77c:	3c1f      	subs	r4, #31
   1d77e:	da1c      	bge.n	1d7ba <__adddf3+0x1d2>
   1d780:	340c      	adds	r4, #12
   1d782:	dc0e      	bgt.n	1d7a2 <__adddf3+0x1ba>
   1d784:	f104 0414 	add.w	r4, r4, #20
   1d788:	f1c4 0220 	rsb	r2, r4, #32
   1d78c:	fa20 f004 	lsr.w	r0, r0, r4
   1d790:	fa01 f302 	lsl.w	r3, r1, r2
   1d794:	ea40 0003 	orr.w	r0, r0, r3
   1d798:	fa21 f304 	lsr.w	r3, r1, r4
   1d79c:	ea45 0103 	orr.w	r1, r5, r3
   1d7a0:	bd30      	pop	{r4, r5, pc}
   1d7a2:	f1c4 040c 	rsb	r4, r4, #12
   1d7a6:	f1c4 0220 	rsb	r2, r4, #32
   1d7aa:	fa20 f002 	lsr.w	r0, r0, r2
   1d7ae:	fa01 f304 	lsl.w	r3, r1, r4
   1d7b2:	ea40 0003 	orr.w	r0, r0, r3
   1d7b6:	4629      	mov	r1, r5
   1d7b8:	bd30      	pop	{r4, r5, pc}
   1d7ba:	fa21 f004 	lsr.w	r0, r1, r4
   1d7be:	4629      	mov	r1, r5
   1d7c0:	bd30      	pop	{r4, r5, pc}
   1d7c2:	f094 0f00 	teq	r4, #0
   1d7c6:	f483 1380 	eor.w	r3, r3, #1048576	; 0x100000
   1d7ca:	bf06      	itte	eq
   1d7cc:	f481 1180 	eoreq.w	r1, r1, #1048576	; 0x100000
   1d7d0:	3401      	addeq	r4, #1
   1d7d2:	3d01      	subne	r5, #1
   1d7d4:	e74e      	b.n	1d674 <__adddf3+0x8c>
   1d7d6:	ea7f 5c64 	mvns.w	ip, r4, asr #21
   1d7da:	bf18      	it	ne
   1d7dc:	ea7f 5c65 	mvnsne.w	ip, r5, asr #21
   1d7e0:	d029      	beq.n	1d836 <__adddf3+0x24e>
   1d7e2:	ea94 0f05 	teq	r4, r5
   1d7e6:	bf08      	it	eq
   1d7e8:	ea90 0f02 	teqeq	r0, r2
   1d7ec:	d005      	beq.n	1d7fa <__adddf3+0x212>
   1d7ee:	ea54 0c00 	orrs.w	ip, r4, r0
   1d7f2:	bf04      	itt	eq
   1d7f4:	4619      	moveq	r1, r3
   1d7f6:	4610      	moveq	r0, r2
   1d7f8:	bd30      	pop	{r4, r5, pc}
   1d7fa:	ea91 0f03 	teq	r1, r3
   1d7fe:	bf1e      	ittt	ne
   1d800:	2100      	movne	r1, #0
   1d802:	2000      	movne	r0, #0
   1d804:	bd30      	popne	{r4, r5, pc}
   1d806:	ea5f 5c54 	movs.w	ip, r4, lsr #21
   1d80a:	d105      	bne.n	1d818 <__adddf3+0x230>
   1d80c:	0040      	lsls	r0, r0, #1
   1d80e:	4149      	adcs	r1, r1
   1d810:	bf28      	it	cs
   1d812:	f041 4100 	orrcs.w	r1, r1, #2147483648	; 0x80000000
   1d816:	bd30      	pop	{r4, r5, pc}
   1d818:	f514 0480 	adds.w	r4, r4, #4194304	; 0x400000
   1d81c:	bf3c      	itt	cc
   1d81e:	f501 1180 	addcc.w	r1, r1, #1048576	; 0x100000
   1d822:	bd30      	popcc	{r4, r5, pc}
   1d824:	f001 4500 	and.w	r5, r1, #2147483648	; 0x80000000
   1d828:	f045 41fe 	orr.w	r1, r5, #2130706432	; 0x7f000000
   1d82c:	f441 0170 	orr.w	r1, r1, #15728640	; 0xf00000
   1d830:	f04f 0000 	mov.w	r0, #0
   1d834:	bd30      	pop	{r4, r5, pc}
   1d836:	ea7f 5c64 	mvns.w	ip, r4, asr #21
   1d83a:	bf1a      	itte	ne
   1d83c:	4619      	movne	r1, r3
   1d83e:	4610      	movne	r0, r2
   1d840:	ea7f 5c65 	mvnseq.w	ip, r5, asr #21
   1d844:	bf1c      	itt	ne
   1d846:	460b      	movne	r3, r1
   1d848:	4602      	movne	r2, r0
   1d84a:	ea50 3401 	orrs.w	r4, r0, r1, lsl #12
   1d84e:	bf06      	itte	eq
   1d850:	ea52 3503 	orrseq.w	r5, r2, r3, lsl #12
   1d854:	ea91 0f03 	teqeq	r1, r3
   1d858:	f441 2100 	orrne.w	r1, r1, #524288	; 0x80000
   1d85c:	bd30      	pop	{r4, r5, pc}
   1d85e:	bf00      	nop

0001d860 <__aeabi_ui2d>:
   1d860:	f090 0f00 	teq	r0, #0
   1d864:	bf04      	itt	eq
   1d866:	2100      	moveq	r1, #0
   1d868:	4770      	bxeq	lr
   1d86a:	b530      	push	{r4, r5, lr}
   1d86c:	f44f 6480 	mov.w	r4, #1024	; 0x400
   1d870:	f104 0432 	add.w	r4, r4, #50	; 0x32
   1d874:	f04f 0500 	mov.w	r5, #0
   1d878:	f04f 0100 	mov.w	r1, #0
   1d87c:	e750      	b.n	1d720 <__adddf3+0x138>
   1d87e:	bf00      	nop

0001d880 <__aeabi_i2d>:
   1d880:	f090 0f00 	teq	r0, #0
   1d884:	bf04      	itt	eq
   1d886:	2100      	moveq	r1, #0
   1d888:	4770      	bxeq	lr
   1d88a:	b530      	push	{r4, r5, lr}
   1d88c:	f44f 6480 	mov.w	r4, #1024	; 0x400
   1d890:	f104 0432 	add.w	r4, r4, #50	; 0x32
   1d894:	f010 4500 	ands.w	r5, r0, #2147483648	; 0x80000000
   1d898:	bf48      	it	mi
   1d89a:	4240      	negmi	r0, r0
   1d89c:	f04f 0100 	mov.w	r1, #0
   1d8a0:	e73e      	b.n	1d720 <__adddf3+0x138>
   1d8a2:	bf00      	nop

0001d8a4 <__aeabi_f2d>:
   1d8a4:	0042      	lsls	r2, r0, #1
   1d8a6:	ea4f 01e2 	mov.w	r1, r2, asr #3
   1d8aa:	ea4f 0131 	mov.w	r1, r1, rrx
   1d8ae:	ea4f 7002 	mov.w	r0, r2, lsl #28
   1d8b2:	bf1f      	itttt	ne
   1d8b4:	f012 437f 	andsne.w	r3, r2, #4278190080	; 0xff000000
   1d8b8:	f093 4f7f 	teqne	r3, #4278190080	; 0xff000000
   1d8bc:	f081 5160 	eorne.w	r1, r1, #939524096	; 0x38000000
   1d8c0:	4770      	bxne	lr
   1d8c2:	f032 427f 	bics.w	r2, r2, #4278190080	; 0xff000000
   1d8c6:	bf08      	it	eq
   1d8c8:	4770      	bxeq	lr
   1d8ca:	f093 4f7f 	teq	r3, #4278190080	; 0xff000000
   1d8ce:	bf04      	itt	eq
   1d8d0:	f441 2100 	orreq.w	r1, r1, #524288	; 0x80000
   1d8d4:	4770      	bxeq	lr
   1d8d6:	b530      	push	{r4, r5, lr}
   1d8d8:	f44f 7460 	mov.w	r4, #896	; 0x380
   1d8dc:	f001 4500 	and.w	r5, r1, #2147483648	; 0x80000000
   1d8e0:	f021 4100 	bic.w	r1, r1, #2147483648	; 0x80000000
   1d8e4:	e71c      	b.n	1d720 <__adddf3+0x138>
   1d8e6:	bf00      	nop

0001d8e8 <__aeabi_ul2d>:
   1d8e8:	ea50 0201 	orrs.w	r2, r0, r1
   1d8ec:	bf08      	it	eq
   1d8ee:	4770      	bxeq	lr
   1d8f0:	b530      	push	{r4, r5, lr}
   1d8f2:	f04f 0500 	mov.w	r5, #0
   1d8f6:	e00a      	b.n	1d90e <__aeabi_l2d+0x16>

0001d8f8 <__aeabi_l2d>:
   1d8f8:	ea50 0201 	orrs.w	r2, r0, r1
   1d8fc:	bf08      	it	eq
   1d8fe:	4770      	bxeq	lr
   1d900:	b530      	push	{r4, r5, lr}
   1d902:	f011 4500 	ands.w	r5, r1, #2147483648	; 0x80000000
   1d906:	d502      	bpl.n	1d90e <__aeabi_l2d+0x16>
   1d908:	4240      	negs	r0, r0
   1d90a:	eb61 0141 	sbc.w	r1, r1, r1, lsl #1
   1d90e:	f44f 6480 	mov.w	r4, #1024	; 0x400
   1d912:	f104 0432 	add.w	r4, r4, #50	; 0x32
   1d916:	ea5f 5c91 	movs.w	ip, r1, lsr #22
   1d91a:	f43f aed8 	beq.w	1d6ce <__adddf3+0xe6>
   1d91e:	f04f 0203 	mov.w	r2, #3
   1d922:	ea5f 0cdc 	movs.w	ip, ip, lsr #3
   1d926:	bf18      	it	ne
   1d928:	3203      	addne	r2, #3
   1d92a:	ea5f 0cdc 	movs.w	ip, ip, lsr #3
   1d92e:	bf18      	it	ne
   1d930:	3203      	addne	r2, #3
   1d932:	eb02 02dc 	add.w	r2, r2, ip, lsr #3
   1d936:	f1c2 0320 	rsb	r3, r2, #32
   1d93a:	fa00 fc03 	lsl.w	ip, r0, r3
   1d93e:	fa20 f002 	lsr.w	r0, r0, r2
   1d942:	fa01 fe03 	lsl.w	lr, r1, r3
   1d946:	ea40 000e 	orr.w	r0, r0, lr
   1d94a:	fa21 f102 	lsr.w	r1, r1, r2
   1d94e:	4414      	add	r4, r2
   1d950:	e6bd      	b.n	1d6ce <__adddf3+0xe6>
   1d952:	bf00      	nop

0001d954 <__gedf2>:
   1d954:	f04f 3cff 	mov.w	ip, #4294967295	; 0xffffffff
   1d958:	e006      	b.n	1d968 <__cmpdf2+0x4>
   1d95a:	bf00      	nop

0001d95c <__ledf2>:
   1d95c:	f04f 0c01 	mov.w	ip, #1
   1d960:	e002      	b.n	1d968 <__cmpdf2+0x4>
   1d962:	bf00      	nop

0001d964 <__cmpdf2>:
   1d964:	f04f 0c01 	mov.w	ip, #1
   1d968:	f84d cd04 	str.w	ip, [sp, #-4]!
   1d96c:	ea4f 0c41 	mov.w	ip, r1, lsl #1
   1d970:	ea7f 5c6c 	mvns.w	ip, ip, asr #21
   1d974:	ea4f 0c43 	mov.w	ip, r3, lsl #1
   1d978:	bf18      	it	ne
   1d97a:	ea7f 5c6c 	mvnsne.w	ip, ip, asr #21
   1d97e:	d01b      	beq.n	1d9b8 <__cmpdf2+0x54>
   1d980:	b001      	add	sp, #4
   1d982:	ea50 0c41 	orrs.w	ip, r0, r1, lsl #1
   1d986:	bf0c      	ite	eq
   1d988:	ea52 0c43 	orrseq.w	ip, r2, r3, lsl #1
   1d98c:	ea91 0f03 	teqne	r1, r3
   1d990:	bf02      	ittt	eq
   1d992:	ea90 0f02 	teqeq	r0, r2
   1d996:	2000      	moveq	r0, #0
   1d998:	4770      	bxeq	lr
   1d99a:	f110 0f00 	cmn.w	r0, #0
   1d99e:	ea91 0f03 	teq	r1, r3
   1d9a2:	bf58      	it	pl
   1d9a4:	4299      	cmppl	r1, r3
   1d9a6:	bf08      	it	eq
   1d9a8:	4290      	cmpeq	r0, r2
   1d9aa:	bf2c      	ite	cs
   1d9ac:	17d8      	asrcs	r0, r3, #31
   1d9ae:	ea6f 70e3 	mvncc.w	r0, r3, asr #31
   1d9b2:	f040 0001 	orr.w	r0, r0, #1
   1d9b6:	4770      	bx	lr
   1d9b8:	ea4f 0c41 	mov.w	ip, r1, lsl #1
   1d9bc:	ea7f 5c6c 	mvns.w	ip, ip, asr #21
   1d9c0:	d102      	bne.n	1d9c8 <__cmpdf2+0x64>
   1d9c2:	ea50 3c01 	orrs.w	ip, r0, r1, lsl #12
   1d9c6:	d107      	bne.n	1d9d8 <__cmpdf2+0x74>
   1d9c8:	ea4f 0c43 	mov.w	ip, r3, lsl #1
   1d9cc:	ea7f 5c6c 	mvns.w	ip, ip, asr #21
   1d9d0:	d1d6      	bne.n	1d980 <__cmpdf2+0x1c>
   1d9d2:	ea52 3c03 	orrs.w	ip, r2, r3, lsl #12
   1d9d6:	d0d3      	beq.n	1d980 <__cmpdf2+0x1c>
   1d9d8:	f85d 0b04 	ldr.w	r0, [sp], #4
   1d9dc:	4770      	bx	lr
   1d9de:	bf00      	nop

0001d9e0 <__aeabi_cdrcmple>:
   1d9e0:	4684      	mov	ip, r0
   1d9e2:	4610      	mov	r0, r2
   1d9e4:	4662      	mov	r2, ip
   1d9e6:	468c      	mov	ip, r1
   1d9e8:	4619      	mov	r1, r3
   1d9ea:	4663      	mov	r3, ip
   1d9ec:	e000      	b.n	1d9f0 <__aeabi_cdcmpeq>
   1d9ee:	bf00      	nop

0001d9f0 <__aeabi_cdcmpeq>:
   1d9f0:	b501      	push	{r0, lr}
   1d9f2:	f7ff ffb7 	bl	1d964 <__cmpdf2>
   1d9f6:	2800      	cmp	r0, #0
   1d9f8:	bf48      	it	mi
   1d9fa:	f110 0f00 	cmnmi.w	r0, #0
   1d9fe:	bd01      	pop	{r0, pc}

0001da00 <__aeabi_dcmpeq>:
   1da00:	f84d ed08 	str.w	lr, [sp, #-8]!
   1da04:	f7ff fff4 	bl	1d9f0 <__aeabi_cdcmpeq>
   1da08:	bf0c      	ite	eq
   1da0a:	2001      	moveq	r0, #1
   1da0c:	2000      	movne	r0, #0
   1da0e:	f85d fb08 	ldr.w	pc, [sp], #8
   1da12:	bf00      	nop

0001da14 <__aeabi_dcmplt>:
   1da14:	f84d ed08 	str.w	lr, [sp, #-8]!
   1da18:	f7ff ffea 	bl	1d9f0 <__aeabi_cdcmpeq>
   1da1c:	bf34      	ite	cc
   1da1e:	2001      	movcc	r0, #1
   1da20:	2000      	movcs	r0, #0
   1da22:	f85d fb08 	ldr.w	pc, [sp], #8
   1da26:	bf00      	nop

0001da28 <__aeabi_dcmple>:
   1da28:	f84d ed08 	str.w	lr, [sp, #-8]!
   1da2c:	f7ff ffe0 	bl	1d9f0 <__aeabi_cdcmpeq>
   1da30:	bf94      	ite	ls
   1da32:	2001      	movls	r0, #1
   1da34:	2000      	movhi	r0, #0
   1da36:	f85d fb08 	ldr.w	pc, [sp], #8
   1da3a:	bf00      	nop

0001da3c <__aeabi_dcmpge>:
   1da3c:	f84d ed08 	str.w	lr, [sp, #-8]!
   1da40:	f7ff ffce 	bl	1d9e0 <__aeabi_cdrcmple>
   1da44:	bf94      	ite	ls
   1da46:	2001      	movls	r0, #1
   1da48:	2000      	movhi	r0, #0
   1da4a:	f85d fb08 	ldr.w	pc, [sp], #8
   1da4e:	bf00      	nop

0001da50 <__aeabi_dcmpgt>:
   1da50:	f84d ed08 	str.w	lr, [sp, #-8]!
   1da54:	f7ff ffc4 	bl	1d9e0 <__aeabi_cdrcmple>
   1da58:	bf34      	ite	cc
   1da5a:	2001      	movcc	r0, #1
   1da5c:	2000      	movcs	r0, #0
   1da5e:	f85d fb08 	ldr.w	pc, [sp], #8
   1da62:	bf00      	nop

0001da64 <__aeabi_d2uiz>:
   1da64:	004a      	lsls	r2, r1, #1
   1da66:	d211      	bcs.n	1da8c <__aeabi_d2uiz+0x28>
   1da68:	f512 1200 	adds.w	r2, r2, #2097152	; 0x200000
   1da6c:	d211      	bcs.n	1da92 <__aeabi_d2uiz+0x2e>
   1da6e:	d50d      	bpl.n	1da8c <__aeabi_d2uiz+0x28>
   1da70:	f46f 7378 	mvn.w	r3, #992	; 0x3e0
   1da74:	ebb3 5262 	subs.w	r2, r3, r2, asr #21
   1da78:	d40e      	bmi.n	1da98 <__aeabi_d2uiz+0x34>
   1da7a:	ea4f 23c1 	mov.w	r3, r1, lsl #11
   1da7e:	f043 4300 	orr.w	r3, r3, #2147483648	; 0x80000000
   1da82:	ea43 5350 	orr.w	r3, r3, r0, lsr #21
   1da86:	fa23 f002 	lsr.w	r0, r3, r2
   1da8a:	4770      	bx	lr
   1da8c:	f04f 0000 	mov.w	r0, #0
   1da90:	4770      	bx	lr
   1da92:	ea50 3001 	orrs.w	r0, r0, r1, lsl #12
   1da96:	d102      	bne.n	1da9e <__aeabi_d2uiz+0x3a>
   1da98:	f04f 30ff 	mov.w	r0, #4294967295	; 0xffffffff
   1da9c:	4770      	bx	lr
   1da9e:	f04f 0000 	mov.w	r0, #0
   1daa2:	4770      	bx	lr

0001daa4 <selfrel_offset31>:
   1daa4:	6803      	ldr	r3, [r0, #0]
   1daa6:	005a      	lsls	r2, r3, #1
   1daa8:	bf4c      	ite	mi
   1daaa:	f043 4300 	orrmi.w	r3, r3, #2147483648	; 0x80000000
   1daae:	f023 4300 	bicpl.w	r3, r3, #2147483648	; 0x80000000
   1dab2:	4418      	add	r0, r3
   1dab4:	4770      	bx	lr
   1dab6:	bf00      	nop

0001dab8 <search_EIT_table>:
   1dab8:	e92d 43f8 	stmdb	sp!, {r3, r4, r5, r6, r7, r8, r9, lr}
   1dabc:	b329      	cbz	r1, 1db0a <search_EIT_table+0x52>
   1dabe:	1e4f      	subs	r7, r1, #1
   1dac0:	4604      	mov	r4, r0
   1dac2:	4615      	mov	r5, r2
   1dac4:	463e      	mov	r6, r7
   1dac6:	f04f 0800 	mov.w	r8, #0
   1daca:	eb08 0106 	add.w	r1, r8, r6
   1dace:	eb01 71d1 	add.w	r1, r1, r1, lsr #31
   1dad2:	1049      	asrs	r1, r1, #1
   1dad4:	eb04 09c1 	add.w	r9, r4, r1, lsl #3
   1dad8:	4648      	mov	r0, r9
   1dada:	f7ff ffe3 	bl	1daa4 <selfrel_offset31>
   1dade:	4603      	mov	r3, r0
   1dae0:	00c8      	lsls	r0, r1, #3
   1dae2:	3008      	adds	r0, #8
   1dae4:	428f      	cmp	r7, r1
   1dae6:	4420      	add	r0, r4
   1dae8:	d009      	beq.n	1dafe <search_EIT_table+0x46>
   1daea:	42ab      	cmp	r3, r5
   1daec:	d809      	bhi.n	1db02 <search_EIT_table+0x4a>
   1daee:	f7ff ffd9 	bl	1daa4 <selfrel_offset31>
   1daf2:	3801      	subs	r0, #1
   1daf4:	42a8      	cmp	r0, r5
   1daf6:	d20a      	bcs.n	1db0e <search_EIT_table+0x56>
   1daf8:	f101 0801 	add.w	r8, r1, #1
   1dafc:	e7e5      	b.n	1daca <search_EIT_table+0x12>
   1dafe:	42ab      	cmp	r3, r5
   1db00:	d905      	bls.n	1db0e <search_EIT_table+0x56>
   1db02:	4588      	cmp	r8, r1
   1db04:	d001      	beq.n	1db0a <search_EIT_table+0x52>
   1db06:	1e4e      	subs	r6, r1, #1
   1db08:	e7df      	b.n	1daca <search_EIT_table+0x12>
   1db0a:	f04f 0900 	mov.w	r9, #0
   1db0e:	4648      	mov	r0, r9
   1db10:	e8bd 83f8 	ldmia.w	sp!, {r3, r4, r5, r6, r7, r8, r9, pc}

0001db14 <__gnu_unwind_get_pr_addr>:
   1db14:	2801      	cmp	r0, #1
   1db16:	d007      	beq.n	1db28 <__gnu_unwind_get_pr_addr+0x14>
   1db18:	2802      	cmp	r0, #2
   1db1a:	d007      	beq.n	1db2c <__gnu_unwind_get_pr_addr+0x18>
   1db1c:	4b04      	ldr	r3, [pc, #16]	; (1db30 <__gnu_unwind_get_pr_addr+0x1c>)
   1db1e:	2800      	cmp	r0, #0
   1db20:	bf0c      	ite	eq
   1db22:	4618      	moveq	r0, r3
   1db24:	2000      	movne	r0, #0
   1db26:	4770      	bx	lr
   1db28:	4802      	ldr	r0, [pc, #8]	; (1db34 <__gnu_unwind_get_pr_addr+0x20>)
   1db2a:	4770      	bx	lr
   1db2c:	4802      	ldr	r0, [pc, #8]	; (1db38 <__gnu_unwind_get_pr_addr+0x24>)
   1db2e:	4770      	bx	lr
   1db30:	0001e1d9 	.word	0x0001e1d9
   1db34:	0001e1dd 	.word	0x0001e1dd
   1db38:	0001e1e1 	.word	0x0001e1e1

0001db3c <get_eit_entry>:
   1db3c:	b530      	push	{r4, r5, lr}
   1db3e:	4b23      	ldr	r3, [pc, #140]	; (1dbcc <get_eit_entry+0x90>)
   1db40:	b083      	sub	sp, #12
   1db42:	4604      	mov	r4, r0
   1db44:	1e8d      	subs	r5, r1, #2
   1db46:	b33b      	cbz	r3, 1db98 <get_eit_entry+0x5c>
   1db48:	a901      	add	r1, sp, #4
   1db4a:	4628      	mov	r0, r5
   1db4c:	f3af 8000 	nop.w
   1db50:	b1e8      	cbz	r0, 1db8e <get_eit_entry+0x52>
   1db52:	9901      	ldr	r1, [sp, #4]
   1db54:	462a      	mov	r2, r5
   1db56:	f7ff ffaf 	bl	1dab8 <search_EIT_table>
   1db5a:	4601      	mov	r1, r0
   1db5c:	b1b8      	cbz	r0, 1db8e <get_eit_entry+0x52>
   1db5e:	f7ff ffa1 	bl	1daa4 <selfrel_offset31>
   1db62:	684b      	ldr	r3, [r1, #4]
   1db64:	64a0      	str	r0, [r4, #72]	; 0x48
   1db66:	2b01      	cmp	r3, #1
   1db68:	d02b      	beq.n	1dbc2 <get_eit_entry+0x86>
   1db6a:	2b00      	cmp	r3, #0
   1db6c:	f101 0004 	add.w	r0, r1, #4
   1db70:	db23      	blt.n	1dbba <get_eit_entry+0x7e>
   1db72:	f7ff ff97 	bl	1daa4 <selfrel_offset31>
   1db76:	2300      	movs	r3, #0
   1db78:	e9c4 0313 	strd	r0, r3, [r4, #76]	; 0x4c
   1db7c:	6803      	ldr	r3, [r0, #0]
   1db7e:	2b00      	cmp	r3, #0
   1db80:	db10      	blt.n	1dba4 <get_eit_entry+0x68>
   1db82:	f7ff ff8f 	bl	1daa4 <selfrel_offset31>
   1db86:	6120      	str	r0, [r4, #16]
   1db88:	2000      	movs	r0, #0
   1db8a:	b003      	add	sp, #12
   1db8c:	bd30      	pop	{r4, r5, pc}
   1db8e:	2300      	movs	r3, #0
   1db90:	2009      	movs	r0, #9
   1db92:	6123      	str	r3, [r4, #16]
   1db94:	b003      	add	sp, #12
   1db96:	bd30      	pop	{r4, r5, pc}
   1db98:	490d      	ldr	r1, [pc, #52]	; (1dbd0 <get_eit_entry+0x94>)
   1db9a:	480e      	ldr	r0, [pc, #56]	; (1dbd4 <get_eit_entry+0x98>)
   1db9c:	1a09      	subs	r1, r1, r0
   1db9e:	10c9      	asrs	r1, r1, #3
   1dba0:	9101      	str	r1, [sp, #4]
   1dba2:	e7d7      	b.n	1db54 <get_eit_entry+0x18>
   1dba4:	f3c3 6003 	ubfx	r0, r3, #24, #4
   1dba8:	f7ff ffb4 	bl	1db14 <__gnu_unwind_get_pr_addr>
   1dbac:	2800      	cmp	r0, #0
   1dbae:	6120      	str	r0, [r4, #16]
   1dbb0:	bf14      	ite	ne
   1dbb2:	2000      	movne	r0, #0
   1dbb4:	2009      	moveq	r0, #9
   1dbb6:	b003      	add	sp, #12
   1dbb8:	bd30      	pop	{r4, r5, pc}
   1dbba:	2301      	movs	r3, #1
   1dbbc:	e9c4 0313 	strd	r0, r3, [r4, #76]	; 0x4c
   1dbc0:	e7dc      	b.n	1db7c <get_eit_entry+0x40>
   1dbc2:	2300      	movs	r3, #0
   1dbc4:	6123      	str	r3, [r4, #16]
   1dbc6:	2005      	movs	r0, #5
   1dbc8:	e7df      	b.n	1db8a <get_eit_entry+0x4e>
   1dbca:	bf00      	nop
   1dbcc:	00000000 	.word	0x00000000
   1dbd0:	0001f200 	.word	0x0001f200
   1dbd4:	0001f048 	.word	0x0001f048

0001dbd8 <restore_non_core_regs>:
   1dbd8:	6803      	ldr	r3, [r0, #0]
   1dbda:	07da      	lsls	r2, r3, #31
   1dbdc:	b510      	push	{r4, lr}
   1dbde:	4604      	mov	r4, r0
   1dbe0:	d406      	bmi.n	1dbf0 <restore_non_core_regs+0x18>
   1dbe2:	079b      	lsls	r3, r3, #30
   1dbe4:	f100 0048 	add.w	r0, r0, #72	; 0x48
   1dbe8:	d509      	bpl.n	1dbfe <restore_non_core_regs+0x26>
   1dbea:	f000 fc4b 	bl	1e484 <__gnu_Unwind_Restore_VFP_D>
   1dbee:	6823      	ldr	r3, [r4, #0]
   1dbf0:	0759      	lsls	r1, r3, #29
   1dbf2:	d509      	bpl.n	1dc08 <restore_non_core_regs+0x30>
   1dbf4:	071a      	lsls	r2, r3, #28
   1dbf6:	d50e      	bpl.n	1dc16 <restore_non_core_regs+0x3e>
   1dbf8:	06db      	lsls	r3, r3, #27
   1dbfa:	d513      	bpl.n	1dc24 <restore_non_core_regs+0x4c>
   1dbfc:	bd10      	pop	{r4, pc}
   1dbfe:	f000 fc39 	bl	1e474 <__gnu_Unwind_Restore_VFP>
   1dc02:	6823      	ldr	r3, [r4, #0]
   1dc04:	0759      	lsls	r1, r3, #29
   1dc06:	d4f5      	bmi.n	1dbf4 <restore_non_core_regs+0x1c>
   1dc08:	f104 00d0 	add.w	r0, r4, #208	; 0xd0
   1dc0c:	f000 fc42 	bl	1e494 <__gnu_Unwind_Restore_VFP_D_16_to_31>
   1dc10:	6823      	ldr	r3, [r4, #0]
   1dc12:	071a      	lsls	r2, r3, #28
   1dc14:	d4f0      	bmi.n	1dbf8 <restore_non_core_regs+0x20>
   1dc16:	f504 70a8 	add.w	r0, r4, #336	; 0x150
   1dc1a:	f000 fc43 	bl	1e4a4 <__gnu_Unwind_Restore_WMMXD>
   1dc1e:	6823      	ldr	r3, [r4, #0]
   1dc20:	06db      	lsls	r3, r3, #27
   1dc22:	d4eb      	bmi.n	1dbfc <restore_non_core_regs+0x24>
   1dc24:	f504 70e8 	add.w	r0, r4, #464	; 0x1d0
   1dc28:	e8bd 4010 	ldmia.w	sp!, {r4, lr}
   1dc2c:	f000 bc7e 	b.w	1e52c <__gnu_Unwind_Restore_WMMXC>

0001dc30 <_Unwind_decode_typeinfo_ptr.isra.0>:
   1dc30:	4603      	mov	r3, r0
   1dc32:	6800      	ldr	r0, [r0, #0]
   1dc34:	b100      	cbz	r0, 1dc38 <_Unwind_decode_typeinfo_ptr.isra.0+0x8>
   1dc36:	4418      	add	r0, r3
   1dc38:	4770      	bx	lr
   1dc3a:	bf00      	nop

0001dc3c <__gnu_unwind_24bit.isra.0>:
   1dc3c:	2009      	movs	r0, #9
   1dc3e:	4770      	bx	lr

0001dc40 <_Unwind_DebugHook>:
   1dc40:	4770      	bx	lr
   1dc42:	bf00      	nop

0001dc44 <unwind_phase2>:
   1dc44:	b570      	push	{r4, r5, r6, lr}
   1dc46:	4604      	mov	r4, r0
   1dc48:	460e      	mov	r6, r1
   1dc4a:	6c31      	ldr	r1, [r6, #64]	; 0x40
   1dc4c:	4620      	mov	r0, r4
   1dc4e:	f7ff ff75 	bl	1db3c <get_eit_entry>
   1dc52:	4605      	mov	r5, r0
   1dc54:	b988      	cbnz	r0, 1dc7a <unwind_phase2+0x36>
   1dc56:	6c33      	ldr	r3, [r6, #64]	; 0x40
   1dc58:	6163      	str	r3, [r4, #20]
   1dc5a:	4632      	mov	r2, r6
   1dc5c:	6923      	ldr	r3, [r4, #16]
   1dc5e:	4621      	mov	r1, r4
   1dc60:	2001      	movs	r0, #1
   1dc62:	4798      	blx	r3
   1dc64:	2808      	cmp	r0, #8
   1dc66:	d0f0      	beq.n	1dc4a <unwind_phase2+0x6>
   1dc68:	2807      	cmp	r0, #7
   1dc6a:	d106      	bne.n	1dc7a <unwind_phase2+0x36>
   1dc6c:	4628      	mov	r0, r5
   1dc6e:	6c31      	ldr	r1, [r6, #64]	; 0x40
   1dc70:	f7ff ffe6 	bl	1dc40 <_Unwind_DebugHook>
   1dc74:	1d30      	adds	r0, r6, #4
   1dc76:	f000 fbf1 	bl	1e45c <__restore_core_regs>
   1dc7a:	f000 fe65 	bl	1e948 <abort>
   1dc7e:	bf00      	nop

0001dc80 <unwind_phase2_forced>:
   1dc80:	e92d 47f0 	stmdb	sp!, {r4, r5, r6, r7, r8, r9, sl, lr}
   1dc84:	1d0d      	adds	r5, r1, #4
   1dc86:	4606      	mov	r6, r0
   1dc88:	4614      	mov	r4, r2
   1dc8a:	cd0f      	ldmia	r5!, {r0, r1, r2, r3}
   1dc8c:	f5ad 7d72 	sub.w	sp, sp, #968	; 0x3c8
   1dc90:	f10d 0c0c 	add.w	ip, sp, #12
   1dc94:	e8ac 000f 	stmia.w	ip!, {r0, r1, r2, r3}
   1dc98:	cd0f      	ldmia	r5!, {r0, r1, r2, r3}
   1dc9a:	e8ac 000f 	stmia.w	ip!, {r0, r1, r2, r3}
   1dc9e:	cd0f      	ldmia	r5!, {r0, r1, r2, r3}
   1dca0:	e8ac 000f 	stmia.w	ip!, {r0, r1, r2, r3}
   1dca4:	e895 000f 	ldmia.w	r5, {r0, r1, r2, r3}
   1dca8:	ad02      	add	r5, sp, #8
   1dcaa:	68f7      	ldr	r7, [r6, #12]
   1dcac:	f8d6 8018 	ldr.w	r8, [r6, #24]
   1dcb0:	e88c 000f 	stmia.w	ip, {r0, r1, r2, r3}
   1dcb4:	2300      	movs	r3, #0
   1dcb6:	602b      	str	r3, [r5, #0]
   1dcb8:	e021      	b.n	1dcfe <unwind_phase2_forced+0x7e>
   1dcba:	6c2b      	ldr	r3, [r5, #64]	; 0x40
   1dcbc:	6173      	str	r3, [r6, #20]
   1dcbe:	f44f 72f0 	mov.w	r2, #480	; 0x1e0
   1dcc2:	4629      	mov	r1, r5
   1dcc4:	a87a      	add	r0, sp, #488	; 0x1e8
   1dcc6:	f7fe fe23 	bl	1c910 <memcpy>
   1dcca:	6933      	ldr	r3, [r6, #16]
   1dccc:	aa7a      	add	r2, sp, #488	; 0x1e8
   1dcce:	4631      	mov	r1, r6
   1dcd0:	4650      	mov	r0, sl
   1dcd2:	4798      	blx	r3
   1dcd4:	9b88      	ldr	r3, [sp, #544]	; 0x220
   1dcd6:	e9cd 5800 	strd	r5, r8, [sp]
   1dcda:	4621      	mov	r1, r4
   1dcdc:	646b      	str	r3, [r5, #68]	; 0x44
   1dcde:	4681      	mov	r9, r0
   1dce0:	4633      	mov	r3, r6
   1dce2:	4632      	mov	r2, r6
   1dce4:	2001      	movs	r0, #1
   1dce6:	47b8      	blx	r7
   1dce8:	4604      	mov	r4, r0
   1dcea:	b9e8      	cbnz	r0, 1dd28 <unwind_phase2_forced+0xa8>
   1dcec:	f44f 72f0 	mov.w	r2, #480	; 0x1e0
   1dcf0:	a97a      	add	r1, sp, #488	; 0x1e8
   1dcf2:	4628      	mov	r0, r5
   1dcf4:	f7fe fe0c 	bl	1c910 <memcpy>
   1dcf8:	f1b9 0f08 	cmp.w	r9, #8
   1dcfc:	d11b      	bne.n	1dd36 <unwind_phase2_forced+0xb6>
   1dcfe:	6c29      	ldr	r1, [r5, #64]	; 0x40
   1dd00:	4630      	mov	r0, r6
   1dd02:	f7ff ff1b 	bl	1db3c <get_eit_entry>
   1dd06:	3409      	adds	r4, #9
   1dd08:	fa5f fa84 	uxtb.w	sl, r4
   1dd0c:	4681      	mov	r9, r0
   1dd0e:	2800      	cmp	r0, #0
   1dd10:	d0d3      	beq.n	1dcba <unwind_phase2_forced+0x3a>
   1dd12:	6bab      	ldr	r3, [r5, #56]	; 0x38
   1dd14:	f04a 0110 	orr.w	r1, sl, #16
   1dd18:	e9cd 5800 	strd	r5, r8, [sp]
   1dd1c:	4632      	mov	r2, r6
   1dd1e:	646b      	str	r3, [r5, #68]	; 0x44
   1dd20:	2001      	movs	r0, #1
   1dd22:	4633      	mov	r3, r6
   1dd24:	47b8      	blx	r7
   1dd26:	b108      	cbz	r0, 1dd2c <unwind_phase2_forced+0xac>
   1dd28:	f04f 0909 	mov.w	r9, #9
   1dd2c:	4648      	mov	r0, r9
   1dd2e:	f50d 7d72 	add.w	sp, sp, #968	; 0x3c8
   1dd32:	e8bd 87f0 	ldmia.w	sp!, {r4, r5, r6, r7, r8, r9, sl, pc}
   1dd36:	f1b9 0f07 	cmp.w	r9, #7
   1dd3a:	d1f5      	bne.n	1dd28 <unwind_phase2_forced+0xa8>
   1dd3c:	4620      	mov	r0, r4
   1dd3e:	6c29      	ldr	r1, [r5, #64]	; 0x40
   1dd40:	f7ff ff7e 	bl	1dc40 <_Unwind_DebugHook>
   1dd44:	a803      	add	r0, sp, #12
   1dd46:	f000 fb89 	bl	1e45c <__restore_core_regs>
   1dd4a:	bf00      	nop

0001dd4c <_Unwind_GetCFA>:
   1dd4c:	6c40      	ldr	r0, [r0, #68]	; 0x44
   1dd4e:	4770      	bx	lr

0001dd50 <__gnu_Unwind_RaiseException>:
   1dd50:	b5f0      	push	{r4, r5, r6, r7, lr}
   1dd52:	6bcb      	ldr	r3, [r1, #60]	; 0x3c
   1dd54:	640b      	str	r3, [r1, #64]	; 0x40
   1dd56:	1d0e      	adds	r6, r1, #4
   1dd58:	460f      	mov	r7, r1
   1dd5a:	4605      	mov	r5, r0
   1dd5c:	ce0f      	ldmia	r6!, {r0, r1, r2, r3}
   1dd5e:	b0f9      	sub	sp, #484	; 0x1e4
   1dd60:	ac01      	add	r4, sp, #4
   1dd62:	c40f      	stmia	r4!, {r0, r1, r2, r3}
   1dd64:	ce0f      	ldmia	r6!, {r0, r1, r2, r3}
   1dd66:	c40f      	stmia	r4!, {r0, r1, r2, r3}
   1dd68:	ce0f      	ldmia	r6!, {r0, r1, r2, r3}
   1dd6a:	c40f      	stmia	r4!, {r0, r1, r2, r3}
   1dd6c:	e896 000f 	ldmia.w	r6, {r0, r1, r2, r3}
   1dd70:	f04f 36ff 	mov.w	r6, #4294967295	; 0xffffffff
   1dd74:	e884 000f 	stmia.w	r4, {r0, r1, r2, r3}
   1dd78:	9600      	str	r6, [sp, #0]
   1dd7a:	e006      	b.n	1dd8a <__gnu_Unwind_RaiseException+0x3a>
   1dd7c:	692b      	ldr	r3, [r5, #16]
   1dd7e:	466a      	mov	r2, sp
   1dd80:	4629      	mov	r1, r5
   1dd82:	4798      	blx	r3
   1dd84:	2808      	cmp	r0, #8
   1dd86:	4604      	mov	r4, r0
   1dd88:	d108      	bne.n	1dd9c <__gnu_Unwind_RaiseException+0x4c>
   1dd8a:	9910      	ldr	r1, [sp, #64]	; 0x40
   1dd8c:	4628      	mov	r0, r5
   1dd8e:	f7ff fed5 	bl	1db3c <get_eit_entry>
   1dd92:	2800      	cmp	r0, #0
   1dd94:	d0f2      	beq.n	1dd7c <__gnu_Unwind_RaiseException+0x2c>
   1dd96:	2009      	movs	r0, #9
   1dd98:	b079      	add	sp, #484	; 0x1e4
   1dd9a:	bdf0      	pop	{r4, r5, r6, r7, pc}
   1dd9c:	4668      	mov	r0, sp
   1dd9e:	f7ff ff1b 	bl	1dbd8 <restore_non_core_regs>
   1dda2:	2c06      	cmp	r4, #6
   1dda4:	d1f7      	bne.n	1dd96 <__gnu_Unwind_RaiseException+0x46>
   1dda6:	4639      	mov	r1, r7
   1dda8:	4628      	mov	r0, r5
   1ddaa:	f7ff ff4b 	bl	1dc44 <unwind_phase2>
   1ddae:	bf00      	nop

0001ddb0 <__gnu_Unwind_ForcedUnwind>:
   1ddb0:	b430      	push	{r4, r5}
   1ddb2:	6bdd      	ldr	r5, [r3, #60]	; 0x3c
   1ddb4:	60c1      	str	r1, [r0, #12]
   1ddb6:	6182      	str	r2, [r0, #24]
   1ddb8:	4619      	mov	r1, r3
   1ddba:	641d      	str	r5, [r3, #64]	; 0x40
   1ddbc:	2200      	movs	r2, #0
   1ddbe:	bc30      	pop	{r4, r5}
   1ddc0:	e75e      	b.n	1dc80 <unwind_phase2_forced>
   1ddc2:	bf00      	nop

0001ddc4 <__gnu_Unwind_Resume>:
   1ddc4:	b570      	push	{r4, r5, r6, lr}
   1ddc6:	68c6      	ldr	r6, [r0, #12]
   1ddc8:	6943      	ldr	r3, [r0, #20]
   1ddca:	640b      	str	r3, [r1, #64]	; 0x40
   1ddcc:	b9ae      	cbnz	r6, 1ddfa <__gnu_Unwind_Resume+0x36>
   1ddce:	6903      	ldr	r3, [r0, #16]
   1ddd0:	460a      	mov	r2, r1
   1ddd2:	4604      	mov	r4, r0
   1ddd4:	460d      	mov	r5, r1
   1ddd6:	4601      	mov	r1, r0
   1ddd8:	2002      	movs	r0, #2
   1ddda:	4798      	blx	r3
   1dddc:	2807      	cmp	r0, #7
   1ddde:	d005      	beq.n	1ddec <__gnu_Unwind_Resume+0x28>
   1dde0:	2808      	cmp	r0, #8
   1dde2:	d10f      	bne.n	1de04 <__gnu_Unwind_Resume+0x40>
   1dde4:	4629      	mov	r1, r5
   1dde6:	4620      	mov	r0, r4
   1dde8:	f7ff ff2c 	bl	1dc44 <unwind_phase2>
   1ddec:	4630      	mov	r0, r6
   1ddee:	6c29      	ldr	r1, [r5, #64]	; 0x40
   1ddf0:	f7ff ff26 	bl	1dc40 <_Unwind_DebugHook>
   1ddf4:	1d28      	adds	r0, r5, #4
   1ddf6:	f000 fb31 	bl	1e45c <__restore_core_regs>
   1ddfa:	2201      	movs	r2, #1
   1ddfc:	f7ff ff40 	bl	1dc80 <unwind_phase2_forced>
   1de00:	f000 fda2 	bl	1e948 <abort>
   1de04:	f000 fda0 	bl	1e948 <abort>

0001de08 <__gnu_Unwind_Resume_or_Rethrow>:
   1de08:	68c2      	ldr	r2, [r0, #12]
   1de0a:	b11a      	cbz	r2, 1de14 <__gnu_Unwind_Resume_or_Rethrow+0xc>
   1de0c:	6bca      	ldr	r2, [r1, #60]	; 0x3c
   1de0e:	640a      	str	r2, [r1, #64]	; 0x40
   1de10:	2200      	movs	r2, #0
   1de12:	e735      	b.n	1dc80 <unwind_phase2_forced>
   1de14:	e79c      	b.n	1dd50 <__gnu_Unwind_RaiseException>
   1de16:	bf00      	nop

0001de18 <_Unwind_Complete>:
   1de18:	4770      	bx	lr
   1de1a:	bf00      	nop

0001de1c <_Unwind_DeleteException>:
   1de1c:	6883      	ldr	r3, [r0, #8]
   1de1e:	4601      	mov	r1, r0
   1de20:	b10b      	cbz	r3, 1de26 <_Unwind_DeleteException+0xa>
   1de22:	2001      	movs	r0, #1
   1de24:	4718      	bx	r3
   1de26:	4770      	bx	lr

0001de28 <_Unwind_VRS_Get>:
   1de28:	2901      	cmp	r1, #1
   1de2a:	d012      	beq.n	1de52 <_Unwind_VRS_Get+0x2a>
   1de2c:	d809      	bhi.n	1de42 <_Unwind_VRS_Get+0x1a>
   1de2e:	b973      	cbnz	r3, 1de4e <_Unwind_VRS_Get+0x26>
   1de30:	2a0f      	cmp	r2, #15
   1de32:	d80c      	bhi.n	1de4e <_Unwind_VRS_Get+0x26>
   1de34:	eb00 0282 	add.w	r2, r0, r2, lsl #2
   1de38:	4618      	mov	r0, r3
   1de3a:	6853      	ldr	r3, [r2, #4]
   1de3c:	9a00      	ldr	r2, [sp, #0]
   1de3e:	6013      	str	r3, [r2, #0]
   1de40:	4770      	bx	lr
   1de42:	3903      	subs	r1, #3
   1de44:	2901      	cmp	r1, #1
   1de46:	bf94      	ite	ls
   1de48:	2001      	movls	r0, #1
   1de4a:	2002      	movhi	r0, #2
   1de4c:	4770      	bx	lr
   1de4e:	2002      	movs	r0, #2
   1de50:	4770      	bx	lr
   1de52:	4608      	mov	r0, r1
   1de54:	4770      	bx	lr
   1de56:	bf00      	nop

0001de58 <_Unwind_GetGR>:
   1de58:	b510      	push	{r4, lr}
   1de5a:	b084      	sub	sp, #16
   1de5c:	2300      	movs	r3, #0
   1de5e:	ac03      	add	r4, sp, #12
   1de60:	460a      	mov	r2, r1
   1de62:	9400      	str	r4, [sp, #0]
   1de64:	4619      	mov	r1, r3
   1de66:	f7ff ffdf 	bl	1de28 <_Unwind_VRS_Get>
   1de6a:	9803      	ldr	r0, [sp, #12]
   1de6c:	b004      	add	sp, #16
   1de6e:	bd10      	pop	{r4, pc}

0001de70 <_Unwind_VRS_Set>:
   1de70:	2901      	cmp	r1, #1
   1de72:	d012      	beq.n	1de9a <_Unwind_VRS_Set+0x2a>
   1de74:	d809      	bhi.n	1de8a <_Unwind_VRS_Set+0x1a>
   1de76:	b973      	cbnz	r3, 1de96 <_Unwind_VRS_Set+0x26>
   1de78:	2a0f      	cmp	r2, #15
   1de7a:	d80c      	bhi.n	1de96 <_Unwind_VRS_Set+0x26>
   1de7c:	eb00 0082 	add.w	r0, r0, r2, lsl #2
   1de80:	9a00      	ldr	r2, [sp, #0]
   1de82:	6812      	ldr	r2, [r2, #0]
   1de84:	6042      	str	r2, [r0, #4]
   1de86:	4618      	mov	r0, r3
   1de88:	4770      	bx	lr
   1de8a:	3903      	subs	r1, #3
   1de8c:	2901      	cmp	r1, #1
   1de8e:	bf94      	ite	ls
   1de90:	2001      	movls	r0, #1
   1de92:	2002      	movhi	r0, #2
   1de94:	4770      	bx	lr
   1de96:	2002      	movs	r0, #2
   1de98:	4770      	bx	lr
   1de9a:	4608      	mov	r0, r1
   1de9c:	4770      	bx	lr
   1de9e:	bf00      	nop

0001dea0 <_Unwind_SetGR>:
   1dea0:	b510      	push	{r4, lr}
   1dea2:	b084      	sub	sp, #16
   1dea4:	2300      	movs	r3, #0
   1dea6:	ac03      	add	r4, sp, #12
   1dea8:	9203      	str	r2, [sp, #12]
   1deaa:	9400      	str	r4, [sp, #0]
   1deac:	460a      	mov	r2, r1
   1deae:	4619      	mov	r1, r3
   1deb0:	f7ff ffde 	bl	1de70 <_Unwind_VRS_Set>
   1deb4:	b004      	add	sp, #16
   1deb6:	bd10      	pop	{r4, pc}

0001deb8 <__gnu_Unwind_Backtrace>:
   1deb8:	b5f0      	push	{r4, r5, r6, r7, lr}
   1deba:	6bd3      	ldr	r3, [r2, #60]	; 0x3c
   1debc:	6413      	str	r3, [r2, #64]	; 0x40
   1debe:	1d15      	adds	r5, r2, #4
   1dec0:	468c      	mov	ip, r1
   1dec2:	4606      	mov	r6, r0
   1dec4:	cd0f      	ldmia	r5!, {r0, r1, r2, r3}
   1dec6:	f5ad 7d0f 	sub.w	sp, sp, #572	; 0x23c
   1deca:	ac17      	add	r4, sp, #92	; 0x5c
   1decc:	c40f      	stmia	r4!, {r0, r1, r2, r3}
   1dece:	cd0f      	ldmia	r5!, {r0, r1, r2, r3}
   1ded0:	c40f      	stmia	r4!, {r0, r1, r2, r3}
   1ded2:	cd0f      	ldmia	r5!, {r0, r1, r2, r3}
   1ded4:	c40f      	stmia	r4!, {r0, r1, r2, r3}
   1ded6:	e895 000f 	ldmia.w	r5, {r0, r1, r2, r3}
   1deda:	f04f 37ff 	mov.w	r7, #4294967295	; 0xffffffff
   1dede:	e884 000f 	stmia.w	r4, {r0, r1, r2, r3}
   1dee2:	4665      	mov	r5, ip
   1dee4:	9716      	str	r7, [sp, #88]	; 0x58
   1dee6:	e010      	b.n	1df0a <__gnu_Unwind_Backtrace+0x52>
   1dee8:	f7ff ffda 	bl	1dea0 <_Unwind_SetGR>
   1deec:	4629      	mov	r1, r5
   1deee:	a816      	add	r0, sp, #88	; 0x58
   1def0:	47b0      	blx	r6
   1def2:	4603      	mov	r3, r0
   1def4:	aa16      	add	r2, sp, #88	; 0x58
   1def6:	4669      	mov	r1, sp
   1def8:	2008      	movs	r0, #8
   1defa:	b983      	cbnz	r3, 1df1e <__gnu_Unwind_Backtrace+0x66>
   1defc:	9b04      	ldr	r3, [sp, #16]
   1defe:	4798      	blx	r3
   1df00:	2805      	cmp	r0, #5
   1df02:	4604      	mov	r4, r0
   1df04:	d00c      	beq.n	1df20 <__gnu_Unwind_Backtrace+0x68>
   1df06:	2809      	cmp	r0, #9
   1df08:	d009      	beq.n	1df1e <__gnu_Unwind_Backtrace+0x66>
   1df0a:	9926      	ldr	r1, [sp, #152]	; 0x98
   1df0c:	4668      	mov	r0, sp
   1df0e:	f7ff fe15 	bl	1db3c <get_eit_entry>
   1df12:	4603      	mov	r3, r0
   1df14:	466a      	mov	r2, sp
   1df16:	210c      	movs	r1, #12
   1df18:	a816      	add	r0, sp, #88	; 0x58
   1df1a:	2b00      	cmp	r3, #0
   1df1c:	d0e4      	beq.n	1dee8 <__gnu_Unwind_Backtrace+0x30>
   1df1e:	2409      	movs	r4, #9
   1df20:	a816      	add	r0, sp, #88	; 0x58
   1df22:	f7ff fe59 	bl	1dbd8 <restore_non_core_regs>
   1df26:	4620      	mov	r0, r4
   1df28:	f50d 7d0f 	add.w	sp, sp, #572	; 0x23c
   1df2c:	bdf0      	pop	{r4, r5, r6, r7, pc}
   1df2e:	bf00      	nop

0001df30 <__gnu_unwind_pr_common>:
   1df30:	e92d 4ff0 	stmdb	sp!, {r4, r5, r6, r7, r8, r9, sl, fp, lr}
   1df34:	6ccc      	ldr	r4, [r1, #76]	; 0x4c
   1df36:	b089      	sub	sp, #36	; 0x24
   1df38:	460d      	mov	r5, r1
   1df3a:	f854 1b04 	ldr.w	r1, [r4], #4
   1df3e:	9406      	str	r4, [sp, #24]
   1df40:	4617      	mov	r7, r2
   1df42:	f000 0803 	and.w	r8, r0, #3
   1df46:	461e      	mov	r6, r3
   1df48:	2b00      	cmp	r3, #0
   1df4a:	d079      	beq.n	1e040 <__gnu_unwind_pr_common+0x110>
   1df4c:	0c0b      	lsrs	r3, r1, #16
   1df4e:	b2da      	uxtb	r2, r3
   1df50:	0409      	lsls	r1, r1, #16
   1df52:	f88d 301d 	strb.w	r3, [sp, #29]
   1df56:	2302      	movs	r3, #2
   1df58:	eb04 0482 	add.w	r4, r4, r2, lsl #2
   1df5c:	9105      	str	r1, [sp, #20]
   1df5e:	f88d 301c 	strb.w	r3, [sp, #28]
   1df62:	6d2b      	ldr	r3, [r5, #80]	; 0x50
   1df64:	f1b8 0f02 	cmp.w	r8, #2
   1df68:	bf08      	it	eq
   1df6a:	6bac      	ldreq	r4, [r5, #56]	; 0x38
   1df6c:	f013 0301 	ands.w	r3, r3, #1
   1df70:	d00c      	beq.n	1df8c <__gnu_unwind_pr_common+0x5c>
   1df72:	4638      	mov	r0, r7
   1df74:	a905      	add	r1, sp, #20
   1df76:	f000 fb73 	bl	1e660 <__gnu_unwind_execute>
   1df7a:	b918      	cbnz	r0, 1df84 <__gnu_unwind_pr_common+0x54>
   1df7c:	2008      	movs	r0, #8
   1df7e:	b009      	add	sp, #36	; 0x24
   1df80:	e8bd 8ff0 	ldmia.w	sp!, {r4, r5, r6, r7, r8, r9, sl, fp, pc}
   1df84:	2009      	movs	r0, #9
   1df86:	b009      	add	sp, #36	; 0x24
   1df88:	e8bd 8ff0 	ldmia.w	sp!, {r4, r5, r6, r7, r8, r9, sl, fp, pc}
   1df8c:	f8d4 a000 	ldr.w	sl, [r4]
   1df90:	f1ba 0f00 	cmp.w	sl, #0
   1df94:	d0ed      	beq.n	1df72 <__gnu_unwind_pr_common+0x42>
   1df96:	9301      	str	r3, [sp, #4]
   1df98:	f000 0308 	and.w	r3, r0, #8
   1df9c:	9302      	str	r3, [sp, #8]
   1df9e:	2e02      	cmp	r6, #2
   1dfa0:	d04a      	beq.n	1e038 <__gnu_unwind_pr_common+0x108>
   1dfa2:	f8b4 a000 	ldrh.w	sl, [r4]
   1dfa6:	f8b4 9002 	ldrh.w	r9, [r4, #2]
   1dfaa:	3404      	adds	r4, #4
   1dfac:	6caa      	ldr	r2, [r5, #72]	; 0x48
   1dfae:	f029 0b01 	bic.w	fp, r9, #1
   1dfb2:	210f      	movs	r1, #15
   1dfb4:	4638      	mov	r0, r7
   1dfb6:	4493      	add	fp, r2
   1dfb8:	f7ff ff4e 	bl	1de58 <_Unwind_GetGR>
   1dfbc:	4583      	cmp	fp, r0
   1dfbe:	d839      	bhi.n	1e034 <__gnu_unwind_pr_common+0x104>
   1dfc0:	f02a 0201 	bic.w	r2, sl, #1
   1dfc4:	445a      	add	r2, fp
   1dfc6:	4282      	cmp	r2, r0
   1dfc8:	bf94      	ite	ls
   1dfca:	2000      	movls	r0, #0
   1dfcc:	2001      	movhi	r0, #1
   1dfce:	ea4f 0349 	mov.w	r3, r9, lsl #1
   1dfd2:	f003 0302 	and.w	r3, r3, #2
   1dfd6:	f00a 0a01 	and.w	sl, sl, #1
   1dfda:	ea43 030a 	orr.w	r3, r3, sl
   1dfde:	2b01      	cmp	r3, #1
   1dfe0:	d049      	beq.n	1e076 <__gnu_unwind_pr_common+0x146>
   1dfe2:	2b02      	cmp	r3, #2
   1dfe4:	d032      	beq.n	1e04c <__gnu_unwind_pr_common+0x11c>
   1dfe6:	2b00      	cmp	r3, #0
   1dfe8:	d1cc      	bne.n	1df84 <__gnu_unwind_pr_common+0x54>
   1dfea:	f1b8 0f00 	cmp.w	r8, #0
   1dfee:	d002      	beq.n	1dff6 <__gnu_unwind_pr_common+0xc6>
   1dff0:	2800      	cmp	r0, #0
   1dff2:	f040 80cd 	bne.w	1e190 <__gnu_unwind_pr_common+0x260>
   1dff6:	3404      	adds	r4, #4
   1dff8:	f8d4 a000 	ldr.w	sl, [r4]
   1dffc:	f1ba 0f00 	cmp.w	sl, #0
   1e000:	d1cd      	bne.n	1df9e <__gnu_unwind_pr_common+0x6e>
   1e002:	a905      	add	r1, sp, #20
   1e004:	4638      	mov	r0, r7
   1e006:	f000 fb2b 	bl	1e660 <__gnu_unwind_execute>
   1e00a:	2800      	cmp	r0, #0
   1e00c:	d1ba      	bne.n	1df84 <__gnu_unwind_pr_common+0x54>
   1e00e:	9b01      	ldr	r3, [sp, #4]
   1e010:	2b00      	cmp	r3, #0
   1e012:	d0b3      	beq.n	1df7c <__gnu_unwind_pr_common+0x4c>
   1e014:	210f      	movs	r1, #15
   1e016:	4638      	mov	r0, r7
   1e018:	f7ff ff1e 	bl	1de58 <_Unwind_GetGR>
   1e01c:	210e      	movs	r1, #14
   1e01e:	4602      	mov	r2, r0
   1e020:	4638      	mov	r0, r7
   1e022:	f7ff ff3d 	bl	1dea0 <_Unwind_SetGR>
   1e026:	4638      	mov	r0, r7
   1e028:	4a6a      	ldr	r2, [pc, #424]	; (1e1d4 <__gnu_unwind_pr_common+0x2a4>)
   1e02a:	210f      	movs	r1, #15
   1e02c:	f7ff ff38 	bl	1dea0 <_Unwind_SetGR>
   1e030:	2007      	movs	r0, #7
   1e032:	e7a8      	b.n	1df86 <__gnu_unwind_pr_common+0x56>
   1e034:	2000      	movs	r0, #0
   1e036:	e7ca      	b.n	1dfce <__gnu_unwind_pr_common+0x9e>
   1e038:	f8d4 9004 	ldr.w	r9, [r4, #4]
   1e03c:	3408      	adds	r4, #8
   1e03e:	e7b5      	b.n	1dfac <__gnu_unwind_pr_common+0x7c>
   1e040:	0209      	lsls	r1, r1, #8
   1e042:	2303      	movs	r3, #3
   1e044:	9105      	str	r1, [sp, #20]
   1e046:	f8ad 301c 	strh.w	r3, [sp, #28]
   1e04a:	e78a      	b.n	1df62 <__gnu_unwind_pr_common+0x32>
   1e04c:	6823      	ldr	r3, [r4, #0]
   1e04e:	f023 4b00 	bic.w	fp, r3, #2147483648	; 0x80000000
   1e052:	f1b8 0f00 	cmp.w	r8, #0
   1e056:	d145      	bne.n	1e0e4 <__gnu_unwind_pr_common+0x1b4>
   1e058:	b128      	cbz	r0, 1e066 <__gnu_unwind_pr_common+0x136>
   1e05a:	9a02      	ldr	r2, [sp, #8]
   1e05c:	2a00      	cmp	r2, #0
   1e05e:	d05c      	beq.n	1e11a <__gnu_unwind_pr_common+0x1ea>
   1e060:	f1bb 0f00 	cmp.w	fp, #0
   1e064:	d074      	beq.n	1e150 <__gnu_unwind_pr_common+0x220>
   1e066:	2b00      	cmp	r3, #0
   1e068:	da00      	bge.n	1e06c <__gnu_unwind_pr_common+0x13c>
   1e06a:	3404      	adds	r4, #4
   1e06c:	f10b 0b01 	add.w	fp, fp, #1
   1e070:	eb04 048b 	add.w	r4, r4, fp, lsl #2
   1e074:	e7c0      	b.n	1dff8 <__gnu_unwind_pr_common+0xc8>
   1e076:	f1b8 0f00 	cmp.w	r8, #0
   1e07a:	d119      	bne.n	1e0b0 <__gnu_unwind_pr_common+0x180>
   1e07c:	b1b0      	cbz	r0, 1e0ac <__gnu_unwind_pr_common+0x17c>
   1e07e:	e9d4 2300 	ldrd	r2, r3, [r4]
   1e082:	1c99      	adds	r1, r3, #2
   1e084:	ea4f 72d2 	mov.w	r2, r2, lsr #31
   1e088:	f43f af7c 	beq.w	1df84 <__gnu_unwind_pr_common+0x54>
   1e08c:	f105 0158 	add.w	r1, r5, #88	; 0x58
   1e090:	3301      	adds	r3, #1
   1e092:	9104      	str	r1, [sp, #16]
   1e094:	f000 8090 	beq.w	1e1b8 <__gnu_unwind_pr_common+0x288>
   1e098:	1d20      	adds	r0, r4, #4
   1e09a:	f7ff fdc9 	bl	1dc30 <_Unwind_decode_typeinfo_ptr.isra.0>
   1e09e:	ab04      	add	r3, sp, #16
   1e0a0:	4601      	mov	r1, r0
   1e0a2:	4628      	mov	r0, r5
   1e0a4:	f3af 8000 	nop.w
   1e0a8:	2800      	cmp	r0, #0
   1e0aa:	d15b      	bne.n	1e164 <__gnu_unwind_pr_common+0x234>
   1e0ac:	3408      	adds	r4, #8
   1e0ae:	e7a3      	b.n	1dff8 <__gnu_unwind_pr_common+0xc8>
   1e0b0:	210d      	movs	r1, #13
   1e0b2:	4638      	mov	r0, r7
   1e0b4:	f8d5 9020 	ldr.w	r9, [r5, #32]
   1e0b8:	f7ff fece 	bl	1de58 <_Unwind_GetGR>
   1e0bc:	4581      	cmp	r9, r0
   1e0be:	d1f5      	bne.n	1e0ac <__gnu_unwind_pr_common+0x17c>
   1e0c0:	6aab      	ldr	r3, [r5, #40]	; 0x28
   1e0c2:	429c      	cmp	r4, r3
   1e0c4:	d1f2      	bne.n	1e0ac <__gnu_unwind_pr_common+0x17c>
   1e0c6:	4620      	mov	r0, r4
   1e0c8:	f7ff fcec 	bl	1daa4 <selfrel_offset31>
   1e0cc:	210f      	movs	r1, #15
   1e0ce:	4602      	mov	r2, r0
   1e0d0:	4638      	mov	r0, r7
   1e0d2:	f7ff fee5 	bl	1dea0 <_Unwind_SetGR>
   1e0d6:	4638      	mov	r0, r7
   1e0d8:	462a      	mov	r2, r5
   1e0da:	2100      	movs	r1, #0
   1e0dc:	f7ff fee0 	bl	1dea0 <_Unwind_SetGR>
   1e0e0:	2007      	movs	r0, #7
   1e0e2:	e750      	b.n	1df86 <__gnu_unwind_pr_common+0x56>
   1e0e4:	210d      	movs	r1, #13
   1e0e6:	4638      	mov	r0, r7
   1e0e8:	f8d5 9020 	ldr.w	r9, [r5, #32]
   1e0ec:	f7ff feb4 	bl	1de58 <_Unwind_GetGR>
   1e0f0:	4581      	cmp	r9, r0
   1e0f2:	d001      	beq.n	1e0f8 <__gnu_unwind_pr_common+0x1c8>
   1e0f4:	6823      	ldr	r3, [r4, #0]
   1e0f6:	e7b6      	b.n	1e066 <__gnu_unwind_pr_common+0x136>
   1e0f8:	6aab      	ldr	r3, [r5, #40]	; 0x28
   1e0fa:	429c      	cmp	r4, r3
   1e0fc:	d1fa      	bne.n	1e0f4 <__gnu_unwind_pr_common+0x1c4>
   1e0fe:	2204      	movs	r2, #4
   1e100:	2100      	movs	r1, #0
   1e102:	e9c5 120b 	strd	r1, r2, [r5, #44]	; 0x2c
   1e106:	18a3      	adds	r3, r4, r2
   1e108:	f8c5 b028 	str.w	fp, [r5, #40]	; 0x28
   1e10c:	636b      	str	r3, [r5, #52]	; 0x34
   1e10e:	6823      	ldr	r3, [r4, #0]
   1e110:	428b      	cmp	r3, r1
   1e112:	db59      	blt.n	1e1c8 <__gnu_unwind_pr_common+0x298>
   1e114:	2301      	movs	r3, #1
   1e116:	9301      	str	r3, [sp, #4]
   1e118:	e7a8      	b.n	1e06c <__gnu_unwind_pr_common+0x13c>
   1e11a:	f105 0358 	add.w	r3, r5, #88	; 0x58
   1e11e:	f8cd 800c 	str.w	r8, [sp, #12]
   1e122:	f104 0a04 	add.w	sl, r4, #4
   1e126:	46b0      	mov	r8, r6
   1e128:	4691      	mov	r9, r2
   1e12a:	461e      	mov	r6, r3
   1e12c:	e00d      	b.n	1e14a <__gnu_unwind_pr_common+0x21a>
   1e12e:	9604      	str	r6, [sp, #16]
   1e130:	f7ff fd7e 	bl	1dc30 <_Unwind_decode_typeinfo_ptr.isra.0>
   1e134:	ab04      	add	r3, sp, #16
   1e136:	4601      	mov	r1, r0
   1e138:	2200      	movs	r2, #0
   1e13a:	4628      	mov	r0, r5
   1e13c:	f3af 8000 	nop.w
   1e140:	f109 0901 	add.w	r9, r9, #1
   1e144:	f10a 0a04 	add.w	sl, sl, #4
   1e148:	b9e8      	cbnz	r0, 1e186 <__gnu_unwind_pr_common+0x256>
   1e14a:	45d9      	cmp	r9, fp
   1e14c:	4650      	mov	r0, sl
   1e14e:	d1ee      	bne.n	1e12e <__gnu_unwind_pr_common+0x1fe>
   1e150:	4638      	mov	r0, r7
   1e152:	210d      	movs	r1, #13
   1e154:	f7ff fe80 	bl	1de58 <_Unwind_GetGR>
   1e158:	9b04      	ldr	r3, [sp, #16]
   1e15a:	6228      	str	r0, [r5, #32]
   1e15c:	e9c5 3409 	strd	r3, r4, [r5, #36]	; 0x24
   1e160:	2006      	movs	r0, #6
   1e162:	e710      	b.n	1df86 <__gnu_unwind_pr_common+0x56>
   1e164:	4681      	mov	r9, r0
   1e166:	210d      	movs	r1, #13
   1e168:	4638      	mov	r0, r7
   1e16a:	f7ff fe75 	bl	1de58 <_Unwind_GetGR>
   1e16e:	f1b9 0f02 	cmp.w	r9, #2
   1e172:	6228      	str	r0, [r5, #32]
   1e174:	d125      	bne.n	1e1c2 <__gnu_unwind_pr_common+0x292>
   1e176:	462b      	mov	r3, r5
   1e178:	9a04      	ldr	r2, [sp, #16]
   1e17a:	f843 2f2c 	str.w	r2, [r3, #44]!
   1e17e:	626b      	str	r3, [r5, #36]	; 0x24
   1e180:	62ac      	str	r4, [r5, #40]	; 0x28
   1e182:	2006      	movs	r0, #6
   1e184:	e6ff      	b.n	1df86 <__gnu_unwind_pr_common+0x56>
   1e186:	4646      	mov	r6, r8
   1e188:	6823      	ldr	r3, [r4, #0]
   1e18a:	f8dd 800c 	ldr.w	r8, [sp, #12]
   1e18e:	e76a      	b.n	1e066 <__gnu_unwind_pr_common+0x136>
   1e190:	4620      	mov	r0, r4
   1e192:	f7ff fc87 	bl	1daa4 <selfrel_offset31>
   1e196:	3404      	adds	r4, #4
   1e198:	4602      	mov	r2, r0
   1e19a:	63ac      	str	r4, [r5, #56]	; 0x38
   1e19c:	4628      	mov	r0, r5
   1e19e:	4614      	mov	r4, r2
   1e1a0:	f3af 8000 	nop.w
   1e1a4:	2800      	cmp	r0, #0
   1e1a6:	f43f aeed 	beq.w	1df84 <__gnu_unwind_pr_common+0x54>
   1e1aa:	4638      	mov	r0, r7
   1e1ac:	4622      	mov	r2, r4
   1e1ae:	210f      	movs	r1, #15
   1e1b0:	f7ff fe76 	bl	1dea0 <_Unwind_SetGR>
   1e1b4:	2007      	movs	r0, #7
   1e1b6:	e6e6      	b.n	1df86 <__gnu_unwind_pr_common+0x56>
   1e1b8:	4638      	mov	r0, r7
   1e1ba:	210d      	movs	r1, #13
   1e1bc:	f7ff fe4c 	bl	1de58 <_Unwind_GetGR>
   1e1c0:	6228      	str	r0, [r5, #32]
   1e1c2:	9b04      	ldr	r3, [sp, #16]
   1e1c4:	626b      	str	r3, [r5, #36]	; 0x24
   1e1c6:	e7db      	b.n	1e180 <__gnu_unwind_pr_common+0x250>
   1e1c8:	f10b 0001 	add.w	r0, fp, #1
   1e1cc:	eb04 0080 	add.w	r0, r4, r0, lsl #2
   1e1d0:	e77a      	b.n	1e0c8 <__gnu_unwind_pr_common+0x198>
   1e1d2:	bf00      	nop
   1e1d4:	00000000 	.word	0x00000000

0001e1d8 <__aeabi_unwind_cpp_pr0>:
   1e1d8:	2300      	movs	r3, #0
   1e1da:	e6a9      	b.n	1df30 <__gnu_unwind_pr_common>

0001e1dc <__aeabi_unwind_cpp_pr1>:
   1e1dc:	2301      	movs	r3, #1
   1e1de:	e6a7      	b.n	1df30 <__gnu_unwind_pr_common>

0001e1e0 <__aeabi_unwind_cpp_pr2>:
   1e1e0:	2302      	movs	r3, #2
   1e1e2:	e6a5      	b.n	1df30 <__gnu_unwind_pr_common>

0001e1e4 <_Unwind_VRS_Pop>:
   1e1e4:	e92d 43f0 	stmdb	sp!, {r4, r5, r6, r7, r8, r9, lr}
   1e1e8:	4606      	mov	r6, r0
   1e1ea:	b0c3      	sub	sp, #268	; 0x10c
   1e1ec:	4615      	mov	r5, r2
   1e1ee:	461c      	mov	r4, r3
   1e1f0:	2904      	cmp	r1, #4
   1e1f2:	f200 80b9 	bhi.w	1e368 <_Unwind_VRS_Pop+0x184>
   1e1f6:	e8df f001 	tbb	[pc, r1]
   1e1fa:	539a      	.short	0x539a
   1e1fc:	29b7      	.short	0x29b7
   1e1fe:	03          	.byte	0x03
   1e1ff:	00          	.byte	0x00
   1e200:	2c00      	cmp	r4, #0
   1e202:	f040 80b1 	bne.w	1e368 <_Unwind_VRS_Pop+0x184>
   1e206:	2a10      	cmp	r2, #16
   1e208:	f200 80ae 	bhi.w	1e368 <_Unwind_VRS_Pop+0x184>
   1e20c:	6803      	ldr	r3, [r0, #0]
   1e20e:	06d8      	lsls	r0, r3, #27
   1e210:	f100 80f3 	bmi.w	1e3fa <_Unwind_VRS_Pop+0x216>
   1e214:	af20      	add	r7, sp, #128	; 0x80
   1e216:	4638      	mov	r0, r7
   1e218:	f000 f992 	bl	1e540 <__gnu_Unwind_Save_WMMXC>
   1e21c:	6bb0      	ldr	r0, [r6, #56]	; 0x38
   1e21e:	2300      	movs	r3, #0
   1e220:	2401      	movs	r4, #1
   1e222:	fa04 f203 	lsl.w	r2, r4, r3
   1e226:	422a      	tst	r2, r5
   1e228:	4601      	mov	r1, r0
   1e22a:	d004      	beq.n	1e236 <_Unwind_VRS_Pop+0x52>
   1e22c:	f851 2b04 	ldr.w	r2, [r1], #4
   1e230:	f847 2023 	str.w	r2, [r7, r3, lsl #2]
   1e234:	4608      	mov	r0, r1
   1e236:	3301      	adds	r3, #1
   1e238:	2b04      	cmp	r3, #4
   1e23a:	d1f2      	bne.n	1e222 <_Unwind_VRS_Pop+0x3e>
   1e23c:	63b0      	str	r0, [r6, #56]	; 0x38
   1e23e:	4638      	mov	r0, r7
   1e240:	f000 f974 	bl	1e52c <__gnu_Unwind_Restore_WMMXC>
   1e244:	2000      	movs	r0, #0
   1e246:	b043      	add	sp, #268	; 0x10c
   1e248:	e8bd 83f0 	ldmia.w	sp!, {r4, r5, r6, r7, r8, r9, pc}
   1e24c:	2c03      	cmp	r4, #3
   1e24e:	f040 808b 	bne.w	1e368 <_Unwind_VRS_Pop+0x184>
   1e252:	b294      	uxth	r4, r2
   1e254:	eb04 4312 	add.w	r3, r4, r2, lsr #16
   1e258:	2b10      	cmp	r3, #16
   1e25a:	ea4f 4512 	mov.w	r5, r2, lsr #16
   1e25e:	f200 8083 	bhi.w	1e368 <_Unwind_VRS_Pop+0x184>
   1e262:	6803      	ldr	r3, [r0, #0]
   1e264:	071f      	lsls	r7, r3, #28
   1e266:	f100 80d0 	bmi.w	1e40a <_Unwind_VRS_Pop+0x226>
   1e26a:	af20      	add	r7, sp, #128	; 0x80
   1e26c:	4638      	mov	r0, r7
   1e26e:	f000 f93b 	bl	1e4e8 <__gnu_Unwind_Save_WMMXD>
   1e272:	eb07 01c5 	add.w	r1, r7, r5, lsl #3
   1e276:	6bb5      	ldr	r5, [r6, #56]	; 0x38
   1e278:	b154      	cbz	r4, 1e290 <_Unwind_VRS_Pop+0xac>
   1e27a:	460b      	mov	r3, r1
   1e27c:	1ae8      	subs	r0, r5, r3
   1e27e:	eb01 01c4 	add.w	r1, r1, r4, lsl #3
   1e282:	00e4      	lsls	r4, r4, #3
   1e284:	581a      	ldr	r2, [r3, r0]
   1e286:	f843 2b04 	str.w	r2, [r3], #4
   1e28a:	428b      	cmp	r3, r1
   1e28c:	d1fa      	bne.n	1e284 <_Unwind_VRS_Pop+0xa0>
   1e28e:	4425      	add	r5, r4
   1e290:	4638      	mov	r0, r7
   1e292:	63b5      	str	r5, [r6, #56]	; 0x38
   1e294:	f000 f906 	bl	1e4a4 <__gnu_Unwind_Restore_WMMXD>
   1e298:	2000      	movs	r0, #0
   1e29a:	b043      	add	sp, #268	; 0x10c
   1e29c:	e8bd 83f0 	ldmia.w	sp!, {r4, r5, r6, r7, r8, r9, pc}
   1e2a0:	2c01      	cmp	r4, #1
   1e2a2:	ea4f 4812 	mov.w	r8, r2, lsr #16
   1e2a6:	b295      	uxth	r5, r2
   1e2a8:	d05a      	beq.n	1e360 <_Unwind_VRS_Pop+0x17c>
   1e2aa:	2c05      	cmp	r4, #5
   1e2ac:	d15c      	bne.n	1e368 <_Unwind_VRS_Pop+0x184>
   1e2ae:	eb08 0905 	add.w	r9, r8, r5
   1e2b2:	f1b9 0f20 	cmp.w	r9, #32
   1e2b6:	d857      	bhi.n	1e368 <_Unwind_VRS_Pop+0x184>
   1e2b8:	f1b8 0f0f 	cmp.w	r8, #15
   1e2bc:	d977      	bls.n	1e3ae <_Unwind_VRS_Pop+0x1ca>
   1e2be:	46a9      	mov	r9, r5
   1e2c0:	2d00      	cmp	r5, #0
   1e2c2:	f040 8088 	bne.w	1e3d6 <_Unwind_VRS_Pop+0x1f2>
   1e2c6:	6bb3      	ldr	r3, [r6, #56]	; 0x38
   1e2c8:	b36d      	cbz	r5, 1e326 <_Unwind_VRS_Pop+0x142>
   1e2ca:	af20      	add	r7, sp, #128	; 0x80
   1e2cc:	f04f 0900 	mov.w	r9, #0
   1e2d0:	eb07 07c8 	add.w	r7, r7, r8, lsl #3
   1e2d4:	3f04      	subs	r7, #4
   1e2d6:	eb03 05c5 	add.w	r5, r3, r5, lsl #3
   1e2da:	f853 1b04 	ldr.w	r1, [r3], #4
   1e2de:	f847 1f04 	str.w	r1, [r7, #4]!
   1e2e2:	42ab      	cmp	r3, r5
   1e2e4:	d1f9      	bne.n	1e2da <_Unwind_VRS_Pop+0xf6>
   1e2e6:	f1b9 0f00 	cmp.w	r9, #0
   1e2ea:	d00f      	beq.n	1e30c <_Unwind_VRS_Pop+0x128>
   1e2ec:	466f      	mov	r7, sp
   1e2ee:	4641      	mov	r1, r8
   1e2f0:	2910      	cmp	r1, #16
   1e2f2:	bf38      	it	cc
   1e2f4:	2110      	movcc	r1, #16
   1e2f6:	eb07 01c1 	add.w	r1, r7, r1, lsl #3
   1e2fa:	3984      	subs	r1, #132	; 0x84
   1e2fc:	eb03 05c9 	add.w	r5, r3, r9, lsl #3
   1e300:	f853 0b04 	ldr.w	r0, [r3], #4
   1e304:	f841 0f04 	str.w	r0, [r1, #4]!
   1e308:	42ab      	cmp	r3, r5
   1e30a:	d1f9      	bne.n	1e300 <_Unwind_VRS_Pop+0x11c>
   1e30c:	2c01      	cmp	r4, #1
   1e30e:	f000 8084 	beq.w	1e41a <_Unwind_VRS_Pop+0x236>
   1e312:	f1b8 0f0f 	cmp.w	r8, #15
   1e316:	63b5      	str	r5, [r6, #56]	; 0x38
   1e318:	d945      	bls.n	1e3a6 <_Unwind_VRS_Pop+0x1c2>
   1e31a:	f1b9 0f00 	cmp.w	r9, #0
   1e31e:	d002      	beq.n	1e326 <_Unwind_VRS_Pop+0x142>
   1e320:	4668      	mov	r0, sp
   1e322:	f000 f8b7 	bl	1e494 <__gnu_Unwind_Restore_VFP_D_16_to_31>
   1e326:	2000      	movs	r0, #0
   1e328:	b043      	add	sp, #268	; 0x10c
   1e32a:	e8bd 83f0 	ldmia.w	sp!, {r4, r5, r6, r7, r8, r9, pc}
   1e32e:	b9dc      	cbnz	r4, 1e368 <_Unwind_VRS_Pop+0x184>
   1e330:	6b87      	ldr	r7, [r0, #56]	; 0x38
   1e332:	4623      	mov	r3, r4
   1e334:	2001      	movs	r0, #1
   1e336:	b294      	uxth	r4, r2
   1e338:	f106 0c04 	add.w	ip, r6, #4
   1e33c:	fa00 f203 	lsl.w	r2, r0, r3
   1e340:	4222      	tst	r2, r4
   1e342:	4639      	mov	r1, r7
   1e344:	d004      	beq.n	1e350 <_Unwind_VRS_Pop+0x16c>
   1e346:	f851 2b04 	ldr.w	r2, [r1], #4
   1e34a:	f84c 2023 	str.w	r2, [ip, r3, lsl #2]
   1e34e:	460f      	mov	r7, r1
   1e350:	3301      	adds	r3, #1
   1e352:	2b10      	cmp	r3, #16
   1e354:	d1f2      	bne.n	1e33c <_Unwind_VRS_Pop+0x158>
   1e356:	f415 5000 	ands.w	r0, r5, #8192	; 0x2000
   1e35a:	d1e4      	bne.n	1e326 <_Unwind_VRS_Pop+0x142>
   1e35c:	63b7      	str	r7, [r6, #56]	; 0x38
   1e35e:	e004      	b.n	1e36a <_Unwind_VRS_Pop+0x186>
   1e360:	eb08 0305 	add.w	r3, r8, r5
   1e364:	2b10      	cmp	r3, #16
   1e366:	d903      	bls.n	1e370 <_Unwind_VRS_Pop+0x18c>
   1e368:	2002      	movs	r0, #2
   1e36a:	b043      	add	sp, #268	; 0x10c
   1e36c:	e8bd 83f0 	ldmia.w	sp!, {r4, r5, r6, r7, r8, r9, pc}
   1e370:	f1b8 0f0f 	cmp.w	r8, #15
   1e374:	d8f8      	bhi.n	1e368 <_Unwind_VRS_Pop+0x184>
   1e376:	6833      	ldr	r3, [r6, #0]
   1e378:	07da      	lsls	r2, r3, #31
   1e37a:	d506      	bpl.n	1e38a <_Unwind_VRS_Pop+0x1a6>
   1e37c:	4630      	mov	r0, r6
   1e37e:	f023 0303 	bic.w	r3, r3, #3
   1e382:	f840 3b48 	str.w	r3, [r0], #72
   1e386:	f000 f879 	bl	1e47c <__gnu_Unwind_Save_VFP>
   1e38a:	af20      	add	r7, sp, #128	; 0x80
   1e38c:	4638      	mov	r0, r7
   1e38e:	f000 f875 	bl	1e47c <__gnu_Unwind_Save_VFP>
   1e392:	6bb3      	ldr	r3, [r6, #56]	; 0x38
   1e394:	2d00      	cmp	r5, #0
   1e396:	d199      	bne.n	1e2cc <_Unwind_VRS_Pop+0xe8>
   1e398:	461d      	mov	r5, r3
   1e39a:	3504      	adds	r5, #4
   1e39c:	63b5      	str	r5, [r6, #56]	; 0x38
   1e39e:	4638      	mov	r0, r7
   1e3a0:	f000 f868 	bl	1e474 <__gnu_Unwind_Restore_VFP>
   1e3a4:	e7bf      	b.n	1e326 <_Unwind_VRS_Pop+0x142>
   1e3a6:	a820      	add	r0, sp, #128	; 0x80
   1e3a8:	f000 f86c 	bl	1e484 <__gnu_Unwind_Restore_VFP_D>
   1e3ac:	e7b5      	b.n	1e31a <_Unwind_VRS_Pop+0x136>
   1e3ae:	f1b9 0f10 	cmp.w	r9, #16
   1e3b2:	d940      	bls.n	1e436 <_Unwind_VRS_Pop+0x252>
   1e3b4:	f1a9 0910 	sub.w	r9, r9, #16
   1e3b8:	6833      	ldr	r3, [r6, #0]
   1e3ba:	07d9      	lsls	r1, r3, #31
   1e3bc:	d508      	bpl.n	1e3d0 <_Unwind_VRS_Pop+0x1ec>
   1e3be:	f023 0301 	bic.w	r3, r3, #1
   1e3c2:	4630      	mov	r0, r6
   1e3c4:	f043 0302 	orr.w	r3, r3, #2
   1e3c8:	f840 3b48 	str.w	r3, [r0], #72
   1e3cc:	f000 f85e 	bl	1e48c <__gnu_Unwind_Save_VFP_D>
   1e3d0:	f1b9 0f00 	cmp.w	r9, #0
   1e3d4:	d032      	beq.n	1e43c <_Unwind_VRS_Pop+0x258>
   1e3d6:	6833      	ldr	r3, [r6, #0]
   1e3d8:	075a      	lsls	r2, r3, #29
   1e3da:	d420      	bmi.n	1e41e <_Unwind_VRS_Pop+0x23a>
   1e3dc:	f1b8 0f0f 	cmp.w	r8, #15
   1e3e0:	d925      	bls.n	1e42e <_Unwind_VRS_Pop+0x24a>
   1e3e2:	466f      	mov	r7, sp
   1e3e4:	4638      	mov	r0, r7
   1e3e6:	f1c8 0510 	rsb	r5, r8, #16
   1e3ea:	f000 f857 	bl	1e49c <__gnu_Unwind_Save_VFP_D_16_to_31>
   1e3ee:	2d00      	cmp	r5, #0
   1e3f0:	6bb3      	ldr	r3, [r6, #56]	; 0x38
   1e3f2:	f77f af7c 	ble.w	1e2ee <_Unwind_VRS_Pop+0x10a>
   1e3f6:	af20      	add	r7, sp, #128	; 0x80
   1e3f8:	e76a      	b.n	1e2d0 <_Unwind_VRS_Pop+0xec>
   1e3fa:	f023 0310 	bic.w	r3, r3, #16
   1e3fe:	6033      	str	r3, [r6, #0]
   1e400:	f506 70e8 	add.w	r0, r6, #464	; 0x1d0
   1e404:	f000 f89c 	bl	1e540 <__gnu_Unwind_Save_WMMXC>
   1e408:	e704      	b.n	1e214 <_Unwind_VRS_Pop+0x30>
   1e40a:	f023 0308 	bic.w	r3, r3, #8
   1e40e:	6003      	str	r3, [r0, #0]
   1e410:	f500 70a8 	add.w	r0, r0, #336	; 0x150
   1e414:	f000 f868 	bl	1e4e8 <__gnu_Unwind_Save_WMMXD>
   1e418:	e727      	b.n	1e26a <_Unwind_VRS_Pop+0x86>
   1e41a:	af20      	add	r7, sp, #128	; 0x80
   1e41c:	e7bd      	b.n	1e39a <_Unwind_VRS_Pop+0x1b6>
   1e41e:	4630      	mov	r0, r6
   1e420:	f023 0304 	bic.w	r3, r3, #4
   1e424:	f840 3bd0 	str.w	r3, [r0], #208
   1e428:	f000 f838 	bl	1e49c <__gnu_Unwind_Save_VFP_D_16_to_31>
   1e42c:	e7d6      	b.n	1e3dc <_Unwind_VRS_Pop+0x1f8>
   1e42e:	a820      	add	r0, sp, #128	; 0x80
   1e430:	f000 f82c 	bl	1e48c <__gnu_Unwind_Save_VFP_D>
   1e434:	e7d5      	b.n	1e3e2 <_Unwind_VRS_Pop+0x1fe>
   1e436:	f04f 0900 	mov.w	r9, #0
   1e43a:	e7bd      	b.n	1e3b8 <_Unwind_VRS_Pop+0x1d4>
   1e43c:	f1b8 0f0f 	cmp.w	r8, #15
   1e440:	f63f af41 	bhi.w	1e2c6 <_Unwind_VRS_Pop+0xe2>
   1e444:	af20      	add	r7, sp, #128	; 0x80
   1e446:	4638      	mov	r0, r7
   1e448:	f000 f820 	bl	1e48c <__gnu_Unwind_Save_VFP_D>
   1e44c:	6bb3      	ldr	r3, [r6, #56]	; 0x38
   1e44e:	2d00      	cmp	r5, #0
   1e450:	f47f af3c 	bne.w	1e2cc <_Unwind_VRS_Pop+0xe8>
   1e454:	4638      	mov	r0, r7
   1e456:	f000 f815 	bl	1e484 <__gnu_Unwind_Restore_VFP_D>
   1e45a:	e764      	b.n	1e326 <_Unwind_VRS_Pop+0x142>

0001e45c <__restore_core_regs>:
   1e45c:	f100 0134 	add.w	r1, r0, #52	; 0x34
   1e460:	e891 0038 	ldmia.w	r1, {r3, r4, r5}
   1e464:	469c      	mov	ip, r3
   1e466:	46a6      	mov	lr, r4
   1e468:	f84c 5d04 	str.w	r5, [ip, #-4]!
   1e46c:	e890 0fff 	ldmia.w	r0, {r0, r1, r2, r3, r4, r5, r6, r7, r8, r9, sl, fp}
   1e470:	46e5      	mov	sp, ip
   1e472:	bd00      	pop	{pc}

0001e474 <__gnu_Unwind_Restore_VFP>:
   1e474:	ec90 0b21 	fldmiax	r0, {d0-d15}	;@ Deprecated
   1e478:	4770      	bx	lr
   1e47a:	bf00      	nop

0001e47c <__gnu_Unwind_Save_VFP>:
   1e47c:	ec80 0b21 	fstmiax	r0, {d0-d15}	;@ Deprecated
   1e480:	4770      	bx	lr
   1e482:	bf00      	nop

0001e484 <__gnu_Unwind_Restore_VFP_D>:
   1e484:	ec90 0b20 	vldmia	r0, {d0-d15}
   1e488:	4770      	bx	lr
   1e48a:	bf00      	nop

0001e48c <__gnu_Unwind_Save_VFP_D>:
   1e48c:	ec80 0b20 	vstmia	r0, {d0-d15}
   1e490:	4770      	bx	lr
   1e492:	bf00      	nop

0001e494 <__gnu_Unwind_Restore_VFP_D_16_to_31>:
   1e494:	ecd0 0b20 	vldmia	r0, {d16-d31}
   1e498:	4770      	bx	lr
   1e49a:	bf00      	nop

0001e49c <__gnu_Unwind_Save_VFP_D_16_to_31>:
   1e49c:	ecc0 0b20 	vstmia	r0, {d16-d31}
   1e4a0:	4770      	bx	lr
   1e4a2:	bf00      	nop

0001e4a4 <__gnu_Unwind_Restore_WMMXD>:
   1e4a4:	ecf0 0102 	ldfe	f0, [r0], #8
   1e4a8:	ecf0 1102 	ldfe	f1, [r0], #8
   1e4ac:	ecf0 2102 	ldfe	f2, [r0], #8
   1e4b0:	ecf0 3102 	ldfe	f3, [r0], #8
   1e4b4:	ecf0 4102 	ldfe	f4, [r0], #8
   1e4b8:	ecf0 5102 	ldfe	f5, [r0], #8
   1e4bc:	ecf0 6102 	ldfe	f6, [r0], #8
   1e4c0:	ecf0 7102 	ldfe	f7, [r0], #8
   1e4c4:	ecf0 8102 	ldfp	f0, [r0], #8
   1e4c8:	ecf0 9102 	ldfp	f1, [r0], #8
   1e4cc:	ecf0 a102 	ldfp	f2, [r0], #8
   1e4d0:	ecf0 b102 	ldfp	f3, [r0], #8
   1e4d4:	ecf0 c102 	ldfp	f4, [r0], #8
   1e4d8:	ecf0 d102 	ldfp	f5, [r0], #8
   1e4dc:	ecf0 e102 	ldfp	f6, [r0], #8
   1e4e0:	ecf0 f102 	ldfp	f7, [r0], #8
   1e4e4:	4770      	bx	lr
   1e4e6:	bf00      	nop

0001e4e8 <__gnu_Unwind_Save_WMMXD>:
   1e4e8:	ece0 0102 	stfe	f0, [r0], #8
   1e4ec:	ece0 1102 	stfe	f1, [r0], #8
   1e4f0:	ece0 2102 	stfe	f2, [r0], #8
   1e4f4:	ece0 3102 	stfe	f3, [r0], #8
   1e4f8:	ece0 4102 	stfe	f4, [r0], #8
   1e4fc:	ece0 5102 	stfe	f5, [r0], #8
   1e500:	ece0 6102 	stfe	f6, [r0], #8
   1e504:	ece0 7102 	stfe	f7, [r0], #8
   1e508:	ece0 8102 	stfp	f0, [r0], #8
   1e50c:	ece0 9102 	stfp	f1, [r0], #8
   1e510:	ece0 a102 	stfp	f2, [r0], #8
   1e514:	ece0 b102 	stfp	f3, [r0], #8
   1e518:	ece0 c102 	stfp	f4, [r0], #8
   1e51c:	ece0 d102 	stfp	f5, [r0], #8
   1e520:	ece0 e102 	stfp	f6, [r0], #8
   1e524:	ece0 f102 	stfp	f7, [r0], #8
   1e528:	4770      	bx	lr
   1e52a:	bf00      	nop

0001e52c <__gnu_Unwind_Restore_WMMXC>:
   1e52c:	fcb0 8101 	ldc2	1, cr8, [r0], #4
   1e530:	fcb0 9101 	ldc2	1, cr9, [r0], #4
   1e534:	fcb0 a101 	ldc2	1, cr10, [r0], #4
   1e538:	fcb0 b101 	ldc2	1, cr11, [r0], #4
   1e53c:	4770      	bx	lr
   1e53e:	bf00      	nop

0001e540 <__gnu_Unwind_Save_WMMXC>:
   1e540:	fca0 8101 	stc2	1, cr8, [r0], #4
   1e544:	fca0 9101 	stc2	1, cr9, [r0], #4
   1e548:	fca0 a101 	stc2	1, cr10, [r0], #4
   1e54c:	fca0 b101 	stc2	1, cr11, [r0], #4
   1e550:	4770      	bx	lr
   1e552:	bf00      	nop

0001e554 <_Unwind_RaiseException>:
   1e554:	46ec      	mov	ip, sp
   1e556:	b500      	push	{lr}
   1e558:	e92d 5000 	stmdb	sp!, {ip, lr}
   1e55c:	e92d 1fff 	stmdb	sp!, {r0, r1, r2, r3, r4, r5, r6, r7, r8, r9, sl, fp, ip}
   1e560:	f04f 0300 	mov.w	r3, #0
   1e564:	e92d 000c 	stmdb	sp!, {r2, r3}
   1e568:	a901      	add	r1, sp, #4
   1e56a:	f7ff fbf1 	bl	1dd50 <__gnu_Unwind_RaiseException>
   1e56e:	f8dd e040 	ldr.w	lr, [sp, #64]	; 0x40
   1e572:	b012      	add	sp, #72	; 0x48
   1e574:	4770      	bx	lr
   1e576:	bf00      	nop

0001e578 <_Unwind_Resume>:
   1e578:	46ec      	mov	ip, sp
   1e57a:	b500      	push	{lr}
   1e57c:	e92d 5000 	stmdb	sp!, {ip, lr}
   1e580:	e92d 1fff 	stmdb	sp!, {r0, r1, r2, r3, r4, r5, r6, r7, r8, r9, sl, fp, ip}
   1e584:	f04f 0300 	mov.w	r3, #0
   1e588:	e92d 000c 	stmdb	sp!, {r2, r3}
   1e58c:	a901      	add	r1, sp, #4
   1e58e:	f7ff fc19 	bl	1ddc4 <__gnu_Unwind_Resume>
   1e592:	f8dd e040 	ldr.w	lr, [sp, #64]	; 0x40
   1e596:	b012      	add	sp, #72	; 0x48
   1e598:	4770      	bx	lr
   1e59a:	bf00      	nop

0001e59c <_Unwind_Resume_or_Rethrow>:
   1e59c:	46ec      	mov	ip, sp
   1e59e:	b500      	push	{lr}
   1e5a0:	e92d 5000 	stmdb	sp!, {ip, lr}
   1e5a4:	e92d 1fff 	stmdb	sp!, {r0, r1, r2, r3, r4, r5, r6, r7, r8, r9, sl, fp, ip}
   1e5a8:	f04f 0300 	mov.w	r3, #0
   1e5ac:	e92d 000c 	stmdb	sp!, {r2, r3}
   1e5b0:	a901      	add	r1, sp, #4
   1e5b2:	f7ff fc29 	bl	1de08 <__gnu_Unwind_Resume_or_Rethrow>
   1e5b6:	f8dd e040 	ldr.w	lr, [sp, #64]	; 0x40
   1e5ba:	b012      	add	sp, #72	; 0x48
   1e5bc:	4770      	bx	lr
   1e5be:	bf00      	nop

0001e5c0 <_Unwind_ForcedUnwind>:
   1e5c0:	46ec      	mov	ip, sp
   1e5c2:	b500      	push	{lr}
   1e5c4:	e92d 5000 	stmdb	sp!, {ip, lr}
   1e5c8:	e92d 1fff 	stmdb	sp!, {r0, r1, r2, r3, r4, r5, r6, r7, r8, r9, sl, fp, ip}
   1e5cc:	f04f 0300 	mov.w	r3, #0
   1e5d0:	e92d 000c 	stmdb	sp!, {r2, r3}
   1e5d4:	ab01      	add	r3, sp, #4
   1e5d6:	f7ff fbeb 	bl	1ddb0 <__gnu_Unwind_ForcedUnwind>
   1e5da:	f8dd e040 	ldr.w	lr, [sp, #64]	; 0x40
   1e5de:	b012      	add	sp, #72	; 0x48
   1e5e0:	4770      	bx	lr
   1e5e2:	bf00      	nop

0001e5e4 <_Unwind_Backtrace>:
   1e5e4:	46ec      	mov	ip, sp
   1e5e6:	b500      	push	{lr}
   1e5e8:	e92d 5000 	stmdb	sp!, {ip, lr}
   1e5ec:	e92d 1fff 	stmdb	sp!, {r0, r1, r2, r3, r4, r5, r6, r7, r8, r9, sl, fp, ip}
   1e5f0:	f04f 0300 	mov.w	r3, #0
   1e5f4:	e92d 000c 	stmdb	sp!, {r2, r3}
   1e5f8:	aa01      	add	r2, sp, #4
   1e5fa:	f7ff fc5d 	bl	1deb8 <__gnu_Unwind_Backtrace>
   1e5fe:	f8dd e040 	ldr.w	lr, [sp, #64]	; 0x40
   1e602:	b012      	add	sp, #72	; 0x48
   1e604:	4770      	bx	lr
   1e606:	bf00      	nop

0001e608 <next_unwind_byte>:
   1e608:	7a02      	ldrb	r2, [r0, #8]
   1e60a:	b97a      	cbnz	r2, 1e62c <next_unwind_byte+0x24>
   1e60c:	7a43      	ldrb	r3, [r0, #9]
   1e60e:	b1a3      	cbz	r3, 1e63a <next_unwind_byte+0x32>
   1e610:	6842      	ldr	r2, [r0, #4]
   1e612:	3b01      	subs	r3, #1
   1e614:	b410      	push	{r4}
   1e616:	7243      	strb	r3, [r0, #9]
   1e618:	6813      	ldr	r3, [r2, #0]
   1e61a:	2103      	movs	r1, #3
   1e61c:	1d14      	adds	r4, r2, #4
   1e61e:	7201      	strb	r1, [r0, #8]
   1e620:	021a      	lsls	r2, r3, #8
   1e622:	6044      	str	r4, [r0, #4]
   1e624:	6002      	str	r2, [r0, #0]
   1e626:	bc10      	pop	{r4}
   1e628:	0e18      	lsrs	r0, r3, #24
   1e62a:	4770      	bx	lr
   1e62c:	6803      	ldr	r3, [r0, #0]
   1e62e:	3a01      	subs	r2, #1
   1e630:	7202      	strb	r2, [r0, #8]
   1e632:	021a      	lsls	r2, r3, #8
   1e634:	6002      	str	r2, [r0, #0]
   1e636:	0e18      	lsrs	r0, r3, #24
   1e638:	4770      	bx	lr
   1e63a:	20b0      	movs	r0, #176	; 0xb0
   1e63c:	4770      	bx	lr
   1e63e:	bf00      	nop

0001e640 <_Unwind_GetGR.constprop.0>:
   1e640:	b500      	push	{lr}
   1e642:	b085      	sub	sp, #20
   1e644:	aa03      	add	r2, sp, #12
   1e646:	2300      	movs	r3, #0
   1e648:	9200      	str	r2, [sp, #0]
   1e64a:	4619      	mov	r1, r3
   1e64c:	220c      	movs	r2, #12
   1e64e:	f7ff fbeb 	bl	1de28 <_Unwind_VRS_Get>
   1e652:	9803      	ldr	r0, [sp, #12]
   1e654:	b005      	add	sp, #20
   1e656:	f85d fb04 	ldr.w	pc, [sp], #4
   1e65a:	bf00      	nop

0001e65c <unwind_UCB_from_context>:
   1e65c:	e7f0      	b.n	1e640 <_Unwind_GetGR.constprop.0>
   1e65e:	bf00      	nop

0001e660 <__gnu_unwind_execute>:
   1e660:	e92d 43f0 	stmdb	sp!, {r4, r5, r6, r7, r8, r9, lr}
   1e664:	4605      	mov	r5, r0
   1e666:	b085      	sub	sp, #20
   1e668:	460e      	mov	r6, r1
   1e66a:	f04f 0800 	mov.w	r8, #0
   1e66e:	4630      	mov	r0, r6
   1e670:	f7ff ffca 	bl	1e608 <next_unwind_byte>
   1e674:	28b0      	cmp	r0, #176	; 0xb0
   1e676:	4604      	mov	r4, r0
   1e678:	f000 80b2 	beq.w	1e7e0 <__gnu_unwind_execute+0x180>
   1e67c:	0607      	lsls	r7, r0, #24
   1e67e:	d520      	bpl.n	1e6c2 <__gnu_unwind_execute+0x62>
   1e680:	f000 03f0 	and.w	r3, r0, #240	; 0xf0
   1e684:	2b80      	cmp	r3, #128	; 0x80
   1e686:	d04d      	beq.n	1e724 <__gnu_unwind_execute+0xc4>
   1e688:	2b90      	cmp	r3, #144	; 0x90
   1e68a:	d036      	beq.n	1e6fa <__gnu_unwind_execute+0x9a>
   1e68c:	2ba0      	cmp	r3, #160	; 0xa0
   1e68e:	d060      	beq.n	1e752 <__gnu_unwind_execute+0xf2>
   1e690:	2bb0      	cmp	r3, #176	; 0xb0
   1e692:	d074      	beq.n	1e77e <__gnu_unwind_execute+0x11e>
   1e694:	2bc0      	cmp	r3, #192	; 0xc0
   1e696:	f000 808b 	beq.w	1e7b0 <__gnu_unwind_execute+0x150>
   1e69a:	f000 03f8 	and.w	r3, r0, #248	; 0xf8
   1e69e:	2bd0      	cmp	r3, #208	; 0xd0
   1e6a0:	d10b      	bne.n	1e6ba <__gnu_unwind_execute+0x5a>
   1e6a2:	f000 0207 	and.w	r2, r0, #7
   1e6a6:	3201      	adds	r2, #1
   1e6a8:	f442 2200 	orr.w	r2, r2, #524288	; 0x80000
   1e6ac:	2305      	movs	r3, #5
   1e6ae:	2101      	movs	r1, #1
   1e6b0:	4628      	mov	r0, r5
   1e6b2:	f7ff fd97 	bl	1e1e4 <_Unwind_VRS_Pop>
   1e6b6:	2800      	cmp	r0, #0
   1e6b8:	d0d9      	beq.n	1e66e <__gnu_unwind_execute+0xe>
   1e6ba:	2009      	movs	r0, #9
   1e6bc:	b005      	add	sp, #20
   1e6be:	e8bd 83f0 	ldmia.w	sp!, {r4, r5, r6, r7, r8, r9, pc}
   1e6c2:	f10d 090c 	add.w	r9, sp, #12
   1e6c6:	2300      	movs	r3, #0
   1e6c8:	4619      	mov	r1, r3
   1e6ca:	0087      	lsls	r7, r0, #2
   1e6cc:	f8cd 9000 	str.w	r9, [sp]
   1e6d0:	220d      	movs	r2, #13
   1e6d2:	4628      	mov	r0, r5
   1e6d4:	f7ff fba8 	bl	1de28 <_Unwind_VRS_Get>
   1e6d8:	b2ff      	uxtb	r7, r7
   1e6da:	9b03      	ldr	r3, [sp, #12]
   1e6dc:	f8cd 9000 	str.w	r9, [sp]
   1e6e0:	3704      	adds	r7, #4
   1e6e2:	0660      	lsls	r0, r4, #25
   1e6e4:	bf4c      	ite	mi
   1e6e6:	1bdf      	submi	r7, r3, r7
   1e6e8:	18ff      	addpl	r7, r7, r3
   1e6ea:	2300      	movs	r3, #0
   1e6ec:	4619      	mov	r1, r3
   1e6ee:	220d      	movs	r2, #13
   1e6f0:	4628      	mov	r0, r5
   1e6f2:	9703      	str	r7, [sp, #12]
   1e6f4:	f7ff fbbc 	bl	1de70 <_Unwind_VRS_Set>
   1e6f8:	e7b9      	b.n	1e66e <__gnu_unwind_execute+0xe>
   1e6fa:	f000 030d 	and.w	r3, r0, #13
   1e6fe:	2b0d      	cmp	r3, #13
   1e700:	d0db      	beq.n	1e6ba <__gnu_unwind_execute+0x5a>
   1e702:	af03      	add	r7, sp, #12
   1e704:	2300      	movs	r3, #0
   1e706:	f000 020f 	and.w	r2, r0, #15
   1e70a:	4619      	mov	r1, r3
   1e70c:	9700      	str	r7, [sp, #0]
   1e70e:	4628      	mov	r0, r5
   1e710:	f7ff fb8a 	bl	1de28 <_Unwind_VRS_Get>
   1e714:	2300      	movs	r3, #0
   1e716:	9700      	str	r7, [sp, #0]
   1e718:	4619      	mov	r1, r3
   1e71a:	220d      	movs	r2, #13
   1e71c:	4628      	mov	r0, r5
   1e71e:	f7ff fba7 	bl	1de70 <_Unwind_VRS_Set>
   1e722:	e7a4      	b.n	1e66e <__gnu_unwind_execute+0xe>
   1e724:	4630      	mov	r0, r6
   1e726:	f7ff ff6f 	bl	1e608 <next_unwind_byte>
   1e72a:	0224      	lsls	r4, r4, #8
   1e72c:	4320      	orrs	r0, r4
   1e72e:	f5b0 4f00 	cmp.w	r0, #32768	; 0x8000
   1e732:	d0c2      	beq.n	1e6ba <__gnu_unwind_execute+0x5a>
   1e734:	0104      	lsls	r4, r0, #4
   1e736:	2300      	movs	r3, #0
   1e738:	b2a2      	uxth	r2, r4
   1e73a:	4619      	mov	r1, r3
   1e73c:	4628      	mov	r0, r5
   1e73e:	f7ff fd51 	bl	1e1e4 <_Unwind_VRS_Pop>
   1e742:	2800      	cmp	r0, #0
   1e744:	d1b9      	bne.n	1e6ba <__gnu_unwind_execute+0x5a>
   1e746:	f414 4f00 	tst.w	r4, #32768	; 0x8000
   1e74a:	bf18      	it	ne
   1e74c:	f04f 0801 	movne.w	r8, #1
   1e750:	e78d      	b.n	1e66e <__gnu_unwind_execute+0xe>
   1e752:	43c2      	mvns	r2, r0
   1e754:	f002 0307 	and.w	r3, r2, #7
   1e758:	f44f 627f 	mov.w	r2, #4080	; 0xff0
   1e75c:	411a      	asrs	r2, r3
   1e75e:	0701      	lsls	r1, r0, #28
   1e760:	f402 627f 	and.w	r2, r2, #4080	; 0xff0
   1e764:	f04f 0300 	mov.w	r3, #0
   1e768:	bf48      	it	mi
   1e76a:	f442 4280 	orrmi.w	r2, r2, #16384	; 0x4000
   1e76e:	4619      	mov	r1, r3
   1e770:	4628      	mov	r0, r5
   1e772:	f7ff fd37 	bl	1e1e4 <_Unwind_VRS_Pop>
   1e776:	2800      	cmp	r0, #0
   1e778:	f43f af79 	beq.w	1e66e <__gnu_unwind_execute+0xe>
   1e77c:	e79d      	b.n	1e6ba <__gnu_unwind_execute+0x5a>
   1e77e:	28b1      	cmp	r0, #177	; 0xb1
   1e780:	d033      	beq.n	1e7ea <__gnu_unwind_execute+0x18a>
   1e782:	28b2      	cmp	r0, #178	; 0xb2
   1e784:	f000 808b 	beq.w	1e89e <__gnu_unwind_execute+0x23e>
   1e788:	28b3      	cmp	r0, #179	; 0xb3
   1e78a:	d039      	beq.n	1e800 <__gnu_unwind_execute+0x1a0>
   1e78c:	f000 03fc 	and.w	r3, r0, #252	; 0xfc
   1e790:	2bb4      	cmp	r3, #180	; 0xb4
   1e792:	d092      	beq.n	1e6ba <__gnu_unwind_execute+0x5a>
   1e794:	f000 0207 	and.w	r2, r0, #7
   1e798:	3201      	adds	r2, #1
   1e79a:	2301      	movs	r3, #1
   1e79c:	f442 2200 	orr.w	r2, r2, #524288	; 0x80000
   1e7a0:	4619      	mov	r1, r3
   1e7a2:	4628      	mov	r0, r5
   1e7a4:	f7ff fd1e 	bl	1e1e4 <_Unwind_VRS_Pop>
   1e7a8:	2800      	cmp	r0, #0
   1e7aa:	f43f af60 	beq.w	1e66e <__gnu_unwind_execute+0xe>
   1e7ae:	e784      	b.n	1e6ba <__gnu_unwind_execute+0x5a>
   1e7b0:	28c6      	cmp	r0, #198	; 0xc6
   1e7b2:	d042      	beq.n	1e83a <__gnu_unwind_execute+0x1da>
   1e7b4:	28c7      	cmp	r0, #199	; 0xc7
   1e7b6:	d04c      	beq.n	1e852 <__gnu_unwind_execute+0x1f2>
   1e7b8:	f000 03f8 	and.w	r3, r0, #248	; 0xf8
   1e7bc:	2bc0      	cmp	r3, #192	; 0xc0
   1e7be:	d05b      	beq.n	1e878 <__gnu_unwind_execute+0x218>
   1e7c0:	28c8      	cmp	r0, #200	; 0xc8
   1e7c2:	d060      	beq.n	1e886 <__gnu_unwind_execute+0x226>
   1e7c4:	28c9      	cmp	r0, #201	; 0xc9
   1e7c6:	f47f af78 	bne.w	1e6ba <__gnu_unwind_execute+0x5a>
   1e7ca:	4630      	mov	r0, r6
   1e7cc:	f7ff ff1c 	bl	1e608 <next_unwind_byte>
   1e7d0:	0302      	lsls	r2, r0, #12
   1e7d2:	f000 000f 	and.w	r0, r0, #15
   1e7d6:	f402 2270 	and.w	r2, r2, #983040	; 0xf0000
   1e7da:	3001      	adds	r0, #1
   1e7dc:	4302      	orrs	r2, r0
   1e7de:	e765      	b.n	1e6ac <__gnu_unwind_execute+0x4c>
   1e7e0:	f1b8 0f00 	cmp.w	r8, #0
   1e7e4:	d018      	beq.n	1e818 <__gnu_unwind_execute+0x1b8>
   1e7e6:	2000      	movs	r0, #0
   1e7e8:	e768      	b.n	1e6bc <__gnu_unwind_execute+0x5c>
   1e7ea:	4630      	mov	r0, r6
   1e7ec:	f7ff ff0c 	bl	1e608 <next_unwind_byte>
   1e7f0:	4602      	mov	r2, r0
   1e7f2:	2800      	cmp	r0, #0
   1e7f4:	f43f af61 	beq.w	1e6ba <__gnu_unwind_execute+0x5a>
   1e7f8:	f010 03f0 	ands.w	r3, r0, #240	; 0xf0
   1e7fc:	d0d0      	beq.n	1e7a0 <__gnu_unwind_execute+0x140>
   1e7fe:	e75c      	b.n	1e6ba <__gnu_unwind_execute+0x5a>
   1e800:	4630      	mov	r0, r6
   1e802:	f7ff ff01 	bl	1e608 <next_unwind_byte>
   1e806:	0301      	lsls	r1, r0, #12
   1e808:	f000 000f 	and.w	r0, r0, #15
   1e80c:	f401 2170 	and.w	r1, r1, #983040	; 0xf0000
   1e810:	1c42      	adds	r2, r0, #1
   1e812:	2301      	movs	r3, #1
   1e814:	430a      	orrs	r2, r1
   1e816:	e7c3      	b.n	1e7a0 <__gnu_unwind_execute+0x140>
   1e818:	ac03      	add	r4, sp, #12
   1e81a:	4643      	mov	r3, r8
   1e81c:	220e      	movs	r2, #14
   1e81e:	4641      	mov	r1, r8
   1e820:	9400      	str	r4, [sp, #0]
   1e822:	4628      	mov	r0, r5
   1e824:	f7ff fb00 	bl	1de28 <_Unwind_VRS_Get>
   1e828:	9400      	str	r4, [sp, #0]
   1e82a:	4628      	mov	r0, r5
   1e82c:	4643      	mov	r3, r8
   1e82e:	220f      	movs	r2, #15
   1e830:	4641      	mov	r1, r8
   1e832:	f7ff fb1d 	bl	1de70 <_Unwind_VRS_Set>
   1e836:	4640      	mov	r0, r8
   1e838:	e740      	b.n	1e6bc <__gnu_unwind_execute+0x5c>
   1e83a:	4630      	mov	r0, r6
   1e83c:	f7ff fee4 	bl	1e608 <next_unwind_byte>
   1e840:	0301      	lsls	r1, r0, #12
   1e842:	f000 000f 	and.w	r0, r0, #15
   1e846:	f401 2170 	and.w	r1, r1, #983040	; 0xf0000
   1e84a:	1c42      	adds	r2, r0, #1
   1e84c:	2303      	movs	r3, #3
   1e84e:	430a      	orrs	r2, r1
   1e850:	e7a6      	b.n	1e7a0 <__gnu_unwind_execute+0x140>
   1e852:	4630      	mov	r0, r6
   1e854:	f7ff fed8 	bl	1e608 <next_unwind_byte>
   1e858:	4602      	mov	r2, r0
   1e85a:	2800      	cmp	r0, #0
   1e85c:	f43f af2d 	beq.w	1e6ba <__gnu_unwind_execute+0x5a>
   1e860:	f010 03f0 	ands.w	r3, r0, #240	; 0xf0
   1e864:	f47f af29 	bne.w	1e6ba <__gnu_unwind_execute+0x5a>
   1e868:	2104      	movs	r1, #4
   1e86a:	4628      	mov	r0, r5
   1e86c:	f7ff fcba 	bl	1e1e4 <_Unwind_VRS_Pop>
   1e870:	2800      	cmp	r0, #0
   1e872:	f43f aefc 	beq.w	1e66e <__gnu_unwind_execute+0xe>
   1e876:	e720      	b.n	1e6ba <__gnu_unwind_execute+0x5a>
   1e878:	f000 020f 	and.w	r2, r0, #15
   1e87c:	3201      	adds	r2, #1
   1e87e:	2303      	movs	r3, #3
   1e880:	f442 2220 	orr.w	r2, r2, #655360	; 0xa0000
   1e884:	e78c      	b.n	1e7a0 <__gnu_unwind_execute+0x140>
   1e886:	4630      	mov	r0, r6
   1e888:	f7ff febe 	bl	1e608 <next_unwind_byte>
   1e88c:	f000 02f0 	and.w	r2, r0, #240	; 0xf0
   1e890:	f000 030f 	and.w	r3, r0, #15
   1e894:	3210      	adds	r2, #16
   1e896:	3301      	adds	r3, #1
   1e898:	ea43 3202 	orr.w	r2, r3, r2, lsl #12
   1e89c:	e706      	b.n	1e6ac <__gnu_unwind_execute+0x4c>
   1e89e:	2300      	movs	r3, #0
   1e8a0:	f10d 090c 	add.w	r9, sp, #12
   1e8a4:	220d      	movs	r2, #13
   1e8a6:	4619      	mov	r1, r3
   1e8a8:	f8cd 9000 	str.w	r9, [sp]
   1e8ac:	4628      	mov	r0, r5
   1e8ae:	f7ff fabb 	bl	1de28 <_Unwind_VRS_Get>
   1e8b2:	4630      	mov	r0, r6
   1e8b4:	f7ff fea8 	bl	1e608 <next_unwind_byte>
   1e8b8:	0602      	lsls	r2, r0, #24
   1e8ba:	f04f 0702 	mov.w	r7, #2
   1e8be:	d50c      	bpl.n	1e8da <__gnu_unwind_execute+0x27a>
   1e8c0:	9b03      	ldr	r3, [sp, #12]
   1e8c2:	f000 007f 	and.w	r0, r0, #127	; 0x7f
   1e8c6:	40b8      	lsls	r0, r7
   1e8c8:	4403      	add	r3, r0
   1e8ca:	4630      	mov	r0, r6
   1e8cc:	9303      	str	r3, [sp, #12]
   1e8ce:	f7ff fe9b 	bl	1e608 <next_unwind_byte>
   1e8d2:	0603      	lsls	r3, r0, #24
   1e8d4:	f107 0707 	add.w	r7, r7, #7
   1e8d8:	d4f2      	bmi.n	1e8c0 <__gnu_unwind_execute+0x260>
   1e8da:	9b03      	ldr	r3, [sp, #12]
   1e8dc:	f8cd 9000 	str.w	r9, [sp]
   1e8e0:	f000 047f 	and.w	r4, r0, #127	; 0x7f
   1e8e4:	f503 7201 	add.w	r2, r3, #516	; 0x204
   1e8e8:	40bc      	lsls	r4, r7
   1e8ea:	2300      	movs	r3, #0
   1e8ec:	4414      	add	r4, r2
   1e8ee:	4619      	mov	r1, r3
   1e8f0:	220d      	movs	r2, #13
   1e8f2:	4628      	mov	r0, r5
   1e8f4:	9403      	str	r4, [sp, #12]
   1e8f6:	f7ff fabb 	bl	1de70 <_Unwind_VRS_Set>
   1e8fa:	e6b8      	b.n	1e66e <__gnu_unwind_execute+0xe>

0001e8fc <__gnu_unwind_frame>:
   1e8fc:	b510      	push	{r4, lr}
   1e8fe:	6cc2      	ldr	r2, [r0, #76]	; 0x4c
   1e900:	b084      	sub	sp, #16
   1e902:	6853      	ldr	r3, [r2, #4]
   1e904:	2403      	movs	r4, #3
   1e906:	f88d 400c 	strb.w	r4, [sp, #12]
   1e90a:	021b      	lsls	r3, r3, #8
   1e90c:	f102 0408 	add.w	r4, r2, #8
   1e910:	4608      	mov	r0, r1
   1e912:	79d2      	ldrb	r2, [r2, #7]
   1e914:	9301      	str	r3, [sp, #4]
   1e916:	a901      	add	r1, sp, #4
   1e918:	9402      	str	r4, [sp, #8]
   1e91a:	f88d 200d 	strb.w	r2, [sp, #13]
   1e91e:	f7ff fe9f 	bl	1e660 <__gnu_unwind_execute>
   1e922:	b004      	add	sp, #16
   1e924:	bd10      	pop	{r4, pc}
   1e926:	bf00      	nop

0001e928 <_Unwind_GetRegionStart>:
   1e928:	b508      	push	{r3, lr}
   1e92a:	f7ff fe97 	bl	1e65c <unwind_UCB_from_context>
   1e92e:	6c80      	ldr	r0, [r0, #72]	; 0x48
   1e930:	bd08      	pop	{r3, pc}
   1e932:	bf00      	nop

0001e934 <_Unwind_GetLanguageSpecificData>:
   1e934:	b508      	push	{r3, lr}
   1e936:	f7ff fe91 	bl	1e65c <unwind_UCB_from_context>
   1e93a:	6cc0      	ldr	r0, [r0, #76]	; 0x4c
   1e93c:	79c3      	ldrb	r3, [r0, #7]
   1e93e:	3302      	adds	r3, #2
   1e940:	eb00 0083 	add.w	r0, r0, r3, lsl #2
   1e944:	bd08      	pop	{r3, pc}
   1e946:	bf00      	nop

0001e948 <abort>:
   1e948:	b508      	push	{r3, lr}
   1e94a:	2006      	movs	r0, #6
   1e94c:	f000 f82c 	bl	1e9a8 <raise>
   1e950:	2001      	movs	r0, #1
   1e952:	f7fe fc99 	bl	1d288 <_exit>

0001e956 <_raise_r>:
   1e956:	291f      	cmp	r1, #31
   1e958:	b538      	push	{r3, r4, r5, lr}
   1e95a:	4604      	mov	r4, r0
   1e95c:	460d      	mov	r5, r1
   1e95e:	d904      	bls.n	1e96a <_raise_r+0x14>
   1e960:	2316      	movs	r3, #22
   1e962:	6003      	str	r3, [r0, #0]
   1e964:	f04f 30ff 	mov.w	r0, #4294967295	; 0xffffffff
   1e968:	bd38      	pop	{r3, r4, r5, pc}
   1e96a:	6c42      	ldr	r2, [r0, #68]	; 0x44
   1e96c:	b112      	cbz	r2, 1e974 <_raise_r+0x1e>
   1e96e:	f852 3021 	ldr.w	r3, [r2, r1, lsl #2]
   1e972:	b94b      	cbnz	r3, 1e988 <_raise_r+0x32>
   1e974:	4620      	mov	r0, r4
   1e976:	f000 f831 	bl	1e9dc <_getpid_r>
   1e97a:	462a      	mov	r2, r5
   1e97c:	4601      	mov	r1, r0
   1e97e:	4620      	mov	r0, r4
   1e980:	e8bd 4038 	ldmia.w	sp!, {r3, r4, r5, lr}
   1e984:	f000 b818 	b.w	1e9b8 <_kill_r>
   1e988:	2b01      	cmp	r3, #1
   1e98a:	d00a      	beq.n	1e9a2 <_raise_r+0x4c>
   1e98c:	1c59      	adds	r1, r3, #1
   1e98e:	d103      	bne.n	1e998 <_raise_r+0x42>
   1e990:	2316      	movs	r3, #22
   1e992:	6003      	str	r3, [r0, #0]
   1e994:	2001      	movs	r0, #1
   1e996:	e7e7      	b.n	1e968 <_raise_r+0x12>
   1e998:	2400      	movs	r4, #0
   1e99a:	f842 4025 	str.w	r4, [r2, r5, lsl #2]
   1e99e:	4628      	mov	r0, r5
   1e9a0:	4798      	blx	r3
   1e9a2:	2000      	movs	r0, #0
   1e9a4:	e7e0      	b.n	1e968 <_raise_r+0x12>
	...

0001e9a8 <raise>:
   1e9a8:	4b02      	ldr	r3, [pc, #8]	; (1e9b4 <raise+0xc>)
   1e9aa:	4601      	mov	r1, r0
   1e9ac:	6818      	ldr	r0, [r3, #0]
   1e9ae:	f7ff bfd2 	b.w	1e956 <_raise_r>
   1e9b2:	bf00      	nop
   1e9b4:	20001838 	.word	0x20001838

0001e9b8 <_kill_r>:
   1e9b8:	b538      	push	{r3, r4, r5, lr}
   1e9ba:	4d07      	ldr	r5, [pc, #28]	; (1e9d8 <_kill_r+0x20>)
   1e9bc:	2300      	movs	r3, #0
   1e9be:	4604      	mov	r4, r0
   1e9c0:	4608      	mov	r0, r1
   1e9c2:	4611      	mov	r1, r2
   1e9c4:	602b      	str	r3, [r5, #0]
   1e9c6:	f000 f813 	bl	1e9f0 <_kill>
   1e9ca:	1c43      	adds	r3, r0, #1
   1e9cc:	d102      	bne.n	1e9d4 <_kill_r+0x1c>
   1e9ce:	682b      	ldr	r3, [r5, #0]
   1e9d0:	b103      	cbz	r3, 1e9d4 <_kill_r+0x1c>
   1e9d2:	6023      	str	r3, [r4, #0]
   1e9d4:	bd38      	pop	{r3, r4, r5, pc}
   1e9d6:	bf00      	nop
   1e9d8:	20001d7c 	.word	0x20001d7c

0001e9dc <_getpid_r>:
   1e9dc:	f000 b800 	b.w	1e9e0 <_getpid>

0001e9e0 <_getpid>:
   1e9e0:	4b02      	ldr	r3, [pc, #8]	; (1e9ec <_getpid+0xc>)
   1e9e2:	2258      	movs	r2, #88	; 0x58
   1e9e4:	601a      	str	r2, [r3, #0]
   1e9e6:	f04f 30ff 	mov.w	r0, #4294967295	; 0xffffffff
   1e9ea:	4770      	bx	lr
   1e9ec:	20001d7c 	.word	0x20001d7c

0001e9f0 <_kill>:
   1e9f0:	4b02      	ldr	r3, [pc, #8]	; (1e9fc <_kill+0xc>)
   1e9f2:	2258      	movs	r2, #88	; 0x58
   1e9f4:	601a      	str	r2, [r3, #0]
   1e9f6:	f04f 30ff 	mov.w	r0, #4294967295	; 0xffffffff
   1e9fa:	4770      	bx	lr
   1e9fc:	20001d7c 	.word	0x20001d7c

0001ea00 <_init>:
   1ea00:	b5f8      	push	{r3, r4, r5, r6, r7, lr}
   1ea02:	bf00      	nop
   1ea04:	bcf8      	pop	{r3, r4, r5, r6, r7}
   1ea06:	bc08      	pop	{r3}
   1ea08:	469e      	mov	lr, r3
   1ea0a:	4770      	bx	lr

0001ea0c <_fini>:
   1ea0c:	b5f8      	push	{r3, r4, r5, r6, r7, lr}
   1ea0e:	bf00      	nop
   1ea10:	bcf8      	pop	{r3, r4, r5, r6, r7}
   1ea12:	bc08      	pop	{r3}
   1ea14:	469e      	mov	lr, r3
   1ea16:	4770      	bx	lr
   1ea18:	00060001 	.word	0x00060001

0001ea1c <m_app_timer_sortlist>:
   1ea1c:	00000000 200018c4 00019379 00000000     ....... y.......
   1ea2c:	00000000                                ....

0001ea30 <delay_machine_code.6859>:
   1ea30:	d8fd3807 00004770                       .8..pG..

0001ea38 <pwr_mgmt_data>:
   1ea38:	0001f00c 0001f00c 00000004 69532020     ............  Si
   1ea48:	31353037 77617220 6425203a 3a462020     7051 raw: %d  F:
   1ea58:	32302520 64252e64 0000000a 6e692020      %02d.%d....  in
   1ea68:	6e726574 72206c61 203a7761 20206425     ternal raw: %d  
   1ea78:	25203a46 2e643230 000a6425 6d542020     F: %02d.%d..  Tm
   1ea88:	37313170 77617220 6425203a 3a462020     p117 raw: %d  F:
   1ea98:	32302520 64252e64 0000000a 656c2020      %02d.%d....  le
   1eaa8:	25203a6e 20207532 65707974 3025203a     n: %2u  type: %0
   1eab8:	20207832 61746164 0000203a 732a2e25     2x  data: ..%.*s
   1eac8:	00000020 38335b1b 343b323b 33313b36      ....[38;2;46;13
   1ead8:	37383b39 30255b6d 252e6434 5d643630     9;87m[%04d.%06d]
   1eae8:	3a73255b 3a206425 5d73253a 335b1b0a     [%s:%d ::%s]..[3
   1eaf8:	3b323b38 3b353532 3b353532 6d353532     8;2;255;255;255m
   1eb08:	00000000 58323025 00000000 00006325     ....%02X....%c..
   1eb18:	58323025 00000020 74746142 3a797265     %02X ...Battery:
   1eb28:	6470753a 20657461 2e752520 75333025     :update  %u.%03u
   1eb38:	00000a56 38335b1b 323b323b 303b3535     V....[38;2;255;0
   1eb48:	456d303b 726f7272 6425203a 305b1b0a     ;0mError: %d..[0
   1eb58:	0000006d 73616c46 683a3a68 6c646e61     m...Flash::handl
   1eb68:	65207265 746e6576 25203a20 00000a64     er event : %d...
   1eb78:	20202020 63637573 0a737365 00000000         success.....
   1eb88:	6c6c7566 656d616e 616c6620 76206873     fullname flash v
   1eb98:	65756c61 200a3a73 00202020 2020200a     alues:.    ..   
   1eba8:	00000020 20202020 6f727265 00000a72      ...    error...
   1ebb8:	35364c42 6d657431 616f4270 3a3a6472     BL651tempBoard::
   1ebc8:	74696e69 0a2e2e2e 00000000 73616c46     init........Flas
   1ebd8:	693a3a68 2e74696e 000a2e2e 20202020     h::init.....    
   1ebe8:	656d616e 7325203a 0000000a 614e6f4e     name: %s....NoNa
   1ebf8:	0000656d 412f2e2e 72657664 69736974     me..../Advertisi
   1ec08:	682e676e 00007070 656b616d 00000000     ng.hpp..make....
   1ec18:	61622020 72657474 25203a79 0a566d64       battery: %dmV.
   1ec28:	00000000 3a656c42 696e693a 2e2e2e74     ....Ble::init...
   1ec38:	0000000a 20202020 206d6172 72617473     ....    ram star
   1ec48:	30203a74 38302578 00000a58 3a706147     t: 0x%08X...Gap:
   1ec58:	696e693a 2e2e2e74 0000000a 73616c46     :init.......Flas
   1ec68:	733a3a68 4e657661 20656d61 7325203a     h::saveName : %s
   1ec78:	0000000a 20202020 73616c66 75622068     ....    flash bu
   1ec88:	000a7973 73616c46 733a3a68 616c4664     sy..Flash::sdFla
   1ec98:	72576873 33657469 00000a32 20202020     shWrite32...    
   1eca8:	75746572 76206e72 203a6c61 000a7525     return val: %u..
   1ecb8:	73616c46 733a3a68 61724564 61506573     Flash::sdErasePa
   1ecc8:	000a6567 542f2e2e 65706d65 75746172     ge..../Temperatu
   1ecd8:	682e6572 00007070 64616572 00000000     re.hpp..read....
   1ece8:	38335b1b 323b323b 303b3535 206d303b     .[38;2;255;0;0m 
   1ecf8:	69616620 2064656c 72206f74 20646165      failed to read 
   1ed08:	706d6574 6c617620 1b0a6575 3b38335b     temp value..[38;
   1ed18:	35323b32 35323b35 35323b35 00006d35     2;255;255;255m..
   1ed28:	65722020 6e727574 64206465 75616665       returned defau
   1ed38:	7420746c 20706d65 756c6176 00000a65     lt temp value...
   1ed48:	38335b1b 323b323b 303b3535 206d303b     .[38;2;255;0;0m 
   1ed58:	6d697420 74756f65 6572202c 20796461      timeout, ready 
   1ed68:	20746962 20746f6e 0a746573 38335b1b     bit not set..[38
   1ed78:	323b323b 323b3535 323b3535 006d3535     ;2;255;255;255m.
   1ed88:	252e6425 25204675 00000073 61647075     %d.%uF %s...upda
   1ed98:	00006574 38335b1b 303b323b 3535323b     te...[38;2;0;255
   1eda8:	3535323b 2d20206d 65766461 73697472     ;255m  -advertis
   1edb8:	20676e69 6b636170 0a2d7465 38335b1b     ing packet-..[38
   1edc8:	323b323b 323b3535 323b3535 006d3535     ;2;255;255;255m.
   1edd8:	422f2e2e 682e656c 00007070 6e657665     ../Ble.hpp..even
   1ede8:	6e614874 72656c64 00000000 6d305b1b     tHandler.....[0m
   1edf8:	64616568 652e7265 746e6576 3a64695f     header.event_id:
   1ee08:	0a642520 00000000 5f454c42 54544147      %d.....BLE_GATT
   1ee18:	56455f53 52575f54 3a455449 00000a20     S_EVT_WRITE: ...
   1ee28:	73616c46 753a3a68 74616470 6d614e65     Flash::updateNam
   1ee38:	203a2065 000a7325 6e6e6f63 65746365     e : %s..connecte
   1ee48:	00000a64 63736964 656e6e6f 64657463     d...disconnected
   1ee58:	0000000a 5f454c42 5f504147 5f545645     ....BLE_GAP_EVT_
   1ee68:	5f594850 41445055 525f4554 45555145     PHY_UPDATE_REQUE
   1ee78:	000a5453 38335b1b 323b323b 303b3535     ST...[38;2;255;0
   1ee88:	756d303b 6e61686e 64656c64 65766520     ;0munhandled eve
   1ee98:	1b0a746e 006d305b 65766441 73697472     nt..[0m.Advertis
   1eea8:	3a676e69 696e693a 2e2e2e74 0000000a     ing::init.......
   1eeb8:	6d305b1b 38335b1b 323b323b 313b3535     .[0m.[38;2;255;1
   1eec8:	313b3530 0a6d3038 746f6f42 61747320     05;180m.Boot sta
   1eed8:	2e2e7472 1b0a0a2e 006d305b 65776f50     rt......[0m.Powe
   1eee8:	693a3a72 2e74696e 000a2e2e 6e6e6f43     r::init.....Conn
   1eef8:	6e693a3a 2e2e7469 00000a2e 38335b1b     ::init.......[38
   1ef08:	323b323b 313b3535 313b3530 0a6d3038     ;2;255;105;180m.
   1ef18:	746f6f42 646e6520 0a2e2e2e 305b1b0a     Boot end......[0
   1ef28:	0000006d 502f2e2e 7265776f 7070682e     m...../Power.hpp
   1ef38:	00000000 65656c73 00000070              ....sleep...

0001ef44 <SD_TX_LEVELS>:
   1ef44:	f0ecd800 00fcf8f4 00000403              ............

0001ef50 <nrfx_coredep_delay_us::delay_machine_code>:
   1ef50:	d8fd3807 00004770 6d726554 6c616e69     .8..pG..Terminal
   1ef60:	00000000 00545452 47474553 00005245     ....RTT.SEGGER..
   1ef70:	01021000                                ....

0001ef74 <sdh_req_observers>:
   1ef74:	0001f024 0001f024 00000008              $...$.......

0001ef80 <sdh_stack_observers>:
   1ef80:	0001f014 0001f024 00000008              ....$.......

0001ef8c <sdh_state_observers>:
   1ef8c:	0001f00c 0001f014 00000008              ............

0001ef98 <sdh_ble_observers>:
   1ef98:	0001effc 0001f00c 00000008              ............

0001efa4 <sdh_soc_observers>:
   1efa4:	0001efec 0001effc 00000008              ............

0001efb0 <_global_impure_ptr>:
   1efb0:	2000183c 2b302d23 6c680020 6665004c     <.. #-0+ .hlL.ef
   1efc0:	47464567 32313000 36353433 41393837     gEFG.0123456789A
   1efd0:	45444342 31300046 35343332 39383736     BCDEF.0123456789
   1efe0:	64636261 00006665                       abcdef..

0001efe8 <__EH_FRAME_BEGIN__>:
   1efe8:	00000000                                ....
