
_build/nrf52840_xxaa.out:     file format elf32-littlearm


Disassembly of section .text:

00027000 <__isr_vector>:
   27000:	20040000 	.word	0x20040000
   27004:	000272bd 	.word	0x000272bd
   27008:	000272e5 	.word	0x000272e5
   2700c:	000272e7 	.word	0x000272e7
   27010:	000272e9 	.word	0x000272e9
   27014:	000272eb 	.word	0x000272eb
   27018:	000272ed 	.word	0x000272ed
	...
   2702c:	000272ef 	.word	0x000272ef
   27030:	000272f1 	.word	0x000272f1
   27034:	00000000 	.word	0x00000000
   27038:	000272f3 	.word	0x000272f3
   2703c:	000272f5 	.word	0x000272f5
   27040:	00027735 	.word	0x00027735
   27044:	000272f7 	.word	0x000272f7
   27048:	00027d41 	.word	0x00027d41
   2704c:	000272f7 	.word	0x000272f7
   27050:	000272f7 	.word	0x000272f7
   27054:	000272f7 	.word	0x000272f7
   27058:	000277a1 	.word	0x000277a1
   2705c:	000272f7 	.word	0x000272f7
   27060:	000272f7 	.word	0x000272f7
   27064:	000272f7 	.word	0x000272f7
   27068:	000272f7 	.word	0x000272f7
   2706c:	000272f7 	.word	0x000272f7
   27070:	000272f7 	.word	0x000272f7
   27074:	000272f7 	.word	0x000272f7
   27078:	000272f7 	.word	0x000272f7
   2707c:	000272f7 	.word	0x000272f7
   27080:	000272f7 	.word	0x000272f7
   27084:	000273c9 	.word	0x000273c9
   27088:	000272f7 	.word	0x000272f7
   2708c:	000272f7 	.word	0x000272f7
   27090:	000272f7 	.word	0x000272f7
   27094:	000272f7 	.word	0x000272f7
   27098:	00027df5 	.word	0x00027df5
   2709c:	000272f7 	.word	0x000272f7
   270a0:	000272f7 	.word	0x000272f7
   270a4:	000272f7 	.word	0x000272f7
   270a8:	000272f7 	.word	0x000272f7
   270ac:	000272f7 	.word	0x000272f7
   270b0:	000272f7 	.word	0x000272f7
   270b4:	000272f7 	.word	0x000272f7
	...
   270c0:	000272f7 	.word	0x000272f7
   270c4:	000272f7 	.word	0x000272f7
   270c8:	000272f7 	.word	0x000272f7
   270cc:	000272f7 	.word	0x000272f7
   270d0:	000272f7 	.word	0x000272f7
   270d4:	000272f7 	.word	0x000272f7
   270d8:	000272f7 	.word	0x000272f7
   270dc:	000272f7 	.word	0x000272f7
   270e0:	000272f7 	.word	0x000272f7
   270e4:	000272f7 	.word	0x000272f7
   270e8:	000272f7 	.word	0x000272f7
	...
   270f4:	000272f7 	.word	0x000272f7
   270f8:	00000000 	.word	0x00000000
   270fc:	000272f7 	.word	0x000272f7
	...

00027200 <__do_global_dtors_aux>:
   27200:	b510      	push	{r4, lr}
   27202:	4c05      	ldr	r4, [pc, #20]	; (27218 <__do_global_dtors_aux+0x18>)
   27204:	7823      	ldrb	r3, [r4, #0]
   27206:	b933      	cbnz	r3, 27216 <__do_global_dtors_aux+0x16>
   27208:	4b04      	ldr	r3, [pc, #16]	; (2721c <__do_global_dtors_aux+0x1c>)
   2720a:	b113      	cbz	r3, 27212 <__do_global_dtors_aux+0x12>
   2720c:	4804      	ldr	r0, [pc, #16]	; (27220 <__do_global_dtors_aux+0x20>)
   2720e:	f3af 8000 	nop.w
   27212:	2301      	movs	r3, #1
   27214:	7023      	strb	r3, [r4, #0]
   27216:	bd10      	pop	{r4, pc}
   27218:	20001948 	.word	0x20001948
   2721c:	00000000 	.word	0x00000000
   27220:	00027f94 	.word	0x00027f94

00027224 <frame_dummy>:
   27224:	b508      	push	{r3, lr}
   27226:	4b03      	ldr	r3, [pc, #12]	; (27234 <frame_dummy+0x10>)
   27228:	b11b      	cbz	r3, 27232 <frame_dummy+0xe>
   2722a:	4903      	ldr	r1, [pc, #12]	; (27238 <frame_dummy+0x14>)
   2722c:	4803      	ldr	r0, [pc, #12]	; (2723c <frame_dummy+0x18>)
   2722e:	f3af 8000 	nop.w
   27232:	bd08      	pop	{r3, pc}
   27234:	00000000 	.word	0x00000000
   27238:	2000194c 	.word	0x2000194c
   2723c:	00027f94 	.word	0x00027f94

00027240 <_stack_init>:
   27240:	f5a3 3a80 	sub.w	sl, r3, #65536	; 0x10000
   27244:	4770      	bx	lr
   27246:	bf00      	nop

00027248 <_mainCRTStartup>:
   27248:	4b17      	ldr	r3, [pc, #92]	; (272a8 <_mainCRTStartup+0x60>)
   2724a:	2b00      	cmp	r3, #0
   2724c:	bf08      	it	eq
   2724e:	4b13      	ldreq	r3, [pc, #76]	; (2729c <_mainCRTStartup+0x54>)
   27250:	469d      	mov	sp, r3
   27252:	f7ff fff5 	bl	27240 <_stack_init>
   27256:	2100      	movs	r1, #0
   27258:	468b      	mov	fp, r1
   2725a:	460f      	mov	r7, r1
   2725c:	4813      	ldr	r0, [pc, #76]	; (272ac <_mainCRTStartup+0x64>)
   2725e:	4a14      	ldr	r2, [pc, #80]	; (272b0 <_mainCRTStartup+0x68>)
   27260:	1a12      	subs	r2, r2, r0
   27262:	f000 fe6d 	bl	27f40 <memset>
   27266:	4b0e      	ldr	r3, [pc, #56]	; (272a0 <_mainCRTStartup+0x58>)
   27268:	2b00      	cmp	r3, #0
   2726a:	d000      	beq.n	2726e <_mainCRTStartup+0x26>
   2726c:	4798      	blx	r3
   2726e:	4b0d      	ldr	r3, [pc, #52]	; (272a4 <_mainCRTStartup+0x5c>)
   27270:	2b00      	cmp	r3, #0
   27272:	d000      	beq.n	27276 <_mainCRTStartup+0x2e>
   27274:	4798      	blx	r3
   27276:	2000      	movs	r0, #0
   27278:	2100      	movs	r1, #0
   2727a:	0004      	movs	r4, r0
   2727c:	000d      	movs	r5, r1
   2727e:	480d      	ldr	r0, [pc, #52]	; (272b4 <_mainCRTStartup+0x6c>)
   27280:	2800      	cmp	r0, #0
   27282:	d002      	beq.n	2728a <_mainCRTStartup+0x42>
   27284:	480c      	ldr	r0, [pc, #48]	; (272b8 <_mainCRTStartup+0x70>)
   27286:	f3af 8000 	nop.w
   2728a:	f000 fe35 	bl	27ef8 <__libc_init_array>
   2728e:	0020      	movs	r0, r4
   27290:	0029      	movs	r1, r5
   27292:	f000 fd5b 	bl	27d4c <main>
   27296:	f000 fe1b 	bl	27ed0 <exit>
   2729a:	bf00      	nop
   2729c:	00080000 	.word	0x00080000
	...
   272a8:	20040000 	.word	0x20040000
   272ac:	20001948 	.word	0x20001948
   272b0:	20001a58 	.word	0x20001a58
	...

000272bc <Reset_Handler>:
   272bc:	4906      	ldr	r1, [pc, #24]	; (272d8 <Reset_Handler+0x1c>)
   272be:	4a07      	ldr	r2, [pc, #28]	; (272dc <Reset_Handler+0x20>)
   272c0:	4b07      	ldr	r3, [pc, #28]	; (272e0 <Reset_Handler+0x24>)
   272c2:	1a9b      	subs	r3, r3, r2
   272c4:	dd03      	ble.n	272ce <Reset_Handler+0x12>
   272c6:	3b04      	subs	r3, #4
   272c8:	58c8      	ldr	r0, [r1, r3]
   272ca:	50d0      	str	r0, [r2, r3]
   272cc:	dcfb      	bgt.n	272c6 <Reset_Handler+0xa>
   272ce:	f000 f89b 	bl	27408 <SystemInit>
   272d2:	f7ff ffb9 	bl	27248 <_mainCRTStartup>
   272d6:	0000      	.short	0x0000
   272d8:	00027fc0 	.word	0x00027fc0
   272dc:	200018d8 	.word	0x200018d8
   272e0:	20001948 	.word	0x20001948

000272e4 <NMI_Handler>:
   272e4:	e7fe      	b.n	272e4 <NMI_Handler>

000272e6 <HardFault_Handler>:
   272e6:	e7fe      	b.n	272e6 <HardFault_Handler>

000272e8 <MemoryManagement_Handler>:
   272e8:	e7fe      	b.n	272e8 <MemoryManagement_Handler>

000272ea <BusFault_Handler>:
   272ea:	e7fe      	b.n	272ea <BusFault_Handler>

000272ec <UsageFault_Handler>:
   272ec:	e7fe      	b.n	272ec <UsageFault_Handler>

000272ee <SVC_Handler>:
   272ee:	e7fe      	b.n	272ee <SVC_Handler>

000272f0 <DebugMon_Handler>:
   272f0:	e7fe      	b.n	272f0 <DebugMon_Handler>

000272f2 <PendSV_Handler>:
   272f2:	e7fe      	b.n	272f2 <PendSV_Handler>

000272f4 <SysTick_Handler>:
   272f4:	e7fe      	b.n	272f4 <SysTick_Handler>

000272f6 <Default_Handler>:
   272f6:	e7fe      	b.n	272f6 <Default_Handler>

000272f8 <app_error_handler_bare>:
   272f8:	b500      	push	{lr}
   272fa:	b085      	sub	sp, #20
   272fc:	4603      	mov	r3, r0
   272fe:	2100      	movs	r1, #0
   27300:	aa01      	add	r2, sp, #4
   27302:	f244 0001 	movw	r0, #16385	; 0x4001
   27306:	e9cd 1101 	strd	r1, r1, [sp, #4]
   2730a:	9303      	str	r3, [sp, #12]
   2730c:	f000 f804 	bl	27318 <app_error_fault_handler>
   27310:	b005      	add	sp, #20
   27312:	f85d fb04 	ldr.w	pc, [sp], #4
   27316:	bf00      	nop

00027318 <app_error_fault_handler>:
   27318:	b672      	cpsid	i
   2731a:	4b09      	ldr	r3, [pc, #36]	; (27340 <app_error_fault_handler+0x28>)
   2731c:	681b      	ldr	r3, [r3, #0]
   2731e:	07db      	lsls	r3, r3, #31
   27320:	d500      	bpl.n	27324 <app_error_fault_handler+0xc>
   27322:	be00      	bkpt	0x0000
   27324:	f3bf 8f4f 	dsb	sy
   27328:	4906      	ldr	r1, [pc, #24]	; (27344 <app_error_fault_handler+0x2c>)
   2732a:	4b07      	ldr	r3, [pc, #28]	; (27348 <app_error_fault_handler+0x30>)
   2732c:	68ca      	ldr	r2, [r1, #12]
   2732e:	f402 62e0 	and.w	r2, r2, #1792	; 0x700
   27332:	4313      	orrs	r3, r2
   27334:	60cb      	str	r3, [r1, #12]
   27336:	f3bf 8f4f 	dsb	sy
   2733a:	bf00      	nop
   2733c:	e7fd      	b.n	2733a <app_error_fault_handler+0x22>
   2733e:	bf00      	nop
   27340:	e000edf0 	.word	0xe000edf0
   27344:	e000ed00 	.word	0xe000ed00
   27348:	05fa0004 	.word	0x05fa0004

0002734c <app_util_critical_region_enter>:
   2734c:	b470      	push	{r4, r5, r6}
   2734e:	f3ef 8410 	mrs	r4, PRIMASK
   27352:	b672      	cpsid	i
   27354:	4b0d      	ldr	r3, [pc, #52]	; (2738c <app_util_critical_region_enter+0x40>)
   27356:	689a      	ldr	r2, [r3, #8]
   27358:	b9aa      	cbnz	r2, 27386 <app_util_critical_region_enter+0x3a>
   2735a:	490d      	ldr	r1, [pc, #52]	; (27390 <app_util_critical_region_enter+0x44>)
   2735c:	4e0d      	ldr	r6, [pc, #52]	; (27394 <app_util_critical_region_enter+0x48>)
   2735e:	2501      	movs	r5, #1
   27360:	609d      	str	r5, [r3, #8]
   27362:	f8d1 5080 	ldr.w	r5, [r1, #128]	; 0x80
   27366:	4035      	ands	r5, r6
   27368:	601d      	str	r5, [r3, #0]
   2736a:	f8c1 6080 	str.w	r6, [r1, #128]	; 0x80
   2736e:	f8d1 5084 	ldr.w	r5, [r1, #132]	; 0x84
   27372:	605d      	str	r5, [r3, #4]
   27374:	f04f 33ff 	mov.w	r3, #4294967295	; 0xffffffff
   27378:	f8c1 3084 	str.w	r3, [r1, #132]	; 0x84
   2737c:	7002      	strb	r2, [r0, #0]
   2737e:	b904      	cbnz	r4, 27382 <app_util_critical_region_enter+0x36>
   27380:	b662      	cpsie	i
   27382:	bc70      	pop	{r4, r5, r6}
   27384:	4770      	bx	lr
   27386:	2301      	movs	r3, #1
   27388:	7003      	strb	r3, [r0, #0]
   2738a:	e7f8      	b.n	2737e <app_util_critical_region_enter+0x32>
   2738c:	20001a4c 	.word	0x20001a4c
   27390:	e000e100 	.word	0xe000e100
   27394:	bdff06fc 	.word	0xbdff06fc

00027398 <app_util_critical_region_exit>:
   27398:	4b09      	ldr	r3, [pc, #36]	; (273c0 <app_util_critical_region_exit+0x28>)
   2739a:	689a      	ldr	r2, [r3, #8]
   2739c:	b17a      	cbz	r2, 273be <app_util_critical_region_exit+0x26>
   2739e:	b970      	cbnz	r0, 273be <app_util_critical_region_exit+0x26>
   273a0:	b410      	push	{r4}
   273a2:	f3ef 8110 	mrs	r1, PRIMASK
   273a6:	b672      	cpsid	i
   273a8:	4a06      	ldr	r2, [pc, #24]	; (273c4 <app_util_critical_region_exit+0x2c>)
   273aa:	681c      	ldr	r4, [r3, #0]
   273ac:	6014      	str	r4, [r2, #0]
   273ae:	685c      	ldr	r4, [r3, #4]
   273b0:	6054      	str	r4, [r2, #4]
   273b2:	6098      	str	r0, [r3, #8]
   273b4:	b901      	cbnz	r1, 273b8 <app_util_critical_region_exit+0x20>
   273b6:	b662      	cpsie	i
   273b8:	f85d 4b04 	ldr.w	r4, [sp], #4
   273bc:	4770      	bx	lr
   273be:	4770      	bx	lr
   273c0:	20001a4c 	.word	0x20001a4c
   273c4:	e000e100 	.word	0xe000e100

000273c8 <RTC1_IRQHandler>:
   273c8:	4a02      	ldr	r2, [pc, #8]	; (273d4 <RTC1_IRQHandler+0xc>)
   273ca:	4b03      	ldr	r3, [pc, #12]	; (273d8 <RTC1_IRQHandler+0x10>)
   273cc:	6810      	ldr	r0, [r2, #0]
   273ce:	681b      	ldr	r3, [r3, #0]
   273d0:	4718      	bx	r3
   273d2:	bf00      	nop
   273d4:	20001964 	.word	0x20001964
   273d8:	2000196c 	.word	0x2000196c

000273dc <nrf_section_iter_init>:
   273dc:	6001      	str	r1, [r0, #0]
   273de:	680b      	ldr	r3, [r1, #0]
   273e0:	6043      	str	r3, [r0, #4]
   273e2:	684a      	ldr	r2, [r1, #4]
   273e4:	4293      	cmp	r3, r2
   273e6:	bf04      	itt	eq
   273e8:	2300      	moveq	r3, #0
   273ea:	6043      	streq	r3, [r0, #4]
   273ec:	4770      	bx	lr
   273ee:	bf00      	nop

000273f0 <nrf_section_iter_next>:
   273f0:	6843      	ldr	r3, [r0, #4]
   273f2:	b143      	cbz	r3, 27406 <nrf_section_iter_next+0x16>
   273f4:	6802      	ldr	r2, [r0, #0]
   273f6:	6891      	ldr	r1, [r2, #8]
   273f8:	440b      	add	r3, r1
   273fa:	6043      	str	r3, [r0, #4]
   273fc:	6852      	ldr	r2, [r2, #4]
   273fe:	4293      	cmp	r3, r2
   27400:	bf04      	itt	eq
   27402:	2300      	moveq	r3, #0
   27404:	6043      	streq	r3, [r0, #4]
   27406:	4770      	bx	lr

00027408 <SystemInit>:
   27408:	b410      	push	{r4}
   2740a:	f04f 4180 	mov.w	r1, #1073741824	; 0x40000000
   2740e:	f04f 5280 	mov.w	r2, #268435456	; 0x10000000
   27412:	2000      	movs	r0, #0
   27414:	f8c1 010c 	str.w	r0, [r1, #268]	; 0x10c
   27418:	4b5e      	ldr	r3, [pc, #376]	; (27594 <SystemInit+0x18c>)
   2741a:	f8c1 0110 	str.w	r0, [r1, #272]	; 0x110
   2741e:	f8c1 0538 	str.w	r0, [r1, #1336]	; 0x538
   27422:	f8d2 1404 	ldr.w	r1, [r2, #1028]	; 0x404
   27426:	f8c3 1520 	str.w	r1, [r3, #1312]	; 0x520
   2742a:	f8d2 1408 	ldr.w	r1, [r2, #1032]	; 0x408
   2742e:	f8c3 1524 	str.w	r1, [r3, #1316]	; 0x524
   27432:	f8d2 140c 	ldr.w	r1, [r2, #1036]	; 0x40c
   27436:	f8c3 1528 	str.w	r1, [r3, #1320]	; 0x528
   2743a:	f8d2 1410 	ldr.w	r1, [r2, #1040]	; 0x410
   2743e:	f8c3 152c 	str.w	r1, [r3, #1324]	; 0x52c
   27442:	f8d2 1414 	ldr.w	r1, [r2, #1044]	; 0x414
   27446:	f8c3 1530 	str.w	r1, [r3, #1328]	; 0x530
   2744a:	f8d2 1418 	ldr.w	r1, [r2, #1048]	; 0x418
   2744e:	f8c3 1534 	str.w	r1, [r3, #1332]	; 0x534
   27452:	f8d2 141c 	ldr.w	r1, [r2, #1052]	; 0x41c
   27456:	f8c3 1540 	str.w	r1, [r3, #1344]	; 0x540
   2745a:	f8d2 1420 	ldr.w	r1, [r2, #1056]	; 0x420
   2745e:	f8c3 1544 	str.w	r1, [r3, #1348]	; 0x544
   27462:	f8d2 1424 	ldr.w	r1, [r2, #1060]	; 0x424
   27466:	f8c3 1548 	str.w	r1, [r3, #1352]	; 0x548
   2746a:	f8d2 1428 	ldr.w	r1, [r2, #1064]	; 0x428
   2746e:	f8c3 154c 	str.w	r1, [r3, #1356]	; 0x54c
   27472:	f8d2 142c 	ldr.w	r1, [r2, #1068]	; 0x42c
   27476:	f8c3 1550 	str.w	r1, [r3, #1360]	; 0x550
   2747a:	f8d2 1430 	ldr.w	r1, [r2, #1072]	; 0x430
   2747e:	f8c3 1554 	str.w	r1, [r3, #1364]	; 0x554
   27482:	f8d2 1434 	ldr.w	r1, [r2, #1076]	; 0x434
   27486:	f8c3 1560 	str.w	r1, [r3, #1376]	; 0x560
   2748a:	f8d2 1438 	ldr.w	r1, [r2, #1080]	; 0x438
   2748e:	f8c3 1564 	str.w	r1, [r3, #1380]	; 0x564
   27492:	f8d2 043c 	ldr.w	r0, [r2, #1084]	; 0x43c
   27496:	f8c3 0568 	str.w	r0, [r3, #1384]	; 0x568
   2749a:	f8d2 0440 	ldr.w	r0, [r2, #1088]	; 0x440
   2749e:	493e      	ldr	r1, [pc, #248]	; (27598 <SystemInit+0x190>)
   274a0:	f8c3 056c 	str.w	r0, [r3, #1388]	; 0x56c
   274a4:	6809      	ldr	r1, [r1, #0]
   274a6:	f8d2 2444 	ldr.w	r2, [r2, #1092]	; 0x444
   274aa:	f8c3 2570 	str.w	r2, [r3, #1392]	; 0x570
   274ae:	2908      	cmp	r1, #8
   274b0:	d024      	beq.n	274fc <SystemInit+0xf4>
   274b2:	f04f 4380 	mov.w	r3, #1073741824	; 0x40000000
   274b6:	f8d3 2400 	ldr.w	r2, [r3, #1024]	; 0x400
   274ba:	07d2      	lsls	r2, r2, #31
   274bc:	bf44      	itt	mi
   274be:	f06f 0201 	mvnmi.w	r2, #1
   274c2:	f8c3 2400 	strmi.w	r2, [r3, #1024]	; 0x400
   274c6:	4a35      	ldr	r2, [pc, #212]	; (2759c <SystemInit+0x194>)
   274c8:	f8d2 3088 	ldr.w	r3, [r2, #136]	; 0x88
   274cc:	f443 0370 	orr.w	r3, r3, #15728640	; 0xf00000
   274d0:	f8c2 3088 	str.w	r3, [r2, #136]	; 0x88
   274d4:	f3bf 8f4f 	dsb	sy
   274d8:	f3bf 8f6f 	isb	sy
   274dc:	f04f 2310 	mov.w	r3, #268439552	; 0x10001000
   274e0:	f8d3 2200 	ldr.w	r2, [r3, #512]	; 0x200
   274e4:	2a00      	cmp	r2, #0
   274e6:	db23      	blt.n	27530 <SystemInit+0x128>
   274e8:	f8d3 3204 	ldr.w	r3, [r3, #516]	; 0x204
   274ec:	2b00      	cmp	r3, #0
   274ee:	db1f      	blt.n	27530 <SystemInit+0x128>
   274f0:	4b2b      	ldr	r3, [pc, #172]	; (275a0 <SystemInit+0x198>)
   274f2:	4a2c      	ldr	r2, [pc, #176]	; (275a4 <SystemInit+0x19c>)
   274f4:	601a      	str	r2, [r3, #0]
   274f6:	f85d 4b04 	ldr.w	r4, [sp], #4
   274fa:	4770      	bx	lr
   274fc:	4b2a      	ldr	r3, [pc, #168]	; (275a8 <SystemInit+0x1a0>)
   274fe:	681b      	ldr	r3, [r3, #0]
   27500:	2b00      	cmp	r3, #0
   27502:	d1d6      	bne.n	274b2 <SystemInit+0xaa>
   27504:	4829      	ldr	r0, [pc, #164]	; (275ac <SystemInit+0x1a4>)
   27506:	4a2a      	ldr	r2, [pc, #168]	; (275b0 <SystemInit+0x1a8>)
   27508:	4c2a      	ldr	r4, [pc, #168]	; (275b4 <SystemInit+0x1ac>)
   2750a:	6004      	str	r4, [r0, #0]
   2750c:	492a      	ldr	r1, [pc, #168]	; (275b8 <SystemInit+0x1b0>)
   2750e:	4b2b      	ldr	r3, [pc, #172]	; (275bc <SystemInit+0x1b4>)
   27510:	20fb      	movs	r0, #251	; 0xfb
   27512:	f8c2 0518 	str.w	r0, [r2, #1304]	; 0x518
   27516:	680a      	ldr	r2, [r1, #0]
   27518:	681b      	ldr	r3, [r3, #0]
   2751a:	4829      	ldr	r0, [pc, #164]	; (275c0 <SystemInit+0x1b8>)
   2751c:	f022 020f 	bic.w	r2, r2, #15
   27520:	f003 030f 	and.w	r3, r3, #15
   27524:	4313      	orrs	r3, r2
   27526:	f44f 7200 	mov.w	r2, #512	; 0x200
   2752a:	600b      	str	r3, [r1, #0]
   2752c:	6002      	str	r2, [r0, #0]
   2752e:	e7c0      	b.n	274b2 <SystemInit+0xaa>
   27530:	4a24      	ldr	r2, [pc, #144]	; (275c4 <SystemInit+0x1bc>)
   27532:	2301      	movs	r3, #1
   27534:	f8c2 3504 	str.w	r3, [r2, #1284]	; 0x504
   27538:	f8d2 3400 	ldr.w	r3, [r2, #1024]	; 0x400
   2753c:	2b00      	cmp	r3, #0
   2753e:	d0fb      	beq.n	27538 <SystemInit+0x130>
   27540:	f04f 2310 	mov.w	r3, #268439552	; 0x10001000
   27544:	2112      	movs	r1, #18
   27546:	4a1f      	ldr	r2, [pc, #124]	; (275c4 <SystemInit+0x1bc>)
   27548:	f8c3 1200 	str.w	r1, [r3, #512]	; 0x200
   2754c:	f8d2 3400 	ldr.w	r3, [r2, #1024]	; 0x400
   27550:	2b00      	cmp	r3, #0
   27552:	d0fb      	beq.n	2754c <SystemInit+0x144>
   27554:	f04f 2310 	mov.w	r3, #268439552	; 0x10001000
   27558:	2112      	movs	r1, #18
   2755a:	4a1a      	ldr	r2, [pc, #104]	; (275c4 <SystemInit+0x1bc>)
   2755c:	f8c3 1204 	str.w	r1, [r3, #516]	; 0x204
   27560:	f8d2 3400 	ldr.w	r3, [r2, #1024]	; 0x400
   27564:	2b00      	cmp	r3, #0
   27566:	d0fb      	beq.n	27560 <SystemInit+0x158>
   27568:	2300      	movs	r3, #0
   2756a:	4916      	ldr	r1, [pc, #88]	; (275c4 <SystemInit+0x1bc>)
   2756c:	f8c2 3504 	str.w	r3, [r2, #1284]	; 0x504
   27570:	f8d1 3400 	ldr.w	r3, [r1, #1024]	; 0x400
   27574:	2b00      	cmp	r3, #0
   27576:	d0fb      	beq.n	27570 <SystemInit+0x168>
   27578:	f3bf 8f4f 	dsb	sy
   2757c:	4907      	ldr	r1, [pc, #28]	; (2759c <SystemInit+0x194>)
   2757e:	4b12      	ldr	r3, [pc, #72]	; (275c8 <SystemInit+0x1c0>)
   27580:	68ca      	ldr	r2, [r1, #12]
   27582:	f402 62e0 	and.w	r2, r2, #1792	; 0x700
   27586:	4313      	orrs	r3, r2
   27588:	60cb      	str	r3, [r1, #12]
   2758a:	f3bf 8f4f 	dsb	sy
   2758e:	bf00      	nop
   27590:	e7fd      	b.n	2758e <SystemInit+0x186>
   27592:	bf00      	nop
   27594:	4000c000 	.word	0x4000c000
   27598:	10000130 	.word	0x10000130
   2759c:	e000ed00 	.word	0xe000ed00
   275a0:	200018d8 	.word	0x200018d8
   275a4:	03d09000 	.word	0x03d09000
   275a8:	10000134 	.word	0x10000134
   275ac:	4000568c 	.word	0x4000568c
   275b0:	4000f000 	.word	0x4000f000
   275b4:	00038148 	.word	0x00038148
   275b8:	40000ee4 	.word	0x40000ee4
   275bc:	10000258 	.word	0x10000258
   275c0:	40029640 	.word	0x40029640
   275c4:	4001e000 	.word	0x4001e000
   275c8:	05fa0004 	.word	0x05fa0004

000275cc <clock_irq_handler>:
   275cc:	b510      	push	{r4, lr}
   275ce:	b968      	cbnz	r0, 275ec <clock_irq_handler+0x20>
   275d0:	4c0e      	ldr	r4, [pc, #56]	; (2760c <clock_irq_handler+0x40>)
   275d2:	68a3      	ldr	r3, [r4, #8]
   275d4:	2201      	movs	r2, #1
   275d6:	7062      	strb	r2, [r4, #1]
   275d8:	b13b      	cbz	r3, 275ea <clock_irq_handler+0x1e>
   275da:	e9d3 2300 	ldrd	r2, r3, [r3]
   275de:	2000      	movs	r0, #0
   275e0:	60a2      	str	r2, [r4, #8]
   275e2:	4798      	blx	r3
   275e4:	68a3      	ldr	r3, [r4, #8]
   275e6:	2b00      	cmp	r3, #0
   275e8:	d1f7      	bne.n	275da <clock_irq_handler+0xe>
   275ea:	bd10      	pop	{r4, pc}
   275ec:	2801      	cmp	r0, #1
   275ee:	d1fc      	bne.n	275ea <clock_irq_handler+0x1e>
   275f0:	4c06      	ldr	r4, [pc, #24]	; (2760c <clock_irq_handler+0x40>)
   275f2:	6923      	ldr	r3, [r4, #16]
   275f4:	70a0      	strb	r0, [r4, #2]
   275f6:	2b00      	cmp	r3, #0
   275f8:	d0f7      	beq.n	275ea <clock_irq_handler+0x1e>
   275fa:	e9d3 2300 	ldrd	r2, r3, [r3]
   275fe:	2001      	movs	r0, #1
   27600:	6122      	str	r2, [r4, #16]
   27602:	4798      	blx	r3
   27604:	6923      	ldr	r3, [r4, #16]
   27606:	2b00      	cmp	r3, #0
   27608:	d1f7      	bne.n	275fa <clock_irq_handler+0x2e>
   2760a:	bd10      	pop	{r4, pc}
   2760c:	20001970 	.word	0x20001970

00027610 <soc_evt_handler>:
   27610:	b970      	cbnz	r0, 27630 <soc_evt_handler+0x20>
   27612:	b510      	push	{r4, lr}
   27614:	4c07      	ldr	r4, [pc, #28]	; (27634 <soc_evt_handler+0x24>)
   27616:	68a3      	ldr	r3, [r4, #8]
   27618:	2201      	movs	r2, #1
   2761a:	7062      	strb	r2, [r4, #1]
   2761c:	b13b      	cbz	r3, 2762e <soc_evt_handler+0x1e>
   2761e:	e9d3 2300 	ldrd	r2, r3, [r3]
   27622:	2000      	movs	r0, #0
   27624:	60a2      	str	r2, [r4, #8]
   27626:	4798      	blx	r3
   27628:	68a3      	ldr	r3, [r4, #8]
   2762a:	2b00      	cmp	r3, #0
   2762c:	d1f7      	bne.n	2761e <soc_evt_handler+0xe>
   2762e:	bd10      	pop	{r4, pc}
   27630:	4770      	bx	lr
   27632:	bf00      	nop
   27634:	20001970 	.word	0x20001970

00027638 <sd_state_evt_handler>:
   27638:	b530      	push	{r4, r5, lr}
   2763a:	2801      	cmp	r0, #1
   2763c:	b083      	sub	sp, #12
   2763e:	d004      	beq.n	2764a <sd_state_evt_handler+0x12>
   27640:	2803      	cmp	r0, #3
   27642:	d01d      	beq.n	27680 <sd_state_evt_handler+0x48>
   27644:	b1b0      	cbz	r0, 27674 <sd_state_evt_handler+0x3c>
   27646:	b003      	add	sp, #12
   27648:	bd30      	pop	{r4, r5, pc}
   2764a:	4c22      	ldr	r4, [pc, #136]	; (276d4 <sd_state_evt_handler+0x9c>)
   2764c:	2300      	movs	r3, #0
   2764e:	f10d 0007 	add.w	r0, sp, #7
   27652:	f88d 3007 	strb.w	r3, [sp, #7]
   27656:	f7ff fe79 	bl	2734c <app_util_critical_region_enter>
   2765a:	7823      	ldrb	r3, [r4, #0]
   2765c:	b34b      	cbz	r3, 276b2 <sd_state_evt_handler+0x7a>
   2765e:	68e3      	ldr	r3, [r4, #12]
   27660:	f89d 0007 	ldrb.w	r0, [sp, #7]
   27664:	3301      	adds	r3, #1
   27666:	2201      	movs	r2, #1
   27668:	60e3      	str	r3, [r4, #12]
   2766a:	70a2      	strb	r2, [r4, #2]
   2766c:	f7ff fe94 	bl	27398 <app_util_critical_region_exit>
   27670:	b003      	add	sp, #12
   27672:	bd30      	pop	{r4, r5, pc}
   27674:	4b18      	ldr	r3, [pc, #96]	; (276d8 <sd_state_evt_handler+0xa0>)
   27676:	2201      	movs	r2, #1
   27678:	f8c3 2080 	str.w	r2, [r3, #128]	; 0x80
   2767c:	b003      	add	sp, #12
   2767e:	bd30      	pop	{r4, r5, pc}
   27680:	4c14      	ldr	r4, [pc, #80]	; (276d4 <sd_state_evt_handler+0x9c>)
   27682:	f000 f839 	bl	276f8 <nrfx_clock_enable>
   27686:	2300      	movs	r3, #0
   27688:	f10d 0007 	add.w	r0, sp, #7
   2768c:	f88d 3007 	strb.w	r3, [sp, #7]
   27690:	f7ff fe5c 	bl	2734c <app_util_critical_region_enter>
   27694:	68e3      	ldr	r3, [r4, #12]
   27696:	3b01      	subs	r3, #1
   27698:	60e3      	str	r3, [r4, #12]
   2769a:	68e5      	ldr	r5, [r4, #12]
   2769c:	b12d      	cbz	r5, 276aa <sd_state_evt_handler+0x72>
   2769e:	f89d 0007 	ldrb.w	r0, [sp, #7]
   276a2:	f7ff fe79 	bl	27398 <app_util_critical_region_exit>
   276a6:	b003      	add	sp, #12
   276a8:	bd30      	pop	{r4, r5, pc}
   276aa:	f000 f837 	bl	2771c <nrfx_clock_lfclk_stop>
   276ae:	70a5      	strb	r5, [r4, #2]
   276b0:	e7f5      	b.n	2769e <sd_state_evt_handler+0x66>
   276b2:	480a      	ldr	r0, [pc, #40]	; (276dc <sd_state_evt_handler+0xa4>)
   276b4:	6063      	str	r3, [r4, #4]
   276b6:	60a3      	str	r3, [r4, #8]
   276b8:	6123      	str	r3, [r4, #16]
   276ba:	60e3      	str	r3, [r4, #12]
   276bc:	f000 f810 	bl	276e0 <nrfx_clock_init>
   276c0:	f000 fb92 	bl	27de8 <nrf_sdh_is_enabled>
   276c4:	b110      	cbz	r0, 276cc <sd_state_evt_handler+0x94>
   276c6:	2301      	movs	r3, #1
   276c8:	7023      	strb	r3, [r4, #0]
   276ca:	e7c8      	b.n	2765e <sd_state_evt_handler+0x26>
   276cc:	f000 f814 	bl	276f8 <nrfx_clock_enable>
   276d0:	e7f9      	b.n	276c6 <sd_state_evt_handler+0x8e>
   276d2:	bf00      	nop
   276d4:	20001970 	.word	0x20001970
   276d8:	e000e100 	.word	0xe000e100
   276dc:	000275cd 	.word	0x000275cd

000276e0 <nrfx_clock_init>:
   276e0:	4a04      	ldr	r2, [pc, #16]	; (276f4 <nrfx_clock_init+0x14>)
   276e2:	7913      	ldrb	r3, [r2, #4]
   276e4:	b923      	cbnz	r3, 276f0 <nrfx_clock_init+0x10>
   276e6:	2101      	movs	r1, #1
   276e8:	6010      	str	r0, [r2, #0]
   276ea:	8091      	strh	r1, [r2, #4]
   276ec:	4618      	mov	r0, r3
   276ee:	4770      	bx	lr
   276f0:	2085      	movs	r0, #133	; 0x85
   276f2:	4770      	bx	lr
   276f4:	20001984 	.word	0x20001984

000276f8 <nrfx_clock_enable>:
   276f8:	4b07      	ldr	r3, [pc, #28]	; (27718 <nrfx_clock_enable+0x20>)
   276fa:	681a      	ldr	r2, [r3, #0]
   276fc:	07d2      	lsls	r2, r2, #31
   276fe:	d404      	bmi.n	2770a <nrfx_clock_enable+0x12>
   27700:	21c0      	movs	r1, #192	; 0xc0
   27702:	2201      	movs	r2, #1
   27704:	f883 1300 	strb.w	r1, [r3, #768]	; 0x300
   27708:	601a      	str	r2, [r3, #0]
   2770a:	f04f 4380 	mov.w	r3, #1073741824	; 0x40000000
   2770e:	2201      	movs	r2, #1
   27710:	f8c3 2518 	str.w	r2, [r3, #1304]	; 0x518
   27714:	4770      	bx	lr
   27716:	bf00      	nop
   27718:	e000e100 	.word	0xe000e100

0002771c <nrfx_clock_lfclk_stop>:
   2771c:	4b04      	ldr	r3, [pc, #16]	; (27730 <nrfx_clock_lfclk_stop+0x14>)
   2771e:	2201      	movs	r2, #1
   27720:	601a      	str	r2, [r3, #0]
   27722:	f04f 4280 	mov.w	r2, #1073741824	; 0x40000000
   27726:	f8d2 3418 	ldr.w	r3, [r2, #1048]	; 0x418
   2772a:	03db      	lsls	r3, r3, #15
   2772c:	d4fb      	bmi.n	27726 <nrfx_clock_lfclk_stop+0xa>
   2772e:	4770      	bx	lr
   27730:	4000000c 	.word	0x4000000c

00027734 <POWER_CLOCK_IRQHandler>:
   27734:	b510      	push	{r4, lr}
   27736:	4b17      	ldr	r3, [pc, #92]	; (27794 <POWER_CLOCK_IRQHandler+0x60>)
   27738:	681a      	ldr	r2, [r3, #0]
   2773a:	b082      	sub	sp, #8
   2773c:	b162      	cbz	r2, 27758 <POWER_CLOCK_IRQHandler+0x24>
   2773e:	2100      	movs	r1, #0
   27740:	4a15      	ldr	r2, [pc, #84]	; (27798 <POWER_CLOCK_IRQHandler+0x64>)
   27742:	6019      	str	r1, [r3, #0]
   27744:	681b      	ldr	r3, [r3, #0]
   27746:	7950      	ldrb	r0, [r2, #5]
   27748:	9300      	str	r3, [sp, #0]
   2774a:	f04f 4180 	mov.w	r1, #1073741824	; 0x40000000
   2774e:	2301      	movs	r3, #1
   27750:	9c00      	ldr	r4, [sp, #0]
   27752:	f8c1 3308 	str.w	r3, [r1, #776]	; 0x308
   27756:	b198      	cbz	r0, 27780 <POWER_CLOCK_IRQHandler+0x4c>
   27758:	4b10      	ldr	r3, [pc, #64]	; (2779c <POWER_CLOCK_IRQHandler+0x68>)
   2775a:	681a      	ldr	r2, [r3, #0]
   2775c:	b1ba      	cbz	r2, 2778e <POWER_CLOCK_IRQHandler+0x5a>
   2775e:	2200      	movs	r2, #0
   27760:	601a      	str	r2, [r3, #0]
   27762:	681b      	ldr	r3, [r3, #0]
   27764:	9301      	str	r3, [sp, #4]
   27766:	f04f 4280 	mov.w	r2, #1073741824	; 0x40000000
   2776a:	2102      	movs	r1, #2
   2776c:	4b0a      	ldr	r3, [pc, #40]	; (27798 <POWER_CLOCK_IRQHandler+0x64>)
   2776e:	9801      	ldr	r0, [sp, #4]
   27770:	f8c2 1308 	str.w	r1, [r2, #776]	; 0x308
   27774:	681b      	ldr	r3, [r3, #0]
   27776:	2001      	movs	r0, #1
   27778:	b002      	add	sp, #8
   2777a:	e8bd 4010 	ldmia.w	sp!, {r4, lr}
   2777e:	4718      	bx	r3
   27780:	6811      	ldr	r1, [r2, #0]
   27782:	7153      	strb	r3, [r2, #5]
   27784:	4788      	blx	r1
   27786:	4b05      	ldr	r3, [pc, #20]	; (2779c <POWER_CLOCK_IRQHandler+0x68>)
   27788:	681a      	ldr	r2, [r3, #0]
   2778a:	2a00      	cmp	r2, #0
   2778c:	d1e7      	bne.n	2775e <POWER_CLOCK_IRQHandler+0x2a>
   2778e:	b002      	add	sp, #8
   27790:	bd10      	pop	{r4, pc}
   27792:	bf00      	nop
   27794:	40000100 	.word	0x40000100
   27798:	20001984 	.word	0x20001984
   2779c:	40000104 	.word	0x40000104

000277a0 <GPIOTE_IRQHandler>:
   277a0:	e92d 47f0 	stmdb	sp!, {r4, r5, r6, r7, r8, r9, sl, lr}
   277a4:	2300      	movs	r3, #0
   277a6:	b088      	sub	sp, #32
   277a8:	e9cd 3302 	strd	r3, r3, [sp, #8]
   277ac:	4ac9      	ldr	r2, [pc, #804]	; (27ad4 <GPIOTE_IRQHandler+0x334>)
   277ae:	6811      	ldr	r1, [r2, #0]
   277b0:	2901      	cmp	r1, #1
   277b2:	f000 824b 	beq.w	27c4c <GPIOTE_IRQHandler+0x4ac>
   277b6:	461e      	mov	r6, r3
   277b8:	4bc7      	ldr	r3, [pc, #796]	; (27ad8 <GPIOTE_IRQHandler+0x338>)
   277ba:	681a      	ldr	r2, [r3, #0]
   277bc:	2a01      	cmp	r2, #1
   277be:	f000 8237 	beq.w	27c30 <GPIOTE_IRQHandler+0x490>
   277c2:	4bc6      	ldr	r3, [pc, #792]	; (27adc <GPIOTE_IRQHandler+0x33c>)
   277c4:	681a      	ldr	r2, [r3, #0]
   277c6:	2a01      	cmp	r2, #1
   277c8:	f000 8224 	beq.w	27c14 <GPIOTE_IRQHandler+0x474>
   277cc:	4bc4      	ldr	r3, [pc, #784]	; (27ae0 <GPIOTE_IRQHandler+0x340>)
   277ce:	681a      	ldr	r2, [r3, #0]
   277d0:	2a01      	cmp	r2, #1
   277d2:	f000 8211 	beq.w	27bf8 <GPIOTE_IRQHandler+0x458>
   277d6:	4bc3      	ldr	r3, [pc, #780]	; (27ae4 <GPIOTE_IRQHandler+0x344>)
   277d8:	681a      	ldr	r2, [r3, #0]
   277da:	2a01      	cmp	r2, #1
   277dc:	f000 81fe 	beq.w	27bdc <GPIOTE_IRQHandler+0x43c>
   277e0:	4bc1      	ldr	r3, [pc, #772]	; (27ae8 <GPIOTE_IRQHandler+0x348>)
   277e2:	681a      	ldr	r2, [r3, #0]
   277e4:	2a01      	cmp	r2, #1
   277e6:	f000 81eb 	beq.w	27bc0 <GPIOTE_IRQHandler+0x420>
   277ea:	4bc0      	ldr	r3, [pc, #768]	; (27aec <GPIOTE_IRQHandler+0x34c>)
   277ec:	681a      	ldr	r2, [r3, #0]
   277ee:	2a01      	cmp	r2, #1
   277f0:	f000 81d8 	beq.w	27ba4 <GPIOTE_IRQHandler+0x404>
   277f4:	4bbe      	ldr	r3, [pc, #760]	; (27af0 <GPIOTE_IRQHandler+0x350>)
   277f6:	681a      	ldr	r2, [r3, #0]
   277f8:	2a01      	cmp	r2, #1
   277fa:	d008      	beq.n	2780e <GPIOTE_IRQHandler+0x6e>
   277fc:	4bbd      	ldr	r3, [pc, #756]	; (27af4 <GPIOTE_IRQHandler+0x354>)
   277fe:	681a      	ldr	r2, [r3, #0]
   27800:	2a01      	cmp	r2, #1
   27802:	f000 822f 	beq.w	27c64 <GPIOTE_IRQHandler+0x4c4>
   27806:	bb16      	cbnz	r6, 2784e <GPIOTE_IRQHandler+0xae>
   27808:	b008      	add	sp, #32
   2780a:	e8bd 87f0 	ldmia.w	sp!, {r4, r5, r6, r7, r8, r9, sl, pc}
   2780e:	4aba      	ldr	r2, [pc, #744]	; (27af8 <GPIOTE_IRQHandler+0x358>)
   27810:	f8d2 2304 	ldr.w	r2, [r2, #772]	; 0x304
   27814:	0617      	lsls	r7, r2, #24
   27816:	d5f1      	bpl.n	277fc <GPIOTE_IRQHandler+0x5c>
   27818:	2200      	movs	r2, #0
   2781a:	601a      	str	r2, [r3, #0]
   2781c:	6819      	ldr	r1, [r3, #0]
   2781e:	9100      	str	r1, [sp, #0]
   27820:	6e19      	ldr	r1, [r3, #96]	; 0x60
   27822:	9800      	ldr	r0, [sp, #0]
   27824:	2901      	cmp	r1, #1
   27826:	f103 0360 	add.w	r3, r3, #96	; 0x60
   2782a:	f046 0680 	orr.w	r6, r6, #128	; 0x80
   2782e:	d10e      	bne.n	2784e <GPIOTE_IRQHandler+0xae>
   27830:	601a      	str	r2, [r3, #0]
   27832:	681b      	ldr	r3, [r3, #0]
   27834:	9301      	str	r3, [sp, #4]
   27836:	f04f 42a0 	mov.w	r2, #1342177280	; 0x50000000
   2783a:	9b01      	ldr	r3, [sp, #4]
   2783c:	f8d2 2510 	ldr.w	r2, [r2, #1296]	; 0x510
   27840:	4bae      	ldr	r3, [pc, #696]	; (27afc <GPIOTE_IRQHandler+0x35c>)
   27842:	9202      	str	r2, [sp, #8]
   27844:	f8d3 3510 	ldr.w	r3, [r3, #1296]	; 0x510
   27848:	9303      	str	r3, [sp, #12]
   2784a:	f046 4600 	orr.w	r6, r6, #2147483648	; 0x80000000
   2784e:	4fac      	ldr	r7, [pc, #688]	; (27b00 <GPIOTE_IRQHandler+0x360>)
   27850:	2501      	movs	r5, #1
   27852:	2400      	movs	r4, #0
   27854:	00a3      	lsls	r3, r4, #2
   27856:	f103 4380 	add.w	r3, r3, #1073741824	; 0x40000000
   2785a:	422e      	tst	r6, r5
   2785c:	f503 43c0 	add.w	r3, r3, #24576	; 0x6000
   27860:	ea4f 0545 	mov.w	r5, r5, lsl #1
   27864:	d00b      	beq.n	2787e <GPIOTE_IRQHandler+0xde>
   27866:	f8d3 0510 	ldr.w	r0, [r3, #1296]	; 0x510
   2786a:	f857 2024 	ldr.w	r2, [r7, r4, lsl #2]
   2786e:	f8d3 1510 	ldr.w	r1, [r3, #1296]	; 0x510
   27872:	f3c0 2005 	ubfx	r0, r0, #8, #6
   27876:	f3c1 4101 	ubfx	r1, r1, #16, #2
   2787a:	b102      	cbz	r2, 2787e <GPIOTE_IRQHandler+0xde>
   2787c:	4790      	blx	r2
   2787e:	3401      	adds	r4, #1
   27880:	2c08      	cmp	r4, #8
   27882:	d1e7      	bne.n	27854 <GPIOTE_IRQHandler+0xb4>
   27884:	2e00      	cmp	r6, #0
   27886:	dabf      	bge.n	27808 <GPIOTE_IRQHandler+0x68>
   27888:	4c9d      	ldr	r4, [pc, #628]	; (27b00 <GPIOTE_IRQHandler+0x360>)
   2788a:	4f9c      	ldr	r7, [pc, #624]	; (27afc <GPIOTE_IRQHandler+0x35c>)
   2788c:	f04f 30ff 	mov.w	r0, #4294967295	; 0xffffffff
   27890:	f04f 31ff 	mov.w	r1, #4294967295	; 0xffffffff
   27894:	e9cd 0106 	strd	r0, r1, [sp, #24]
   27898:	f994 0060 	ldrsb.w	r0, [r4, #96]	; 0x60
   2789c:	f10d 0810 	add.w	r8, sp, #16
   278a0:	2300      	movs	r3, #0
   278a2:	1c45      	adds	r5, r0, #1
   278a4:	f8c8 3004 	str.w	r3, [r8, #4]
   278a8:	9304      	str	r3, [sp, #16]
   278aa:	f04f 0601 	mov.w	r6, #1
   278ae:	f000 80f7 	beq.w	27aa0 <GPIOTE_IRQHandler+0x300>
   278b2:	f3c0 09c2 	ubfx	r9, r0, #3, #3
   278b6:	ab08      	add	r3, sp, #32
   278b8:	eb03 0e09 	add.w	lr, r3, r9
   278bc:	f000 0307 	and.w	r3, r0, #7
   278c0:	f81e 2c08 	ldrb.w	r2, [lr, #-8]
   278c4:	fa06 f303 	lsl.w	r3, r6, r3
   278c8:	ea12 0503 	ands.w	r5, r2, r3
   278cc:	fa5f fc80 	uxtb.w	ip, r0
   278d0:	f000 003f 	and.w	r0, r0, #63	; 0x3f
   278d4:	d021      	beq.n	2791a <GPIOTE_IRQHandler+0x17a>
   278d6:	1822      	adds	r2, r4, r0
   278d8:	ea4f 119c 	mov.w	r1, ip, lsr #6
   278dc:	f992 2030 	ldrsb.w	r2, [r2, #48]	; 0x30
   278e0:	f854 2022 	ldr.w	r2, [r4, r2, lsl #2]
   278e4:	2a00      	cmp	r2, #0
   278e6:	f000 8137 	beq.w	27b58 <GPIOTE_IRQHandler+0x3b8>
   278ea:	2903      	cmp	r1, #3
   278ec:	f000 8136 	beq.w	27b5c <GPIOTE_IRQHandler+0x3bc>
   278f0:	281f      	cmp	r0, #31
   278f2:	f200 80eb 	bhi.w	27acc <GPIOTE_IRQHandler+0x32c>
   278f6:	4605      	mov	r5, r0
   278f8:	f04f 4ca0 	mov.w	ip, #1342177280	; 0x50000000
   278fc:	eb0c 0c85 	add.w	ip, ip, r5, lsl #2
   27900:	f81e 5c18 	ldrb.w	r5, [lr, #-24]
   27904:	f8dc e700 	ldr.w	lr, [ip, #1792]	; 0x700
   27908:	401d      	ands	r5, r3
   2790a:	f3ce 4e01 	ubfx	lr, lr, #16, #2
   2790e:	f040 80d1 	bne.w	27ab4 <GPIOTE_IRQHandler+0x314>
   27912:	f1be 0f03 	cmp.w	lr, #3
   27916:	f000 81b7 	beq.w	27c88 <GPIOTE_IRQHandler+0x4e8>
   2791a:	f994 0061 	ldrsb.w	r0, [r4, #97]	; 0x61
   2791e:	1c41      	adds	r1, r0, #1
   27920:	d033      	beq.n	2798a <GPIOTE_IRQHandler+0x1ea>
   27922:	f3c0 0ec2 	ubfx	lr, r0, #3, #3
   27926:	ab08      	add	r3, sp, #32
   27928:	eb03 0c0e 	add.w	ip, r3, lr
   2792c:	f000 0307 	and.w	r3, r0, #7
   27930:	f81c 1c08 	ldrb.w	r1, [ip, #-8]
   27934:	fa06 f303 	lsl.w	r3, r6, r3
   27938:	4219      	tst	r1, r3
   2793a:	b2c2      	uxtb	r2, r0
   2793c:	f000 003f 	and.w	r0, r0, #63	; 0x3f
   27940:	d023      	beq.n	2798a <GPIOTE_IRQHandler+0x1ea>
   27942:	eb04 0900 	add.w	r9, r4, r0
   27946:	0991      	lsrs	r1, r2, #6
   27948:	f999 9030 	ldrsb.w	r9, [r9, #48]	; 0x30
   2794c:	f854 9029 	ldr.w	r9, [r4, r9, lsl #2]
   27950:	f1b9 0f00 	cmp.w	r9, #0
   27954:	f000 8112 	beq.w	27b7c <GPIOTE_IRQHandler+0x3dc>
   27958:	2903      	cmp	r1, #3
   2795a:	f000 8112 	beq.w	27b82 <GPIOTE_IRQHandler+0x3e2>
   2795e:	281f      	cmp	r0, #31
   27960:	f200 80f6 	bhi.w	27b50 <GPIOTE_IRQHandler+0x3b0>
   27964:	4686      	mov	lr, r0
   27966:	f04f 42a0 	mov.w	r2, #1342177280	; 0x50000000
   2796a:	eb02 028e 	add.w	r2, r2, lr, lsl #2
   2796e:	f81c ec18 	ldrb.w	lr, [ip, #-24]
   27972:	f8d2 c700 	ldr.w	ip, [r2, #1792]	; 0x700
   27976:	ea1e 0f03 	tst.w	lr, r3
   2797a:	f3cc 4c01 	ubfx	ip, ip, #16, #2
   2797e:	f040 80da 	bne.w	27b36 <GPIOTE_IRQHandler+0x396>
   27982:	f1bc 0f03 	cmp.w	ip, #3
   27986:	f000 8191 	beq.w	27cac <GPIOTE_IRQHandler+0x50c>
   2798a:	f994 0062 	ldrsb.w	r0, [r4, #98]	; 0x62
   2798e:	1c42      	adds	r2, r0, #1
   27990:	d033      	beq.n	279fa <GPIOTE_IRQHandler+0x25a>
   27992:	f3c0 0ec2 	ubfx	lr, r0, #3, #3
   27996:	ab08      	add	r3, sp, #32
   27998:	eb03 0c0e 	add.w	ip, r3, lr
   2799c:	f000 0307 	and.w	r3, r0, #7
   279a0:	f81c 1c08 	ldrb.w	r1, [ip, #-8]
   279a4:	fa06 f303 	lsl.w	r3, r6, r3
   279a8:	4219      	tst	r1, r3
   279aa:	b2c2      	uxtb	r2, r0
   279ac:	f000 003f 	and.w	r0, r0, #63	; 0x3f
   279b0:	d023      	beq.n	279fa <GPIOTE_IRQHandler+0x25a>
   279b2:	eb04 0900 	add.w	r9, r4, r0
   279b6:	0991      	lsrs	r1, r2, #6
   279b8:	f999 9030 	ldrsb.w	r9, [r9, #48]	; 0x30
   279bc:	f854 9029 	ldr.w	r9, [r4, r9, lsl #2]
   279c0:	f1b9 0f00 	cmp.w	r9, #0
   279c4:	f000 80d0 	beq.w	27b68 <GPIOTE_IRQHandler+0x3c8>
   279c8:	2903      	cmp	r1, #3
   279ca:	f000 80d0 	beq.w	27b6e <GPIOTE_IRQHandler+0x3ce>
   279ce:	281f      	cmp	r0, #31
   279d0:	f200 80a5 	bhi.w	27b1e <GPIOTE_IRQHandler+0x37e>
   279d4:	4686      	mov	lr, r0
   279d6:	f04f 42a0 	mov.w	r2, #1342177280	; 0x50000000
   279da:	eb02 028e 	add.w	r2, r2, lr, lsl #2
   279de:	f81c ec18 	ldrb.w	lr, [ip, #-24]
   279e2:	f8d2 c700 	ldr.w	ip, [r2, #1792]	; 0x700
   279e6:	ea1e 0f03 	tst.w	lr, r3
   279ea:	f3cc 4c01 	ubfx	ip, ip, #16, #2
   279ee:	f040 8089 	bne.w	27b04 <GPIOTE_IRQHandler+0x364>
   279f2:	f1bc 0f03 	cmp.w	ip, #3
   279f6:	f000 816d 	beq.w	27cd4 <GPIOTE_IRQHandler+0x534>
   279fa:	f994 0063 	ldrsb.w	r0, [r4, #99]	; 0x63
   279fe:	1c43      	adds	r3, r0, #1
   27a00:	d033      	beq.n	27a6a <GPIOTE_IRQHandler+0x2ca>
   27a02:	f3c0 0ec2 	ubfx	lr, r0, #3, #3
   27a06:	ab08      	add	r3, sp, #32
   27a08:	eb03 0c0e 	add.w	ip, r3, lr
   27a0c:	f000 0307 	and.w	r3, r0, #7
   27a10:	f81c 1c08 	ldrb.w	r1, [ip, #-8]
   27a14:	fa06 f303 	lsl.w	r3, r6, r3
   27a18:	4219      	tst	r1, r3
   27a1a:	b2c2      	uxtb	r2, r0
   27a1c:	f000 003f 	and.w	r0, r0, #63	; 0x3f
   27a20:	d023      	beq.n	27a6a <GPIOTE_IRQHandler+0x2ca>
   27a22:	eb04 0900 	add.w	r9, r4, r0
   27a26:	0991      	lsrs	r1, r2, #6
   27a28:	f999 9030 	ldrsb.w	r9, [r9, #48]	; 0x30
   27a2c:	f854 9029 	ldr.w	r9, [r4, r9, lsl #2]
   27a30:	f1b9 0f00 	cmp.w	r9, #0
   27a34:	f000 80ac 	beq.w	27b90 <GPIOTE_IRQHandler+0x3f0>
   27a38:	2903      	cmp	r1, #3
   27a3a:	f000 80ac 	beq.w	27b96 <GPIOTE_IRQHandler+0x3f6>
   27a3e:	281f      	cmp	r0, #31
   27a40:	bf8b      	itete	hi
   27a42:	46be      	movhi	lr, r7
   27a44:	f04f 4ea0 	movls.w	lr, #1342177280	; 0x50000000
   27a48:	f002 021f 	andhi.w	r2, r2, #31
   27a4c:	4602      	movls	r2, r0
   27a4e:	eb0e 0282 	add.w	r2, lr, r2, lsl #2
   27a52:	f81c ec18 	ldrb.w	lr, [ip, #-24]
   27a56:	f8d2 c700 	ldr.w	ip, [r2, #1792]	; 0x700
   27a5a:	ea1e 0f03 	tst.w	lr, r3
   27a5e:	f3cc 4c01 	ubfx	ip, ip, #16, #2
   27a62:	d160      	bne.n	27b26 <GPIOTE_IRQHandler+0x386>
   27a64:	f1bc 0f03 	cmp.w	ip, #3
   27a68:	d01c      	beq.n	27aa4 <GPIOTE_IRQHandler+0x304>
   27a6a:	2d00      	cmp	r5, #0
   27a6c:	f43f aecc 	beq.w	27808 <GPIOTE_IRQHandler+0x68>
   27a70:	f04f 42a0 	mov.w	r2, #1342177280	; 0x50000000
   27a74:	9b02      	ldr	r3, [sp, #8]
   27a76:	f8d2 1510 	ldr.w	r1, [r2, #1296]	; 0x510
   27a7a:	f8d7 0510 	ldr.w	r0, [r7, #1296]	; 0x510
   27a7e:	428b      	cmp	r3, r1
   27a80:	d103      	bne.n	27a8a <GPIOTE_IRQHandler+0x2ea>
   27a82:	9b03      	ldr	r3, [sp, #12]
   27a84:	4283      	cmp	r3, r0
   27a86:	f43f aebf 	beq.w	27808 <GPIOTE_IRQHandler+0x68>
   27a8a:	e9dd 2304 	ldrd	r2, r3, [sp, #16]
   27a8e:	e9cd 1002 	strd	r1, r0, [sp, #8]
   27a92:	f994 0060 	ldrsb.w	r0, [r4, #96]	; 0x60
   27a96:	1c45      	adds	r5, r0, #1
   27a98:	e9cd 2306 	strd	r2, r3, [sp, #24]
   27a9c:	f47f af09 	bne.w	278b2 <GPIOTE_IRQHandler+0x112>
   27aa0:	2500      	movs	r5, #0
   27aa2:	e73a      	b.n	2791a <GPIOTE_IRQHandler+0x17a>
   27aa4:	2903      	cmp	r1, #3
   27aa6:	f000 8129 	beq.w	27cfc <GPIOTE_IRQHandler+0x55c>
   27aaa:	f1b9 0f00 	cmp.w	r9, #0
   27aae:	d0dc      	beq.n	27a6a <GPIOTE_IRQHandler+0x2ca>
   27ab0:	47c8      	blx	r9
   27ab2:	e7da      	b.n	27a6a <GPIOTE_IRQHandler+0x2ca>
   27ab4:	f1be 0f02 	cmp.w	lr, #2
   27ab8:	d1f2      	bne.n	27aa0 <GPIOTE_IRQHandler+0x300>
   27aba:	2903      	cmp	r1, #3
   27abc:	f000 8139 	beq.w	27d32 <GPIOTE_IRQHandler+0x592>
   27ac0:	2500      	movs	r5, #0
   27ac2:	2a00      	cmp	r2, #0
   27ac4:	f43f af29 	beq.w	2791a <GPIOTE_IRQHandler+0x17a>
   27ac8:	4790      	blx	r2
   27aca:	e726      	b.n	2791a <GPIOTE_IRQHandler+0x17a>
   27acc:	f00c 051f 	and.w	r5, ip, #31
   27ad0:	46bc      	mov	ip, r7
   27ad2:	e713      	b.n	278fc <GPIOTE_IRQHandler+0x15c>
   27ad4:	40006100 	.word	0x40006100
   27ad8:	40006104 	.word	0x40006104
   27adc:	40006108 	.word	0x40006108
   27ae0:	4000610c 	.word	0x4000610c
   27ae4:	40006110 	.word	0x40006110
   27ae8:	40006114 	.word	0x40006114
   27aec:	40006118 	.word	0x40006118
   27af0:	4000611c 	.word	0x4000611c
   27af4:	4000617c 	.word	0x4000617c
   27af8:	40006000 	.word	0x40006000
   27afc:	50000300 	.word	0x50000300
   27b00:	20001990 	.word	0x20001990
   27b04:	f1bc 0f02 	cmp.w	ip, #2
   27b08:	f47f af77 	bne.w	279fa <GPIOTE_IRQHandler+0x25a>
   27b0c:	2903      	cmp	r1, #3
   27b0e:	f000 810d 	beq.w	27d2c <GPIOTE_IRQHandler+0x58c>
   27b12:	f1b9 0f00 	cmp.w	r9, #0
   27b16:	f43f af70 	beq.w	279fa <GPIOTE_IRQHandler+0x25a>
   27b1a:	47c8      	blx	r9
   27b1c:	e76d      	b.n	279fa <GPIOTE_IRQHandler+0x25a>
   27b1e:	f002 0e1f 	and.w	lr, r2, #31
   27b22:	463a      	mov	r2, r7
   27b24:	e759      	b.n	279da <GPIOTE_IRQHandler+0x23a>
   27b26:	f1bc 0f02 	cmp.w	ip, #2
   27b2a:	d19e      	bne.n	27a6a <GPIOTE_IRQHandler+0x2ca>
   27b2c:	2903      	cmp	r1, #3
   27b2e:	d1bc      	bne.n	27aaa <GPIOTE_IRQHandler+0x30a>
   27b30:	f44f 3c40 	mov.w	ip, #196608	; 0x30000
   27b34:	e0e4      	b.n	27d00 <GPIOTE_IRQHandler+0x560>
   27b36:	f1bc 0f02 	cmp.w	ip, #2
   27b3a:	f47f af26 	bne.w	2798a <GPIOTE_IRQHandler+0x1ea>
   27b3e:	2903      	cmp	r1, #3
   27b40:	f000 80f1 	beq.w	27d26 <GPIOTE_IRQHandler+0x586>
   27b44:	f1b9 0f00 	cmp.w	r9, #0
   27b48:	f43f af1f 	beq.w	2798a <GPIOTE_IRQHandler+0x1ea>
   27b4c:	47c8      	blx	r9
   27b4e:	e71c      	b.n	2798a <GPIOTE_IRQHandler+0x1ea>
   27b50:	f002 0e1f 	and.w	lr, r2, #31
   27b54:	463a      	mov	r2, r7
   27b56:	e708      	b.n	2796a <GPIOTE_IRQHandler+0x1ca>
   27b58:	2903      	cmp	r1, #3
   27b5a:	d1a1      	bne.n	27aa0 <GPIOTE_IRQHandler+0x300>
   27b5c:	f818 5009 	ldrb.w	r5, [r8, r9]
   27b60:	431d      	orrs	r5, r3
   27b62:	f808 5009 	strb.w	r5, [r8, r9]
   27b66:	e6c3      	b.n	278f0 <GPIOTE_IRQHandler+0x150>
   27b68:	2903      	cmp	r1, #3
   27b6a:	f47f af46 	bne.w	279fa <GPIOTE_IRQHandler+0x25a>
   27b6e:	f818 a00e 	ldrb.w	sl, [r8, lr]
   27b72:	ea4a 0a03 	orr.w	sl, sl, r3
   27b76:	f808 a00e 	strb.w	sl, [r8, lr]
   27b7a:	e728      	b.n	279ce <GPIOTE_IRQHandler+0x22e>
   27b7c:	2903      	cmp	r1, #3
   27b7e:	f47f af04 	bne.w	2798a <GPIOTE_IRQHandler+0x1ea>
   27b82:	f818 a00e 	ldrb.w	sl, [r8, lr]
   27b86:	ea4a 0a03 	orr.w	sl, sl, r3
   27b8a:	f808 a00e 	strb.w	sl, [r8, lr]
   27b8e:	e6e6      	b.n	2795e <GPIOTE_IRQHandler+0x1be>
   27b90:	2903      	cmp	r1, #3
   27b92:	f47f af6a 	bne.w	27a6a <GPIOTE_IRQHandler+0x2ca>
   27b96:	f818 a00e 	ldrb.w	sl, [r8, lr]
   27b9a:	ea4a 0a03 	orr.w	sl, sl, r3
   27b9e:	f808 a00e 	strb.w	sl, [r8, lr]
   27ba2:	e74c      	b.n	27a3e <GPIOTE_IRQHandler+0x29e>
   27ba4:	4a64      	ldr	r2, [pc, #400]	; (27d38 <GPIOTE_IRQHandler+0x598>)
   27ba6:	f8d2 2304 	ldr.w	r2, [r2, #772]	; 0x304
   27baa:	0652      	lsls	r2, r2, #25
   27bac:	f57f ae22 	bpl.w	277f4 <GPIOTE_IRQHandler+0x54>
   27bb0:	2200      	movs	r2, #0
   27bb2:	601a      	str	r2, [r3, #0]
   27bb4:	681b      	ldr	r3, [r3, #0]
   27bb6:	9300      	str	r3, [sp, #0]
   27bb8:	9b00      	ldr	r3, [sp, #0]
   27bba:	f046 0640 	orr.w	r6, r6, #64	; 0x40
   27bbe:	e619      	b.n	277f4 <GPIOTE_IRQHandler+0x54>
   27bc0:	4a5d      	ldr	r2, [pc, #372]	; (27d38 <GPIOTE_IRQHandler+0x598>)
   27bc2:	f8d2 2304 	ldr.w	r2, [r2, #772]	; 0x304
   27bc6:	0691      	lsls	r1, r2, #26
   27bc8:	f57f ae0f 	bpl.w	277ea <GPIOTE_IRQHandler+0x4a>
   27bcc:	2200      	movs	r2, #0
   27bce:	601a      	str	r2, [r3, #0]
   27bd0:	681b      	ldr	r3, [r3, #0]
   27bd2:	9300      	str	r3, [sp, #0]
   27bd4:	9b00      	ldr	r3, [sp, #0]
   27bd6:	f046 0620 	orr.w	r6, r6, #32
   27bda:	e606      	b.n	277ea <GPIOTE_IRQHandler+0x4a>
   27bdc:	4a56      	ldr	r2, [pc, #344]	; (27d38 <GPIOTE_IRQHandler+0x598>)
   27bde:	f8d2 2304 	ldr.w	r2, [r2, #772]	; 0x304
   27be2:	06d0      	lsls	r0, r2, #27
   27be4:	f57f adfc 	bpl.w	277e0 <GPIOTE_IRQHandler+0x40>
   27be8:	2200      	movs	r2, #0
   27bea:	601a      	str	r2, [r3, #0]
   27bec:	681b      	ldr	r3, [r3, #0]
   27bee:	9300      	str	r3, [sp, #0]
   27bf0:	9b00      	ldr	r3, [sp, #0]
   27bf2:	f046 0610 	orr.w	r6, r6, #16
   27bf6:	e5f3      	b.n	277e0 <GPIOTE_IRQHandler+0x40>
   27bf8:	4a4f      	ldr	r2, [pc, #316]	; (27d38 <GPIOTE_IRQHandler+0x598>)
   27bfa:	f8d2 2304 	ldr.w	r2, [r2, #772]	; 0x304
   27bfe:	0714      	lsls	r4, r2, #28
   27c00:	f57f ade9 	bpl.w	277d6 <GPIOTE_IRQHandler+0x36>
   27c04:	2200      	movs	r2, #0
   27c06:	601a      	str	r2, [r3, #0]
   27c08:	681b      	ldr	r3, [r3, #0]
   27c0a:	9300      	str	r3, [sp, #0]
   27c0c:	9b00      	ldr	r3, [sp, #0]
   27c0e:	f046 0608 	orr.w	r6, r6, #8
   27c12:	e5e0      	b.n	277d6 <GPIOTE_IRQHandler+0x36>
   27c14:	4a48      	ldr	r2, [pc, #288]	; (27d38 <GPIOTE_IRQHandler+0x598>)
   27c16:	f8d2 2304 	ldr.w	r2, [r2, #772]	; 0x304
   27c1a:	0755      	lsls	r5, r2, #29
   27c1c:	f57f add6 	bpl.w	277cc <GPIOTE_IRQHandler+0x2c>
   27c20:	2200      	movs	r2, #0
   27c22:	601a      	str	r2, [r3, #0]
   27c24:	681b      	ldr	r3, [r3, #0]
   27c26:	9300      	str	r3, [sp, #0]
   27c28:	9b00      	ldr	r3, [sp, #0]
   27c2a:	f046 0604 	orr.w	r6, r6, #4
   27c2e:	e5cd      	b.n	277cc <GPIOTE_IRQHandler+0x2c>
   27c30:	4a41      	ldr	r2, [pc, #260]	; (27d38 <GPIOTE_IRQHandler+0x598>)
   27c32:	f8d2 2304 	ldr.w	r2, [r2, #772]	; 0x304
   27c36:	0797      	lsls	r7, r2, #30
   27c38:	f57f adc3 	bpl.w	277c2 <GPIOTE_IRQHandler+0x22>
   27c3c:	2200      	movs	r2, #0
   27c3e:	601a      	str	r2, [r3, #0]
   27c40:	681b      	ldr	r3, [r3, #0]
   27c42:	9300      	str	r3, [sp, #0]
   27c44:	9b00      	ldr	r3, [sp, #0]
   27c46:	f046 0602 	orr.w	r6, r6, #2
   27c4a:	e5ba      	b.n	277c2 <GPIOTE_IRQHandler+0x22>
   27c4c:	493a      	ldr	r1, [pc, #232]	; (27d38 <GPIOTE_IRQHandler+0x598>)
   27c4e:	f8d1 6304 	ldr.w	r6, [r1, #772]	; 0x304
   27c52:	f016 0601 	ands.w	r6, r6, #1
   27c56:	f43f adaf 	beq.w	277b8 <GPIOTE_IRQHandler+0x18>
   27c5a:	6013      	str	r3, [r2, #0]
   27c5c:	6813      	ldr	r3, [r2, #0]
   27c5e:	9300      	str	r3, [sp, #0]
   27c60:	9b00      	ldr	r3, [sp, #0]
   27c62:	e5a9      	b.n	277b8 <GPIOTE_IRQHandler+0x18>
   27c64:	2200      	movs	r2, #0
   27c66:	601a      	str	r2, [r3, #0]
   27c68:	681b      	ldr	r3, [r3, #0]
   27c6a:	9301      	str	r3, [sp, #4]
   27c6c:	f04f 42a0 	mov.w	r2, #1342177280	; 0x50000000
   27c70:	9b01      	ldr	r3, [sp, #4]
   27c72:	f8d2 2510 	ldr.w	r2, [r2, #1296]	; 0x510
   27c76:	4b31      	ldr	r3, [pc, #196]	; (27d3c <GPIOTE_IRQHandler+0x59c>)
   27c78:	9202      	str	r2, [sp, #8]
   27c7a:	f8d3 3510 	ldr.w	r3, [r3, #1296]	; 0x510
   27c7e:	9303      	str	r3, [sp, #12]
   27c80:	2e00      	cmp	r6, #0
   27c82:	f43f ae01 	beq.w	27888 <GPIOTE_IRQHandler+0xe8>
   27c86:	e5e0      	b.n	2784a <GPIOTE_IRQHandler+0xaa>
   27c88:	2903      	cmp	r1, #3
   27c8a:	f47f af1a 	bne.w	27ac2 <GPIOTE_IRQHandler+0x322>
   27c8e:	f44f 3500 	mov.w	r5, #131072	; 0x20000
   27c92:	f8dc 3700 	ldr.w	r3, [ip, #1792]	; 0x700
   27c96:	f423 3340 	bic.w	r3, r3, #196608	; 0x30000
   27c9a:	f8cc 3700 	str.w	r3, [ip, #1792]	; 0x700
   27c9e:	f8dc 3700 	ldr.w	r3, [ip, #1792]	; 0x700
   27ca2:	432b      	orrs	r3, r5
   27ca4:	f8cc 3700 	str.w	r3, [ip, #1792]	; 0x700
   27ca8:	2501      	movs	r5, #1
   27caa:	e70a      	b.n	27ac2 <GPIOTE_IRQHandler+0x322>
   27cac:	2903      	cmp	r1, #3
   27cae:	f47f af49 	bne.w	27b44 <GPIOTE_IRQHandler+0x3a4>
   27cb2:	f44f 3c00 	mov.w	ip, #131072	; 0x20000
   27cb6:	f8d2 3700 	ldr.w	r3, [r2, #1792]	; 0x700
   27cba:	f423 3340 	bic.w	r3, r3, #196608	; 0x30000
   27cbe:	f8c2 3700 	str.w	r3, [r2, #1792]	; 0x700
   27cc2:	f8d2 3700 	ldr.w	r3, [r2, #1792]	; 0x700
   27cc6:	3501      	adds	r5, #1
   27cc8:	ea4c 0303 	orr.w	r3, ip, r3
   27ccc:	b2ed      	uxtb	r5, r5
   27cce:	f8c2 3700 	str.w	r3, [r2, #1792]	; 0x700
   27cd2:	e737      	b.n	27b44 <GPIOTE_IRQHandler+0x3a4>
   27cd4:	2903      	cmp	r1, #3
   27cd6:	f47f af1c 	bne.w	27b12 <GPIOTE_IRQHandler+0x372>
   27cda:	f44f 3c00 	mov.w	ip, #131072	; 0x20000
   27cde:	f8d2 3700 	ldr.w	r3, [r2, #1792]	; 0x700
   27ce2:	f423 3340 	bic.w	r3, r3, #196608	; 0x30000
   27ce6:	f8c2 3700 	str.w	r3, [r2, #1792]	; 0x700
   27cea:	f8d2 3700 	ldr.w	r3, [r2, #1792]	; 0x700
   27cee:	3501      	adds	r5, #1
   27cf0:	ea4c 0303 	orr.w	r3, ip, r3
   27cf4:	b2ed      	uxtb	r5, r5
   27cf6:	f8c2 3700 	str.w	r3, [r2, #1792]	; 0x700
   27cfa:	e70a      	b.n	27b12 <GPIOTE_IRQHandler+0x372>
   27cfc:	f44f 3c00 	mov.w	ip, #131072	; 0x20000
   27d00:	f8d2 3700 	ldr.w	r3, [r2, #1792]	; 0x700
   27d04:	f423 3340 	bic.w	r3, r3, #196608	; 0x30000
   27d08:	f8c2 3700 	str.w	r3, [r2, #1792]	; 0x700
   27d0c:	f8d2 3700 	ldr.w	r3, [r2, #1792]	; 0x700
   27d10:	3501      	adds	r5, #1
   27d12:	ea43 030c 	orr.w	r3, r3, ip
   27d16:	b2ed      	uxtb	r5, r5
   27d18:	f8c2 3700 	str.w	r3, [r2, #1792]	; 0x700
   27d1c:	f1b9 0f00 	cmp.w	r9, #0
   27d20:	f47f aec6 	bne.w	27ab0 <GPIOTE_IRQHandler+0x310>
   27d24:	e6a4      	b.n	27a70 <GPIOTE_IRQHandler+0x2d0>
   27d26:	f44f 3c40 	mov.w	ip, #196608	; 0x30000
   27d2a:	e7c4      	b.n	27cb6 <GPIOTE_IRQHandler+0x516>
   27d2c:	f44f 3c40 	mov.w	ip, #196608	; 0x30000
   27d30:	e7d5      	b.n	27cde <GPIOTE_IRQHandler+0x53e>
   27d32:	f44f 3540 	mov.w	r5, #196608	; 0x30000
   27d36:	e7ac      	b.n	27c92 <GPIOTE_IRQHandler+0x4f2>
   27d38:	40006000 	.word	0x40006000
   27d3c:	50000300 	.word	0x50000300

00027d40 <UARTE0_UART0_IRQHandler>:
   27d40:	4b01      	ldr	r3, [pc, #4]	; (27d48 <UARTE0_UART0_IRQHandler+0x8>)
   27d42:	681b      	ldr	r3, [r3, #0]
   27d44:	4718      	bx	r3
   27d46:	bf00      	nop
   27d48:	200019fc 	.word	0x200019fc

00027d4c <main>:
   27d4c:	e7fe      	b.n	27d4c <main>
   27d4e:	bf00      	nop

00027d50 <_GLOBAL__sub_I_main>:
   27d50:	4b1b      	ldr	r3, [pc, #108]	; (27dc0 <_GLOBAL__sub_I_main+0x70>)
   27d52:	681a      	ldr	r2, [r3, #0]
   27d54:	07d1      	lsls	r1, r2, #31
   27d56:	bf5c      	itt	pl
   27d58:	2201      	movpl	r2, #1
   27d5a:	601a      	strpl	r2, [r3, #0]
   27d5c:	4b19      	ldr	r3, [pc, #100]	; (27dc4 <_GLOBAL__sub_I_main+0x74>)
   27d5e:	681a      	ldr	r2, [r3, #0]
   27d60:	07d2      	lsls	r2, r2, #31
   27d62:	bf5c      	itt	pl
   27d64:	2201      	movpl	r2, #1
   27d66:	601a      	strpl	r2, [r3, #0]
   27d68:	4b17      	ldr	r3, [pc, #92]	; (27dc8 <_GLOBAL__sub_I_main+0x78>)
   27d6a:	681a      	ldr	r2, [r3, #0]
   27d6c:	07d0      	lsls	r0, r2, #31
   27d6e:	bf5c      	itt	pl
   27d70:	2201      	movpl	r2, #1
   27d72:	601a      	strpl	r2, [r3, #0]
   27d74:	4a15      	ldr	r2, [pc, #84]	; (27dcc <_GLOBAL__sub_I_main+0x7c>)
   27d76:	6813      	ldr	r3, [r2, #0]
   27d78:	f013 0301 	ands.w	r3, r3, #1
   27d7c:	d117      	bne.n	27dae <_GLOBAL__sub_I_main+0x5e>
   27d7e:	b430      	push	{r4, r5}
   27d80:	4c13      	ldr	r4, [pc, #76]	; (27dd0 <_GLOBAL__sub_I_main+0x80>)
   27d82:	4d14      	ldr	r5, [pc, #80]	; (27dd4 <_GLOBAL__sub_I_main+0x84>)
   27d84:	4914      	ldr	r1, [pc, #80]	; (27dd8 <_GLOBAL__sub_I_main+0x88>)
   27d86:	7023      	strb	r3, [r4, #0]
   27d88:	702b      	strb	r3, [r5, #0]
   27d8a:	2409      	movs	r4, #9
   27d8c:	4b13      	ldr	r3, [pc, #76]	; (27ddc <_GLOBAL__sub_I_main+0x8c>)
   27d8e:	700c      	strb	r4, [r1, #0]
   27d90:	2101      	movs	r1, #1
   27d92:	6011      	str	r1, [r2, #0]
   27d94:	681a      	ldr	r2, [r3, #0]
   27d96:	4812      	ldr	r0, [pc, #72]	; (27de0 <_GLOBAL__sub_I_main+0x90>)
   27d98:	f44f 3400 	mov.w	r4, #131072	; 0x20000
   27d9c:	07d1      	lsls	r1, r2, #31
   27d9e:	6004      	str	r4, [r0, #0]
   27da0:	d403      	bmi.n	27daa <_GLOBAL__sub_I_main+0x5a>
   27da2:	4a10      	ldr	r2, [pc, #64]	; (27de4 <_GLOBAL__sub_I_main+0x94>)
   27da4:	2101      	movs	r1, #1
   27da6:	6212      	str	r2, [r2, #32]
   27da8:	6019      	str	r1, [r3, #0]
   27daa:	bc30      	pop	{r4, r5}
   27dac:	4770      	bx	lr
   27dae:	4b0b      	ldr	r3, [pc, #44]	; (27ddc <_GLOBAL__sub_I_main+0x8c>)
   27db0:	681a      	ldr	r2, [r3, #0]
   27db2:	07d2      	lsls	r2, r2, #31
   27db4:	bf5f      	itttt	pl
   27db6:	4a0b      	ldrpl	r2, [pc, #44]	; (27de4 <_GLOBAL__sub_I_main+0x94>)
   27db8:	2101      	movpl	r1, #1
   27dba:	6212      	strpl	r2, [r2, #32]
   27dbc:	6019      	strpl	r1, [r3, #0]
   27dbe:	4770      	bx	lr
   27dc0:	20001a14 	.word	0x20001a14
   27dc4:	20001a10 	.word	0x20001a10
   27dc8:	20001a0c 	.word	0x20001a0c
   27dcc:	20001a08 	.word	0x20001a08
   27dd0:	20001a46 	.word	0x20001a46
   27dd4:	20001a44 	.word	0x20001a44
   27dd8:	20001a45 	.word	0x20001a45
   27ddc:	20001a04 	.word	0x20001a04
   27de0:	20001a40 	.word	0x20001a40
   27de4:	20001a18 	.word	0x20001a18

00027de8 <nrf_sdh_is_enabled>:
   27de8:	4b01      	ldr	r3, [pc, #4]	; (27df0 <nrf_sdh_is_enabled+0x8>)
   27dea:	7818      	ldrb	r0, [r3, #0]
   27dec:	4770      	bx	lr
   27dee:	bf00      	nop
   27df0:	20001a47 	.word	0x20001a47

00027df4 <SWI2_EGU2_IRQHandler>:
   27df4:	b500      	push	{lr}
   27df6:	b083      	sub	sp, #12
   27df8:	4908      	ldr	r1, [pc, #32]	; (27e1c <SWI2_EGU2_IRQHandler+0x28>)
   27dfa:	4668      	mov	r0, sp
   27dfc:	f7ff faee 	bl	273dc <nrf_section_iter_init>
   27e00:	9b01      	ldr	r3, [sp, #4]
   27e02:	b143      	cbz	r3, 27e16 <SWI2_EGU2_IRQHandler+0x22>
   27e04:	e9d3 2000 	ldrd	r2, r0, [r3]
   27e08:	4790      	blx	r2
   27e0a:	4668      	mov	r0, sp
   27e0c:	f7ff faf0 	bl	273f0 <nrf_section_iter_next>
   27e10:	9b01      	ldr	r3, [sp, #4]
   27e12:	2b00      	cmp	r3, #0
   27e14:	d1f6      	bne.n	27e04 <SWI2_EGU2_IRQHandler+0x10>
   27e16:	b003      	add	sp, #12
   27e18:	f85d fb04 	ldr.w	pc, [sp], #4
   27e1c:	00027f6c 	.word	0x00027f6c

00027e20 <sd_ble_evt_get>:
   27e20:	df61      	svc	97	; 0x61
   27e22:	4770      	bx	lr

00027e24 <nrf_sdh_ble_evts_poll>:
   27e24:	4b14      	ldr	r3, [pc, #80]	; (27e78 <nrf_sdh_ble_evts_poll+0x54>)
   27e26:	781b      	ldrb	r3, [r3, #0]
   27e28:	b32b      	cbz	r3, 27e76 <nrf_sdh_ble_evts_poll+0x52>
   27e2a:	b530      	push	{r4, r5, lr}
   27e2c:	4d13      	ldr	r5, [pc, #76]	; (27e7c <nrf_sdh_ble_evts_poll+0x58>)
   27e2e:	b091      	sub	sp, #68	; 0x44
   27e30:	2434      	movs	r4, #52	; 0x34
   27e32:	f10d 0102 	add.w	r1, sp, #2
   27e36:	a803      	add	r0, sp, #12
   27e38:	f8ad 4002 	strh.w	r4, [sp, #2]
   27e3c:	f7ff fff0 	bl	27e20 <sd_ble_evt_get>
   27e40:	b988      	cbnz	r0, 27e66 <nrf_sdh_ble_evts_poll+0x42>
   27e42:	4629      	mov	r1, r5
   27e44:	a801      	add	r0, sp, #4
   27e46:	f7ff fac9 	bl	273dc <nrf_section_iter_init>
   27e4a:	9b02      	ldr	r3, [sp, #8]
   27e4c:	2b00      	cmp	r3, #0
   27e4e:	d0f0      	beq.n	27e32 <nrf_sdh_ble_evts_poll+0xe>
   27e50:	e9d3 2100 	ldrd	r2, r1, [r3]
   27e54:	a803      	add	r0, sp, #12
   27e56:	4790      	blx	r2
   27e58:	a801      	add	r0, sp, #4
   27e5a:	f7ff fac9 	bl	273f0 <nrf_section_iter_next>
   27e5e:	9b02      	ldr	r3, [sp, #8]
   27e60:	2b00      	cmp	r3, #0
   27e62:	d1f5      	bne.n	27e50 <nrf_sdh_ble_evts_poll+0x2c>
   27e64:	e7e5      	b.n	27e32 <nrf_sdh_ble_evts_poll+0xe>
   27e66:	2805      	cmp	r0, #5
   27e68:	d101      	bne.n	27e6e <nrf_sdh_ble_evts_poll+0x4a>
   27e6a:	b011      	add	sp, #68	; 0x44
   27e6c:	bd30      	pop	{r4, r5, pc}
   27e6e:	f7ff fa43 	bl	272f8 <app_error_handler_bare>
   27e72:	b011      	add	sp, #68	; 0x44
   27e74:	bd30      	pop	{r4, r5, pc}
   27e76:	4770      	bx	lr
   27e78:	20001a48 	.word	0x20001a48
   27e7c:	00027f78 	.word	0x00027f78

00027e80 <sd_evt_get>:
   27e80:	df4b      	svc	75	; 0x4b
   27e82:	4770      	bx	lr

00027e84 <nrf_sdh_soc_evts_poll>:
   27e84:	b510      	push	{r4, lr}
   27e86:	4c11      	ldr	r4, [pc, #68]	; (27ecc <nrf_sdh_soc_evts_poll+0x48>)
   27e88:	b084      	sub	sp, #16
   27e8a:	a801      	add	r0, sp, #4
   27e8c:	f7ff fff8 	bl	27e80 <sd_evt_get>
   27e90:	b9a8      	cbnz	r0, 27ebe <nrf_sdh_soc_evts_poll+0x3a>
   27e92:	4621      	mov	r1, r4
   27e94:	a802      	add	r0, sp, #8
   27e96:	f7ff faa1 	bl	273dc <nrf_section_iter_init>
   27e9a:	9b03      	ldr	r3, [sp, #12]
   27e9c:	2b00      	cmp	r3, #0
   27e9e:	d0f4      	beq.n	27e8a <nrf_sdh_soc_evts_poll+0x6>
   27ea0:	e9d3 2100 	ldrd	r2, r1, [r3]
   27ea4:	9801      	ldr	r0, [sp, #4]
   27ea6:	4790      	blx	r2
   27ea8:	a802      	add	r0, sp, #8
   27eaa:	f7ff faa1 	bl	273f0 <nrf_section_iter_next>
   27eae:	9b03      	ldr	r3, [sp, #12]
   27eb0:	2b00      	cmp	r3, #0
   27eb2:	d1f5      	bne.n	27ea0 <nrf_sdh_soc_evts_poll+0x1c>
   27eb4:	a801      	add	r0, sp, #4
   27eb6:	f7ff ffe3 	bl	27e80 <sd_evt_get>
   27eba:	2800      	cmp	r0, #0
   27ebc:	d0e9      	beq.n	27e92 <nrf_sdh_soc_evts_poll+0xe>
   27ebe:	2805      	cmp	r0, #5
   27ec0:	d001      	beq.n	27ec6 <nrf_sdh_soc_evts_poll+0x42>
   27ec2:	f7ff fa19 	bl	272f8 <app_error_handler_bare>
   27ec6:	b004      	add	sp, #16
   27ec8:	bd10      	pop	{r4, pc}
   27eca:	bf00      	nop
   27ecc:	00027f84 	.word	0x00027f84

00027ed0 <exit>:
   27ed0:	b508      	push	{r3, lr}
   27ed2:	4b07      	ldr	r3, [pc, #28]	; (27ef0 <exit+0x20>)
   27ed4:	4604      	mov	r4, r0
   27ed6:	b113      	cbz	r3, 27ede <exit+0xe>
   27ed8:	2100      	movs	r1, #0
   27eda:	f3af 8000 	nop.w
   27ede:	4b05      	ldr	r3, [pc, #20]	; (27ef4 <exit+0x24>)
   27ee0:	6818      	ldr	r0, [r3, #0]
   27ee2:	6a83      	ldr	r3, [r0, #40]	; 0x28
   27ee4:	b103      	cbz	r3, 27ee8 <exit+0x18>
   27ee6:	4798      	blx	r3
   27ee8:	4620      	mov	r0, r4
   27eea:	f000 f831 	bl	27f50 <_exit>
   27eee:	bf00      	nop
   27ef0:	00000000 	.word	0x00000000
   27ef4:	00027f90 	.word	0x00027f90

00027ef8 <__libc_init_array>:
   27ef8:	b570      	push	{r4, r5, r6, lr}
   27efa:	4d0d      	ldr	r5, [pc, #52]	; (27f30 <__libc_init_array+0x38>)
   27efc:	4c0d      	ldr	r4, [pc, #52]	; (27f34 <__libc_init_array+0x3c>)
   27efe:	1b64      	subs	r4, r4, r5
   27f00:	10a4      	asrs	r4, r4, #2
   27f02:	2600      	movs	r6, #0
   27f04:	42a6      	cmp	r6, r4
   27f06:	d109      	bne.n	27f1c <__libc_init_array+0x24>
   27f08:	4d0b      	ldr	r5, [pc, #44]	; (27f38 <__libc_init_array+0x40>)
   27f0a:	4c0c      	ldr	r4, [pc, #48]	; (27f3c <__libc_init_array+0x44>)
   27f0c:	f000 f822 	bl	27f54 <_init>
   27f10:	1b64      	subs	r4, r4, r5
   27f12:	10a4      	asrs	r4, r4, #2
   27f14:	2600      	movs	r6, #0
   27f16:	42a6      	cmp	r6, r4
   27f18:	d105      	bne.n	27f26 <__libc_init_array+0x2e>
   27f1a:	bd70      	pop	{r4, r5, r6, pc}
   27f1c:	f855 3b04 	ldr.w	r3, [r5], #4
   27f20:	4798      	blx	r3
   27f22:	3601      	adds	r6, #1
   27f24:	e7ee      	b.n	27f04 <__libc_init_array+0xc>
   27f26:	f855 3b04 	ldr.w	r3, [r5], #4
   27f2a:	4798      	blx	r3
   27f2c:	3601      	adds	r6, #1
   27f2e:	e7f2      	b.n	27f16 <__libc_init_array+0x1e>
   27f30:	2000193c 	.word	0x2000193c
   27f34:	2000193c 	.word	0x2000193c
   27f38:	2000193c 	.word	0x2000193c
   27f3c:	20001944 	.word	0x20001944

00027f40 <memset>:
   27f40:	4402      	add	r2, r0
   27f42:	4603      	mov	r3, r0
   27f44:	4293      	cmp	r3, r2
   27f46:	d100      	bne.n	27f4a <memset+0xa>
   27f48:	4770      	bx	lr
   27f4a:	f803 1b01 	strb.w	r1, [r3], #1
   27f4e:	e7f9      	b.n	27f44 <memset+0x4>

00027f50 <_exit>:
   27f50:	e7fe      	b.n	27f50 <_exit>
   27f52:	bf00      	nop

00027f54 <_init>:
   27f54:	b5f8      	push	{r3, r4, r5, r6, r7, lr}
   27f56:	bf00      	nop
   27f58:	bcf8      	pop	{r3, r4, r5, r6, r7}
   27f5a:	bc08      	pop	{r3}
   27f5c:	469e      	mov	lr, r3
   27f5e:	4770      	bx	lr

00027f60 <_fini>:
   27f60:	b5f8      	push	{r3, r4, r5, r6, r7, lr}
   27f62:	bf00      	nop
   27f64:	bcf8      	pop	{r3, r4, r5, r6, r7}
   27f66:	bc08      	pop	{r3}
   27f68:	469e      	mov	lr, r3
   27f6a:	4770      	bx	lr

00027f6c <sdh_stack_observers>:
   27f6c:	7fa8 0002 7fb8 0002 0008 0000               ............

00027f78 <sdh_ble_observers>:
   27f78:	7fa0 0002 7fa0 0002 0008 0000               ............

00027f84 <sdh_soc_observers>:
   27f84:	7f98 0002 7fa0 0002 0008 0000               ............

00027f90 <_global_impure_ptr>:
   27f90:	18dc 2000                                   ... 

00027f94 <__EH_FRAME_BEGIN__>:
   27f94:	0000 0000                                   ....
